
./HEX_787:     file format elf64-x86-64


Disassembly of section .init:

0000000000402b20 <_init>:
  402b20:	48 83 ec 08          	sub    $0x8,%rsp
  402b24:	48 8b 05 cd 14 21 00 	mov    0x2114cd(%rip),%rax        # 613ff8 <_DYNAMIC+0x200>
  402b2b:	48 85 c0             	test   %rax,%rax
  402b2e:	74 05                	je     402b35 <_init+0x15>
  402b30:	e8 8b 06 00 00       	callq  4031c0 <_ZNSt8ios_base4InitD1Ev@plt+0x10>
  402b35:	48 83 c4 08          	add    $0x8,%rsp
  402b39:	c3                   	retq   

Disassembly of section .plt:

0000000000402b40 <_ZNKSt7__cxx1112basic_stringIcSt11char_traitsIcESaIcEE8capacityEv@plt-0x10>:
  402b40:	ff 35 c2 14 21 00    	pushq  0x2114c2(%rip)        # 614008 <_GLOBAL_OFFSET_TABLE_+0x8>
  402b46:	ff 25 c4 14 21 00    	jmpq   *0x2114c4(%rip)        # 614010 <_GLOBAL_OFFSET_TABLE_+0x10>
  402b4c:	0f 1f 40 00          	nopl   0x0(%rax)

0000000000402b50 <_ZNKSt7__cxx1112basic_stringIcSt11char_traitsIcESaIcEE8capacityEv@plt>:
  402b50:	ff 25 c2 14 21 00    	jmpq   *0x2114c2(%rip)        # 614018 <_GLOBAL_OFFSET_TABLE_+0x18>
  402b56:	68 00 00 00 00       	pushq  $0x0
  402b5b:	e9 e0 ff ff ff       	jmpq   402b40 <_init+0x20>

0000000000402b60 <_ZNKSt7__cxx1112basic_stringIcSt11char_traitsIcESaIcEE7compareERKS4_@plt>:
  402b60:	ff 25 ba 14 21 00    	jmpq   *0x2114ba(%rip)        # 614020 <_GLOBAL_OFFSET_TABLE_+0x20>
  402b66:	68 01 00 00 00       	pushq  $0x1
  402b6b:	e9 d0 ff ff ff       	jmpq   402b40 <_init+0x20>

0000000000402b70 <_ZNSt7__cxx1112basic_stringIcSt11char_traitsIcESaIcEEaSERKS4_@plt>:
  402b70:	ff 25 b2 14 21 00    	jmpq   *0x2114b2(%rip)        # 614028 <_GLOBAL_OFFSET_TABLE_+0x28>
  402b76:	68 02 00 00 00       	pushq  $0x2
  402b7b:	e9 c0 ff ff ff       	jmpq   402b40 <_init+0x20>

0000000000402b80 <__errno_location@plt>:
  402b80:	ff 25 aa 14 21 00    	jmpq   *0x2114aa(%rip)        # 614030 <_GLOBAL_OFFSET_TABLE_+0x30>
  402b86:	68 03 00 00 00       	pushq  $0x3
  402b8b:	e9 b0 ff ff ff       	jmpq   402b40 <_init+0x20>

0000000000402b90 <htons@plt>:
  402b90:	ff 25 a2 14 21 00    	jmpq   *0x2114a2(%rip)        # 614038 <_GLOBAL_OFFSET_TABLE_+0x38>
  402b96:	68 04 00 00 00       	pushq  $0x4
  402b9b:	e9 a0 ff ff ff       	jmpq   402b40 <_init+0x20>

0000000000402ba0 <bind@plt>:
  402ba0:	ff 25 9a 14 21 00    	jmpq   *0x21149a(%rip)        # 614040 <_GLOBAL_OFFSET_TABLE_+0x40>
  402ba6:	68 05 00 00 00       	pushq  $0x5
  402bab:	e9 90 ff ff ff       	jmpq   402b40 <_init+0x20>

0000000000402bb0 <_ZSt29_Rb_tree_insert_and_rebalancebPSt18_Rb_tree_node_baseS0_RS_@plt>:
  402bb0:	ff 25 92 14 21 00    	jmpq   *0x211492(%rip)        # 614048 <_GLOBAL_OFFSET_TABLE_+0x48>
  402bb6:	68 06 00 00 00       	pushq  $0x6
  402bbb:	e9 80 ff ff ff       	jmpq   402b40 <_init+0x20>

0000000000402bc0 <_ZNSaIcED2Ev@plt>:
  402bc0:	ff 25 8a 14 21 00    	jmpq   *0x21148a(%rip)        # 614050 <_GLOBAL_OFFSET_TABLE_+0x50>
  402bc6:	68 07 00 00 00       	pushq  $0x7
  402bcb:	e9 70 ff ff ff       	jmpq   402b40 <_init+0x20>

0000000000402bd0 <sprintf@plt>:
  402bd0:	ff 25 82 14 21 00    	jmpq   *0x211482(%rip)        # 614058 <_GLOBAL_OFFSET_TABLE_+0x58>
  402bd6:	68 08 00 00 00       	pushq  $0x8
  402bdb:	e9 60 ff ff ff       	jmpq   402b40 <_init+0x20>

0000000000402be0 <_ZSt7getlineIcSt11char_traitsIcESaIcEERSt13basic_istreamIT_T0_ES7_RNSt7__cxx1112basic_stringIS4_S5_T1_EE@plt>:
  402be0:	ff 25 7a 14 21 00    	jmpq   *0x21147a(%rip)        # 614060 <_GLOBAL_OFFSET_TABLE_+0x60>
  402be6:	68 09 00 00 00       	pushq  $0x9
  402beb:	e9 50 ff ff ff       	jmpq   402b40 <_init+0x20>

0000000000402bf0 <socket@plt>:
  402bf0:	ff 25 72 14 21 00    	jmpq   *0x211472(%rip)        # 614068 <_GLOBAL_OFFSET_TABLE_+0x68>
  402bf6:	68 0a 00 00 00       	pushq  $0xa
  402bfb:	e9 40 ff ff ff       	jmpq   402b40 <_init+0x20>

0000000000402c00 <rand@plt>:
  402c00:	ff 25 6a 14 21 00    	jmpq   *0x21146a(%rip)        # 614070 <_GLOBAL_OFFSET_TABLE_+0x70>
  402c06:	68 0b 00 00 00       	pushq  $0xb
  402c0b:	e9 30 ff ff ff       	jmpq   402b40 <_init+0x20>

0000000000402c10 <_ZSt9terminatev@plt>:
  402c10:	ff 25 62 14 21 00    	jmpq   *0x211462(%rip)        # 614078 <_GLOBAL_OFFSET_TABLE_+0x78>
  402c16:	68 0c 00 00 00       	pushq  $0xc
  402c1b:	e9 20 ff ff ff       	jmpq   402b40 <_init+0x20>

0000000000402c20 <_ZNKSt7__cxx1112basic_stringIcSt11char_traitsIcESaIcEE7compareEPKc@plt>:
  402c20:	ff 25 5a 14 21 00    	jmpq   *0x21145a(%rip)        # 614080 <_GLOBAL_OFFSET_TABLE_+0x80>
  402c26:	68 0d 00 00 00       	pushq  $0xd
  402c2b:	e9 10 ff ff ff       	jmpq   402b40 <_init+0x20>

0000000000402c30 <_ZNSt7__cxx1112basic_stringIcSt11char_traitsIcESaIcEE13_S_copy_charsEPcS5_S5_@plt>:
  402c30:	ff 25 52 14 21 00    	jmpq   *0x211452(%rip)        # 614088 <_GLOBAL_OFFSET_TABLE_+0x88>
  402c36:	68 0e 00 00 00       	pushq  $0xe
  402c3b:	e9 00 ff ff ff       	jmpq   402b40 <_init+0x20>

0000000000402c40 <accept@plt>:
  402c40:	ff 25 4a 14 21 00    	jmpq   *0x21144a(%rip)        # 614090 <_GLOBAL_OFFSET_TABLE_+0x90>
  402c46:	68 0f 00 00 00       	pushq  $0xf
  402c4b:	e9 f0 fe ff ff       	jmpq   402b40 <_init+0x20>

0000000000402c50 <recv@plt>:
  402c50:	ff 25 42 14 21 00    	jmpq   *0x211442(%rip)        # 614098 <_GLOBAL_OFFSET_TABLE_+0x98>
  402c56:	68 10 00 00 00       	pushq  $0x10
  402c5b:	e9 e0 fe ff ff       	jmpq   402b40 <_init+0x20>

0000000000402c60 <strerror@plt>:
  402c60:	ff 25 3a 14 21 00    	jmpq   *0x21143a(%rip)        # 6140a0 <_GLOBAL_OFFSET_TABLE_+0xa0>
  402c66:	68 11 00 00 00       	pushq  $0x11
  402c6b:	e9 d0 fe ff ff       	jmpq   402b40 <_init+0x20>

0000000000402c70 <_ZSt17__throw_bad_allocv@plt>:
  402c70:	ff 25 32 14 21 00    	jmpq   *0x211432(%rip)        # 6140a8 <_GLOBAL_OFFSET_TABLE_+0xa8>
  402c76:	68 12 00 00 00       	pushq  $0x12
  402c7b:	e9 c0 fe ff ff       	jmpq   402b40 <_init+0x20>

0000000000402c80 <_ZSt25__throw_bad_function_callv@plt>:
  402c80:	ff 25 2a 14 21 00    	jmpq   *0x21142a(%rip)        # 6140b0 <_GLOBAL_OFFSET_TABLE_+0xb0>
  402c86:	68 13 00 00 00       	pushq  $0x13
  402c8b:	e9 b0 fe ff ff       	jmpq   402b40 <_init+0x20>

0000000000402c90 <__cxa_begin_catch@plt>:
  402c90:	ff 25 22 14 21 00    	jmpq   *0x211422(%rip)        # 6140b8 <_GLOBAL_OFFSET_TABLE_+0xb8>
  402c96:	68 14 00 00 00       	pushq  $0x14
  402c9b:	e9 a0 fe ff ff       	jmpq   402b40 <_init+0x20>

0000000000402ca0 <_ZNKSt7__cxx1112basic_stringIcSt11char_traitsIcESaIcEE5c_strEv@plt>:
  402ca0:	ff 25 1a 14 21 00    	jmpq   *0x21141a(%rip)        # 6140c0 <_GLOBAL_OFFSET_TABLE_+0xc0>
  402ca6:	68 15 00 00 00       	pushq  $0x15
  402cab:	e9 90 fe ff ff       	jmpq   402b40 <_init+0x20>

0000000000402cb0 <_ZNSt13runtime_errorC1ERKS_@plt>:
  402cb0:	ff 25 12 14 21 00    	jmpq   *0x211412(%rip)        # 6140c8 <_GLOBAL_OFFSET_TABLE_+0xc8>
  402cb6:	68 16 00 00 00       	pushq  $0x16
  402cbb:	e9 80 fe ff ff       	jmpq   402b40 <_init+0x20>

0000000000402cc0 <_ZNSt7__cxx1112basic_stringIcSt11char_traitsIcESaIcEEC1ERKS4_@plt>:
  402cc0:	ff 25 0a 14 21 00    	jmpq   *0x21140a(%rip)        # 6140d0 <_GLOBAL_OFFSET_TABLE_+0xd0>
  402cc6:	68 17 00 00 00       	pushq  $0x17
  402ccb:	e9 70 fe ff ff       	jmpq   402b40 <_init+0x20>

0000000000402cd0 <_ZNSt6thread6_StateD2Ev@plt>:
  402cd0:	ff 25 02 14 21 00    	jmpq   *0x211402(%rip)        # 6140d8 <_GLOBAL_OFFSET_TABLE_+0xd8>
  402cd6:	68 18 00 00 00       	pushq  $0x18
  402cdb:	e9 60 fe ff ff       	jmpq   402b40 <_init+0x20>

0000000000402ce0 <__cxa_allocate_exception@plt>:
  402ce0:	ff 25 fa 13 21 00    	jmpq   *0x2113fa(%rip)        # 6140e0 <_GLOBAL_OFFSET_TABLE_+0xe0>
  402ce6:	68 19 00 00 00       	pushq  $0x19
  402ceb:	e9 50 fe ff ff       	jmpq   402b40 <_init+0x20>

0000000000402cf0 <send@plt>:
  402cf0:	ff 25 f2 13 21 00    	jmpq   *0x2113f2(%rip)        # 6140e8 <_GLOBAL_OFFSET_TABLE_+0xe8>
  402cf6:	68 1a 00 00 00       	pushq  $0x1a
  402cfb:	e9 40 fe ff ff       	jmpq   402b40 <_init+0x20>

0000000000402d00 <_ZSt20__throw_length_errorPKc@plt>:
  402d00:	ff 25 ea 13 21 00    	jmpq   *0x2113ea(%rip)        # 6140f0 <_GLOBAL_OFFSET_TABLE_+0xf0>
  402d06:	68 1b 00 00 00       	pushq  $0x1b
  402d0b:	e9 30 fe ff ff       	jmpq   402b40 <_init+0x20>

0000000000402d10 <pthread_create@plt>:
  402d10:	ff 25 e2 13 21 00    	jmpq   *0x2113e2(%rip)        # 6140f8 <_GLOBAL_OFFSET_TABLE_+0xf8>
  402d16:	68 1c 00 00 00       	pushq  $0x1c
  402d1b:	e9 20 fe ff ff       	jmpq   402b40 <_init+0x20>

0000000000402d20 <_ZNSt7__cxx1112basic_stringIcSt11char_traitsIcESaIcEEC1EOS4_@plt>:
  402d20:	ff 25 da 13 21 00    	jmpq   *0x2113da(%rip)        # 614100 <_GLOBAL_OFFSET_TABLE_+0x100>
  402d26:	68 1d 00 00 00       	pushq  $0x1d
  402d2b:	e9 10 fe ff ff       	jmpq   402b40 <_init+0x20>

0000000000402d30 <_ZNSt7__cxx1112basic_stringIcSt11char_traitsIcESaIcEED1Ev@plt>:
  402d30:	ff 25 d2 13 21 00    	jmpq   *0x2113d2(%rip)        # 614108 <_GLOBAL_OFFSET_TABLE_+0x108>
  402d36:	68 1e 00 00 00       	pushq  $0x1e
  402d3b:	e9 00 fe ff ff       	jmpq   402b40 <_init+0x20>

0000000000402d40 <vsnprintf@plt>:
  402d40:	ff 25 ca 13 21 00    	jmpq   *0x2113ca(%rip)        # 614110 <_GLOBAL_OFFSET_TABLE_+0x110>
  402d46:	68 1f 00 00 00       	pushq  $0x1f
  402d4b:	e9 f0 fd ff ff       	jmpq   402b40 <_init+0x20>

0000000000402d50 <_ZSt20__throw_system_errori@plt>:
  402d50:	ff 25 c2 13 21 00    	jmpq   *0x2113c2(%rip)        # 614118 <_GLOBAL_OFFSET_TABLE_+0x118>
  402d56:	68 20 00 00 00       	pushq  $0x20
  402d5b:	e9 e0 fd ff ff       	jmpq   402b40 <_init+0x20>

0000000000402d60 <_ZNSt7__cxx1112basic_stringIcSt11char_traitsIcESaIcEE13_M_set_lengthEm@plt>:
  402d60:	ff 25 ba 13 21 00    	jmpq   *0x2113ba(%rip)        # 614120 <_GLOBAL_OFFSET_TABLE_+0x120>
  402d66:	68 21 00 00 00       	pushq  $0x21
  402d6b:	e9 d0 fd ff ff       	jmpq   402b40 <_init+0x20>

0000000000402d70 <_ZSt18_Rb_tree_incrementPSt18_Rb_tree_node_base@plt>:
  402d70:	ff 25 b2 13 21 00    	jmpq   *0x2113b2(%rip)        # 614128 <_GLOBAL_OFFSET_TABLE_+0x128>
  402d76:	68 22 00 00 00       	pushq  $0x22
  402d7b:	e9 c0 fd ff ff       	jmpq   402b40 <_init+0x20>

0000000000402d80 <_ZNKSt7__cxx1112basic_stringIcSt11char_traitsIcESaIcEE4sizeEv@plt>:
  402d80:	ff 25 aa 13 21 00    	jmpq   *0x2113aa(%rip)        # 614130 <_GLOBAL_OFFSET_TABLE_+0x130>
  402d86:	68 23 00 00 00       	pushq  $0x23
  402d8b:	e9 b0 fd ff ff       	jmpq   402b40 <_init+0x20>

0000000000402d90 <_ZSt19__throw_logic_errorPKc@plt>:
  402d90:	ff 25 a2 13 21 00    	jmpq   *0x2113a2(%rip)        # 614138 <_GLOBAL_OFFSET_TABLE_+0x138>
  402d96:	68 24 00 00 00       	pushq  $0x24
  402d9b:	e9 a0 fd ff ff       	jmpq   402b40 <_init+0x20>

0000000000402da0 <sscanf@plt>:
  402da0:	ff 25 9a 13 21 00    	jmpq   *0x21139a(%rip)        # 614140 <_GLOBAL_OFFSET_TABLE_+0x140>
  402da6:	68 25 00 00 00       	pushq  $0x25
  402dab:	e9 90 fd ff ff       	jmpq   402b40 <_init+0x20>

0000000000402db0 <__cxa_free_exception@plt>:
  402db0:	ff 25 92 13 21 00    	jmpq   *0x211392(%rip)        # 614148 <_GLOBAL_OFFSET_TABLE_+0x148>
  402db6:	68 26 00 00 00       	pushq  $0x26
  402dbb:	e9 80 fd ff ff       	jmpq   402b40 <_init+0x20>

0000000000402dc0 <_ZNSt7__cxx1118basic_stringstreamIcSt11char_traitsIcESaIcEED1Ev@plt>:
  402dc0:	ff 25 8a 13 21 00    	jmpq   *0x21138a(%rip)        # 614150 <_GLOBAL_OFFSET_TABLE_+0x150>
  402dc6:	68 27 00 00 00       	pushq  $0x27
  402dcb:	e9 70 fd ff ff       	jmpq   402b40 <_init+0x20>

0000000000402dd0 <pthread_mutex_unlock@plt>:
  402dd0:	ff 25 82 13 21 00    	jmpq   *0x211382(%rip)        # 614158 <_GLOBAL_OFFSET_TABLE_+0x158>
  402dd6:	68 28 00 00 00       	pushq  $0x28
  402ddb:	e9 60 fd ff ff       	jmpq   402b40 <_init+0x20>

0000000000402de0 <_ZNSt7__cxx1118basic_stringstreamIcSt11char_traitsIcESaIcEEC1ESt13_Ios_Openmode@plt>:
  402de0:	ff 25 7a 13 21 00    	jmpq   *0x21137a(%rip)        # 614160 <_GLOBAL_OFFSET_TABLE_+0x160>
  402de6:	68 29 00 00 00       	pushq  $0x29
  402deb:	e9 50 fd ff ff       	jmpq   402b40 <_init+0x20>

0000000000402df0 <_ZNSt7__cxx1112basic_stringIcSt11char_traitsIcESaIcEE13_M_local_dataEv@plt>:
  402df0:	ff 25 72 13 21 00    	jmpq   *0x211372(%rip)        # 614168 <_GLOBAL_OFFSET_TABLE_+0x168>
  402df6:	68 2a 00 00 00       	pushq  $0x2a
  402dfb:	e9 40 fd ff ff       	jmpq   402b40 <_init+0x20>

0000000000402e00 <connect@plt>:
  402e00:	ff 25 6a 13 21 00    	jmpq   *0x21136a(%rip)        # 614170 <_GLOBAL_OFFSET_TABLE_+0x170>
  402e06:	68 2b 00 00 00       	pushq  $0x2b
  402e0b:	e9 30 fd ff ff       	jmpq   402b40 <_init+0x20>

0000000000402e10 <_ZNSt7__cxx1112basic_stringIcSt11char_traitsIcESaIcEE7_M_dataEPc@plt>:
  402e10:	ff 25 62 13 21 00    	jmpq   *0x211362(%rip)        # 614178 <_GLOBAL_OFFSET_TABLE_+0x178>
  402e16:	68 2c 00 00 00       	pushq  $0x2c
  402e1b:	e9 20 fd ff ff       	jmpq   402b40 <_init+0x20>

0000000000402e20 <_ZNSt7__cxx1112basic_stringIcSt11char_traitsIcESaIcEE9push_backEc@plt>:
  402e20:	ff 25 5a 13 21 00    	jmpq   *0x21135a(%rip)        # 614180 <_GLOBAL_OFFSET_TABLE_+0x180>
  402e26:	68 2d 00 00 00       	pushq  $0x2d
  402e2b:	e9 10 fd ff ff       	jmpq   402b40 <_init+0x20>

0000000000402e30 <__cxa_atexit@plt>:
  402e30:	ff 25 52 13 21 00    	jmpq   *0x211352(%rip)        # 614188 <_GLOBAL_OFFSET_TABLE_+0x188>
  402e36:	68 2e 00 00 00       	pushq  $0x2e
  402e3b:	e9 00 fd ff ff       	jmpq   402b40 <_init+0x20>

0000000000402e40 <_ZStlsIcSt11char_traitsIcESaIcEERSt13basic_ostreamIT_T0_ES7_RKNSt7__cxx1112basic_stringIS4_S5_T1_EE@plt>:
  402e40:	ff 25 4a 13 21 00    	jmpq   *0x21134a(%rip)        # 614190 <_GLOBAL_OFFSET_TABLE_+0x190>
  402e46:	68 2f 00 00 00       	pushq  $0x2f
  402e4b:	e9 f0 fc ff ff       	jmpq   402b40 <_init+0x20>

0000000000402e50 <pthread_self@plt>:
  402e50:	ff 25 42 13 21 00    	jmpq   *0x211342(%rip)        # 614198 <_GLOBAL_OFFSET_TABLE_+0x198>
  402e56:	68 30 00 00 00       	pushq  $0x30
  402e5b:	e9 e0 fc ff ff       	jmpq   402b40 <_init+0x20>

0000000000402e60 <_ZNSt6thread15_M_start_threadESt10unique_ptrINS_6_StateESt14default_deleteIS1_EEPFvvE@plt>:
  402e60:	ff 25 3a 13 21 00    	jmpq   *0x21133a(%rip)        # 6141a0 <_GLOBAL_OFFSET_TABLE_+0x1a0>
  402e66:	68 31 00 00 00       	pushq  $0x31
  402e6b:	e9 d0 fc ff ff       	jmpq   402b40 <_init+0x20>

0000000000402e70 <time@plt>:
  402e70:	ff 25 32 13 21 00    	jmpq   *0x211332(%rip)        # 6141a8 <_GLOBAL_OFFSET_TABLE_+0x1a8>
  402e76:	68 32 00 00 00       	pushq  $0x32
  402e7b:	e9 c0 fc ff ff       	jmpq   402b40 <_init+0x20>

0000000000402e80 <_ZdlPv@plt>:
  402e80:	ff 25 2a 13 21 00    	jmpq   *0x21132a(%rip)        # 6141b0 <_GLOBAL_OFFSET_TABLE_+0x1b0>
  402e86:	68 33 00 00 00       	pushq  $0x33
  402e8b:	e9 b0 fc ff ff       	jmpq   402b40 <_init+0x20>

0000000000402e90 <srand@plt>:
  402e90:	ff 25 22 13 21 00    	jmpq   *0x211322(%rip)        # 6141b8 <_GLOBAL_OFFSET_TABLE_+0x1b8>
  402e96:	68 34 00 00 00       	pushq  $0x34
  402e9b:	e9 a0 fc ff ff       	jmpq   402b40 <_init+0x20>

0000000000402ea0 <_ZNKSt7__cxx1118basic_stringstreamIcSt11char_traitsIcESaIcEE3strEv@plt>:
  402ea0:	ff 25 1a 13 21 00    	jmpq   *0x21131a(%rip)        # 6141c0 <_GLOBAL_OFFSET_TABLE_+0x1c0>
  402ea6:	68 35 00 00 00       	pushq  $0x35
  402eab:	e9 90 fc ff ff       	jmpq   402b40 <_init+0x20>

0000000000402eb0 <_Znwm@plt>:
  402eb0:	ff 25 12 13 21 00    	jmpq   *0x211312(%rip)        # 6141c8 <_GLOBAL_OFFSET_TABLE_+0x1c8>
  402eb6:	68 36 00 00 00       	pushq  $0x36
  402ebb:	e9 80 fc ff ff       	jmpq   402b40 <_init+0x20>

0000000000402ec0 <inet_addr@plt>:
  402ec0:	ff 25 0a 13 21 00    	jmpq   *0x21130a(%rip)        # 6141d0 <_GLOBAL_OFFSET_TABLE_+0x1d0>
  402ec6:	68 37 00 00 00       	pushq  $0x37
  402ecb:	e9 70 fc ff ff       	jmpq   402b40 <_init+0x20>

0000000000402ed0 <_ZdlPvm@plt>:
  402ed0:	ff 25 02 13 21 00    	jmpq   *0x211302(%rip)        # 6141d8 <_GLOBAL_OFFSET_TABLE_+0x1d8>
  402ed6:	68 38 00 00 00       	pushq  $0x38
  402edb:	e9 60 fc ff ff       	jmpq   402b40 <_init+0x20>

0000000000402ee0 <_ZNSt13runtime_errorD1Ev@plt>:
  402ee0:	ff 25 fa 12 21 00    	jmpq   *0x2112fa(%rip)        # 6141e0 <_GLOBAL_OFFSET_TABLE_+0x1e0>
  402ee6:	68 39 00 00 00       	pushq  $0x39
  402eeb:	e9 50 fc ff ff       	jmpq   402b40 <_init+0x20>

0000000000402ef0 <_ZNKSt7__cxx1112basic_stringIcSt11char_traitsIcESaIcEE6substrEmm@plt>:
  402ef0:	ff 25 f2 12 21 00    	jmpq   *0x2112f2(%rip)        # 6141e8 <_GLOBAL_OFFSET_TABLE_+0x1e8>
  402ef6:	68 3a 00 00 00       	pushq  $0x3a
  402efb:	e9 40 fc ff ff       	jmpq   402b40 <_init+0x20>

0000000000402f00 <_ZSt18_Rb_tree_decrementPSt18_Rb_tree_node_base@plt>:
  402f00:	ff 25 ea 12 21 00    	jmpq   *0x2112ea(%rip)        # 6141f0 <_GLOBAL_OFFSET_TABLE_+0x1f0>
  402f06:	68 3b 00 00 00       	pushq  $0x3b
  402f0b:	e9 30 fc ff ff       	jmpq   402b40 <_init+0x20>

0000000000402f10 <_ZNSt7__cxx1112basic_stringIcSt11char_traitsIcESaIcEE12_Alloc_hiderC1EPcRKS3_@plt>:
  402f10:	ff 25 e2 12 21 00    	jmpq   *0x2112e2(%rip)        # 6141f8 <_GLOBAL_OFFSET_TABLE_+0x1f8>
  402f16:	68 3c 00 00 00       	pushq  $0x3c
  402f1b:	e9 20 fc ff ff       	jmpq   402b40 <_init+0x20>

0000000000402f20 <_ZNSaIcED1Ev@plt>:
  402f20:	ff 25 da 12 21 00    	jmpq   *0x2112da(%rip)        # 614200 <_GLOBAL_OFFSET_TABLE_+0x200>
  402f26:	68 3d 00 00 00       	pushq  $0x3d
  402f2b:	e9 10 fc ff ff       	jmpq   402b40 <_init+0x20>

0000000000402f30 <_ZNKSt7__cxx1112basic_stringIcSt11char_traitsIcESaIcEE7_M_dataEv@plt>:
  402f30:	ff 25 d2 12 21 00    	jmpq   *0x2112d2(%rip)        # 614208 <_GLOBAL_OFFSET_TABLE_+0x208>
  402f36:	68 3e 00 00 00       	pushq  $0x3e
  402f3b:	e9 00 fc ff ff       	jmpq   402b40 <_init+0x20>

0000000000402f40 <__stack_chk_fail@plt>:
  402f40:	ff 25 ca 12 21 00    	jmpq   *0x2112ca(%rip)        # 614210 <_GLOBAL_OFFSET_TABLE_+0x210>
  402f46:	68 3f 00 00 00       	pushq  $0x3f
  402f4b:	e9 f0 fb ff ff       	jmpq   402b40 <_init+0x20>

0000000000402f50 <listen@plt>:
  402f50:	ff 25 c2 12 21 00    	jmpq   *0x2112c2(%rip)        # 614218 <_GLOBAL_OFFSET_TABLE_+0x218>
  402f56:	68 40 00 00 00       	pushq  $0x40
  402f5b:	e9 e0 fb ff ff       	jmpq   402b40 <_init+0x20>

0000000000402f60 <_ZNSt7__cxx1112basic_stringIcSt11char_traitsIcESaIcEEaSEOS4_@plt>:
  402f60:	ff 25 ba 12 21 00    	jmpq   *0x2112ba(%rip)        # 614220 <_GLOBAL_OFFSET_TABLE_+0x220>
  402f66:	68 41 00 00 00       	pushq  $0x41
  402f6b:	e9 d0 fb ff ff       	jmpq   402b40 <_init+0x20>

0000000000402f70 <_ZNSt7__cxx1112basic_stringIcSt11char_traitsIcESaIcEE10_M_disposeEv@plt>:
  402f70:	ff 25 b2 12 21 00    	jmpq   *0x2112b2(%rip)        # 614228 <_GLOBAL_OFFSET_TABLE_+0x228>
  402f76:	68 42 00 00 00       	pushq  $0x42
  402f7b:	e9 c0 fb ff ff       	jmpq   402b40 <_init+0x20>

0000000000402f80 <__cxa_get_exception_ptr@plt>:
  402f80:	ff 25 aa 12 21 00    	jmpq   *0x2112aa(%rip)        # 614230 <_GLOBAL_OFFSET_TABLE_+0x230>
  402f86:	68 43 00 00 00       	pushq  $0x43
  402f8b:	e9 b0 fb ff ff       	jmpq   402b40 <_init+0x20>

0000000000402f90 <_ZNKSt7__cxx1112basic_stringIcSt11char_traitsIcESaIcEE4findEcm@plt>:
  402f90:	ff 25 a2 12 21 00    	jmpq   *0x2112a2(%rip)        # 614238 <_GLOBAL_OFFSET_TABLE_+0x238>
  402f96:	68 44 00 00 00       	pushq  $0x44
  402f9b:	e9 a0 fb ff ff       	jmpq   402b40 <_init+0x20>

0000000000402fa0 <_ZNSt7__cxx1112basic_stringIcSt11char_traitsIcESaIcEE5clearEv@plt>:
  402fa0:	ff 25 9a 12 21 00    	jmpq   *0x21129a(%rip)        # 614240 <_GLOBAL_OFFSET_TABLE_+0x240>
  402fa6:	68 45 00 00 00       	pushq  $0x45
  402fab:	e9 90 fb ff ff       	jmpq   402b40 <_init+0x20>

0000000000402fb0 <_ZNSo5writeEPKcl@plt>:
  402fb0:	ff 25 92 12 21 00    	jmpq   *0x211292(%rip)        # 614248 <_GLOBAL_OFFSET_TABLE_+0x248>
  402fb6:	68 46 00 00 00       	pushq  $0x46
  402fbb:	e9 80 fb ff ff       	jmpq   402b40 <_init+0x20>

0000000000402fc0 <_ZNSt7__cxx1112basic_stringIcSt11char_traitsIcESaIcEEC1EPKcRKS3_@plt>:
  402fc0:	ff 25 8a 12 21 00    	jmpq   *0x21128a(%rip)        # 614250 <_GLOBAL_OFFSET_TABLE_+0x250>
  402fc6:	68 47 00 00 00       	pushq  $0x47
  402fcb:	e9 70 fb ff ff       	jmpq   402b40 <_init+0x20>

0000000000402fd0 <_ZNSt7__cxx1112basic_stringIcSt11char_traitsIcESaIcEEC1Ev@plt>:
  402fd0:	ff 25 82 12 21 00    	jmpq   *0x211282(%rip)        # 614258 <_GLOBAL_OFFSET_TABLE_+0x258>
  402fd6:	68 48 00 00 00       	pushq  $0x48
  402fdb:	e9 60 fb ff ff       	jmpq   402b40 <_init+0x20>

0000000000402fe0 <__cxa_rethrow@plt>:
  402fe0:	ff 25 7a 12 21 00    	jmpq   *0x21127a(%rip)        # 614260 <_GLOBAL_OFFSET_TABLE_+0x260>
  402fe6:	68 49 00 00 00       	pushq  $0x49
  402feb:	e9 50 fb ff ff       	jmpq   402b40 <_init+0x20>

0000000000402ff0 <pthread_mutex_lock@plt>:
  402ff0:	ff 25 72 12 21 00    	jmpq   *0x211272(%rip)        # 614268 <_GLOBAL_OFFSET_TABLE_+0x268>
  402ff6:	68 4a 00 00 00       	pushq  $0x4a
  402ffb:	e9 40 fb ff ff       	jmpq   402b40 <_init+0x20>

0000000000403000 <_ZNKSt7__cxx1112basic_stringIcSt11char_traitsIcESaIcEE6lengthEv@plt>:
  403000:	ff 25 6a 12 21 00    	jmpq   *0x21126a(%rip)        # 614270 <_GLOBAL_OFFSET_TABLE_+0x270>
  403006:	68 4b 00 00 00       	pushq  $0x4b
  40300b:	e9 30 fb ff ff       	jmpq   402b40 <_init+0x20>

0000000000403010 <_ZNSt8ios_base4InitC1Ev@plt>:
  403010:	ff 25 62 12 21 00    	jmpq   *0x211262(%rip)        # 614278 <_GLOBAL_OFFSET_TABLE_+0x278>
  403016:	68 4c 00 00 00       	pushq  $0x4c
  40301b:	e9 20 fb ff ff       	jmpq   402b40 <_init+0x20>

0000000000403020 <puts@plt>:
  403020:	ff 25 5a 12 21 00    	jmpq   *0x21125a(%rip)        # 614280 <_GLOBAL_OFFSET_TABLE_+0x280>
  403026:	68 4d 00 00 00       	pushq  $0x4d
  40302b:	e9 10 fb ff ff       	jmpq   402b40 <_init+0x20>

0000000000403030 <atoi@plt>:
  403030:	ff 25 52 12 21 00    	jmpq   *0x211252(%rip)        # 614288 <_GLOBAL_OFFSET_TABLE_+0x288>
  403036:	68 4e 00 00 00       	pushq  $0x4e
  40303b:	e9 00 fb ff ff       	jmpq   402b40 <_init+0x20>

0000000000403040 <_ZNSt7__cxx1112basic_stringIcSt11char_traitsIcESaIcEE6insertEmRKS4_@plt>:
  403040:	ff 25 4a 12 21 00    	jmpq   *0x21124a(%rip)        # 614290 <_GLOBAL_OFFSET_TABLE_+0x290>
  403046:	68 4f 00 00 00       	pushq  $0x4f
  40304b:	e9 f0 fa ff ff       	jmpq   402b40 <_init+0x20>

0000000000403050 <_ZNSt13runtime_errorC1ERKNSt7__cxx1112basic_stringIcSt11char_traitsIcESaIcEEE@plt>:
  403050:	ff 25 42 12 21 00    	jmpq   *0x211242(%rip)        # 614298 <_GLOBAL_OFFSET_TABLE_+0x298>
  403056:	68 50 00 00 00       	pushq  $0x50
  40305b:	e9 e0 fa ff ff       	jmpq   402b40 <_init+0x20>

0000000000403060 <memmove@plt>:
  403060:	ff 25 3a 12 21 00    	jmpq   *0x21123a(%rip)        # 6142a0 <_GLOBAL_OFFSET_TABLE_+0x2a0>
  403066:	68 51 00 00 00       	pushq  $0x51
  40306b:	e9 d0 fa ff ff       	jmpq   402b40 <_init+0x20>

0000000000403070 <__cxa_end_catch@plt>:
  403070:	ff 25 32 12 21 00    	jmpq   *0x211232(%rip)        # 6142a8 <_GLOBAL_OFFSET_TABLE_+0x2a8>
  403076:	68 52 00 00 00       	pushq  $0x52
  40307b:	e9 c0 fa ff ff       	jmpq   402b40 <_init+0x20>

0000000000403080 <__gxx_personality_v0@plt>:
  403080:	ff 25 2a 12 21 00    	jmpq   *0x21122a(%rip)        # 6142b0 <_GLOBAL_OFFSET_TABLE_+0x2b0>
  403086:	68 53 00 00 00       	pushq  $0x53
  40308b:	e9 b0 fa ff ff       	jmpq   402b40 <_init+0x20>

0000000000403090 <__pthread_key_create@plt>:
  403090:	ff 25 22 12 21 00    	jmpq   *0x211222(%rip)        # 6142b8 <_GLOBAL_OFFSET_TABLE_+0x2b8>
  403096:	68 54 00 00 00       	pushq  $0x54
  40309b:	e9 a0 fa ff ff       	jmpq   402b40 <_init+0x20>

00000000004030a0 <_ZNKSt7__cxx1112basic_stringIcSt11char_traitsIcESaIcEE5emptyEv@plt>:
  4030a0:	ff 25 1a 12 21 00    	jmpq   *0x21121a(%rip)        # 6142c0 <_GLOBAL_OFFSET_TABLE_+0x2c0>
  4030a6:	68 55 00 00 00       	pushq  $0x55
  4030ab:	e9 90 fa ff ff       	jmpq   402b40 <_init+0x20>

00000000004030b0 <_ZNSt9basic_iosIcSt11char_traitsIcEE5clearESt12_Ios_Iostate@plt>:
  4030b0:	ff 25 12 12 21 00    	jmpq   *0x211212(%rip)        # 6142c8 <_GLOBAL_OFFSET_TABLE_+0x2c8>
  4030b6:	68 56 00 00 00       	pushq  $0x56
  4030bb:	e9 80 fa ff ff       	jmpq   402b40 <_init+0x20>

00000000004030c0 <_ZNSt6thread4joinEv@plt>:
  4030c0:	ff 25 0a 12 21 00    	jmpq   *0x21120a(%rip)        # 6142d0 <_GLOBAL_OFFSET_TABLE_+0x2d0>
  4030c6:	68 57 00 00 00       	pushq  $0x57
  4030cb:	e9 70 fa ff ff       	jmpq   402b40 <_init+0x20>

00000000004030d0 <__cxa_throw@plt>:
  4030d0:	ff 25 02 12 21 00    	jmpq   *0x211202(%rip)        # 6142d8 <_GLOBAL_OFFSET_TABLE_+0x2d8>
  4030d6:	68 58 00 00 00       	pushq  $0x58
  4030db:	e9 60 fa ff ff       	jmpq   402b40 <_init+0x20>

00000000004030e0 <_ZNSi5tellgEv@plt>:
  4030e0:	ff 25 fa 11 21 00    	jmpq   *0x2111fa(%rip)        # 6142e0 <_GLOBAL_OFFSET_TABLE_+0x2e0>
  4030e6:	68 59 00 00 00       	pushq  $0x59
  4030eb:	e9 50 fa ff ff       	jmpq   402b40 <_init+0x20>

00000000004030f0 <_Unwind_Resume@plt>:
  4030f0:	ff 25 f2 11 21 00    	jmpq   *0x2111f2(%rip)        # 6142e8 <_GLOBAL_OFFSET_TABLE_+0x2e8>
  4030f6:	68 5a 00 00 00       	pushq  $0x5a
  4030fb:	e9 40 fa ff ff       	jmpq   402b40 <_init+0x20>

0000000000403100 <_ZNSaIcEC1Ev@plt>:
  403100:	ff 25 ea 11 21 00    	jmpq   *0x2111ea(%rip)        # 6142f0 <_GLOBAL_OFFSET_TABLE_+0x2f0>
  403106:	68 5b 00 00 00       	pushq  $0x5b
  40310b:	e9 30 fa ff ff       	jmpq   402b40 <_init+0x20>

0000000000403110 <setsockopt@plt>:
  403110:	ff 25 e2 11 21 00    	jmpq   *0x2111e2(%rip)        # 6142f8 <_GLOBAL_OFFSET_TABLE_+0x2f8>
  403116:	68 5c 00 00 00       	pushq  $0x5c
  40311b:	e9 20 fa ff ff       	jmpq   402b40 <_init+0x20>

0000000000403120 <_ZNSt7__cxx1112basic_stringIcSt11char_traitsIcESaIcEE9_M_createERmm@plt>:
  403120:	ff 25 da 11 21 00    	jmpq   *0x2111da(%rip)        # 614300 <_GLOBAL_OFFSET_TABLE_+0x300>
  403126:	68 5d 00 00 00       	pushq  $0x5d
  40312b:	e9 10 fa ff ff       	jmpq   402b40 <_init+0x20>

0000000000403130 <_ZNKSt9basic_iosIcSt11char_traitsIcEE3eofEv@plt>:
  403130:	ff 25 d2 11 21 00    	jmpq   *0x2111d2(%rip)        # 614308 <_GLOBAL_OFFSET_TABLE_+0x308>
  403136:	68 5e 00 00 00       	pushq  $0x5e
  40313b:	e9 00 fa ff ff       	jmpq   402b40 <_init+0x20>

0000000000403140 <__libc_start_main@plt>:
  403140:	ff 25 ca 11 21 00    	jmpq   *0x2111ca(%rip)        # 614310 <_GLOBAL_OFFSET_TABLE_+0x310>
  403146:	68 5f 00 00 00       	pushq  $0x5f
  40314b:	e9 f0 f9 ff ff       	jmpq   402b40 <_init+0x20>

0000000000403150 <_ZNSt7__cxx1112basic_stringIcSt11char_traitsIcESaIcEE6appendEPKc@plt>:
  403150:	ff 25 c2 11 21 00    	jmpq   *0x2111c2(%rip)        # 614318 <_GLOBAL_OFFSET_TABLE_+0x318>
  403156:	68 60 00 00 00       	pushq  $0x60
  40315b:	e9 e0 f9 ff ff       	jmpq   402b40 <_init+0x20>

0000000000403160 <_ZNSt7__cxx1112basic_stringIcSt11char_traitsIcESaIcEE6appendERKS4_@plt>:
  403160:	ff 25 ba 11 21 00    	jmpq   *0x2111ba(%rip)        # 614320 <_GLOBAL_OFFSET_TABLE_+0x320>
  403166:	68 61 00 00 00       	pushq  $0x61
  40316b:	e9 d0 f9 ff ff       	jmpq   402b40 <_init+0x20>

0000000000403170 <close@plt>:
  403170:	ff 25 b2 11 21 00    	jmpq   *0x2111b2(%rip)        # 614328 <_GLOBAL_OFFSET_TABLE_+0x328>
  403176:	68 62 00 00 00       	pushq  $0x62
  40317b:	e9 c0 f9 ff ff       	jmpq   402b40 <_init+0x20>

0000000000403180 <_ZNKSt7__cxx1112basic_stringIcSt11char_traitsIcESaIcEE5rfindEcm@plt>:
  403180:	ff 25 aa 11 21 00    	jmpq   *0x2111aa(%rip)        # 614330 <_GLOBAL_OFFSET_TABLE_+0x330>
  403186:	68 63 00 00 00       	pushq  $0x63
  40318b:	e9 b0 f9 ff ff       	jmpq   402b40 <_init+0x20>

0000000000403190 <_ZNSt7__cxx1112basic_stringIcSt11char_traitsIcESaIcEE11_M_capacityEm@plt>:
  403190:	ff 25 a2 11 21 00    	jmpq   *0x2111a2(%rip)        # 614338 <_GLOBAL_OFFSET_TABLE_+0x338>
  403196:	68 64 00 00 00       	pushq  $0x64
  40319b:	e9 a0 f9 ff ff       	jmpq   402b40 <_init+0x20>

00000000004031a0 <_ZNSt7__cxx1112basic_stringIcSt11char_traitsIcESaIcEEixEm@plt>:
  4031a0:	ff 25 9a 11 21 00    	jmpq   *0x21119a(%rip)        # 614340 <_GLOBAL_OFFSET_TABLE_+0x340>
  4031a6:	68 65 00 00 00       	pushq  $0x65
  4031ab:	e9 90 f9 ff ff       	jmpq   402b40 <_init+0x20>

00000000004031b0 <_ZNSt8ios_base4InitD1Ev@plt>:
  4031b0:	ff 25 92 11 21 00    	jmpq   *0x211192(%rip)        # 614348 <_GLOBAL_OFFSET_TABLE_+0x348>
  4031b6:	68 66 00 00 00       	pushq  $0x66
  4031bb:	e9 80 f9 ff ff       	jmpq   402b40 <_init+0x20>

Disassembly of section .plt.got:

00000000004031c0 <.plt.got>:
  4031c0:	ff 25 32 0e 21 00    	jmpq   *0x210e32(%rip)        # 613ff8 <_DYNAMIC+0x200>
  4031c6:	66 90                	xchg   %ax,%ax

Disassembly of section .text:

00000000004031d0 <_start>:
  4031d0:	31 ed                	xor    %ebp,%ebp
  4031d2:	49 89 d1             	mov    %rdx,%r9
  4031d5:	5e                   	pop    %rsi
  4031d6:	48 89 e2             	mov    %rsp,%rdx
  4031d9:	48 83 e4 f0          	and    $0xfffffffffffffff0,%rsp
  4031dd:	50                   	push   %rax
  4031de:	54                   	push   %rsp
  4031df:	49 c7 c0 00 db 40 00 	mov    $0x40db00,%r8
  4031e6:	48 c7 c1 90 da 40 00 	mov    $0x40da90,%rcx
  4031ed:	48 c7 c7 e7 34 40 00 	mov    $0x4034e7,%rdi
  4031f4:	e8 47 ff ff ff       	callq  403140 <__libc_start_main@plt>
  4031f9:	f4                   	hlt    
  4031fa:	66 0f 1f 44 00 00    	nopw   0x0(%rax,%rax,1)

0000000000403200 <deregister_tm_clones>:
  403200:	b8 67 43 61 00       	mov    $0x614367,%eax
  403205:	55                   	push   %rbp
  403206:	48 2d 60 43 61 00    	sub    $0x614360,%rax
  40320c:	48 83 f8 0e          	cmp    $0xe,%rax
  403210:	48 89 e5             	mov    %rsp,%rbp
  403213:	76 1b                	jbe    403230 <deregister_tm_clones+0x30>
  403215:	b8 00 00 00 00       	mov    $0x0,%eax
  40321a:	48 85 c0             	test   %rax,%rax
  40321d:	74 11                	je     403230 <deregister_tm_clones+0x30>
  40321f:	5d                   	pop    %rbp
  403220:	bf 60 43 61 00       	mov    $0x614360,%edi
  403225:	ff e0                	jmpq   *%rax
  403227:	66 0f 1f 84 00 00 00 	nopw   0x0(%rax,%rax,1)
  40322e:	00 00 
  403230:	5d                   	pop    %rbp
  403231:	c3                   	retq   
  403232:	0f 1f 40 00          	nopl   0x0(%rax)
  403236:	66 2e 0f 1f 84 00 00 	nopw   %cs:0x0(%rax,%rax,1)
  40323d:	00 00 00 

0000000000403240 <register_tm_clones>:
  403240:	be 60 43 61 00       	mov    $0x614360,%esi
  403245:	55                   	push   %rbp
  403246:	48 81 ee 60 43 61 00 	sub    $0x614360,%rsi
  40324d:	48 c1 fe 03          	sar    $0x3,%rsi
  403251:	48 89 e5             	mov    %rsp,%rbp
  403254:	48 89 f0             	mov    %rsi,%rax
  403257:	48 c1 e8 3f          	shr    $0x3f,%rax
  40325b:	48 01 c6             	add    %rax,%rsi
  40325e:	48 d1 fe             	sar    %rsi
  403261:	74 15                	je     403278 <register_tm_clones+0x38>
  403263:	b8 00 00 00 00       	mov    $0x0,%eax
  403268:	48 85 c0             	test   %rax,%rax
  40326b:	74 0b                	je     403278 <register_tm_clones+0x38>
  40326d:	5d                   	pop    %rbp
  40326e:	bf 60 43 61 00       	mov    $0x614360,%edi
  403273:	ff e0                	jmpq   *%rax
  403275:	0f 1f 00             	nopl   (%rax)
  403278:	5d                   	pop    %rbp
  403279:	c3                   	retq   
  40327a:	66 0f 1f 44 00 00    	nopw   0x0(%rax,%rax,1)

0000000000403280 <__do_global_dtors_aux>:
  403280:	80 3d 81 11 21 00 00 	cmpb   $0x0,0x211181(%rip)        # 614408 <completed.7583>
  403287:	75 11                	jne    40329a <__do_global_dtors_aux+0x1a>
  403289:	55                   	push   %rbp
  40328a:	48 89 e5             	mov    %rsp,%rbp
  40328d:	e8 6e ff ff ff       	callq  403200 <deregister_tm_clones>
  403292:	5d                   	pop    %rbp
  403293:	c6 05 6e 11 21 00 01 	movb   $0x1,0x21116e(%rip)        # 614408 <completed.7583>
  40329a:	f3 c3                	repz retq 
  40329c:	0f 1f 40 00          	nopl   0x0(%rax)

00000000004032a0 <frame_dummy>:
  4032a0:	bf f0 3d 61 00       	mov    $0x613df0,%edi
  4032a5:	48 83 3f 00          	cmpq   $0x0,(%rdi)
  4032a9:	75 05                	jne    4032b0 <frame_dummy+0x10>
  4032ab:	eb 93                	jmp    403240 <register_tm_clones>
  4032ad:	0f 1f 00             	nopl   (%rax)
  4032b0:	b8 00 00 00 00       	mov    $0x0,%eax
  4032b5:	48 85 c0             	test   %rax,%rax
  4032b8:	74 f1                	je     4032ab <frame_dummy+0xb>
  4032ba:	55                   	push   %rbp
  4032bb:	48 89 e5             	mov    %rsp,%rbp
  4032be:	ff d0                	callq  *%rax
  4032c0:	5d                   	pop    %rbp
  4032c1:	e9 7a ff ff ff       	jmpq   403240 <register_tm_clones>

00000000004032c6 <_Z2f2B5cxx11v>:
  4032c6:	55                   	push   %rbp
  4032c7:	48 89 e5             	mov    %rsp,%rbp
  4032ca:	53                   	push   %rbx
  4032cb:	48 83 ec 28          	sub    $0x28,%rsp
  4032cf:	48 89 7d d8          	mov    %rdi,-0x28(%rbp)
  4032d3:	64 48 8b 04 25 28 00 	mov    %fs:0x28,%rax
  4032da:	00 00 
  4032dc:	48 89 45 e8          	mov    %rax,-0x18(%rbp)
  4032e0:	31 c0                	xor    %eax,%eax
  4032e2:	e8 19 f9 ff ff       	callq  402c00 <rand@plt>
  4032e7:	89 c1                	mov    %eax,%ecx
  4032e9:	ba 56 55 55 55       	mov    $0x55555556,%edx
  4032ee:	89 c8                	mov    %ecx,%eax
  4032f0:	f7 ea                	imul   %edx
  4032f2:	89 c8                	mov    %ecx,%eax
  4032f4:	c1 f8 1f             	sar    $0x1f,%eax
  4032f7:	29 c2                	sub    %eax,%edx
  4032f9:	89 d0                	mov    %edx,%eax
  4032fb:	01 c0                	add    %eax,%eax
  4032fd:	01 d0                	add    %edx,%eax
  4032ff:	29 c1                	sub    %eax,%ecx
  403301:	89 ca                	mov    %ecx,%edx
  403303:	8d 42 05             	lea    0x5(%rdx),%eax
  403306:	89 45 e4             	mov    %eax,-0x1c(%rbp)
  403309:	48 8b 45 d8          	mov    -0x28(%rbp),%rax
  40330d:	48 89 c7             	mov    %rax,%rdi
  403310:	e8 bb fc ff ff       	callq  402fd0 <_ZNSt7__cxx1112basic_stringIcSt11char_traitsIcESaIcEEC1Ev@plt>
  403315:	c7 45 e0 00 00 00 00 	movl   $0x0,-0x20(%rbp)
  40331c:	8b 45 e0             	mov    -0x20(%rbp),%eax
  40331f:	3b 45 e4             	cmp    -0x1c(%rbp),%eax
  403322:	7d 57                	jge    40337b <_Z2f2B5cxx11v+0xb5>
  403324:	e8 d7 f8 ff ff       	callq  402c00 <rand@plt>
  403329:	89 c1                	mov    %eax,%ecx
  40332b:	ba 4f ec c4 4e       	mov    $0x4ec4ec4f,%edx
  403330:	89 c8                	mov    %ecx,%eax
  403332:	f7 ea                	imul   %edx
  403334:	c1 fa 03             	sar    $0x3,%edx
  403337:	89 c8                	mov    %ecx,%eax
  403339:	c1 f8 1f             	sar    $0x1f,%eax
  40333c:	29 c2                	sub    %eax,%edx
  40333e:	89 d0                	mov    %edx,%eax
  403340:	6b c0 1a             	imul   $0x1a,%eax,%eax
  403343:	29 c1                	sub    %eax,%ecx
  403345:	89 c8                	mov    %ecx,%eax
  403347:	83 c0 61             	add    $0x61,%eax
  40334a:	0f be d0             	movsbl %al,%edx
  40334d:	48 8b 45 d8          	mov    -0x28(%rbp),%rax
  403351:	89 d6                	mov    %edx,%esi
  403353:	48 89 c7             	mov    %rax,%rdi
  403356:	e8 c5 fa ff ff       	callq  402e20 <_ZNSt7__cxx1112basic_stringIcSt11char_traitsIcESaIcEE9push_backEc@plt>
  40335b:	83 45 e0 01          	addl   $0x1,-0x20(%rbp)
  40335f:	eb bb                	jmp    40331c <_Z2f2B5cxx11v+0x56>
  403361:	48 89 c3             	mov    %rax,%rbx
  403364:	48 8b 45 d8          	mov    -0x28(%rbp),%rax
  403368:	48 89 c7             	mov    %rax,%rdi
  40336b:	e8 c0 f9 ff ff       	callq  402d30 <_ZNSt7__cxx1112basic_stringIcSt11char_traitsIcESaIcEED1Ev@plt>
  403370:	48 89 d8             	mov    %rbx,%rax
  403373:	48 89 c7             	mov    %rax,%rdi
  403376:	e8 75 fd ff ff       	callq  4030f0 <_Unwind_Resume@plt>
  40337b:	90                   	nop
  40337c:	48 8b 45 d8          	mov    -0x28(%rbp),%rax
  403380:	48 8b 75 e8          	mov    -0x18(%rbp),%rsi
  403384:	64 48 33 34 25 28 00 	xor    %fs:0x28,%rsi
  40338b:	00 00 
  40338d:	74 05                	je     403394 <_Z2f2B5cxx11v+0xce>
  40338f:	e8 ac fb ff ff       	callq  402f40 <__stack_chk_fail@plt>
  403394:	48 83 c4 28          	add    $0x28,%rsp
  403398:	5b                   	pop    %rbx
  403399:	5d                   	pop    %rbp
  40339a:	c3                   	retq   

000000000040339b <_Z2f1RNSt7__cxx1112basic_stringIcSt11char_traitsIcESaIcEEES5_S5_>:
  40339b:	55                   	push   %rbp
  40339c:	48 89 e5             	mov    %rsp,%rbp
  40339f:	53                   	push   %rbx
  4033a0:	48 83 ec 48          	sub    $0x48,%rsp
  4033a4:	48 89 7d c8          	mov    %rdi,-0x38(%rbp)
  4033a8:	48 89 75 c0          	mov    %rsi,-0x40(%rbp)
  4033ac:	48 89 55 b8          	mov    %rdx,-0x48(%rbp)
  4033b0:	e8 4b f8 ff ff       	callq  402c00 <rand@plt>
  4033b5:	89 c1                	mov    %eax,%ecx
  4033b7:	ba 67 66 66 66       	mov    $0x66666667,%edx
  4033bc:	89 c8                	mov    %ecx,%eax
  4033be:	f7 ea                	imul   %edx
  4033c0:	c1 fa 05             	sar    $0x5,%edx
  4033c3:	89 c8                	mov    %ecx,%eax
  4033c5:	c1 f8 1f             	sar    $0x1f,%eax
  4033c8:	29 c2                	sub    %eax,%edx
  4033ca:	89 d0                	mov    %edx,%eax
  4033cc:	c1 e0 02             	shl    $0x2,%eax
  4033cf:	01 d0                	add    %edx,%eax
  4033d1:	c1 e0 04             	shl    $0x4,%eax
  4033d4:	29 c1                	sub    %eax,%ecx
  4033d6:	89 ca                	mov    %ecx,%edx
  4033d8:	8d 42 1e             	lea    0x1e(%rdx),%eax
  4033db:	89 45 e8             	mov    %eax,-0x18(%rbp)
  4033de:	c7 45 dc 00 00 00 00 	movl   $0x0,-0x24(%rbp)
  4033e5:	8b 45 dc             	mov    -0x24(%rbp),%eax
  4033e8:	3b 45 e8             	cmp    -0x18(%rbp),%eax
  4033eb:	7d 3d                	jge    40342a <_Z2f1RNSt7__cxx1112basic_stringIcSt11char_traitsIcESaIcEEES5_S5_+0x8f>
  4033ed:	e8 0e f8 ff ff       	callq  402c00 <rand@plt>
  4033f2:	89 c1                	mov    %eax,%ecx
  4033f4:	ba 4f ec c4 4e       	mov    $0x4ec4ec4f,%edx
  4033f9:	89 c8                	mov    %ecx,%eax
  4033fb:	f7 ea                	imul   %edx
  4033fd:	c1 fa 03             	sar    $0x3,%edx
  403400:	89 c8                	mov    %ecx,%eax
  403402:	c1 f8 1f             	sar    $0x1f,%eax
  403405:	29 c2                	sub    %eax,%edx
  403407:	89 d0                	mov    %edx,%eax
  403409:	6b c0 1a             	imul   $0x1a,%eax,%eax
  40340c:	29 c1                	sub    %eax,%ecx
  40340e:	89 c8                	mov    %ecx,%eax
  403410:	83 c0 61             	add    $0x61,%eax
  403413:	0f be d0             	movsbl %al,%edx
  403416:	48 8b 45 c8          	mov    -0x38(%rbp),%rax
  40341a:	89 d6                	mov    %edx,%esi
  40341c:	48 89 c7             	mov    %rax,%rdi
  40341f:	e8 fc f9 ff ff       	callq  402e20 <_ZNSt7__cxx1112basic_stringIcSt11char_traitsIcESaIcEE9push_backEc@plt>
  403424:	83 45 dc 01          	addl   $0x1,-0x24(%rbp)
  403428:	eb bb                	jmp    4033e5 <_Z2f1RNSt7__cxx1112basic_stringIcSt11char_traitsIcESaIcEEES5_S5_+0x4a>
  40342a:	e8 d1 f7 ff ff       	callq  402c00 <rand@plt>
  40342f:	48 63 d8             	movslq %eax,%rbx
  403432:	48 8b 45 c8          	mov    -0x38(%rbp),%rax
  403436:	48 89 c7             	mov    %rax,%rdi
  403439:	e8 42 f9 ff ff       	callq  402d80 <_ZNKSt7__cxx1112basic_stringIcSt11char_traitsIcESaIcEE4sizeEv@plt>
  40343e:	48 8d 48 ff          	lea    -0x1(%rax),%rcx
  403442:	48 89 d8             	mov    %rbx,%rax
  403445:	ba 00 00 00 00       	mov    $0x0,%edx
  40344a:	48 f7 f1             	div    %rcx
  40344d:	48 89 d0             	mov    %rdx,%rax
  403450:	83 c0 01             	add    $0x1,%eax
  403453:	89 45 ec             	mov    %eax,-0x14(%rbp)
  403456:	c7 45 e0 00 00 00 00 	movl   $0x0,-0x20(%rbp)
  40345d:	8b 45 e0             	mov    -0x20(%rbp),%eax
  403460:	3b 45 ec             	cmp    -0x14(%rbp),%eax
  403463:	7d 2f                	jge    403494 <_Z2f1RNSt7__cxx1112basic_stringIcSt11char_traitsIcESaIcEEES5_S5_+0xf9>
  403465:	8b 45 e0             	mov    -0x20(%rbp),%eax
  403468:	48 63 d0             	movslq %eax,%rdx
  40346b:	48 8b 45 c8          	mov    -0x38(%rbp),%rax
  40346f:	48 89 d6             	mov    %rdx,%rsi
  403472:	48 89 c7             	mov    %rax,%rdi
  403475:	e8 26 fd ff ff       	callq  4031a0 <_ZNSt7__cxx1112basic_stringIcSt11char_traitsIcESaIcEEixEm@plt>
  40347a:	0f b6 00             	movzbl (%rax),%eax
  40347d:	0f be d0             	movsbl %al,%edx
  403480:	48 8b 45 c0          	mov    -0x40(%rbp),%rax
  403484:	89 d6                	mov    %edx,%esi
  403486:	48 89 c7             	mov    %rax,%rdi
  403489:	e8 92 f9 ff ff       	callq  402e20 <_ZNSt7__cxx1112basic_stringIcSt11char_traitsIcESaIcEE9push_backEc@plt>
  40348e:	83 45 e0 01          	addl   $0x1,-0x20(%rbp)
  403492:	eb c9                	jmp    40345d <_Z2f1RNSt7__cxx1112basic_stringIcSt11char_traitsIcESaIcEEES5_S5_+0xc2>
  403494:	8b 45 ec             	mov    -0x14(%rbp),%eax
  403497:	89 45 e4             	mov    %eax,-0x1c(%rbp)
  40349a:	8b 5d e4             	mov    -0x1c(%rbp),%ebx
  40349d:	48 8b 45 c8          	mov    -0x38(%rbp),%rax
  4034a1:	48 89 c7             	mov    %rax,%rdi
  4034a4:	e8 d7 f8 ff ff       	callq  402d80 <_ZNKSt7__cxx1112basic_stringIcSt11char_traitsIcESaIcEE4sizeEv@plt>
  4034a9:	48 39 c3             	cmp    %rax,%rbx
  4034ac:	0f 92 c0             	setb   %al
  4034af:	84 c0                	test   %al,%al
  4034b1:	74 2c                	je     4034df <_Z2f1RNSt7__cxx1112basic_stringIcSt11char_traitsIcESaIcEEES5_S5_+0x144>
  4034b3:	8b 55 e4             	mov    -0x1c(%rbp),%edx
  4034b6:	48 8b 45 c8          	mov    -0x38(%rbp),%rax
  4034ba:	48 89 d6             	mov    %rdx,%rsi
  4034bd:	48 89 c7             	mov    %rax,%rdi
  4034c0:	e8 db fc ff ff       	callq  4031a0 <_ZNSt7__cxx1112basic_stringIcSt11char_traitsIcESaIcEEixEm@plt>
  4034c5:	0f b6 00             	movzbl (%rax),%eax
  4034c8:	0f be d0             	movsbl %al,%edx
  4034cb:	48 8b 45 b8          	mov    -0x48(%rbp),%rax
  4034cf:	89 d6                	mov    %edx,%esi
  4034d1:	48 89 c7             	mov    %rax,%rdi
  4034d4:	e8 47 f9 ff ff       	callq  402e20 <_ZNSt7__cxx1112basic_stringIcSt11char_traitsIcESaIcEE9push_backEc@plt>
  4034d9:	83 45 e4 01          	addl   $0x1,-0x1c(%rbp)
  4034dd:	eb bb                	jmp    40349a <_Z2f1RNSt7__cxx1112basic_stringIcSt11char_traitsIcESaIcEEES5_S5_+0xff>
  4034df:	90                   	nop
  4034e0:	48 83 c4 48          	add    $0x48,%rsp
  4034e4:	5b                   	pop    %rbx
  4034e5:	5d                   	pop    %rbp
  4034e6:	c3                   	retq   

00000000004034e7 <main>:
  4034e7:	55                   	push   %rbp
  4034e8:	48 89 e5             	mov    %rsp,%rbp
  4034eb:	41 57                	push   %r15
  4034ed:	41 56                	push   %r14
  4034ef:	41 55                	push   %r13
  4034f1:	41 54                	push   %r12
  4034f3:	53                   	push   %rbx
  4034f4:	48 81 ec 48 05 00 00 	sub    $0x548,%rsp
  4034fb:	89 bd 9c fa ff ff    	mov    %edi,-0x564(%rbp)
  403501:	48 89 b5 90 fa ff ff 	mov    %rsi,-0x570(%rbp)
  403508:	64 48 8b 04 25 28 00 	mov    %fs:0x28,%rax
  40350f:	00 00 
  403511:	48 89 45 c8          	mov    %rax,-0x38(%rbp)
  403515:	31 c0                	xor    %eax,%eax
  403517:	bf 00 00 00 00       	mov    $0x0,%edi
  40351c:	e8 4f f9 ff ff       	callq  402e70 <time@plt>
  403521:	89 c7                	mov    %eax,%edi
  403523:	e8 68 f9 ff ff       	callq  402e90 <srand@plt>
  403528:	e8 cf 4c 00 00       	callq  4081fc <_Z8net_initv>
  40352d:	48 8b 85 90 fa ff ff 	mov    -0x570(%rbp),%rax
  403534:	48 8b 40 08          	mov    0x8(%rax),%rax
  403538:	48 89 85 28 fb ff ff 	mov    %rax,-0x4d8(%rbp)
  40353f:	48 8b 85 90 fa ff ff 	mov    -0x570(%rbp),%rax
  403546:	48 83 c0 10          	add    $0x10,%rax
  40354a:	48 8b 00             	mov    (%rax),%rax
  40354d:	48 89 c7             	mov    %rax,%rdi
  403550:	e8 db fa ff ff       	callq  403030 <atoi@plt>
  403555:	89 85 ac fa ff ff    	mov    %eax,-0x554(%rbp)
  40355b:	8b 95 ac fa ff ff    	mov    -0x554(%rbp),%edx
  403561:	48 8b 85 28 fb ff ff 	mov    -0x4d8(%rbp),%rax
  403568:	89 d6                	mov    %edx,%esi
  40356a:	48 89 c7             	mov    %rax,%rdi
  40356d:	e8 8f 4d 00 00       	callq  408301 <_Z17create_connectionPKci>
  403572:	89 85 b0 fa ff ff    	mov    %eax,-0x550(%rbp)
  403578:	48 8d 85 10 fc ff ff 	lea    -0x3f0(%rbp),%rax
  40357f:	48 89 c7             	mov    %rax,%rdi
  403582:	e8 f1 18 00 00       	callq  404e78 <_ZNSt3mapINSt7__cxx1112basic_stringIcSt11char_traitsIcESaIcEEES5_St4lessIS5_ESaISt4pairIKS5_S5_EEEC1Ev>
  403587:	48 8d 95 10 fc ff ff 	lea    -0x3f0(%rbp),%rdx
  40358e:	8b 85 b0 fa ff ff    	mov    -0x550(%rbp),%eax
  403594:	41 b8 00 00 00 00    	mov    $0x0,%r8d
  40359a:	b9 00 00 00 00       	mov    $0x0,%ecx
  40359f:	be 2e db 40 00       	mov    $0x40db2e,%esi
  4035a4:	89 c7                	mov    %eax,%edi
  4035a6:	e8 63 4e 00 00       	callq  40840e <_Z13write_requestiPKcSt3mapINSt7__cxx1112basic_stringIcSt11char_traitsIcESaIcEEES7_St4lessIS7_ESaISt4pairIKS7_S7_EEEPKvi>
  4035ab:	48 8d 85 10 fc ff ff 	lea    -0x3f0(%rbp),%rax
  4035b2:	48 89 c7             	mov    %rax,%rdi
  4035b5:	e8 4a 13 00 00       	callq  404904 <_ZNSt3mapINSt7__cxx1112basic_stringIcSt11char_traitsIcESaIcEEES5_St4lessIS5_ESaISt4pairIKS5_S5_EEED1Ev>
  4035ba:	48 8d 85 40 fc ff ff 	lea    -0x3c0(%rbp),%rax
  4035c1:	48 89 c7             	mov    %rax,%rdi
  4035c4:	e8 07 fa ff ff       	callq  402fd0 <_ZNSt7__cxx1112basic_stringIcSt11char_traitsIcESaIcEEC1Ev@plt>
  4035c9:	48 8d 85 60 fc ff ff 	lea    -0x3a0(%rbp),%rax
  4035d0:	48 89 c7             	mov    %rax,%rdi
  4035d3:	e8 f8 f9 ff ff       	callq  402fd0 <_ZNSt7__cxx1112basic_stringIcSt11char_traitsIcESaIcEEC1Ev@plt>
  4035d8:	e8 23 f6 ff ff       	callq  402c00 <rand@plt>
  4035dd:	89 c1                	mov    %eax,%ecx
  4035df:	ba 89 88 88 88       	mov    $0x88888889,%edx
  4035e4:	89 c8                	mov    %ecx,%eax
  4035e6:	f7 ea                	imul   %edx
  4035e8:	8d 04 0a             	lea    (%rdx,%rcx,1),%eax
  4035eb:	c1 f8 03             	sar    $0x3,%eax
  4035ee:	89 c2                	mov    %eax,%edx
  4035f0:	89 c8                	mov    %ecx,%eax
  4035f2:	c1 f8 1f             	sar    $0x1f,%eax
  4035f5:	29 c2                	sub    %eax,%edx
  4035f7:	89 d0                	mov    %edx,%eax
  4035f9:	89 c2                	mov    %eax,%edx
  4035fb:	c1 e2 04             	shl    $0x4,%edx
  4035fe:	29 c2                	sub    %eax,%edx
  403600:	89 c8                	mov    %ecx,%eax
  403602:	29 d0                	sub    %edx,%eax
  403604:	83 c0 05             	add    $0x5,%eax
  403607:	89 85 b4 fa ff ff    	mov    %eax,-0x54c(%rbp)
  40360d:	c7 85 a0 fa ff ff 00 	movl   $0x0,-0x560(%rbp)
  403614:	00 00 00 
  403617:	c7 85 a4 fa ff ff 00 	movl   $0x0,-0x55c(%rbp)
  40361e:	00 00 00 
  403621:	c7 85 a8 fa ff ff 00 	movl   $0x0,-0x558(%rbp)
  403628:	00 00 00 
  40362b:	48 8d 85 80 fc ff ff 	lea    -0x380(%rbp),%rax
  403632:	48 89 c7             	mov    %rax,%rdi
  403635:	e8 96 f9 ff ff       	callq  402fd0 <_ZNSt7__cxx1112basic_stringIcSt11char_traitsIcESaIcEEC1Ev@plt>
  40363a:	48 8d 85 a0 fc ff ff 	lea    -0x360(%rbp),%rax
  403641:	48 89 c7             	mov    %rax,%rdi
  403644:	e8 87 f9 ff ff       	callq  402fd0 <_ZNSt7__cxx1112basic_stringIcSt11char_traitsIcESaIcEEC1Ev@plt>
  403649:	48 8d 85 50 fb ff ff 	lea    -0x4b0(%rbp),%rax
  403650:	48 89 c7             	mov    %rax,%rdi
  403653:	e8 20 18 00 00       	callq  404e78 <_ZNSt3mapINSt7__cxx1112basic_stringIcSt11char_traitsIcESaIcEEES5_St4lessIS5_ESaISt4pairIKS5_S5_EEEC1Ev>
  403658:	48 8d 85 30 fb ff ff 	lea    -0x4d0(%rbp),%rax
  40365f:	48 89 c7             	mov    %rax,%rdi
  403662:	e8 83 18 00 00       	callq  404eea <_ZNSt6vectorIhSaIhEEC1Ev>
  403667:	48 8d 95 30 fb ff ff 	lea    -0x4d0(%rbp),%rdx
  40366e:	48 8d 8d 50 fb ff ff 	lea    -0x4b0(%rbp),%rcx
  403675:	8b 85 b0 fa ff ff    	mov    -0x550(%rbp),%eax
  40367b:	48 89 ce             	mov    %rcx,%rsi
  40367e:	89 c7                	mov    %eax,%edi
  403680:	e8 5d 5a 00 00       	callq  4090e2 <_Z13read_responseiRSt3mapINSt7__cxx1112basic_stringIcSt11char_traitsIcESaIcEEES5_St4lessIS5_ESaISt4pairIKS5_S5_EEERSt6vectorIhSaIhEE>
  403685:	48 8d 85 10 fc ff ff 	lea    -0x3f0(%rbp),%rax
  40368c:	48 89 c7             	mov    %rax,%rdi
  40368f:	e8 6c fa ff ff       	callq  403100 <_ZNSaIcEC1Ev@plt>
  403694:	48 8d 95 10 fc ff ff 	lea    -0x3f0(%rbp),%rdx
  40369b:	48 8d 85 e0 fc ff ff 	lea    -0x320(%rbp),%rax
  4036a2:	be 30 db 40 00       	mov    $0x40db30,%esi
  4036a7:	48 89 c7             	mov    %rax,%rdi
  4036aa:	e8 11 f9 ff ff       	callq  402fc0 <_ZNSt7__cxx1112basic_stringIcSt11char_traitsIcESaIcEEC1EPKcRKS3_@plt>
  4036af:	48 8d 95 e0 fc ff ff 	lea    -0x320(%rbp),%rdx
  4036b6:	48 8d 85 50 fb ff ff 	lea    -0x4b0(%rbp),%rax
  4036bd:	48 89 d6             	mov    %rdx,%rsi
  4036c0:	48 89 c7             	mov    %rax,%rdi
  4036c3:	e8 14 1a 00 00       	callq  4050dc <_ZNSt3mapINSt7__cxx1112basic_stringIcSt11char_traitsIcESaIcEEES5_St4lessIS5_ESaISt4pairIKS5_S5_EEEixEOS5_>
  4036c8:	48 89 c2             	mov    %rax,%rdx
  4036cb:	48 8d 85 c0 fc ff ff 	lea    -0x340(%rbp),%rax
  4036d2:	48 89 d6             	mov    %rdx,%rsi
  4036d5:	48 89 c7             	mov    %rax,%rdi
  4036d8:	e8 e3 f5 ff ff       	callq  402cc0 <_ZNSt7__cxx1112basic_stringIcSt11char_traitsIcESaIcEEC1ERKS4_@plt>
  4036dd:	48 8d 85 e0 fc ff ff 	lea    -0x320(%rbp),%rax
  4036e4:	48 89 c7             	mov    %rax,%rdi
  4036e7:	e8 44 f6 ff ff       	callq  402d30 <_ZNSt7__cxx1112basic_stringIcSt11char_traitsIcESaIcEED1Ev@plt>
  4036ec:	48 8d 85 10 fc ff ff 	lea    -0x3f0(%rbp),%rax
  4036f3:	48 89 c7             	mov    %rax,%rdi
  4036f6:	e8 25 f8 ff ff       	callq  402f20 <_ZNSaIcED1Ev@plt>
  4036fb:	48 8d 85 c0 fc ff ff 	lea    -0x340(%rbp),%rax
  403702:	be 3b db 40 00       	mov    $0x40db3b,%esi
  403707:	48 89 c7             	mov    %rax,%rdi
  40370a:	e8 20 1b 00 00       	callq  40522f <_ZSteqIcSt11char_traitsIcESaIcEEbRKNSt7__cxx1112basic_stringIT_T0_T1_EEPKS5_>
  40370f:	84 c0                	test   %al,%al
  403711:	0f 84 d5 00 00 00    	je     4037ec <main+0x305>
  403717:	bf 47 db 40 00       	mov    $0x40db47,%edi
  40371c:	e8 ff f8 ff ff       	callq  403020 <puts@plt>
  403721:	48 8d 45 80          	lea    -0x80(%rbp),%rax
  403725:	ba 53 db 40 00       	mov    $0x40db53,%edx
  40372a:	be 58 db 40 00       	mov    $0x40db58,%esi
  40372f:	48 89 c7             	mov    %rax,%rdi
  403732:	e8 05 12 00 00       	callq  40493c <_ZNSt4pairIKNSt7__cxx1112basic_stringIcSt11char_traitsIcESaIcEEES5_EC1IRA11_KcRA5_S9_Lb1EEEOT_OT0_>
  403737:	48 8d 45 80          	lea    -0x80(%rbp),%rax
  40373b:	49 89 c4             	mov    %rax,%r12
  40373e:	41 bd 01 00 00 00    	mov    $0x1,%r13d
  403744:	48 8d 85 10 fc ff ff 	lea    -0x3f0(%rbp),%rax
  40374b:	48 89 c7             	mov    %rax,%rdi
  40374e:	e8 07 1b 00 00       	callq  40525a <_ZNSaISt4pairIKNSt7__cxx1112basic_stringIcSt11char_traitsIcESaIcEEES5_EEC1Ev>
  403753:	4c 8d 85 10 fc ff ff 	lea    -0x3f0(%rbp),%r8
  40375a:	48 8d 95 e0 fb ff ff 	lea    -0x420(%rbp),%rdx
  403761:	4c 89 e6             	mov    %r12,%rsi
  403764:	4c 89 ef             	mov    %r13,%rdi
  403767:	4c 89 e1             	mov    %r12,%rcx
  40376a:	4c 89 eb             	mov    %r13,%rbx
  40376d:	48 89 df             	mov    %rbx,%rdi
  403770:	48 8d 85 80 fb ff ff 	lea    -0x480(%rbp),%rax
  403777:	48 89 d1             	mov    %rdx,%rcx
  40377a:	48 89 fa             	mov    %rdi,%rdx
  40377d:	48 89 c7             	mov    %rax,%rdi
  403780:	e8 67 1b 00 00       	callq  4052ec <_ZNSt3mapINSt7__cxx1112basic_stringIcSt11char_traitsIcESaIcEEES5_St4lessIS5_ESaISt4pairIKS5_S5_EEEC1ESt16initializer_listISA_ERKS7_RKSB_>
  403785:	48 8d 95 80 fb ff ff 	lea    -0x480(%rbp),%rdx
  40378c:	8b 85 b0 fa ff ff    	mov    -0x550(%rbp),%eax
  403792:	41 b8 00 00 00 00    	mov    $0x0,%r8d
  403798:	b9 00 00 00 00       	mov    $0x0,%ecx
  40379d:	be 2e db 40 00       	mov    $0x40db2e,%esi
  4037a2:	89 c7                	mov    %eax,%edi
  4037a4:	e8 65 4c 00 00       	callq  40840e <_Z13write_requestiPKcSt3mapINSt7__cxx1112basic_stringIcSt11char_traitsIcESaIcEEES7_St4lessIS7_ESaISt4pairIKS7_S7_EEEPKvi>
  4037a9:	48 8d 85 80 fb ff ff 	lea    -0x480(%rbp),%rax
  4037b0:	48 89 c7             	mov    %rax,%rdi
  4037b3:	e8 4c 11 00 00       	callq  404904 <_ZNSt3mapINSt7__cxx1112basic_stringIcSt11char_traitsIcESaIcEEES5_St4lessIS5_ESaISt4pairIKS5_S5_EEED1Ev>
  4037b8:	48 8d 85 10 fc ff ff 	lea    -0x3f0(%rbp),%rax
  4037bf:	48 89 c7             	mov    %rax,%rdi
  4037c2:	e8 af 1a 00 00       	callq  405276 <_ZNSaISt4pairIKNSt7__cxx1112basic_stringIcSt11char_traitsIcESaIcEEES5_EED1Ev>
  4037c7:	90                   	nop
  4037c8:	48 8d 5d 80          	lea    -0x80(%rbp),%rbx
  4037cc:	48 83 c3 40          	add    $0x40,%rbx
  4037d0:	48 8d 45 80          	lea    -0x80(%rbp),%rax
  4037d4:	48 39 c3             	cmp    %rax,%rbx
  4037d7:	0f 84 cf 0b 00 00    	je     4043ac <main+0xec5>
  4037dd:	90                   	nop
  4037de:	48 83 eb 40          	sub    $0x40,%rbx
  4037e2:	48 89 df             	mov    %rbx,%rdi
  4037e5:	e8 4c 12 00 00       	callq  404a36 <_ZNSt4pairIKNSt7__cxx1112basic_stringIcSt11char_traitsIcESaIcEEES5_ED1Ev>
  4037ea:	eb e4                	jmp    4037d0 <main+0x2e9>
  4037ec:	48 8d 85 c0 fc ff ff 	lea    -0x340(%rbp),%rax
  4037f3:	be 63 db 40 00       	mov    $0x40db63,%esi
  4037f8:	48 89 c7             	mov    %rax,%rdi
  4037fb:	e8 2f 1a 00 00       	callq  40522f <_ZSteqIcSt11char_traitsIcESaIcEEbRKNSt7__cxx1112basic_stringIT_T0_T1_EEPKS5_>
  403800:	84 c0                	test   %al,%al
  403802:	0f 84 e1 06 00 00    	je     403ee9 <main+0xa02>
  403808:	83 bd a4 fa ff ff 00 	cmpl   $0x0,-0x55c(%rbp)
  40380f:	75 47                	jne    403858 <main+0x371>
  403811:	48 8d 85 10 fc ff ff 	lea    -0x3f0(%rbp),%rax
  403818:	48 89 c7             	mov    %rax,%rdi
  40381b:	e8 58 16 00 00       	callq  404e78 <_ZNSt3mapINSt7__cxx1112basic_stringIcSt11char_traitsIcESaIcEEES5_St4lessIS5_ESaISt4pairIKS5_S5_EEEC1Ev>
  403820:	48 8d 95 10 fc ff ff 	lea    -0x3f0(%rbp),%rdx
  403827:	8b 85 b0 fa ff ff    	mov    -0x550(%rbp),%eax
  40382d:	41 b8 00 00 00 00    	mov    $0x0,%r8d
  403833:	b9 00 00 00 00       	mov    $0x0,%ecx
  403838:	be 6a db 40 00       	mov    $0x40db6a,%esi
  40383d:	89 c7                	mov    %eax,%edi
  40383f:	e8 ca 4b 00 00       	callq  40840e <_Z13write_requestiPKcSt3mapINSt7__cxx1112basic_stringIcSt11char_traitsIcESaIcEEES7_St4lessIS7_ESaISt4pairIKS7_S7_EEEPKvi>
  403844:	48 8d 85 10 fc ff ff 	lea    -0x3f0(%rbp),%rax
  40384b:	48 89 c7             	mov    %rax,%rdi
  40384e:	e8 b1 10 00 00       	callq  404904 <_ZNSt3mapINSt7__cxx1112basic_stringIcSt11char_traitsIcESaIcEEES5_St4lessIS5_ESaISt4pairIKS5_S5_EEED1Ev>
  403853:	e9 87 06 00 00       	jmpq   403edf <main+0x9f8>
  403858:	83 bd a8 fa ff ff 01 	cmpl   $0x1,-0x558(%rbp)
  40385f:	75 47                	jne    4038a8 <main+0x3c1>
  403861:	48 8d 85 10 fc ff ff 	lea    -0x3f0(%rbp),%rax
  403868:	48 89 c7             	mov    %rax,%rdi
  40386b:	e8 08 16 00 00       	callq  404e78 <_ZNSt3mapINSt7__cxx1112basic_stringIcSt11char_traitsIcESaIcEEES5_St4lessIS5_ESaISt4pairIKS5_S5_EEEC1Ev>
  403870:	48 8d 95 10 fc ff ff 	lea    -0x3f0(%rbp),%rdx
  403877:	8b 85 b0 fa ff ff    	mov    -0x550(%rbp),%eax
  40387d:	41 b8 00 00 00 00    	mov    $0x0,%r8d
  403883:	b9 00 00 00 00       	mov    $0x0,%ecx
  403888:	be 75 db 40 00       	mov    $0x40db75,%esi
  40388d:	89 c7                	mov    %eax,%edi
  40388f:	e8 7a 4b 00 00       	callq  40840e <_Z13write_requestiPKcSt3mapINSt7__cxx1112basic_stringIcSt11char_traitsIcESaIcEEES7_St4lessIS7_ESaISt4pairIKS7_S7_EEEPKvi>
  403894:	48 8d 85 10 fc ff ff 	lea    -0x3f0(%rbp),%rax
  40389b:	48 89 c7             	mov    %rax,%rdi
  40389e:	e8 61 10 00 00       	callq  404904 <_ZNSt3mapINSt7__cxx1112basic_stringIcSt11char_traitsIcESaIcEEES5_St4lessIS5_ESaISt4pairIKS5_S5_EEED1Ev>
  4038a3:	e9 37 06 00 00       	jmpq   403edf <main+0x9f8>
  4038a8:	48 8d 85 50 fb ff ff 	lea    -0x4b0(%rbp),%rax
  4038af:	48 89 c7             	mov    %rax,%rdi
  4038b2:	e8 47 1b 00 00       	callq  4053fe <_ZNSt3mapINSt7__cxx1112basic_stringIcSt11char_traitsIcESaIcEEES5_St4lessIS5_ESaISt4pairIKS5_S5_EEE3endEv>
  4038b7:	48 89 85 10 fc ff ff 	mov    %rax,-0x3f0(%rbp)
  4038be:	48 8d 95 80 fc ff ff 	lea    -0x380(%rbp),%rdx
  4038c5:	48 8d 85 50 fb ff ff 	lea    -0x4b0(%rbp),%rax
  4038cc:	48 89 d6             	mov    %rdx,%rsi
  4038cf:	48 89 c7             	mov    %rax,%rdi
  4038d2:	e8 01 1b 00 00       	callq  4053d8 <_ZNSt3mapINSt7__cxx1112basic_stringIcSt11char_traitsIcESaIcEEES5_St4lessIS5_ESaISt4pairIKS5_S5_EEE4findERS9_>
  4038d7:	48 89 85 b8 fa ff ff 	mov    %rax,-0x548(%rbp)
  4038de:	48 8d 95 10 fc ff ff 	lea    -0x3f0(%rbp),%rdx
  4038e5:	48 8d 85 b8 fa ff ff 	lea    -0x548(%rbp),%rax
  4038ec:	48 89 d6             	mov    %rdx,%rsi
  4038ef:	48 89 c7             	mov    %rax,%rdi
  4038f2:	e8 21 1b 00 00       	callq  405418 <_ZNKSt17_Rb_tree_iteratorISt4pairIKNSt7__cxx1112basic_stringIcSt11char_traitsIcESaIcEEES6_EEeqERKS9_>
  4038f7:	48 8d 85 50 fb ff ff 	lea    -0x4b0(%rbp),%rax
  4038fe:	48 89 c7             	mov    %rax,%rdi
  403901:	e8 f8 1a 00 00       	callq  4053fe <_ZNSt3mapINSt7__cxx1112basic_stringIcSt11char_traitsIcESaIcEEES5_St4lessIS5_ESaISt4pairIKS5_S5_EEE3endEv>
  403906:	48 89 85 10 fc ff ff 	mov    %rax,-0x3f0(%rbp)
  40390d:	48 8d 95 a0 fc ff ff 	lea    -0x360(%rbp),%rdx
  403914:	48 8d 85 50 fb ff ff 	lea    -0x4b0(%rbp),%rax
  40391b:	48 89 d6             	mov    %rdx,%rsi
  40391e:	48 89 c7             	mov    %rax,%rdi
  403921:	e8 b2 1a 00 00       	callq  4053d8 <_ZNSt3mapINSt7__cxx1112basic_stringIcSt11char_traitsIcESaIcEEES5_St4lessIS5_ESaISt4pairIKS5_S5_EEE4findERS9_>
  403926:	48 89 85 c0 fa ff ff 	mov    %rax,-0x540(%rbp)
  40392d:	48 8d 95 10 fc ff ff 	lea    -0x3f0(%rbp),%rdx
  403934:	48 8d 85 c0 fa ff ff 	lea    -0x540(%rbp),%rax
  40393b:	48 89 d6             	mov    %rdx,%rsi
  40393e:	48 89 c7             	mov    %rax,%rdi
  403941:	e8 d2 1a 00 00       	callq  405418 <_ZNKSt17_Rb_tree_iteratorISt4pairIKNSt7__cxx1112basic_stringIcSt11char_traitsIcESaIcEEES6_EEeqERKS9_>
  403946:	bb 00 00 00 00       	mov    $0x0,%ebx
  40394b:	41 be 00 00 00 00    	mov    $0x0,%r14d
  403951:	48 8d 85 50 fb ff ff 	lea    -0x4b0(%rbp),%rax
  403958:	48 89 c7             	mov    %rax,%rdi
  40395b:	e8 9e 1a 00 00       	callq  4053fe <_ZNSt3mapINSt7__cxx1112basic_stringIcSt11char_traitsIcESaIcEEES5_St4lessIS5_ESaISt4pairIKS5_S5_EEE3endEv>
  403960:	48 89 85 d0 fa ff ff 	mov    %rax,-0x530(%rbp)
  403967:	41 bf 01 00 00 00    	mov    $0x1,%r15d
  40396d:	48 8d 95 80 fc ff ff 	lea    -0x380(%rbp),%rdx
  403974:	48 8d 85 50 fb ff ff 	lea    -0x4b0(%rbp),%rax
  40397b:	48 89 d6             	mov    %rdx,%rsi
  40397e:	48 89 c7             	mov    %rax,%rdi
  403981:	e8 52 1a 00 00       	callq  4053d8 <_ZNSt3mapINSt7__cxx1112basic_stringIcSt11char_traitsIcESaIcEEES5_St4lessIS5_ESaISt4pairIKS5_S5_EEE4findERS9_>
  403986:	48 89 85 c8 fa ff ff 	mov    %rax,-0x538(%rbp)
  40398d:	bb 01 00 00 00       	mov    $0x1,%ebx
  403992:	48 8d 95 d0 fa ff ff 	lea    -0x530(%rbp),%rdx
  403999:	48 8d 85 c8 fa ff ff 	lea    -0x538(%rbp),%rax
  4039a0:	48 89 d6             	mov    %rdx,%rsi
  4039a3:	48 89 c7             	mov    %rax,%rdi
  4039a6:	e8 8f 1a 00 00       	callq  40543a <_ZNKSt17_Rb_tree_iteratorISt4pairIKNSt7__cxx1112basic_stringIcSt11char_traitsIcESaIcEEES6_EEneERKS9_>
  4039ab:	84 c0                	test   %al,%al
  4039ad:	74 4d                	je     4039fc <main+0x515>
  4039af:	48 8d 95 80 fc ff ff 	lea    -0x380(%rbp),%rdx
  4039b6:	48 8d 85 50 fb ff ff 	lea    -0x4b0(%rbp),%rax
  4039bd:	48 89 d6             	mov    %rdx,%rsi
  4039c0:	48 89 c7             	mov    %rax,%rdi
  4039c3:	e8 10 1a 00 00       	callq  4053d8 <_ZNSt3mapINSt7__cxx1112basic_stringIcSt11char_traitsIcESaIcEEES5_St4lessIS5_ESaISt4pairIKS5_S5_EEE4findERS9_>
  4039c8:	48 89 85 d8 fa ff ff 	mov    %rax,-0x528(%rbp)
  4039cf:	41 be 01 00 00 00    	mov    $0x1,%r14d
  4039d5:	48 8d 85 d8 fa ff ff 	lea    -0x528(%rbp),%rax
  4039dc:	48 89 c7             	mov    %rax,%rdi
  4039df:	e8 78 1a 00 00       	callq  40545c <_ZNKSt17_Rb_tree_iteratorISt4pairIKNSt7__cxx1112basic_stringIcSt11char_traitsIcESaIcEEES6_EEptEv>
  4039e4:	48 8d 50 20          	lea    0x20(%rax),%rdx
  4039e8:	48 8d 85 40 fc ff ff 	lea    -0x3c0(%rbp),%rax
  4039ef:	48 89 c6             	mov    %rax,%rsi
  4039f2:	48 89 d7             	mov    %rdx,%rdi
  4039f5:	e8 66 f1 ff ff       	callq  402b60 <_ZNKSt7__cxx1112basic_stringIcSt11char_traitsIcESaIcEE7compareERKS4_@plt>
  4039fa:	85 c0                	test   %eax,%eax
  4039fc:	45 84 f6             	test   %r14b,%r14b
  4039ff:	84 db                	test   %bl,%bl
  403a01:	45 84 ff             	test   %r15b,%r15b
  403a04:	90                   	nop
  403a05:	bb 00 00 00 00       	mov    $0x0,%ebx
  403a0a:	41 be 00 00 00 00    	mov    $0x0,%r14d
  403a10:	48 8d 85 50 fb ff ff 	lea    -0x4b0(%rbp),%rax
  403a17:	48 89 c7             	mov    %rax,%rdi
  403a1a:	e8 df 19 00 00       	callq  4053fe <_ZNSt3mapINSt7__cxx1112basic_stringIcSt11char_traitsIcESaIcEEES5_St4lessIS5_ESaISt4pairIKS5_S5_EEE3endEv>
  403a1f:	48 89 85 e8 fa ff ff 	mov    %rax,-0x518(%rbp)
  403a26:	41 bf 01 00 00 00    	mov    $0x1,%r15d
  403a2c:	48 8d 95 a0 fc ff ff 	lea    -0x360(%rbp),%rdx
  403a33:	48 8d 85 50 fb ff ff 	lea    -0x4b0(%rbp),%rax
  403a3a:	48 89 d6             	mov    %rdx,%rsi
  403a3d:	48 89 c7             	mov    %rax,%rdi
  403a40:	e8 93 19 00 00       	callq  4053d8 <_ZNSt3mapINSt7__cxx1112basic_stringIcSt11char_traitsIcESaIcEEES5_St4lessIS5_ESaISt4pairIKS5_S5_EEE4findERS9_>
  403a45:	48 89 85 e0 fa ff ff 	mov    %rax,-0x520(%rbp)
  403a4c:	bb 01 00 00 00       	mov    $0x1,%ebx
  403a51:	48 8d 95 e8 fa ff ff 	lea    -0x518(%rbp),%rdx
  403a58:	48 8d 85 e0 fa ff ff 	lea    -0x520(%rbp),%rax
  403a5f:	48 89 d6             	mov    %rdx,%rsi
  403a62:	48 89 c7             	mov    %rax,%rdi
  403a65:	e8 d0 19 00 00       	callq  40543a <_ZNKSt17_Rb_tree_iteratorISt4pairIKNSt7__cxx1112basic_stringIcSt11char_traitsIcESaIcEEES6_EEneERKS9_>
  403a6a:	84 c0                	test   %al,%al
  403a6c:	74 4d                	je     403abb <main+0x5d4>
  403a6e:	48 8d 95 a0 fc ff ff 	lea    -0x360(%rbp),%rdx
  403a75:	48 8d 85 50 fb ff ff 	lea    -0x4b0(%rbp),%rax
  403a7c:	48 89 d6             	mov    %rdx,%rsi
  403a7f:	48 89 c7             	mov    %rax,%rdi
  403a82:	e8 51 19 00 00       	callq  4053d8 <_ZNSt3mapINSt7__cxx1112basic_stringIcSt11char_traitsIcESaIcEEES5_St4lessIS5_ESaISt4pairIKS5_S5_EEE4findERS9_>
  403a87:	48 89 85 f0 fa ff ff 	mov    %rax,-0x510(%rbp)
  403a8e:	41 be 01 00 00 00    	mov    $0x1,%r14d
  403a94:	48 8d 85 f0 fa ff ff 	lea    -0x510(%rbp),%rax
  403a9b:	48 89 c7             	mov    %rax,%rdi
  403a9e:	e8 b9 19 00 00       	callq  40545c <_ZNKSt17_Rb_tree_iteratorISt4pairIKNSt7__cxx1112basic_stringIcSt11char_traitsIcESaIcEEES6_EEptEv>
  403aa3:	48 8d 50 20          	lea    0x20(%rax),%rdx
  403aa7:	48 8d 85 60 fc ff ff 	lea    -0x3a0(%rbp),%rax
  403aae:	48 89 c6             	mov    %rax,%rsi
  403ab1:	48 89 d7             	mov    %rdx,%rdi
  403ab4:	e8 a7 f0 ff ff       	callq  402b60 <_ZNKSt7__cxx1112basic_stringIcSt11char_traitsIcESaIcEE7compareERKS4_@plt>
  403ab9:	85 c0                	test   %eax,%eax
  403abb:	45 84 f6             	test   %r14b,%r14b
  403abe:	84 db                	test   %bl,%bl
  403ac0:	45 84 ff             	test   %r15b,%r15b
  403ac3:	90                   	nop
  403ac4:	bb 00 00 00 00       	mov    $0x0,%ebx
  403ac9:	41 be 00 00 00 00    	mov    $0x0,%r14d
  403acf:	41 bf 00 00 00 00    	mov    $0x0,%r15d
  403ad5:	c6 85 9b fa ff ff 00 	movb   $0x0,-0x565(%rbp)
  403adc:	c6 85 9a fa ff ff 00 	movb   $0x0,-0x566(%rbp)
  403ae3:	48 8d 85 50 fb ff ff 	lea    -0x4b0(%rbp),%rax
  403aea:	48 89 c7             	mov    %rax,%rdi
  403aed:	e8 0c 19 00 00       	callq  4053fe <_ZNSt3mapINSt7__cxx1112basic_stringIcSt11char_traitsIcESaIcEEES5_St4lessIS5_ESaISt4pairIKS5_S5_EEE3endEv>
  403af2:	48 89 85 00 fb ff ff 	mov    %rax,-0x500(%rbp)
  403af9:	c6 85 99 fa ff ff 01 	movb   $0x1,-0x567(%rbp)
  403b00:	48 8d 95 80 fc ff ff 	lea    -0x380(%rbp),%rdx
  403b07:	48 8d 85 50 fb ff ff 	lea    -0x4b0(%rbp),%rax
  403b0e:	48 89 d6             	mov    %rdx,%rsi
  403b11:	48 89 c7             	mov    %rax,%rdi
  403b14:	e8 bf 18 00 00       	callq  4053d8 <_ZNSt3mapINSt7__cxx1112basic_stringIcSt11char_traitsIcESaIcEEES5_St4lessIS5_ESaISt4pairIKS5_S5_EEE4findERS9_>
  403b19:	48 89 85 f8 fa ff ff 	mov    %rax,-0x508(%rbp)
  403b20:	bb 01 00 00 00       	mov    $0x1,%ebx
  403b25:	48 8d 95 00 fb ff ff 	lea    -0x500(%rbp),%rdx
  403b2c:	48 8d 85 f8 fa ff ff 	lea    -0x508(%rbp),%rax
  403b33:	48 89 d6             	mov    %rdx,%rsi
  403b36:	48 89 c7             	mov    %rax,%rdi
  403b39:	e8 da 18 00 00       	callq  405418 <_ZNKSt17_Rb_tree_iteratorISt4pairIKNSt7__cxx1112basic_stringIcSt11char_traitsIcESaIcEEES6_EEeqERKS9_>
  403b3e:	84 c0                	test   %al,%al
  403b40:	0f 85 03 01 00 00    	jne    403c49 <main+0x762>
  403b46:	48 8d 85 50 fb ff ff 	lea    -0x4b0(%rbp),%rax
  403b4d:	48 89 c7             	mov    %rax,%rdi
  403b50:	e8 a9 18 00 00       	callq  4053fe <_ZNSt3mapINSt7__cxx1112basic_stringIcSt11char_traitsIcESaIcEEES5_St4lessIS5_ESaISt4pairIKS5_S5_EEE3endEv>
  403b55:	48 89 85 10 fb ff ff 	mov    %rax,-0x4f0(%rbp)
  403b5c:	41 be 01 00 00 00    	mov    $0x1,%r14d
  403b62:	48 8d 95 a0 fc ff ff 	lea    -0x360(%rbp),%rdx
  403b69:	48 8d 85 50 fb ff ff 	lea    -0x4b0(%rbp),%rax
  403b70:	48 89 d6             	mov    %rdx,%rsi
  403b73:	48 89 c7             	mov    %rax,%rdi
  403b76:	e8 5d 18 00 00       	callq  4053d8 <_ZNSt3mapINSt7__cxx1112basic_stringIcSt11char_traitsIcESaIcEEES5_St4lessIS5_ESaISt4pairIKS5_S5_EEE4findERS9_>
  403b7b:	48 89 85 08 fb ff ff 	mov    %rax,-0x4f8(%rbp)
  403b82:	41 bf 01 00 00 00    	mov    $0x1,%r15d
  403b88:	48 8d 95 10 fb ff ff 	lea    -0x4f0(%rbp),%rdx
  403b8f:	48 8d 85 08 fb ff ff 	lea    -0x4f8(%rbp),%rax
  403b96:	48 89 d6             	mov    %rdx,%rsi
  403b99:	48 89 c7             	mov    %rax,%rdi
  403b9c:	e8 77 18 00 00       	callq  405418 <_ZNKSt17_Rb_tree_iteratorISt4pairIKNSt7__cxx1112basic_stringIcSt11char_traitsIcESaIcEEES6_EEeqERKS9_>
  403ba1:	84 c0                	test   %al,%al
  403ba3:	0f 85 a0 00 00 00    	jne    403c49 <main+0x762>
  403ba9:	48 8d 95 80 fc ff ff 	lea    -0x380(%rbp),%rdx
  403bb0:	48 8d 85 50 fb ff ff 	lea    -0x4b0(%rbp),%rax
  403bb7:	48 89 d6             	mov    %rdx,%rsi
  403bba:	48 89 c7             	mov    %rax,%rdi
  403bbd:	e8 16 18 00 00       	callq  4053d8 <_ZNSt3mapINSt7__cxx1112basic_stringIcSt11char_traitsIcESaIcEEES5_St4lessIS5_ESaISt4pairIKS5_S5_EEE4findERS9_>
  403bc2:	48 89 85 18 fb ff ff 	mov    %rax,-0x4e8(%rbp)
  403bc9:	c6 85 9b fa ff ff 01 	movb   $0x1,-0x565(%rbp)
  403bd0:	48 8d 85 18 fb ff ff 	lea    -0x4e8(%rbp),%rax
  403bd7:	48 89 c7             	mov    %rax,%rdi
  403bda:	e8 7d 18 00 00       	callq  40545c <_ZNKSt17_Rb_tree_iteratorISt4pairIKNSt7__cxx1112basic_stringIcSt11char_traitsIcESaIcEEES6_EEptEv>
  403bdf:	48 8d 50 20          	lea    0x20(%rax),%rdx
  403be3:	48 8d 85 40 fc ff ff 	lea    -0x3c0(%rbp),%rax
  403bea:	48 89 c6             	mov    %rax,%rsi
  403bed:	48 89 d7             	mov    %rdx,%rdi
  403bf0:	e8 6b ef ff ff       	callq  402b60 <_ZNKSt7__cxx1112basic_stringIcSt11char_traitsIcESaIcEE7compareERKS4_@plt>
  403bf5:	85 c0                	test   %eax,%eax
  403bf7:	75 50                	jne    403c49 <main+0x762>
  403bf9:	48 8d 95 a0 fc ff ff 	lea    -0x360(%rbp),%rdx
  403c00:	48 8d 85 50 fb ff ff 	lea    -0x4b0(%rbp),%rax
  403c07:	48 89 d6             	mov    %rdx,%rsi
  403c0a:	48 89 c7             	mov    %rax,%rdi
  403c0d:	e8 c6 17 00 00       	callq  4053d8 <_ZNSt3mapINSt7__cxx1112basic_stringIcSt11char_traitsIcESaIcEEES5_St4lessIS5_ESaISt4pairIKS5_S5_EEE4findERS9_>
  403c12:	48 89 85 20 fb ff ff 	mov    %rax,-0x4e0(%rbp)
  403c19:	c6 85 9a fa ff ff 01 	movb   $0x1,-0x566(%rbp)
  403c20:	48 8d 85 20 fb ff ff 	lea    -0x4e0(%rbp),%rax
  403c27:	48 89 c7             	mov    %rax,%rdi
  403c2a:	e8 2d 18 00 00       	callq  40545c <_ZNKSt17_Rb_tree_iteratorISt4pairIKNSt7__cxx1112basic_stringIcSt11char_traitsIcESaIcEEES6_EEptEv>
  403c2f:	48 8d 50 20          	lea    0x20(%rax),%rdx
  403c33:	48 8d 85 60 fc ff ff 	lea    -0x3a0(%rbp),%rax
  403c3a:	48 89 c6             	mov    %rax,%rsi
  403c3d:	48 89 d7             	mov    %rdx,%rdi
  403c40:	e8 1b ef ff ff       	callq  402b60 <_ZNKSt7__cxx1112basic_stringIcSt11char_traitsIcESaIcEE7compareERKS4_@plt>
  403c45:	85 c0                	test   %eax,%eax
  403c47:	74 07                	je     403c50 <main+0x769>
  403c49:	b8 01 00 00 00       	mov    $0x1,%eax
  403c4e:	eb 05                	jmp    403c55 <main+0x76e>
  403c50:	b8 00 00 00 00       	mov    $0x0,%eax
  403c55:	80 bd 9a fa ff ff 00 	cmpb   $0x0,-0x566(%rbp)
  403c5c:	80 bd 9b fa ff ff 00 	cmpb   $0x0,-0x565(%rbp)
  403c63:	45 84 ff             	test   %r15b,%r15b
  403c66:	45 84 f6             	test   %r14b,%r14b
  403c69:	84 db                	test   %bl,%bl
  403c6b:	80 bd 99 fa ff ff 00 	cmpb   $0x0,-0x567(%rbp)
  403c72:	84 c0                	test   %al,%al
  403c74:	0f 84 64 01 00 00    	je     403dde <main+0x8f7>
  403c7a:	48 8d 85 00 fd ff ff 	lea    -0x300(%rbp),%rax
  403c81:	48 89 c7             	mov    %rax,%rdi
  403c84:	e8 3d f6 ff ff       	callq  4032c6 <_Z2f2B5cxx11v>
  403c89:	48 8d 95 00 fd ff ff 	lea    -0x300(%rbp),%rdx
  403c90:	48 8d 85 80 fc ff ff 	lea    -0x380(%rbp),%rax
  403c97:	48 89 d6             	mov    %rdx,%rsi
  403c9a:	48 89 c7             	mov    %rax,%rdi
  403c9d:	e8 be f2 ff ff       	callq  402f60 <_ZNSt7__cxx1112basic_stringIcSt11char_traitsIcESaIcEEaSEOS4_@plt>
  403ca2:	48 8d 85 00 fd ff ff 	lea    -0x300(%rbp),%rax
  403ca9:	48 89 c7             	mov    %rax,%rdi
  403cac:	e8 7f f0 ff ff       	callq  402d30 <_ZNSt7__cxx1112basic_stringIcSt11char_traitsIcESaIcEED1Ev@plt>
  403cb1:	48 8d 85 20 fd ff ff 	lea    -0x2e0(%rbp),%rax
  403cb8:	48 89 c7             	mov    %rax,%rdi
  403cbb:	e8 06 f6 ff ff       	callq  4032c6 <_Z2f2B5cxx11v>
  403cc0:	48 8d 95 20 fd ff ff 	lea    -0x2e0(%rbp),%rdx
  403cc7:	48 8d 85 a0 fc ff ff 	lea    -0x360(%rbp),%rax
  403cce:	48 89 d6             	mov    %rdx,%rsi
  403cd1:	48 89 c7             	mov    %rax,%rdi
  403cd4:	e8 87 f2 ff ff       	callq  402f60 <_ZNSt7__cxx1112basic_stringIcSt11char_traitsIcESaIcEEaSEOS4_@plt>
  403cd9:	48 8d 85 20 fd ff ff 	lea    -0x2e0(%rbp),%rax
  403ce0:	48 89 c7             	mov    %rax,%rdi
  403ce3:	e8 48 f0 ff ff       	callq  402d30 <_ZNSt7__cxx1112basic_stringIcSt11char_traitsIcESaIcEED1Ev@plt>
  403ce8:	48 8d 85 10 fc ff ff 	lea    -0x3f0(%rbp),%rax
  403cef:	48 89 c7             	mov    %rax,%rdi
  403cf2:	e8 81 11 00 00       	callq  404e78 <_ZNSt3mapINSt7__cxx1112basic_stringIcSt11char_traitsIcESaIcEEES5_St4lessIS5_ESaISt4pairIKS5_S5_EEEC1Ev>
  403cf7:	48 8d 85 00 fe ff ff 	lea    -0x200(%rbp),%rax
  403cfe:	48 8d 95 80 fc ff ff 	lea    -0x380(%rbp),%rdx
  403d05:	be 83 db 40 00       	mov    $0x40db83,%esi
  403d0a:	48 89 c7             	mov    %rax,%rdi
  403d0d:	e8 d3 0d 00 00       	callq  404ae5 <_ZSt9make_pairIRA2_KcRNSt7__cxx1112basic_stringIcSt11char_traitsIcESaIcEEEESt4pairINSt17__decay_and_stripIT_E6__typeENSB_IT0_E6__typeEEOSC_OSF_>
  403d12:	48 8d 95 00 fe ff ff 	lea    -0x200(%rbp),%rdx
  403d19:	48 8d 85 10 fc ff ff 	lea    -0x3f0(%rbp),%rax
  403d20:	48 89 d6             	mov    %rdx,%rsi
  403d23:	48 89 c7             	mov    %rax,%rdi
  403d26:	e8 5d 17 00 00       	callq  405488 <_ZNSt3mapINSt7__cxx1112basic_stringIcSt11char_traitsIcESaIcEEES5_St4lessIS5_ESaISt4pairIKS5_S5_EEE6insertIS8_IPKcS5_EvEES8_ISt17_Rb_tree_iteratorISA_EbEOT_>
  403d2b:	48 8d 85 00 fe ff ff 	lea    -0x200(%rbp),%rax
  403d32:	48 89 c7             	mov    %rax,%rdi
  403d35:	e8 8c 0d 00 00       	callq  404ac6 <_ZNSt4pairIPKcNSt7__cxx1112basic_stringIcSt11char_traitsIcESaIcEEEED1Ev>
  403d3a:	48 8d 85 30 fe ff ff 	lea    -0x1d0(%rbp),%rax
  403d41:	48 8d 95 a0 fc ff ff 	lea    -0x360(%rbp),%rdx
  403d48:	be 85 db 40 00       	mov    $0x40db85,%esi
  403d4d:	48 89 c7             	mov    %rax,%rdi
  403d50:	e8 90 0d 00 00       	callq  404ae5 <_ZSt9make_pairIRA2_KcRNSt7__cxx1112basic_stringIcSt11char_traitsIcESaIcEEEESt4pairINSt17__decay_and_stripIT_E6__typeENSB_IT0_E6__typeEEOSC_OSF_>
  403d55:	48 8d 95 30 fe ff ff 	lea    -0x1d0(%rbp),%rdx
  403d5c:	48 8d 85 10 fc ff ff 	lea    -0x3f0(%rbp),%rax
  403d63:	48 89 d6             	mov    %rdx,%rsi
  403d66:	48 89 c7             	mov    %rax,%rdi
  403d69:	e8 1a 17 00 00       	callq  405488 <_ZNSt3mapINSt7__cxx1112basic_stringIcSt11char_traitsIcESaIcEEES5_St4lessIS5_ESaISt4pairIKS5_S5_EEE6insertIS8_IPKcS5_EvEES8_ISt17_Rb_tree_iteratorISA_EbEOT_>
  403d6e:	48 8d 85 30 fe ff ff 	lea    -0x1d0(%rbp),%rax
  403d75:	48 89 c7             	mov    %rax,%rdi
  403d78:	e8 49 0d 00 00       	callq  404ac6 <_ZNSt4pairIPKcNSt7__cxx1112basic_stringIcSt11char_traitsIcESaIcEEEED1Ev>
  403d7d:	48 8d 95 10 fc ff ff 	lea    -0x3f0(%rbp),%rdx
  403d84:	48 8d 85 b0 fb ff ff 	lea    -0x450(%rbp),%rax
  403d8b:	48 89 d6             	mov    %rdx,%rsi
  403d8e:	48 89 c7             	mov    %rax,%rdi
  403d91:	e8 22 17 00 00       	callq  4054b8 <_ZNSt3mapINSt7__cxx1112basic_stringIcSt11char_traitsIcESaIcEEES5_St4lessIS5_ESaISt4pairIKS5_S5_EEEC1ERKSC_>
  403d96:	48 8d 95 b0 fb ff ff 	lea    -0x450(%rbp),%rdx
  403d9d:	8b 85 b0 fa ff ff    	mov    -0x550(%rbp),%eax
  403da3:	41 b8 00 00 00 00    	mov    $0x0,%r8d
  403da9:	b9 00 00 00 00       	mov    $0x0,%ecx
  403dae:	be 6a db 40 00       	mov    $0x40db6a,%esi
  403db3:	89 c7                	mov    %eax,%edi
  403db5:	e8 54 46 00 00       	callq  40840e <_Z13write_requestiPKcSt3mapINSt7__cxx1112basic_stringIcSt11char_traitsIcESaIcEEES7_St4lessIS7_ESaISt4pairIKS7_S7_EEEPKvi>
  403dba:	48 8d 85 b0 fb ff ff 	lea    -0x450(%rbp),%rax
  403dc1:	48 89 c7             	mov    %rax,%rdi
  403dc4:	e8 3b 0b 00 00       	callq  404904 <_ZNSt3mapINSt7__cxx1112basic_stringIcSt11char_traitsIcESaIcEEES5_St4lessIS5_ESaISt4pairIKS5_S5_EEED1Ev>
  403dc9:	90                   	nop
  403dca:	48 8d 85 10 fc ff ff 	lea    -0x3f0(%rbp),%rax
  403dd1:	48 89 c7             	mov    %rax,%rdi
  403dd4:	e8 2b 0b 00 00       	callq  404904 <_ZNSt3mapINSt7__cxx1112basic_stringIcSt11char_traitsIcESaIcEEES5_St4lessIS5_ESaISt4pairIKS5_S5_EEED1Ev>
  403dd9:	e9 01 01 00 00       	jmpq   403edf <main+0x9f8>
  403dde:	c7 85 a8 fa ff ff 01 	movl   $0x1,-0x558(%rbp)
  403de5:	00 00 00 
  403de8:	83 85 a0 fa ff ff 01 	addl   $0x1,-0x560(%rbp)
  403def:	8b 85 b4 fa ff ff    	mov    -0x54c(%rbp),%eax
  403df5:	2b 85 a0 fa ff ff    	sub    -0x560(%rbp),%eax
  403dfb:	89 c2                	mov    %eax,%edx
  403dfd:	48 8d 85 60 fd ff ff 	lea    -0x2a0(%rbp),%rax
  403e04:	89 d6                	mov    %edx,%esi
  403e06:	48 89 c7             	mov    %rax,%rdi
  403e09:	e8 46 0a 00 00       	callq  404854 <_ZNSt7__cxx119to_stringEi>
  403e0e:	48 8d 85 10 fc ff ff 	lea    -0x3f0(%rbp),%rax
  403e15:	48 89 c7             	mov    %rax,%rdi
  403e18:	e8 e3 f2 ff ff       	callq  403100 <_ZNSaIcEC1Ev@plt>
  403e1d:	48 8d 95 10 fc ff ff 	lea    -0x3f0(%rbp),%rdx
  403e24:	48 8d 85 40 fd ff ff 	lea    -0x2c0(%rbp),%rax
  403e2b:	be 75 db 40 00       	mov    $0x40db75,%esi
  403e30:	48 89 c7             	mov    %rax,%rdi
  403e33:	e8 88 f1 ff ff       	callq  402fc0 <_ZNSt7__cxx1112basic_stringIcSt11char_traitsIcESaIcEEC1EPKcRKS3_@plt>
  403e38:	48 8d 45 80          	lea    -0x80(%rbp),%rax
  403e3c:	48 8d 95 60 fd ff ff 	lea    -0x2a0(%rbp),%rdx
  403e43:	48 8d 8d 40 fd ff ff 	lea    -0x2c0(%rbp),%rcx
  403e4a:	48 89 ce             	mov    %rcx,%rsi
  403e4d:	48 89 c7             	mov    %rax,%rdi
  403e50:	e8 58 0f 00 00       	callq  404dad <_ZStplIcSt11char_traitsIcESaIcEENSt7__cxx1112basic_stringIT_T0_T1_EEOS8_S9_>
  403e55:	48 8d 85 40 fd ff ff 	lea    -0x2c0(%rbp),%rax
  403e5c:	48 89 c7             	mov    %rax,%rdi
  403e5f:	e8 cc ee ff ff       	callq  402d30 <_ZNSt7__cxx1112basic_stringIcSt11char_traitsIcESaIcEED1Ev@plt>
  403e64:	48 8d 85 10 fc ff ff 	lea    -0x3f0(%rbp),%rax
  403e6b:	48 89 c7             	mov    %rax,%rdi
  403e6e:	e8 ad f0 ff ff       	callq  402f20 <_ZNSaIcED1Ev@plt>
  403e73:	48 8d 85 60 fd ff ff 	lea    -0x2a0(%rbp),%rax
  403e7a:	48 89 c7             	mov    %rax,%rdi
  403e7d:	e8 ae ee ff ff       	callq  402d30 <_ZNSt7__cxx1112basic_stringIcSt11char_traitsIcESaIcEED1Ev@plt>
  403e82:	48 8d 85 10 fc ff ff 	lea    -0x3f0(%rbp),%rax
  403e89:	48 89 c7             	mov    %rax,%rdi
  403e8c:	e8 e7 0f 00 00       	callq  404e78 <_ZNSt3mapINSt7__cxx1112basic_stringIcSt11char_traitsIcESaIcEEES5_St4lessIS5_ESaISt4pairIKS5_S5_EEEC1Ev>
  403e91:	48 8d 45 80          	lea    -0x80(%rbp),%rax
  403e95:	48 89 c7             	mov    %rax,%rdi
  403e98:	e8 03 ee ff ff       	callq  402ca0 <_ZNKSt7__cxx1112basic_stringIcSt11char_traitsIcESaIcEE5c_strEv@plt>
  403e9d:	48 89 c6             	mov    %rax,%rsi
  403ea0:	48 8d 95 10 fc ff ff 	lea    -0x3f0(%rbp),%rdx
  403ea7:	8b 85 b0 fa ff ff    	mov    -0x550(%rbp),%eax
  403ead:	41 b8 00 00 00 00    	mov    $0x0,%r8d
  403eb3:	b9 00 00 00 00       	mov    $0x0,%ecx
  403eb8:	89 c7                	mov    %eax,%edi
  403eba:	e8 4f 45 00 00       	callq  40840e <_Z13write_requestiPKcSt3mapINSt7__cxx1112basic_stringIcSt11char_traitsIcESaIcEEES7_St4lessIS7_ESaISt4pairIKS7_S7_EEEPKvi>
  403ebf:	48 8d 85 10 fc ff ff 	lea    -0x3f0(%rbp),%rax
  403ec6:	48 89 c7             	mov    %rax,%rdi
  403ec9:	e8 36 0a 00 00       	callq  404904 <_ZNSt3mapINSt7__cxx1112basic_stringIcSt11char_traitsIcESaIcEEES5_St4lessIS5_ESaISt4pairIKS5_S5_EEED1Ev>
  403ece:	48 8d 45 80          	lea    -0x80(%rbp),%rax
  403ed2:	48 89 c7             	mov    %rax,%rdi
  403ed5:	e8 56 ee ff ff       	callq  402d30 <_ZNSt7__cxx1112basic_stringIcSt11char_traitsIcESaIcEED1Ev@plt>
  403eda:	e9 ce 04 00 00       	jmpq   4043ad <main+0xec6>
  403edf:	bb 00 00 00 00       	mov    $0x0,%ebx
  403ee4:	e9 c9 04 00 00       	jmpq   4043b2 <main+0xecb>
  403ee9:	48 8d 85 c0 fc ff ff 	lea    -0x340(%rbp),%rax
  403ef0:	be 87 db 40 00       	mov    $0x40db87,%esi
  403ef5:	48 89 c7             	mov    %rax,%rdi
  403ef8:	e8 32 13 00 00       	callq  40522f <_ZSteqIcSt11char_traitsIcESaIcEEbRKNSt7__cxx1112basic_stringIT_T0_T1_EEPKS5_>
  403efd:	84 c0                	test   %al,%al
  403eff:	74 15                	je     403f16 <main+0xa2f>
  403f01:	8b 85 a0 fa ff ff    	mov    -0x560(%rbp),%eax
  403f07:	3b 85 b4 fa ff ff    	cmp    -0x54c(%rbp),%eax
  403f0d:	75 07                	jne    403f16 <main+0xa2f>
  403f0f:	b8 01 00 00 00       	mov    $0x1,%eax
  403f14:	eb 05                	jmp    403f1b <main+0xa34>
  403f16:	b8 00 00 00 00       	mov    $0x0,%eax
  403f1b:	84 c0                	test   %al,%al
  403f1d:	74 0a                	je     403f29 <main+0xa42>
  403f1f:	bb 01 00 00 00       	mov    $0x1,%ebx
  403f24:	e9 89 04 00 00       	jmpq   4043b2 <main+0xecb>
  403f29:	48 8d 85 c0 fc ff ff 	lea    -0x340(%rbp),%rax
  403f30:	be 8c db 40 00       	mov    $0x40db8c,%esi
  403f35:	48 89 c7             	mov    %rax,%rdi
  403f38:	e8 f2 12 00 00       	callq  40522f <_ZSteqIcSt11char_traitsIcESaIcEEbRKNSt7__cxx1112basic_stringIT_T0_T1_EEPKS5_>
  403f3d:	84 c0                	test   %al,%al
  403f3f:	0f 84 0a 02 00 00    	je     40414f <main+0xc68>
  403f45:	c7 85 a0 fa ff ff 00 	movl   $0x0,-0x560(%rbp)
  403f4c:	00 00 00 
  403f4f:	48 8d 85 40 fc ff ff 	lea    -0x3c0(%rbp),%rax
  403f56:	48 89 c7             	mov    %rax,%rdi
  403f59:	e8 42 f0 ff ff       	callq  402fa0 <_ZNSt7__cxx1112basic_stringIcSt11char_traitsIcESaIcEE5clearEv@plt>
  403f5e:	48 8d 85 60 fc ff ff 	lea    -0x3a0(%rbp),%rax
  403f65:	48 89 c7             	mov    %rax,%rdi
  403f68:	e8 33 f0 ff ff       	callq  402fa0 <_ZNSt7__cxx1112basic_stringIcSt11char_traitsIcESaIcEE5clearEv@plt>
  403f6d:	48 8d 45 80          	lea    -0x80(%rbp),%rax
  403f71:	48 89 c7             	mov    %rax,%rdi
  403f74:	e8 57 f0 ff ff       	callq  402fd0 <_ZNSt7__cxx1112basic_stringIcSt11char_traitsIcESaIcEEC1Ev@plt>
  403f79:	48 8d 95 60 fc ff ff 	lea    -0x3a0(%rbp),%rdx
  403f80:	48 8d 8d 40 fc ff ff 	lea    -0x3c0(%rbp),%rcx
  403f87:	48 8d 45 80          	lea    -0x80(%rbp),%rax
  403f8b:	48 89 ce             	mov    %rcx,%rsi
  403f8e:	48 89 c7             	mov    %rax,%rdi
  403f91:	e8 05 f4 ff ff       	callq  40339b <_Z2f1RNSt7__cxx1112basic_stringIcSt11char_traitsIcESaIcEEES5_S5_>
  403f96:	48 8d 85 80 fd ff ff 	lea    -0x280(%rbp),%rax
  403f9d:	48 89 c7             	mov    %rax,%rdi
  403fa0:	e8 21 f3 ff ff       	callq  4032c6 <_Z2f2B5cxx11v>
  403fa5:	48 8d 95 80 fd ff ff 	lea    -0x280(%rbp),%rdx
  403fac:	48 8d 85 80 fc ff ff 	lea    -0x380(%rbp),%rax
  403fb3:	48 89 d6             	mov    %rdx,%rsi
  403fb6:	48 89 c7             	mov    %rax,%rdi
  403fb9:	e8 a2 ef ff ff       	callq  402f60 <_ZNSt7__cxx1112basic_stringIcSt11char_traitsIcESaIcEEaSEOS4_@plt>
  403fbe:	48 8d 85 80 fd ff ff 	lea    -0x280(%rbp),%rax
  403fc5:	48 89 c7             	mov    %rax,%rdi
  403fc8:	e8 63 ed ff ff       	callq  402d30 <_ZNSt7__cxx1112basic_stringIcSt11char_traitsIcESaIcEED1Ev@plt>
  403fcd:	48 8d 85 a0 fd ff ff 	lea    -0x260(%rbp),%rax
  403fd4:	48 89 c7             	mov    %rax,%rdi
  403fd7:	e8 ea f2 ff ff       	callq  4032c6 <_Z2f2B5cxx11v>
  403fdc:	48 8d 95 a0 fd ff ff 	lea    -0x260(%rbp),%rdx
  403fe3:	48 8d 85 a0 fc ff ff 	lea    -0x360(%rbp),%rax
  403fea:	48 89 d6             	mov    %rdx,%rsi
  403fed:	48 89 c7             	mov    %rax,%rdi
  403ff0:	e8 6b ef ff ff       	callq  402f60 <_ZNSt7__cxx1112basic_stringIcSt11char_traitsIcESaIcEEaSEOS4_@plt>
  403ff5:	48 8d 85 a0 fd ff ff 	lea    -0x260(%rbp),%rax
  403ffc:	48 89 c7             	mov    %rax,%rdi
  403fff:	e8 2c ed ff ff       	callq  402d30 <_ZNSt7__cxx1112basic_stringIcSt11char_traitsIcESaIcEED1Ev@plt>
  404004:	48 8d 85 10 fc ff ff 	lea    -0x3f0(%rbp),%rax
  40400b:	48 89 c7             	mov    %rax,%rdi
  40400e:	e8 65 0e 00 00       	callq  404e78 <_ZNSt3mapINSt7__cxx1112basic_stringIcSt11char_traitsIcESaIcEEES5_St4lessIS5_ESaISt4pairIKS5_S5_EEEC1Ev>
  404013:	48 8d 85 60 fe ff ff 	lea    -0x1a0(%rbp),%rax
  40401a:	48 8d 95 80 fc ff ff 	lea    -0x380(%rbp),%rdx
  404021:	be 83 db 40 00       	mov    $0x40db83,%esi
  404026:	48 89 c7             	mov    %rax,%rdi
  404029:	e8 b7 0a 00 00       	callq  404ae5 <_ZSt9make_pairIRA2_KcRNSt7__cxx1112basic_stringIcSt11char_traitsIcESaIcEEEESt4pairINSt17__decay_and_stripIT_E6__typeENSB_IT0_E6__typeEEOSC_OSF_>
  40402e:	48 8d 95 60 fe ff ff 	lea    -0x1a0(%rbp),%rdx
  404035:	48 8d 85 10 fc ff ff 	lea    -0x3f0(%rbp),%rax
  40403c:	48 89 d6             	mov    %rdx,%rsi
  40403f:	48 89 c7             	mov    %rax,%rdi
  404042:	e8 41 14 00 00       	callq  405488 <_ZNSt3mapINSt7__cxx1112basic_stringIcSt11char_traitsIcESaIcEEES5_St4lessIS5_ESaISt4pairIKS5_S5_EEE6insertIS8_IPKcS5_EvEES8_ISt17_Rb_tree_iteratorISA_EbEOT_>
  404047:	48 8d 85 60 fe ff ff 	lea    -0x1a0(%rbp),%rax
  40404e:	48 89 c7             	mov    %rax,%rdi
  404051:	e8 70 0a 00 00       	callq  404ac6 <_ZNSt4pairIPKcNSt7__cxx1112basic_stringIcSt11char_traitsIcESaIcEEEED1Ev>
  404056:	48 8d 85 90 fe ff ff 	lea    -0x170(%rbp),%rax
  40405d:	48 8d 95 a0 fc ff ff 	lea    -0x360(%rbp),%rdx
  404064:	be 85 db 40 00       	mov    $0x40db85,%esi
  404069:	48 89 c7             	mov    %rax,%rdi
  40406c:	e8 74 0a 00 00       	callq  404ae5 <_ZSt9make_pairIRA2_KcRNSt7__cxx1112basic_stringIcSt11char_traitsIcESaIcEEEESt4pairINSt17__decay_and_stripIT_E6__typeENSB_IT0_E6__typeEEOSC_OSF_>
  404071:	48 8d 95 90 fe ff ff 	lea    -0x170(%rbp),%rdx
  404078:	48 8d 85 10 fc ff ff 	lea    -0x3f0(%rbp),%rax
  40407f:	48 89 d6             	mov    %rdx,%rsi
  404082:	48 89 c7             	mov    %rax,%rdi
  404085:	e8 fe 13 00 00       	callq  405488 <_ZNSt3mapINSt7__cxx1112basic_stringIcSt11char_traitsIcESaIcEEES5_St4lessIS5_ESaISt4pairIKS5_S5_EEE6insertIS8_IPKcS5_EvEES8_ISt17_Rb_tree_iteratorISA_EbEOT_>
  40408a:	48 8d 85 90 fe ff ff 	lea    -0x170(%rbp),%rax
  404091:	48 89 c7             	mov    %rax,%rdi
  404094:	e8 2d 0a 00 00       	callq  404ac6 <_ZNSt4pairIPKcNSt7__cxx1112basic_stringIcSt11char_traitsIcESaIcEEEED1Ev>
  404099:	48 8d 85 c0 fe ff ff 	lea    -0x140(%rbp),%rax
  4040a0:	48 8d 55 80          	lea    -0x80(%rbp),%rdx
  4040a4:	be 94 db 40 00       	mov    $0x40db94,%esi
  4040a9:	48 89 c7             	mov    %rax,%rdi
  4040ac:	e8 ba 0a 00 00       	callq  404b6b <_ZSt9make_pairIRA12_KcRNSt7__cxx1112basic_stringIcSt11char_traitsIcESaIcEEEESt4pairINSt17__decay_and_stripIT_E6__typeENSB_IT0_E6__typeEEOSC_OSF_>
  4040b1:	48 8d 95 c0 fe ff ff 	lea    -0x140(%rbp),%rdx
  4040b8:	48 8d 85 10 fc ff ff 	lea    -0x3f0(%rbp),%rax
  4040bf:	48 89 d6             	mov    %rdx,%rsi
  4040c2:	48 89 c7             	mov    %rax,%rdi
  4040c5:	e8 be 13 00 00       	callq  405488 <_ZNSt3mapINSt7__cxx1112basic_stringIcSt11char_traitsIcESaIcEEES5_St4lessIS5_ESaISt4pairIKS5_S5_EEE6insertIS8_IPKcS5_EvEES8_ISt17_Rb_tree_iteratorISA_EbEOT_>
  4040ca:	48 8d 85 c0 fe ff ff 	lea    -0x140(%rbp),%rax
  4040d1:	48 89 c7             	mov    %rax,%rdi
  4040d4:	e8 ed 09 00 00       	callq  404ac6 <_ZNSt4pairIPKcNSt7__cxx1112basic_stringIcSt11char_traitsIcESaIcEEEED1Ev>
  4040d9:	48 8d 95 10 fc ff ff 	lea    -0x3f0(%rbp),%rdx
  4040e0:	48 8d 85 e0 fb ff ff 	lea    -0x420(%rbp),%rax
  4040e7:	48 89 d6             	mov    %rdx,%rsi
  4040ea:	48 89 c7             	mov    %rax,%rdi
  4040ed:	e8 c6 13 00 00       	callq  4054b8 <_ZNSt3mapINSt7__cxx1112basic_stringIcSt11char_traitsIcESaIcEEES5_St4lessIS5_ESaISt4pairIKS5_S5_EEEC1ERKSC_>
  4040f2:	48 8d 95 e0 fb ff ff 	lea    -0x420(%rbp),%rdx
  4040f9:	8b 85 b0 fa ff ff    	mov    -0x550(%rbp),%eax
  4040ff:	41 b8 00 00 00 00    	mov    $0x0,%r8d
  404105:	b9 00 00 00 00       	mov    $0x0,%ecx
  40410a:	be 2e db 40 00       	mov    $0x40db2e,%esi
  40410f:	89 c7                	mov    %eax,%edi
  404111:	e8 f8 42 00 00       	callq  40840e <_Z13write_requestiPKcSt3mapINSt7__cxx1112basic_stringIcSt11char_traitsIcESaIcEEES7_St4lessIS7_ESaISt4pairIKS7_S7_EEEPKvi>
  404116:	48 8d 85 e0 fb ff ff 	lea    -0x420(%rbp),%rax
  40411d:	48 89 c7             	mov    %rax,%rdi
  404120:	e8 df 07 00 00       	callq  404904 <_ZNSt3mapINSt7__cxx1112basic_stringIcSt11char_traitsIcESaIcEEES5_St4lessIS5_ESaISt4pairIKS5_S5_EEED1Ev>
  404125:	c7 85 a4 fa ff ff 01 	movl   $0x1,-0x55c(%rbp)
  40412c:	00 00 00 
  40412f:	48 8d 85 10 fc ff ff 	lea    -0x3f0(%rbp),%rax
  404136:	48 89 c7             	mov    %rax,%rdi
  404139:	e8 c6 07 00 00       	callq  404904 <_ZNSt3mapINSt7__cxx1112basic_stringIcSt11char_traitsIcESaIcEEES5_St4lessIS5_ESaISt4pairIKS5_S5_EEED1Ev>
  40413e:	48 8d 45 80          	lea    -0x80(%rbp),%rax
  404142:	48 89 c7             	mov    %rax,%rdi
  404145:	e8 e6 eb ff ff       	callq  402d30 <_ZNSt7__cxx1112basic_stringIcSt11char_traitsIcESaIcEED1Ev@plt>
  40414a:	e9 5e 02 00 00       	jmpq   4043ad <main+0xec6>
  40414f:	48 8d 85 c0 fc ff ff 	lea    -0x340(%rbp),%rax
  404156:	be a0 db 40 00       	mov    $0x40dba0,%esi
  40415b:	48 89 c7             	mov    %rax,%rdi
  40415e:	e8 cc 10 00 00       	callq  40522f <_ZSteqIcSt11char_traitsIcESaIcEEbRKNSt7__cxx1112basic_stringIT_T0_T1_EEPKS5_>
  404163:	84 c0                	test   %al,%al
  404165:	0f 84 fd 01 00 00    	je     404368 <main+0xe81>
  40416b:	48 8d 85 40 fc ff ff 	lea    -0x3c0(%rbp),%rax
  404172:	48 89 c7             	mov    %rax,%rdi
  404175:	e8 26 ee ff ff       	callq  402fa0 <_ZNSt7__cxx1112basic_stringIcSt11char_traitsIcESaIcEE5clearEv@plt>
  40417a:	48 8d 85 60 fc ff ff 	lea    -0x3a0(%rbp),%rax
  404181:	48 89 c7             	mov    %rax,%rdi
  404184:	e8 17 ee ff ff       	callq  402fa0 <_ZNSt7__cxx1112basic_stringIcSt11char_traitsIcESaIcEE5clearEv@plt>
  404189:	48 8d 45 80          	lea    -0x80(%rbp),%rax
  40418d:	48 89 c7             	mov    %rax,%rdi
  404190:	e8 3b ee ff ff       	callq  402fd0 <_ZNSt7__cxx1112basic_stringIcSt11char_traitsIcESaIcEEC1Ev@plt>
  404195:	48 8d 95 60 fc ff ff 	lea    -0x3a0(%rbp),%rdx
  40419c:	48 8d 8d 40 fc ff ff 	lea    -0x3c0(%rbp),%rcx
  4041a3:	48 8d 45 80          	lea    -0x80(%rbp),%rax
  4041a7:	48 89 ce             	mov    %rcx,%rsi
  4041aa:	48 89 c7             	mov    %rax,%rdi
  4041ad:	e8 e9 f1 ff ff       	callq  40339b <_Z2f1RNSt7__cxx1112basic_stringIcSt11char_traitsIcESaIcEEES5_S5_>
  4041b2:	48 8d 85 c0 fd ff ff 	lea    -0x240(%rbp),%rax
  4041b9:	48 89 c7             	mov    %rax,%rdi
  4041bc:	e8 05 f1 ff ff       	callq  4032c6 <_Z2f2B5cxx11v>
  4041c1:	48 8d 95 c0 fd ff ff 	lea    -0x240(%rbp),%rdx
  4041c8:	48 8d 85 80 fc ff ff 	lea    -0x380(%rbp),%rax
  4041cf:	48 89 d6             	mov    %rdx,%rsi
  4041d2:	48 89 c7             	mov    %rax,%rdi
  4041d5:	e8 86 ed ff ff       	callq  402f60 <_ZNSt7__cxx1112basic_stringIcSt11char_traitsIcESaIcEEaSEOS4_@plt>
  4041da:	48 8d 85 c0 fd ff ff 	lea    -0x240(%rbp),%rax
  4041e1:	48 89 c7             	mov    %rax,%rdi
  4041e4:	e8 47 eb ff ff       	callq  402d30 <_ZNSt7__cxx1112basic_stringIcSt11char_traitsIcESaIcEED1Ev@plt>
  4041e9:	48 8d 85 e0 fd ff ff 	lea    -0x220(%rbp),%rax
  4041f0:	48 89 c7             	mov    %rax,%rdi
  4041f3:	e8 ce f0 ff ff       	callq  4032c6 <_Z2f2B5cxx11v>
  4041f8:	48 8d 95 e0 fd ff ff 	lea    -0x220(%rbp),%rdx
  4041ff:	48 8d 85 a0 fc ff ff 	lea    -0x360(%rbp),%rax
  404206:	48 89 d6             	mov    %rdx,%rsi
  404209:	48 89 c7             	mov    %rax,%rdi
  40420c:	e8 4f ed ff ff       	callq  402f60 <_ZNSt7__cxx1112basic_stringIcSt11char_traitsIcESaIcEEaSEOS4_@plt>
  404211:	48 8d 85 e0 fd ff ff 	lea    -0x220(%rbp),%rax
  404218:	48 89 c7             	mov    %rax,%rdi
  40421b:	e8 10 eb ff ff       	callq  402d30 <_ZNSt7__cxx1112basic_stringIcSt11char_traitsIcESaIcEED1Ev@plt>
  404220:	48 8d 85 e0 fb ff ff 	lea    -0x420(%rbp),%rax
  404227:	48 89 c7             	mov    %rax,%rdi
  40422a:	e8 49 0c 00 00       	callq  404e78 <_ZNSt3mapINSt7__cxx1112basic_stringIcSt11char_traitsIcESaIcEEES5_St4lessIS5_ESaISt4pairIKS5_S5_EEEC1Ev>
  40422f:	48 8d 85 f0 fe ff ff 	lea    -0x110(%rbp),%rax
  404236:	48 8d 95 80 fc ff ff 	lea    -0x380(%rbp),%rdx
  40423d:	be 83 db 40 00       	mov    $0x40db83,%esi
  404242:	48 89 c7             	mov    %rax,%rdi
  404245:	e8 9b 08 00 00       	callq  404ae5 <_ZSt9make_pairIRA2_KcRNSt7__cxx1112basic_stringIcSt11char_traitsIcESaIcEEEESt4pairINSt17__decay_and_stripIT_E6__typeENSB_IT0_E6__typeEEOSC_OSF_>
  40424a:	48 8d 95 f0 fe ff ff 	lea    -0x110(%rbp),%rdx
  404251:	48 8d 85 e0 fb ff ff 	lea    -0x420(%rbp),%rax
  404258:	48 89 d6             	mov    %rdx,%rsi
  40425b:	48 89 c7             	mov    %rax,%rdi
  40425e:	e8 25 12 00 00       	callq  405488 <_ZNSt3mapINSt7__cxx1112basic_stringIcSt11char_traitsIcESaIcEEES5_St4lessIS5_ESaISt4pairIKS5_S5_EEE6insertIS8_IPKcS5_EvEES8_ISt17_Rb_tree_iteratorISA_EbEOT_>
  404263:	48 8d 85 f0 fe ff ff 	lea    -0x110(%rbp),%rax
  40426a:	48 89 c7             	mov    %rax,%rdi
  40426d:	e8 54 08 00 00       	callq  404ac6 <_ZNSt4pairIPKcNSt7__cxx1112basic_stringIcSt11char_traitsIcESaIcEEEED1Ev>
  404272:	48 8d 85 20 ff ff ff 	lea    -0xe0(%rbp),%rax
  404279:	48 8d 95 a0 fc ff ff 	lea    -0x360(%rbp),%rdx
  404280:	be 85 db 40 00       	mov    $0x40db85,%esi
  404285:	48 89 c7             	mov    %rax,%rdi
  404288:	e8 58 08 00 00       	callq  404ae5 <_ZSt9make_pairIRA2_KcRNSt7__cxx1112basic_stringIcSt11char_traitsIcESaIcEEEESt4pairINSt17__decay_and_stripIT_E6__typeENSB_IT0_E6__typeEEOSC_OSF_>
  40428d:	48 8d 95 20 ff ff ff 	lea    -0xe0(%rbp),%rdx
  404294:	48 8d 85 e0 fb ff ff 	lea    -0x420(%rbp),%rax
  40429b:	48 89 d6             	mov    %rdx,%rsi
  40429e:	48 89 c7             	mov    %rax,%rdi
  4042a1:	e8 e2 11 00 00       	callq  405488 <_ZNSt3mapINSt7__cxx1112basic_stringIcSt11char_traitsIcESaIcEEES5_St4lessIS5_ESaISt4pairIKS5_S5_EEE6insertIS8_IPKcS5_EvEES8_ISt17_Rb_tree_iteratorISA_EbEOT_>
  4042a6:	48 8d 85 20 ff ff ff 	lea    -0xe0(%rbp),%rax
  4042ad:	48 89 c7             	mov    %rax,%rdi
  4042b0:	e8 11 08 00 00       	callq  404ac6 <_ZNSt4pairIPKcNSt7__cxx1112basic_stringIcSt11char_traitsIcESaIcEEEED1Ev>
  4042b5:	48 8d 85 50 ff ff ff 	lea    -0xb0(%rbp),%rax
  4042bc:	48 8d 55 80          	lea    -0x80(%rbp),%rdx
  4042c0:	be 94 db 40 00       	mov    $0x40db94,%esi
  4042c5:	48 89 c7             	mov    %rax,%rdi
  4042c8:	e8 9e 08 00 00       	callq  404b6b <_ZSt9make_pairIRA12_KcRNSt7__cxx1112basic_stringIcSt11char_traitsIcESaIcEEEESt4pairINSt17__decay_and_stripIT_E6__typeENSB_IT0_E6__typeEEOSC_OSF_>
  4042cd:	48 8d 95 50 ff ff ff 	lea    -0xb0(%rbp),%rdx
  4042d4:	48 8d 85 e0 fb ff ff 	lea    -0x420(%rbp),%rax
  4042db:	48 89 d6             	mov    %rdx,%rsi
  4042de:	48 89 c7             	mov    %rax,%rdi
  4042e1:	e8 a2 11 00 00       	callq  405488 <_ZNSt3mapINSt7__cxx1112basic_stringIcSt11char_traitsIcESaIcEEES5_St4lessIS5_ESaISt4pairIKS5_S5_EEE6insertIS8_IPKcS5_EvEES8_ISt17_Rb_tree_iteratorISA_EbEOT_>
  4042e6:	48 8d 85 50 ff ff ff 	lea    -0xb0(%rbp),%rax
  4042ed:	48 89 c7             	mov    %rax,%rdi
  4042f0:	e8 d1 07 00 00       	callq  404ac6 <_ZNSt4pairIPKcNSt7__cxx1112basic_stringIcSt11char_traitsIcESaIcEEEED1Ev>
  4042f5:	48 8d 95 e0 fb ff ff 	lea    -0x420(%rbp),%rdx
  4042fc:	48 8d 85 10 fc ff ff 	lea    -0x3f0(%rbp),%rax
  404303:	48 89 d6             	mov    %rdx,%rsi
  404306:	48 89 c7             	mov    %rax,%rdi
  404309:	e8 aa 11 00 00       	callq  4054b8 <_ZNSt3mapINSt7__cxx1112basic_stringIcSt11char_traitsIcESaIcEEES5_St4lessIS5_ESaISt4pairIKS5_S5_EEEC1ERKSC_>
  40430e:	48 8d 95 10 fc ff ff 	lea    -0x3f0(%rbp),%rdx
  404315:	8b 85 b0 fa ff ff    	mov    -0x550(%rbp),%eax
  40431b:	41 b8 00 00 00 00    	mov    $0x0,%r8d
  404321:	b9 00 00 00 00       	mov    $0x0,%ecx
  404326:	be 2e db 40 00       	mov    $0x40db2e,%esi
  40432b:	89 c7                	mov    %eax,%edi
  40432d:	e8 dc 40 00 00       	callq  40840e <_Z13write_requestiPKcSt3mapINSt7__cxx1112basic_stringIcSt11char_traitsIcESaIcEEES7_St4lessIS7_ESaISt4pairIKS7_S7_EEEPKvi>
  404332:	48 8d 85 10 fc ff ff 	lea    -0x3f0(%rbp),%rax
  404339:	48 89 c7             	mov    %rax,%rdi
  40433c:	e8 c3 05 00 00       	callq  404904 <_ZNSt3mapINSt7__cxx1112basic_stringIcSt11char_traitsIcESaIcEEES5_St4lessIS5_ESaISt4pairIKS5_S5_EEED1Ev>
  404341:	c7 85 a8 fa ff ff 00 	movl   $0x0,-0x558(%rbp)
  404348:	00 00 00 
  40434b:	48 8d 85 e0 fb ff ff 	lea    -0x420(%rbp),%rax
  404352:	48 89 c7             	mov    %rax,%rdi
  404355:	e8 aa 05 00 00       	callq  404904 <_ZNSt3mapINSt7__cxx1112basic_stringIcSt11char_traitsIcESaIcEEES5_St4lessIS5_ESaISt4pairIKS5_S5_EEED1Ev>
  40435a:	48 8d 45 80          	lea    -0x80(%rbp),%rax
  40435e:	48 89 c7             	mov    %rax,%rdi
  404361:	e8 ca e9 ff ff       	callq  402d30 <_ZNSt7__cxx1112basic_stringIcSt11char_traitsIcESaIcEED1Ev@plt>
  404366:	eb 45                	jmp    4043ad <main+0xec6>
  404368:	48 8d 85 10 fc ff ff 	lea    -0x3f0(%rbp),%rax
  40436f:	48 89 c7             	mov    %rax,%rdi
  404372:	e8 01 0b 00 00       	callq  404e78 <_ZNSt3mapINSt7__cxx1112basic_stringIcSt11char_traitsIcESaIcEEES5_St4lessIS5_ESaISt4pairIKS5_S5_EEEC1Ev>
  404377:	48 8d 95 10 fc ff ff 	lea    -0x3f0(%rbp),%rdx
  40437e:	8b 85 b0 fa ff ff    	mov    -0x550(%rbp),%eax
  404384:	41 b8 00 00 00 00    	mov    $0x0,%r8d
  40438a:	b9 00 00 00 00       	mov    $0x0,%ecx
  40438f:	be 2e db 40 00       	mov    $0x40db2e,%esi
  404394:	89 c7                	mov    %eax,%edi
  404396:	e8 73 40 00 00       	callq  40840e <_Z13write_requestiPKcSt3mapINSt7__cxx1112basic_stringIcSt11char_traitsIcESaIcEEES7_St4lessIS7_ESaISt4pairIKS7_S7_EEEPKvi>
  40439b:	48 8d 85 10 fc ff ff 	lea    -0x3f0(%rbp),%rax
  4043a2:	48 89 c7             	mov    %rax,%rdi
  4043a5:	e8 5a 05 00 00       	callq  404904 <_ZNSt3mapINSt7__cxx1112basic_stringIcSt11char_traitsIcESaIcEEES5_St4lessIS5_ESaISt4pairIKS5_S5_EEED1Ev>
  4043aa:	eb 01                	jmp    4043ad <main+0xec6>
  4043ac:	90                   	nop
  4043ad:	bb 02 00 00 00       	mov    $0x2,%ebx
  4043b2:	48 8d 85 c0 fc ff ff 	lea    -0x340(%rbp),%rax
  4043b9:	48 89 c7             	mov    %rax,%rdi
  4043bc:	e8 6f e9 ff ff       	callq  402d30 <_ZNSt7__cxx1112basic_stringIcSt11char_traitsIcESaIcEED1Ev@plt>
  4043c1:	85 db                	test   %ebx,%ebx
  4043c3:	74 07                	je     4043cc <main+0xee5>
  4043c5:	83 fb 02             	cmp    $0x2,%ebx
  4043c8:	74 10                	je     4043da <main+0xef3>
  4043ca:	eb 07                	jmp    4043d3 <main+0xeec>
  4043cc:	bb 00 00 00 00       	mov    $0x0,%ebx
  4043d1:	eb 0d                	jmp    4043e0 <main+0xef9>
  4043d3:	bb 01 00 00 00       	mov    $0x1,%ebx
  4043d8:	eb 06                	jmp    4043e0 <main+0xef9>
  4043da:	90                   	nop
  4043db:	bb 02 00 00 00       	mov    $0x2,%ebx
  4043e0:	48 8d 85 30 fb ff ff 	lea    -0x4d0(%rbp),%rax
  4043e7:	48 89 c7             	mov    %rax,%rdi
  4043ea:	e8 17 0b 00 00       	callq  404f06 <_ZNSt6vectorIhSaIhEED1Ev>
  4043ef:	85 db                	test   %ebx,%ebx
  4043f1:	74 07                	je     4043fa <main+0xf13>
  4043f3:	83 fb 02             	cmp    $0x2,%ebx
  4043f6:	74 10                	je     404408 <main+0xf21>
  4043f8:	eb 07                	jmp    404401 <main+0xf1a>
  4043fa:	bb 00 00 00 00       	mov    $0x0,%ebx
  4043ff:	eb 0d                	jmp    40440e <main+0xf27>
  404401:	bb 01 00 00 00       	mov    $0x1,%ebx
  404406:	eb 06                	jmp    40440e <main+0xf27>
  404408:	90                   	nop
  404409:	bb 02 00 00 00       	mov    $0x2,%ebx
  40440e:	48 8d 85 50 fb ff ff 	lea    -0x4b0(%rbp),%rax
  404415:	48 89 c7             	mov    %rax,%rdi
  404418:	e8 e7 04 00 00       	callq  404904 <_ZNSt3mapINSt7__cxx1112basic_stringIcSt11char_traitsIcESaIcEEES5_St4lessIS5_ESaISt4pairIKS5_S5_EEED1Ev>
  40441d:	85 db                	test   %ebx,%ebx
  40441f:	0f 84 24 f2 ff ff    	je     403649 <main+0x162>
  404425:	83 fb 02             	cmp    $0x2,%ebx
  404428:	74 5b                	je     404485 <main+0xf9e>
  40442a:	bb 00 00 00 00       	mov    $0x0,%ebx
  40442f:	48 8d 85 a0 fc ff ff 	lea    -0x360(%rbp),%rax
  404436:	48 89 c7             	mov    %rax,%rdi
  404439:	e8 f2 e8 ff ff       	callq  402d30 <_ZNSt7__cxx1112basic_stringIcSt11char_traitsIcESaIcEED1Ev@plt>
  40443e:	48 8d 85 80 fc ff ff 	lea    -0x380(%rbp),%rax
  404445:	48 89 c7             	mov    %rax,%rdi
  404448:	e8 e3 e8 ff ff       	callq  402d30 <_ZNSt7__cxx1112basic_stringIcSt11char_traitsIcESaIcEED1Ev@plt>
  40444d:	48 8d 85 60 fc ff ff 	lea    -0x3a0(%rbp),%rax
  404454:	48 89 c7             	mov    %rax,%rdi
  404457:	e8 d4 e8 ff ff       	callq  402d30 <_ZNSt7__cxx1112basic_stringIcSt11char_traitsIcESaIcEED1Ev@plt>
  40445c:	48 8d 85 40 fc ff ff 	lea    -0x3c0(%rbp),%rax
  404463:	48 89 c7             	mov    %rax,%rdi
  404466:	e8 c5 e8 ff ff       	callq  402d30 <_ZNSt7__cxx1112basic_stringIcSt11char_traitsIcESaIcEED1Ev@plt>
  40446b:	89 d8                	mov    %ebx,%eax
  40446d:	48 8b 4d c8          	mov    -0x38(%rbp),%rcx
  404471:	64 48 33 0c 25 28 00 	xor    %fs:0x28,%rcx
  404478:	00 00 
  40447a:	0f 84 4e 03 00 00    	je     4047ce <main+0x12e7>
  404480:	e9 44 03 00 00       	jmpq   4047c9 <main+0x12e2>
  404485:	90                   	nop
  404486:	e9 be f1 ff ff       	jmpq   403649 <main+0x162>
  40448b:	48 89 c3             	mov    %rax,%rbx
  40448e:	48 8d 85 10 fc ff ff 	lea    -0x3f0(%rbp),%rax
  404495:	48 89 c7             	mov    %rax,%rdi
  404498:	e8 67 04 00 00       	callq  404904 <_ZNSt3mapINSt7__cxx1112basic_stringIcSt11char_traitsIcESaIcEEES5_St4lessIS5_ESaISt4pairIKS5_S5_EEED1Ev>
  40449d:	48 89 d8             	mov    %rbx,%rax
  4044a0:	48 89 c7             	mov    %rax,%rdi
  4044a3:	e8 48 ec ff ff       	callq  4030f0 <_Unwind_Resume@plt>
  4044a8:	48 89 c3             	mov    %rax,%rbx
  4044ab:	48 8d 85 e0 fc ff ff 	lea    -0x320(%rbp),%rax
  4044b2:	48 89 c7             	mov    %rax,%rdi
  4044b5:	e8 76 e8 ff ff       	callq  402d30 <_ZNSt7__cxx1112basic_stringIcSt11char_traitsIcESaIcEED1Ev@plt>
  4044ba:	eb 03                	jmp    4044bf <main+0xfd8>
  4044bc:	48 89 c3             	mov    %rax,%rbx
  4044bf:	48 8d 85 10 fc ff ff 	lea    -0x3f0(%rbp),%rax
  4044c6:	48 89 c7             	mov    %rax,%rdi
  4044c9:	e8 52 ea ff ff       	callq  402f20 <_ZNSaIcED1Ev@plt>
  4044ce:	e9 91 02 00 00       	jmpq   404764 <main+0x127d>
  4044d3:	48 89 c3             	mov    %rax,%rbx
  4044d6:	48 8d 85 80 fb ff ff 	lea    -0x480(%rbp),%rax
  4044dd:	48 89 c7             	mov    %rax,%rdi
  4044e0:	e8 1f 04 00 00       	callq  404904 <_ZNSt3mapINSt7__cxx1112basic_stringIcSt11char_traitsIcESaIcEEES5_St4lessIS5_ESaISt4pairIKS5_S5_EEED1Ev>
  4044e5:	eb 03                	jmp    4044ea <main+0x1003>
  4044e7:	48 89 c3             	mov    %rax,%rbx
  4044ea:	48 8d 85 10 fc ff ff 	lea    -0x3f0(%rbp),%rax
  4044f1:	48 89 c7             	mov    %rax,%rdi
  4044f4:	e8 7d 0d 00 00       	callq  405276 <_ZNSaISt4pairIKNSt7__cxx1112basic_stringIcSt11char_traitsIcESaIcEEES5_EED1Ev>
  4044f9:	49 89 dc             	mov    %rbx,%r12
  4044fc:	90                   	nop
  4044fd:	48 8d 5d 80          	lea    -0x80(%rbp),%rbx
  404501:	48 83 c3 40          	add    $0x40,%rbx
  404505:	48 8d 45 80          	lea    -0x80(%rbp),%rax
  404509:	48 39 c3             	cmp    %rax,%rbx
  40450c:	74 0f                	je     40451d <main+0x1036>
  40450e:	90                   	nop
  40450f:	48 83 eb 40          	sub    $0x40,%rbx
  404513:	48 89 df             	mov    %rbx,%rdi
  404516:	e8 1b 05 00 00       	callq  404a36 <_ZNSt4pairIKNSt7__cxx1112basic_stringIcSt11char_traitsIcESaIcEEES5_ED1Ev>
  40451b:	eb e8                	jmp    404505 <main+0x101e>
  40451d:	90                   	nop
  40451e:	4c 89 e3             	mov    %r12,%rbx
  404521:	e9 2a 02 00 00       	jmpq   404750 <main+0x1269>
  404526:	48 89 c3             	mov    %rax,%rbx
  404529:	48 8d 85 10 fc ff ff 	lea    -0x3f0(%rbp),%rax
  404530:	48 89 c7             	mov    %rax,%rdi
  404533:	e8 cc 03 00 00       	callq  404904 <_ZNSt3mapINSt7__cxx1112basic_stringIcSt11char_traitsIcESaIcEEES5_St4lessIS5_ESaISt4pairIKS5_S5_EEED1Ev>
  404538:	e9 13 02 00 00       	jmpq   404750 <main+0x1269>
  40453d:	48 89 c3             	mov    %rax,%rbx
  404540:	48 8d 85 10 fc ff ff 	lea    -0x3f0(%rbp),%rax
  404547:	48 89 c7             	mov    %rax,%rdi
  40454a:	e8 b5 03 00 00       	callq  404904 <_ZNSt3mapINSt7__cxx1112basic_stringIcSt11char_traitsIcESaIcEEES5_St4lessIS5_ESaISt4pairIKS5_S5_EEED1Ev>
  40454f:	e9 fc 01 00 00       	jmpq   404750 <main+0x1269>
  404554:	45 84 f6             	test   %r14b,%r14b
  404557:	84 db                	test   %bl,%bl
  404559:	45 84 ff             	test   %r15b,%r15b
  40455c:	90                   	nop
  40455d:	48 89 c3             	mov    %rax,%rbx
  404560:	e9 eb 01 00 00       	jmpq   404750 <main+0x1269>
  404565:	45 84 f6             	test   %r14b,%r14b
  404568:	84 db                	test   %bl,%bl
  40456a:	45 84 ff             	test   %r15b,%r15b
  40456d:	90                   	nop
  40456e:	48 89 c3             	mov    %rax,%rbx
  404571:	e9 da 01 00 00       	jmpq   404750 <main+0x1269>
  404576:	80 bd 9a fa ff ff 00 	cmpb   $0x0,-0x566(%rbp)
  40457d:	80 bd 9b fa ff ff 00 	cmpb   $0x0,-0x565(%rbp)
  404584:	45 84 ff             	test   %r15b,%r15b
  404587:	45 84 f6             	test   %r14b,%r14b
  40458a:	84 db                	test   %bl,%bl
  40458c:	80 bd 99 fa ff ff 00 	cmpb   $0x0,-0x567(%rbp)
  404593:	90                   	nop
  404594:	48 89 c3             	mov    %rax,%rbx
  404597:	e9 b4 01 00 00       	jmpq   404750 <main+0x1269>
  40459c:	48 89 c3             	mov    %rax,%rbx
  40459f:	48 8d 85 00 fe ff ff 	lea    -0x200(%rbp),%rax
  4045a6:	48 89 c7             	mov    %rax,%rdi
  4045a9:	e8 18 05 00 00       	callq  404ac6 <_ZNSt4pairIPKcNSt7__cxx1112basic_stringIcSt11char_traitsIcESaIcEEEED1Ev>
  4045ae:	eb 2b                	jmp    4045db <main+0x10f4>
  4045b0:	48 89 c3             	mov    %rax,%rbx
  4045b3:	48 8d 85 30 fe ff ff 	lea    -0x1d0(%rbp),%rax
  4045ba:	48 89 c7             	mov    %rax,%rdi
  4045bd:	e8 04 05 00 00       	callq  404ac6 <_ZNSt4pairIPKcNSt7__cxx1112basic_stringIcSt11char_traitsIcESaIcEEEED1Ev>
  4045c2:	eb 17                	jmp    4045db <main+0x10f4>
  4045c4:	48 89 c3             	mov    %rax,%rbx
  4045c7:	48 8d 85 b0 fb ff ff 	lea    -0x450(%rbp),%rax
  4045ce:	48 89 c7             	mov    %rax,%rdi
  4045d1:	e8 2e 03 00 00       	callq  404904 <_ZNSt3mapINSt7__cxx1112basic_stringIcSt11char_traitsIcESaIcEEES5_St4lessIS5_ESaISt4pairIKS5_S5_EEED1Ev>
  4045d6:	eb 03                	jmp    4045db <main+0x10f4>
  4045d8:	48 89 c3             	mov    %rax,%rbx
  4045db:	48 8d 85 10 fc ff ff 	lea    -0x3f0(%rbp),%rax
  4045e2:	48 89 c7             	mov    %rax,%rdi
  4045e5:	e8 1a 03 00 00       	callq  404904 <_ZNSt3mapINSt7__cxx1112basic_stringIcSt11char_traitsIcESaIcEEES5_St4lessIS5_ESaISt4pairIKS5_S5_EEED1Ev>
  4045ea:	e9 61 01 00 00       	jmpq   404750 <main+0x1269>
  4045ef:	48 89 c3             	mov    %rax,%rbx
  4045f2:	48 8d 85 40 fd ff ff 	lea    -0x2c0(%rbp),%rax
  4045f9:	48 89 c7             	mov    %rax,%rdi
  4045fc:	e8 2f e7 ff ff       	callq  402d30 <_ZNSt7__cxx1112basic_stringIcSt11char_traitsIcESaIcEED1Ev@plt>
  404601:	eb 03                	jmp    404606 <main+0x111f>
  404603:	48 89 c3             	mov    %rax,%rbx
  404606:	48 8d 85 10 fc ff ff 	lea    -0x3f0(%rbp),%rax
  40460d:	48 89 c7             	mov    %rax,%rdi
  404610:	e8 0b e9 ff ff       	callq  402f20 <_ZNSaIcED1Ev@plt>
  404615:	48 8d 85 60 fd ff ff 	lea    -0x2a0(%rbp),%rax
  40461c:	48 89 c7             	mov    %rax,%rdi
  40461f:	e8 0c e7 ff ff       	callq  402d30 <_ZNSt7__cxx1112basic_stringIcSt11char_traitsIcESaIcEED1Ev@plt>
  404624:	e9 27 01 00 00       	jmpq   404750 <main+0x1269>
  404629:	48 89 c3             	mov    %rax,%rbx
  40462c:	48 8d 85 10 fc ff ff 	lea    -0x3f0(%rbp),%rax
  404633:	48 89 c7             	mov    %rax,%rdi
  404636:	e8 c9 02 00 00       	callq  404904 <_ZNSt3mapINSt7__cxx1112basic_stringIcSt11char_traitsIcESaIcEEES5_St4lessIS5_ESaISt4pairIKS5_S5_EEED1Ev>
  40463b:	48 8d 45 80          	lea    -0x80(%rbp),%rax
  40463f:	48 89 c7             	mov    %rax,%rdi
  404642:	e8 e9 e6 ff ff       	callq  402d30 <_ZNSt7__cxx1112basic_stringIcSt11char_traitsIcESaIcEED1Ev@plt>
  404647:	e9 04 01 00 00       	jmpq   404750 <main+0x1269>
  40464c:	48 89 c3             	mov    %rax,%rbx
  40464f:	48 8d 85 60 fe ff ff 	lea    -0x1a0(%rbp),%rax
  404656:	48 89 c7             	mov    %rax,%rdi
  404659:	e8 68 04 00 00       	callq  404ac6 <_ZNSt4pairIPKcNSt7__cxx1112basic_stringIcSt11char_traitsIcESaIcEEEED1Ev>
  40465e:	eb 3f                	jmp    40469f <main+0x11b8>
  404660:	48 89 c3             	mov    %rax,%rbx
  404663:	48 8d 85 90 fe ff ff 	lea    -0x170(%rbp),%rax
  40466a:	48 89 c7             	mov    %rax,%rdi
  40466d:	e8 54 04 00 00       	callq  404ac6 <_ZNSt4pairIPKcNSt7__cxx1112basic_stringIcSt11char_traitsIcESaIcEEEED1Ev>
  404672:	eb 2b                	jmp    40469f <main+0x11b8>
  404674:	48 89 c3             	mov    %rax,%rbx
  404677:	48 8d 85 c0 fe ff ff 	lea    -0x140(%rbp),%rax
  40467e:	48 89 c7             	mov    %rax,%rdi
  404681:	e8 40 04 00 00       	callq  404ac6 <_ZNSt4pairIPKcNSt7__cxx1112basic_stringIcSt11char_traitsIcESaIcEEEED1Ev>
  404686:	eb 17                	jmp    40469f <main+0x11b8>
  404688:	48 89 c3             	mov    %rax,%rbx
  40468b:	48 8d 85 e0 fb ff ff 	lea    -0x420(%rbp),%rax
  404692:	48 89 c7             	mov    %rax,%rdi
  404695:	e8 6a 02 00 00       	callq  404904 <_ZNSt3mapINSt7__cxx1112basic_stringIcSt11char_traitsIcESaIcEEES5_St4lessIS5_ESaISt4pairIKS5_S5_EEED1Ev>
  40469a:	eb 03                	jmp    40469f <main+0x11b8>
  40469c:	48 89 c3             	mov    %rax,%rbx
  40469f:	48 8d 85 10 fc ff ff 	lea    -0x3f0(%rbp),%rax
  4046a6:	48 89 c7             	mov    %rax,%rdi
  4046a9:	e8 56 02 00 00       	callq  404904 <_ZNSt3mapINSt7__cxx1112basic_stringIcSt11char_traitsIcESaIcEEES5_St4lessIS5_ESaISt4pairIKS5_S5_EEED1Ev>
  4046ae:	eb 03                	jmp    4046b3 <main+0x11cc>
  4046b0:	48 89 c3             	mov    %rax,%rbx
  4046b3:	48 8d 45 80          	lea    -0x80(%rbp),%rax
  4046b7:	48 89 c7             	mov    %rax,%rdi
  4046ba:	e8 71 e6 ff ff       	callq  402d30 <_ZNSt7__cxx1112basic_stringIcSt11char_traitsIcESaIcEED1Ev@plt>
  4046bf:	e9 8c 00 00 00       	jmpq   404750 <main+0x1269>
  4046c4:	48 89 c3             	mov    %rax,%rbx
  4046c7:	48 8d 85 f0 fe ff ff 	lea    -0x110(%rbp),%rax
  4046ce:	48 89 c7             	mov    %rax,%rdi
  4046d1:	e8 f0 03 00 00       	callq  404ac6 <_ZNSt4pairIPKcNSt7__cxx1112basic_stringIcSt11char_traitsIcESaIcEEEED1Ev>
  4046d6:	eb 3f                	jmp    404717 <main+0x1230>
  4046d8:	48 89 c3             	mov    %rax,%rbx
  4046db:	48 8d 85 20 ff ff ff 	lea    -0xe0(%rbp),%rax
  4046e2:	48 89 c7             	mov    %rax,%rdi
  4046e5:	e8 dc 03 00 00       	callq  404ac6 <_ZNSt4pairIPKcNSt7__cxx1112basic_stringIcSt11char_traitsIcESaIcEEEED1Ev>
  4046ea:	eb 2b                	jmp    404717 <main+0x1230>
  4046ec:	48 89 c3             	mov    %rax,%rbx
  4046ef:	48 8d 85 50 ff ff ff 	lea    -0xb0(%rbp),%rax
  4046f6:	48 89 c7             	mov    %rax,%rdi
  4046f9:	e8 c8 03 00 00       	callq  404ac6 <_ZNSt4pairIPKcNSt7__cxx1112basic_stringIcSt11char_traitsIcESaIcEEEED1Ev>
  4046fe:	eb 17                	jmp    404717 <main+0x1230>
  404700:	48 89 c3             	mov    %rax,%rbx
  404703:	48 8d 85 10 fc ff ff 	lea    -0x3f0(%rbp),%rax
  40470a:	48 89 c7             	mov    %rax,%rdi
  40470d:	e8 f2 01 00 00       	callq  404904 <_ZNSt3mapINSt7__cxx1112basic_stringIcSt11char_traitsIcESaIcEEES5_St4lessIS5_ESaISt4pairIKS5_S5_EEED1Ev>
  404712:	eb 03                	jmp    404717 <main+0x1230>
  404714:	48 89 c3             	mov    %rax,%rbx
  404717:	48 8d 85 e0 fb ff ff 	lea    -0x420(%rbp),%rax
  40471e:	48 89 c7             	mov    %rax,%rdi
  404721:	e8 de 01 00 00       	callq  404904 <_ZNSt3mapINSt7__cxx1112basic_stringIcSt11char_traitsIcESaIcEEES5_St4lessIS5_ESaISt4pairIKS5_S5_EEED1Ev>
  404726:	eb 03                	jmp    40472b <main+0x1244>
  404728:	48 89 c3             	mov    %rax,%rbx
  40472b:	48 8d 45 80          	lea    -0x80(%rbp),%rax
  40472f:	48 89 c7             	mov    %rax,%rdi
  404732:	e8 f9 e5 ff ff       	callq  402d30 <_ZNSt7__cxx1112basic_stringIcSt11char_traitsIcESaIcEED1Ev@plt>
  404737:	eb 17                	jmp    404750 <main+0x1269>
  404739:	48 89 c3             	mov    %rax,%rbx
  40473c:	48 8d 85 10 fc ff ff 	lea    -0x3f0(%rbp),%rax
  404743:	48 89 c7             	mov    %rax,%rdi
  404746:	e8 b9 01 00 00       	callq  404904 <_ZNSt3mapINSt7__cxx1112basic_stringIcSt11char_traitsIcESaIcEEES5_St4lessIS5_ESaISt4pairIKS5_S5_EEED1Ev>
  40474b:	eb 03                	jmp    404750 <main+0x1269>
  40474d:	48 89 c3             	mov    %rax,%rbx
  404750:	48 8d 85 c0 fc ff ff 	lea    -0x340(%rbp),%rax
  404757:	48 89 c7             	mov    %rax,%rdi
  40475a:	e8 d1 e5 ff ff       	callq  402d30 <_ZNSt7__cxx1112basic_stringIcSt11char_traitsIcESaIcEED1Ev@plt>
  40475f:	eb 03                	jmp    404764 <main+0x127d>
  404761:	48 89 c3             	mov    %rax,%rbx
  404764:	48 8d 85 30 fb ff ff 	lea    -0x4d0(%rbp),%rax
  40476b:	48 89 c7             	mov    %rax,%rdi
  40476e:	e8 93 07 00 00       	callq  404f06 <_ZNSt6vectorIhSaIhEED1Ev>
  404773:	48 8d 85 50 fb ff ff 	lea    -0x4b0(%rbp),%rax
  40477a:	48 89 c7             	mov    %rax,%rdi
  40477d:	e8 82 01 00 00       	callq  404904 <_ZNSt3mapINSt7__cxx1112basic_stringIcSt11char_traitsIcESaIcEEES5_St4lessIS5_ESaISt4pairIKS5_S5_EEED1Ev>
  404782:	48 8d 85 a0 fc ff ff 	lea    -0x360(%rbp),%rax
  404789:	48 89 c7             	mov    %rax,%rdi
  40478c:	e8 9f e5 ff ff       	callq  402d30 <_ZNSt7__cxx1112basic_stringIcSt11char_traitsIcESaIcEED1Ev@plt>
  404791:	48 8d 85 80 fc ff ff 	lea    -0x380(%rbp),%rax
  404798:	48 89 c7             	mov    %rax,%rdi
  40479b:	e8 90 e5 ff ff       	callq  402d30 <_ZNSt7__cxx1112basic_stringIcSt11char_traitsIcESaIcEED1Ev@plt>
  4047a0:	48 8d 85 60 fc ff ff 	lea    -0x3a0(%rbp),%rax
  4047a7:	48 89 c7             	mov    %rax,%rdi
  4047aa:	e8 81 e5 ff ff       	callq  402d30 <_ZNSt7__cxx1112basic_stringIcSt11char_traitsIcESaIcEED1Ev@plt>
  4047af:	48 8d 85 40 fc ff ff 	lea    -0x3c0(%rbp),%rax
  4047b6:	48 89 c7             	mov    %rax,%rdi
  4047b9:	e8 72 e5 ff ff       	callq  402d30 <_ZNSt7__cxx1112basic_stringIcSt11char_traitsIcESaIcEED1Ev@plt>
  4047be:	48 89 d8             	mov    %rbx,%rax
  4047c1:	48 89 c7             	mov    %rax,%rdi
  4047c4:	e8 27 e9 ff ff       	callq  4030f0 <_Unwind_Resume@plt>
  4047c9:	e8 72 e7 ff ff       	callq  402f40 <__stack_chk_fail@plt>
  4047ce:	48 81 c4 48 05 00 00 	add    $0x548,%rsp
  4047d5:	5b                   	pop    %rbx
  4047d6:	41 5c                	pop    %r12
  4047d8:	41 5d                	pop    %r13
  4047da:	41 5e                	pop    %r14
  4047dc:	41 5f                	pop    %r15
  4047de:	5d                   	pop    %rbp
  4047df:	c3                   	retq   

00000000004047e0 <_Z41__static_initialization_and_destruction_0ii>:
  4047e0:	55                   	push   %rbp
  4047e1:	48 89 e5             	mov    %rsp,%rbp
  4047e4:	48 83 ec 10          	sub    $0x10,%rsp
  4047e8:	89 7d fc             	mov    %edi,-0x4(%rbp)
  4047eb:	89 75 f8             	mov    %esi,-0x8(%rbp)
  4047ee:	83 7d fc 01          	cmpl   $0x1,-0x4(%rbp)
  4047f2:	75 27                	jne    40481b <_Z41__static_initialization_and_destruction_0ii+0x3b>
  4047f4:	81 7d f8 ff ff 00 00 	cmpl   $0xffff,-0x8(%rbp)
  4047fb:	75 1e                	jne    40481b <_Z41__static_initialization_and_destruction_0ii+0x3b>
  4047fd:	bf 09 44 61 00       	mov    $0x614409,%edi
  404802:	e8 09 e8 ff ff       	callq  403010 <_ZNSt8ios_base4InitC1Ev@plt>
  404807:	ba 58 43 61 00       	mov    $0x614358,%edx
  40480c:	be 09 44 61 00       	mov    $0x614409,%esi
  404811:	bf b0 31 40 00       	mov    $0x4031b0,%edi
  404816:	e8 15 e6 ff ff       	callq  402e30 <__cxa_atexit@plt>
  40481b:	90                   	nop
  40481c:	c9                   	leaveq 
  40481d:	c3                   	retq   

000000000040481e <_GLOBAL__sub_I__Z2f2B5cxx11v>:
  40481e:	55                   	push   %rbp
  40481f:	48 89 e5             	mov    %rsp,%rbp
  404822:	be ff ff 00 00       	mov    $0xffff,%esi
  404827:	bf 01 00 00 00       	mov    $0x1,%edi
  40482c:	e8 af ff ff ff       	callq  4047e0 <_Z41__static_initialization_and_destruction_0ii>
  404831:	5d                   	pop    %rbp
  404832:	c3                   	retq   

0000000000404833 <_ZnwmPv>:
  404833:	55                   	push   %rbp
  404834:	48 89 e5             	mov    %rsp,%rbp
  404837:	48 89 7d f8          	mov    %rdi,-0x8(%rbp)
  40483b:	48 89 75 f0          	mov    %rsi,-0x10(%rbp)
  40483f:	48 8b 45 f0          	mov    -0x10(%rbp),%rax
  404843:	5d                   	pop    %rbp
  404844:	c3                   	retq   

0000000000404845 <_ZdlPvS_>:
  404845:	55                   	push   %rbp
  404846:	48 89 e5             	mov    %rsp,%rbp
  404849:	48 89 7d f8          	mov    %rdi,-0x8(%rbp)
  40484d:	48 89 75 f0          	mov    %rsi,-0x10(%rbp)
  404851:	90                   	nop
  404852:	5d                   	pop    %rbp
  404853:	c3                   	retq   

0000000000404854 <_ZNSt7__cxx119to_stringEi>:
  404854:	55                   	push   %rbp
  404855:	48 89 e5             	mov    %rsp,%rbp
  404858:	48 83 ec 20          	sub    $0x20,%rsp
  40485c:	48 89 7d e8          	mov    %rdi,-0x18(%rbp)
  404860:	89 75 e4             	mov    %esi,-0x1c(%rbp)
  404863:	64 48 8b 04 25 28 00 	mov    %fs:0x28,%rax
  40486a:	00 00 
  40486c:	48 89 45 f8          	mov    %rax,-0x8(%rbp)
  404870:	31 c0                	xor    %eax,%eax
  404872:	48 8b 45 e8          	mov    -0x18(%rbp),%rax
  404876:	8b 55 e4             	mov    -0x1c(%rbp),%edx
  404879:	41 89 d0             	mov    %edx,%r8d
  40487c:	b9 29 db 40 00       	mov    $0x40db29,%ecx
  404881:	ba 10 00 00 00       	mov    $0x10,%edx
  404886:	be 40 2d 40 00       	mov    $0x402d40,%esi
  40488b:	48 89 c7             	mov    %rax,%rdi
  40488e:	b8 00 00 00 00       	mov    $0x0,%eax
  404893:	e8 4b 03 00 00       	callq  404be3 <_ZN9__gnu_cxx12__to_xstringINSt7__cxx1112basic_stringIcSt11char_traitsIcESaIcEEEcEET_PFiPT0_mPKS8_P13__va_list_tagEmSB_z>
  404898:	48 8b 45 e8          	mov    -0x18(%rbp),%rax
  40489c:	48 8b 4d f8          	mov    -0x8(%rbp),%rcx
  4048a0:	64 48 33 0c 25 28 00 	xor    %fs:0x28,%rcx
  4048a7:	00 00 
  4048a9:	74 05                	je     4048b0 <_ZNSt7__cxx119to_stringEi+0x5c>
  4048ab:	e8 90 e6 ff ff       	callq  402f40 <__stack_chk_fail@plt>
  4048b0:	c9                   	leaveq 
  4048b1:	c3                   	retq   

00000000004048b2 <_ZNSt18_Rb_tree_node_base10_S_minimumEPS_>:
  4048b2:	55                   	push   %rbp
  4048b3:	48 89 e5             	mov    %rsp,%rbp
  4048b6:	48 89 7d f8          	mov    %rdi,-0x8(%rbp)
  4048ba:	48 8b 45 f8          	mov    -0x8(%rbp),%rax
  4048be:	48 8b 40 10          	mov    0x10(%rax),%rax
  4048c2:	48 85 c0             	test   %rax,%rax
  4048c5:	74 0e                	je     4048d5 <_ZNSt18_Rb_tree_node_base10_S_minimumEPS_+0x23>
  4048c7:	48 8b 45 f8          	mov    -0x8(%rbp),%rax
  4048cb:	48 8b 40 10          	mov    0x10(%rax),%rax
  4048cf:	48 89 45 f8          	mov    %rax,-0x8(%rbp)
  4048d3:	eb e5                	jmp    4048ba <_ZNSt18_Rb_tree_node_base10_S_minimumEPS_+0x8>
  4048d5:	48 8b 45 f8          	mov    -0x8(%rbp),%rax
  4048d9:	5d                   	pop    %rbp
  4048da:	c3                   	retq   

00000000004048db <_ZNSt18_Rb_tree_node_base10_S_maximumEPS_>:
  4048db:	55                   	push   %rbp
  4048dc:	48 89 e5             	mov    %rsp,%rbp
  4048df:	48 89 7d f8          	mov    %rdi,-0x8(%rbp)
  4048e3:	48 8b 45 f8          	mov    -0x8(%rbp),%rax
  4048e7:	48 8b 40 18          	mov    0x18(%rax),%rax
  4048eb:	48 85 c0             	test   %rax,%rax
  4048ee:	74 0e                	je     4048fe <_ZNSt18_Rb_tree_node_base10_S_maximumEPS_+0x23>
  4048f0:	48 8b 45 f8          	mov    -0x8(%rbp),%rax
  4048f4:	48 8b 40 18          	mov    0x18(%rax),%rax
  4048f8:	48 89 45 f8          	mov    %rax,-0x8(%rbp)
  4048fc:	eb e5                	jmp    4048e3 <_ZNSt18_Rb_tree_node_base10_S_maximumEPS_+0x8>
  4048fe:	48 8b 45 f8          	mov    -0x8(%rbp),%rax
  404902:	5d                   	pop    %rbp
  404903:	c3                   	retq   

0000000000404904 <_ZNSt3mapINSt7__cxx1112basic_stringIcSt11char_traitsIcESaIcEEES5_St4lessIS5_ESaISt4pairIKS5_S5_EEED1Ev>:
  404904:	55                   	push   %rbp
  404905:	48 89 e5             	mov    %rsp,%rbp
  404908:	48 83 ec 10          	sub    $0x10,%rsp
  40490c:	48 89 7d f8          	mov    %rdi,-0x8(%rbp)
  404910:	48 8b 45 f8          	mov    -0x8(%rbp),%rax
  404914:	48 89 c7             	mov    %rax,%rdi
  404917:	e8 94 05 00 00       	callq  404eb0 <_ZNSt8_Rb_treeINSt7__cxx1112basic_stringIcSt11char_traitsIcESaIcEEESt4pairIKS5_S5_ESt10_Select1stIS8_ESt4lessIS5_ESaIS8_EED1Ev>
  40491c:	90                   	nop
  40491d:	c9                   	leaveq 
  40491e:	c3                   	retq   

000000000040491f <_ZSt7forwardIRA11_KcEOT_RNSt16remove_referenceIS3_E4typeE>:
  40491f:	55                   	push   %rbp
  404920:	48 89 e5             	mov    %rsp,%rbp
  404923:	48 89 7d f8          	mov    %rdi,-0x8(%rbp)
  404927:	48 8b 45 f8          	mov    -0x8(%rbp),%rax
  40492b:	5d                   	pop    %rbp
  40492c:	c3                   	retq   

000000000040492d <_ZSt7forwardIRA5_KcEOT_RNSt16remove_referenceIS3_E4typeE>:
  40492d:	55                   	push   %rbp
  40492e:	48 89 e5             	mov    %rsp,%rbp
  404931:	48 89 7d f8          	mov    %rdi,-0x8(%rbp)
  404935:	48 8b 45 f8          	mov    -0x8(%rbp),%rax
  404939:	5d                   	pop    %rbp
  40493a:	c3                   	retq   
  40493b:	90                   	nop

000000000040493c <_ZNSt4pairIKNSt7__cxx1112basic_stringIcSt11char_traitsIcESaIcEEES5_EC1IRA11_KcRA5_S9_Lb1EEEOT_OT0_>:
  40493c:	55                   	push   %rbp
  40493d:	48 89 e5             	mov    %rsp,%rbp
  404940:	53                   	push   %rbx
  404941:	48 83 ec 38          	sub    $0x38,%rsp
  404945:	48 89 7d d8          	mov    %rdi,-0x28(%rbp)
  404949:	48 89 75 d0          	mov    %rsi,-0x30(%rbp)
  40494d:	48 89 55 c8          	mov    %rdx,-0x38(%rbp)
  404951:	64 48 8b 04 25 28 00 	mov    %fs:0x28,%rax
  404958:	00 00 
  40495a:	48 89 45 e8          	mov    %rax,-0x18(%rbp)
  40495e:	31 c0                	xor    %eax,%eax
  404960:	48 8d 45 e7          	lea    -0x19(%rbp),%rax
  404964:	48 89 c7             	mov    %rax,%rdi
  404967:	e8 94 e7 ff ff       	callq  403100 <_ZNSaIcEC1Ev@plt>
  40496c:	48 8b 45 d0          	mov    -0x30(%rbp),%rax
  404970:	48 89 c7             	mov    %rax,%rdi
  404973:	e8 a7 ff ff ff       	callq  40491f <_ZSt7forwardIRA11_KcEOT_RNSt16remove_referenceIS3_E4typeE>
  404978:	48 89 c1             	mov    %rax,%rcx
  40497b:	48 8b 45 d8          	mov    -0x28(%rbp),%rax
  40497f:	48 8d 55 e7          	lea    -0x19(%rbp),%rdx
  404983:	48 89 ce             	mov    %rcx,%rsi
  404986:	48 89 c7             	mov    %rax,%rdi
  404989:	e8 32 e6 ff ff       	callq  402fc0 <_ZNSt7__cxx1112basic_stringIcSt11char_traitsIcESaIcEEC1EPKcRKS3_@plt>
  40498e:	48 8d 45 e7          	lea    -0x19(%rbp),%rax
  404992:	48 89 c7             	mov    %rax,%rdi
  404995:	e8 86 e5 ff ff       	callq  402f20 <_ZNSaIcED1Ev@plt>
  40499a:	48 8d 45 e7          	lea    -0x19(%rbp),%rax
  40499e:	48 89 c7             	mov    %rax,%rdi
  4049a1:	e8 5a e7 ff ff       	callq  403100 <_ZNSaIcEC1Ev@plt>
  4049a6:	48 8b 45 c8          	mov    -0x38(%rbp),%rax
  4049aa:	48 89 c7             	mov    %rax,%rdi
  4049ad:	e8 7b ff ff ff       	callq  40492d <_ZSt7forwardIRA5_KcEOT_RNSt16remove_referenceIS3_E4typeE>
  4049b2:	48 89 c6             	mov    %rax,%rsi
  4049b5:	48 8b 45 d8          	mov    -0x28(%rbp),%rax
  4049b9:	48 8d 48 20          	lea    0x20(%rax),%rcx
  4049bd:	48 8d 45 e7          	lea    -0x19(%rbp),%rax
  4049c1:	48 89 c2             	mov    %rax,%rdx
  4049c4:	48 89 cf             	mov    %rcx,%rdi
  4049c7:	e8 f4 e5 ff ff       	callq  402fc0 <_ZNSt7__cxx1112basic_stringIcSt11char_traitsIcESaIcEEC1EPKcRKS3_@plt>
  4049cc:	48 8d 45 e7          	lea    -0x19(%rbp),%rax
  4049d0:	48 89 c7             	mov    %rax,%rdi
  4049d3:	e8 48 e5 ff ff       	callq  402f20 <_ZNSaIcED1Ev@plt>
  4049d8:	90                   	nop
  4049d9:	48 8b 45 e8          	mov    -0x18(%rbp),%rax
  4049dd:	64 48 33 04 25 28 00 	xor    %fs:0x28,%rax
  4049e4:	00 00 
  4049e6:	74 47                	je     404a2f <_ZNSt4pairIKNSt7__cxx1112basic_stringIcSt11char_traitsIcESaIcEEES5_EC1IRA11_KcRA5_S9_Lb1EEEOT_OT0_+0xf3>
  4049e8:	eb 40                	jmp    404a2a <_ZNSt4pairIKNSt7__cxx1112basic_stringIcSt11char_traitsIcESaIcEEES5_EC1IRA11_KcRA5_S9_Lb1EEEOT_OT0_+0xee>
  4049ea:	48 89 c3             	mov    %rax,%rbx
  4049ed:	48 8d 45 e7          	lea    -0x19(%rbp),%rax
  4049f1:	48 89 c7             	mov    %rax,%rdi
  4049f4:	e8 27 e5 ff ff       	callq  402f20 <_ZNSaIcED1Ev@plt>
  4049f9:	48 89 d8             	mov    %rbx,%rax
  4049fc:	48 89 c7             	mov    %rax,%rdi
  4049ff:	e8 ec e6 ff ff       	callq  4030f0 <_Unwind_Resume@plt>
  404a04:	48 89 c3             	mov    %rax,%rbx
  404a07:	48 8d 45 e7          	lea    -0x19(%rbp),%rax
  404a0b:	48 89 c7             	mov    %rax,%rdi
  404a0e:	e8 0d e5 ff ff       	callq  402f20 <_ZNSaIcED1Ev@plt>
  404a13:	48 8b 45 d8          	mov    -0x28(%rbp),%rax
  404a17:	48 89 c7             	mov    %rax,%rdi
  404a1a:	e8 11 e3 ff ff       	callq  402d30 <_ZNSt7__cxx1112basic_stringIcSt11char_traitsIcESaIcEED1Ev@plt>
  404a1f:	48 89 d8             	mov    %rbx,%rax
  404a22:	48 89 c7             	mov    %rax,%rdi
  404a25:	e8 c6 e6 ff ff       	callq  4030f0 <_Unwind_Resume@plt>
  404a2a:	e8 11 e5 ff ff       	callq  402f40 <__stack_chk_fail@plt>
  404a2f:	48 83 c4 38          	add    $0x38,%rsp
  404a33:	5b                   	pop    %rbx
  404a34:	5d                   	pop    %rbp
  404a35:	c3                   	retq   

0000000000404a36 <_ZNSt4pairIKNSt7__cxx1112basic_stringIcSt11char_traitsIcESaIcEEES5_ED1Ev>:
  404a36:	55                   	push   %rbp
  404a37:	48 89 e5             	mov    %rsp,%rbp
  404a3a:	48 83 ec 10          	sub    $0x10,%rsp
  404a3e:	48 89 7d f8          	mov    %rdi,-0x8(%rbp)
  404a42:	48 8b 45 f8          	mov    -0x8(%rbp),%rax
  404a46:	48 83 c0 20          	add    $0x20,%rax
  404a4a:	48 89 c7             	mov    %rax,%rdi
  404a4d:	e8 de e2 ff ff       	callq  402d30 <_ZNSt7__cxx1112basic_stringIcSt11char_traitsIcESaIcEED1Ev@plt>
  404a52:	48 8b 45 f8          	mov    -0x8(%rbp),%rax
  404a56:	48 89 c7             	mov    %rax,%rdi
  404a59:	e8 d2 e2 ff ff       	callq  402d30 <_ZNSt7__cxx1112basic_stringIcSt11char_traitsIcESaIcEED1Ev@plt>
  404a5e:	90                   	nop
  404a5f:	c9                   	leaveq 
  404a60:	c3                   	retq   

0000000000404a61 <_ZSt7forwardIRA2_KcEOT_RNSt16remove_referenceIS3_E4typeE>:
  404a61:	55                   	push   %rbp
  404a62:	48 89 e5             	mov    %rsp,%rbp
  404a65:	48 89 7d f8          	mov    %rdi,-0x8(%rbp)
  404a69:	48 8b 45 f8          	mov    -0x8(%rbp),%rax
  404a6d:	5d                   	pop    %rbp
  404a6e:	c3                   	retq   

0000000000404a6f <_ZSt7forwardIRNSt7__cxx1112basic_stringIcSt11char_traitsIcESaIcEEEEOT_RNSt16remove_referenceIS7_E4typeE>:
  404a6f:	55                   	push   %rbp
  404a70:	48 89 e5             	mov    %rsp,%rbp
  404a73:	48 89 7d f8          	mov    %rdi,-0x8(%rbp)
  404a77:	48 8b 45 f8          	mov    -0x8(%rbp),%rax
  404a7b:	5d                   	pop    %rbp
  404a7c:	c3                   	retq   
  404a7d:	90                   	nop

0000000000404a7e <_ZNSt4pairIPKcNSt7__cxx1112basic_stringIcSt11char_traitsIcESaIcEEEEC1IRS7_Lb1EEERKS1_OT_>:
  404a7e:	55                   	push   %rbp
  404a7f:	48 89 e5             	mov    %rsp,%rbp
  404a82:	48 83 ec 20          	sub    $0x20,%rsp
  404a86:	48 89 7d f8          	mov    %rdi,-0x8(%rbp)
  404a8a:	48 89 75 f0          	mov    %rsi,-0x10(%rbp)
  404a8e:	48 89 55 e8          	mov    %rdx,-0x18(%rbp)
  404a92:	48 8b 45 f0          	mov    -0x10(%rbp),%rax
  404a96:	48 8b 10             	mov    (%rax),%rdx
  404a99:	48 8b 45 f8          	mov    -0x8(%rbp),%rax
  404a9d:	48 89 10             	mov    %rdx,(%rax)
  404aa0:	48 8b 45 e8          	mov    -0x18(%rbp),%rax
  404aa4:	48 89 c7             	mov    %rax,%rdi
  404aa7:	e8 c3 ff ff ff       	callq  404a6f <_ZSt7forwardIRNSt7__cxx1112basic_stringIcSt11char_traitsIcESaIcEEEEOT_RNSt16remove_referenceIS7_E4typeE>
  404aac:	48 89 c2             	mov    %rax,%rdx
  404aaf:	48 8b 45 f8          	mov    -0x8(%rbp),%rax
  404ab3:	48 83 c0 08          	add    $0x8,%rax
  404ab7:	48 89 d6             	mov    %rdx,%rsi
  404aba:	48 89 c7             	mov    %rax,%rdi
  404abd:	e8 fe e1 ff ff       	callq  402cc0 <_ZNSt7__cxx1112basic_stringIcSt11char_traitsIcESaIcEEC1ERKS4_@plt>
  404ac2:	90                   	nop
  404ac3:	c9                   	leaveq 
  404ac4:	c3                   	retq   
  404ac5:	90                   	nop

0000000000404ac6 <_ZNSt4pairIPKcNSt7__cxx1112basic_stringIcSt11char_traitsIcESaIcEEEED1Ev>:
  404ac6:	55                   	push   %rbp
  404ac7:	48 89 e5             	mov    %rsp,%rbp
  404aca:	48 83 ec 10          	sub    $0x10,%rsp
  404ace:	48 89 7d f8          	mov    %rdi,-0x8(%rbp)
  404ad2:	48 8b 45 f8          	mov    -0x8(%rbp),%rax
  404ad6:	48 83 c0 08          	add    $0x8,%rax
  404ada:	48 89 c7             	mov    %rax,%rdi
  404add:	e8 4e e2 ff ff       	callq  402d30 <_ZNSt7__cxx1112basic_stringIcSt11char_traitsIcESaIcEED1Ev@plt>
  404ae2:	90                   	nop
  404ae3:	c9                   	leaveq 
  404ae4:	c3                   	retq   

0000000000404ae5 <_ZSt9make_pairIRA2_KcRNSt7__cxx1112basic_stringIcSt11char_traitsIcESaIcEEEESt4pairINSt17__decay_and_stripIT_E6__typeENSB_IT0_E6__typeEEOSC_OSF_>:
  404ae5:	55                   	push   %rbp
  404ae6:	48 89 e5             	mov    %rsp,%rbp
  404ae9:	53                   	push   %rbx
  404aea:	48 83 ec 38          	sub    $0x38,%rsp
  404aee:	48 89 7d d8          	mov    %rdi,-0x28(%rbp)
  404af2:	48 89 75 d0          	mov    %rsi,-0x30(%rbp)
  404af6:	48 89 55 c8          	mov    %rdx,-0x38(%rbp)
  404afa:	64 48 8b 04 25 28 00 	mov    %fs:0x28,%rax
  404b01:	00 00 
  404b03:	48 89 45 e8          	mov    %rax,-0x18(%rbp)
  404b07:	31 c0                	xor    %eax,%eax
  404b09:	48 8b 45 c8          	mov    -0x38(%rbp),%rax
  404b0d:	48 89 c7             	mov    %rax,%rdi
  404b10:	e8 5a ff ff ff       	callq  404a6f <_ZSt7forwardIRNSt7__cxx1112basic_stringIcSt11char_traitsIcESaIcEEEEOT_RNSt16remove_referenceIS7_E4typeE>
  404b15:	48 89 c3             	mov    %rax,%rbx
  404b18:	48 8b 45 d0          	mov    -0x30(%rbp),%rax
  404b1c:	48 89 c7             	mov    %rax,%rdi
  404b1f:	e8 3d ff ff ff       	callq  404a61 <_ZSt7forwardIRA2_KcEOT_RNSt16remove_referenceIS3_E4typeE>
  404b24:	48 89 45 e0          	mov    %rax,-0x20(%rbp)
  404b28:	48 8d 4d e0          	lea    -0x20(%rbp),%rcx
  404b2c:	48 8b 45 d8          	mov    -0x28(%rbp),%rax
  404b30:	48 89 da             	mov    %rbx,%rdx
  404b33:	48 89 ce             	mov    %rcx,%rsi
  404b36:	48 89 c7             	mov    %rax,%rdi
  404b39:	e8 40 ff ff ff       	callq  404a7e <_ZNSt4pairIPKcNSt7__cxx1112basic_stringIcSt11char_traitsIcESaIcEEEEC1IRS7_Lb1EEERKS1_OT_>
  404b3e:	48 8b 45 d8          	mov    -0x28(%rbp),%rax
  404b42:	48 8b 55 e8          	mov    -0x18(%rbp),%rdx
  404b46:	64 48 33 14 25 28 00 	xor    %fs:0x28,%rdx
  404b4d:	00 00 
  404b4f:	74 05                	je     404b56 <_ZSt9make_pairIRA2_KcRNSt7__cxx1112basic_stringIcSt11char_traitsIcESaIcEEEESt4pairINSt17__decay_and_stripIT_E6__typeENSB_IT0_E6__typeEEOSC_OSF_+0x71>
  404b51:	e8 ea e3 ff ff       	callq  402f40 <__stack_chk_fail@plt>
  404b56:	48 83 c4 38          	add    $0x38,%rsp
  404b5a:	5b                   	pop    %rbx
  404b5b:	5d                   	pop    %rbp
  404b5c:	c3                   	retq   

0000000000404b5d <_ZSt7forwardIRA12_KcEOT_RNSt16remove_referenceIS3_E4typeE>:
  404b5d:	55                   	push   %rbp
  404b5e:	48 89 e5             	mov    %rsp,%rbp
  404b61:	48 89 7d f8          	mov    %rdi,-0x8(%rbp)
  404b65:	48 8b 45 f8          	mov    -0x8(%rbp),%rax
  404b69:	5d                   	pop    %rbp
  404b6a:	c3                   	retq   

0000000000404b6b <_ZSt9make_pairIRA12_KcRNSt7__cxx1112basic_stringIcSt11char_traitsIcESaIcEEEESt4pairINSt17__decay_and_stripIT_E6__typeENSB_IT0_E6__typeEEOSC_OSF_>:
  404b6b:	55                   	push   %rbp
  404b6c:	48 89 e5             	mov    %rsp,%rbp
  404b6f:	53                   	push   %rbx
  404b70:	48 83 ec 38          	sub    $0x38,%rsp
  404b74:	48 89 7d d8          	mov    %rdi,-0x28(%rbp)
  404b78:	48 89 75 d0          	mov    %rsi,-0x30(%rbp)
  404b7c:	48 89 55 c8          	mov    %rdx,-0x38(%rbp)
  404b80:	64 48 8b 04 25 28 00 	mov    %fs:0x28,%rax
  404b87:	00 00 
  404b89:	48 89 45 e8          	mov    %rax,-0x18(%rbp)
  404b8d:	31 c0                	xor    %eax,%eax
  404b8f:	48 8b 45 c8          	mov    -0x38(%rbp),%rax
  404b93:	48 89 c7             	mov    %rax,%rdi
  404b96:	e8 d4 fe ff ff       	callq  404a6f <_ZSt7forwardIRNSt7__cxx1112basic_stringIcSt11char_traitsIcESaIcEEEEOT_RNSt16remove_referenceIS7_E4typeE>
  404b9b:	48 89 c3             	mov    %rax,%rbx
  404b9e:	48 8b 45 d0          	mov    -0x30(%rbp),%rax
  404ba2:	48 89 c7             	mov    %rax,%rdi
  404ba5:	e8 b3 ff ff ff       	callq  404b5d <_ZSt7forwardIRA12_KcEOT_RNSt16remove_referenceIS3_E4typeE>
  404baa:	48 89 45 e0          	mov    %rax,-0x20(%rbp)
  404bae:	48 8d 4d e0          	lea    -0x20(%rbp),%rcx
  404bb2:	48 8b 45 d8          	mov    -0x28(%rbp),%rax
  404bb6:	48 89 da             	mov    %rbx,%rdx
  404bb9:	48 89 ce             	mov    %rcx,%rsi
  404bbc:	48 89 c7             	mov    %rax,%rdi
  404bbf:	e8 ba fe ff ff       	callq  404a7e <_ZNSt4pairIPKcNSt7__cxx1112basic_stringIcSt11char_traitsIcESaIcEEEEC1IRS7_Lb1EEERKS1_OT_>
  404bc4:	48 8b 45 d8          	mov    -0x28(%rbp),%rax
  404bc8:	48 8b 55 e8          	mov    -0x18(%rbp),%rdx
  404bcc:	64 48 33 14 25 28 00 	xor    %fs:0x28,%rdx
  404bd3:	00 00 
  404bd5:	74 05                	je     404bdc <_ZSt9make_pairIRA12_KcRNSt7__cxx1112basic_stringIcSt11char_traitsIcESaIcEEEESt4pairINSt17__decay_and_stripIT_E6__typeENSB_IT0_E6__typeEEOSC_OSF_+0x71>
  404bd7:	e8 64 e3 ff ff       	callq  402f40 <__stack_chk_fail@plt>
  404bdc:	48 83 c4 38          	add    $0x38,%rsp
  404be0:	5b                   	pop    %rbx
  404be1:	5d                   	pop    %rbp
  404be2:	c3                   	retq   

0000000000404be3 <_ZN9__gnu_cxx12__to_xstringINSt7__cxx1112basic_stringIcSt11char_traitsIcESaIcEEEcEET_PFiPT0_mPKS8_P13__va_list_tagEmSB_z>:
  404be3:	55                   	push   %rbp
  404be4:	48 89 e5             	mov    %rsp,%rbp
  404be7:	53                   	push   %rbx
  404be8:	48 81 ec 08 01 00 00 	sub    $0x108,%rsp
  404bef:	48 89 bd 08 ff ff ff 	mov    %rdi,-0xf8(%rbp)
  404bf6:	48 89 b5 00 ff ff ff 	mov    %rsi,-0x100(%rbp)
  404bfd:	48 89 95 f8 fe ff ff 	mov    %rdx,-0x108(%rbp)
  404c04:	48 89 8d f0 fe ff ff 	mov    %rcx,-0x110(%rbp)
  404c0b:	4c 89 85 60 ff ff ff 	mov    %r8,-0xa0(%rbp)
  404c12:	4c 89 8d 68 ff ff ff 	mov    %r9,-0x98(%rbp)
  404c19:	84 c0                	test   %al,%al
  404c1b:	74 23                	je     404c40 <_ZN9__gnu_cxx12__to_xstringINSt7__cxx1112basic_stringIcSt11char_traitsIcESaIcEEEcEET_PFiPT0_mPKS8_P13__va_list_tagEmSB_z+0x5d>
  404c1d:	0f 29 85 70 ff ff ff 	movaps %xmm0,-0x90(%rbp)
  404c24:	0f 29 4d 80          	movaps %xmm1,-0x80(%rbp)
  404c28:	0f 29 55 90          	movaps %xmm2,-0x70(%rbp)
  404c2c:	0f 29 5d a0          	movaps %xmm3,-0x60(%rbp)
  404c30:	0f 29 65 b0          	movaps %xmm4,-0x50(%rbp)
  404c34:	0f 29 6d c0          	movaps %xmm5,-0x40(%rbp)
  404c38:	0f 29 75 d0          	movaps %xmm6,-0x30(%rbp)
  404c3c:	0f 29 7d e0          	movaps %xmm7,-0x20(%rbp)
  404c40:	64 48 8b 04 25 28 00 	mov    %fs:0x28,%rax
  404c47:	00 00 
  404c49:	48 89 85 38 ff ff ff 	mov    %rax,-0xc8(%rbp)
  404c50:	31 c0                	xor    %eax,%eax
  404c52:	48 8b 85 f8 fe ff ff 	mov    -0x108(%rbp),%rax
  404c59:	48 8d 50 0f          	lea    0xf(%rax),%rdx
  404c5d:	b8 10 00 00 00       	mov    $0x10,%eax
  404c62:	48 83 e8 01          	sub    $0x1,%rax
  404c66:	48 01 d0             	add    %rdx,%rax
  404c69:	bb 10 00 00 00       	mov    $0x10,%ebx
  404c6e:	ba 00 00 00 00       	mov    $0x0,%edx
  404c73:	48 f7 f3             	div    %rbx
  404c76:	48 6b c0 10          	imul   $0x10,%rax,%rax
  404c7a:	48 29 c4             	sub    %rax,%rsp
  404c7d:	48 89 e0             	mov    %rsp,%rax
  404c80:	48 83 c0 0f          	add    $0xf,%rax
  404c84:	48 c1 e8 04          	shr    $0x4,%rax
  404c88:	48 c1 e0 04          	shl    $0x4,%rax
  404c8c:	48 89 85 18 ff ff ff 	mov    %rax,-0xe8(%rbp)
  404c93:	c7 85 20 ff ff ff 20 	movl   $0x20,-0xe0(%rbp)
  404c9a:	00 00 00 
  404c9d:	c7 85 24 ff ff ff 30 	movl   $0x30,-0xdc(%rbp)
  404ca4:	00 00 00 
  404ca7:	48 8d 45 10          	lea    0x10(%rbp),%rax
  404cab:	48 89 85 28 ff ff ff 	mov    %rax,-0xd8(%rbp)
  404cb2:	48 8d 85 40 ff ff ff 	lea    -0xc0(%rbp),%rax
  404cb9:	48 89 85 30 ff ff ff 	mov    %rax,-0xd0(%rbp)
  404cc0:	48 8d 8d 20 ff ff ff 	lea    -0xe0(%rbp),%rcx
  404cc7:	48 8b 95 f0 fe ff ff 	mov    -0x110(%rbp),%rdx
  404cce:	48 8b b5 f8 fe ff ff 	mov    -0x108(%rbp),%rsi
  404cd5:	48 8b bd 18 ff ff ff 	mov    -0xe8(%rbp),%rdi
  404cdc:	48 8b 85 00 ff ff ff 	mov    -0x100(%rbp),%rax
  404ce3:	ff d0                	callq  *%rax
  404ce5:	89 85 14 ff ff ff    	mov    %eax,-0xec(%rbp)
  404ceb:	48 8d 85 13 ff ff ff 	lea    -0xed(%rbp),%rax
  404cf2:	48 89 c7             	mov    %rax,%rdi
  404cf5:	e8 06 e4 ff ff       	callq  403100 <_ZNSaIcEC1Ev@plt>
  404cfa:	8b 85 14 ff ff ff    	mov    -0xec(%rbp),%eax
  404d00:	48 63 d0             	movslq %eax,%rdx
  404d03:	48 8b 85 18 ff ff ff 	mov    -0xe8(%rbp),%rax
  404d0a:	48 8d 3c 02          	lea    (%rdx,%rax,1),%rdi
  404d0e:	48 8d 95 13 ff ff ff 	lea    -0xed(%rbp),%rdx
  404d15:	48 8b b5 18 ff ff ff 	mov    -0xe8(%rbp),%rsi
  404d1c:	48 8b 85 08 ff ff ff 	mov    -0xf8(%rbp),%rax
  404d23:	48 89 d1             	mov    %rdx,%rcx
  404d26:	48 89 fa             	mov    %rdi,%rdx
  404d29:	48 89 c7             	mov    %rax,%rdi
  404d2c:	e8 ad 07 00 00       	callq  4054de <_ZNSt7__cxx1112basic_stringIcSt11char_traitsIcESaIcEEC1IPcvEET_S7_RKS3_>
  404d31:	48 8d 85 13 ff ff ff 	lea    -0xed(%rbp),%rax
  404d38:	48 89 c7             	mov    %rax,%rdi
  404d3b:	e8 e0 e1 ff ff       	callq  402f20 <_ZNSaIcED1Ev@plt>
  404d40:	48 8b 85 08 ff ff ff 	mov    -0xf8(%rbp),%rax
  404d47:	48 8b 9d 38 ff ff ff 	mov    -0xc8(%rbp),%rbx
  404d4e:	64 48 33 1c 25 28 00 	xor    %fs:0x28,%rbx
  404d55:	00 00 
  404d57:	74 24                	je     404d7d <_ZN9__gnu_cxx12__to_xstringINSt7__cxx1112basic_stringIcSt11char_traitsIcESaIcEEEcEET_PFiPT0_mPKS8_P13__va_list_tagEmSB_z+0x19a>
  404d59:	eb 1d                	jmp    404d78 <_ZN9__gnu_cxx12__to_xstringINSt7__cxx1112basic_stringIcSt11char_traitsIcESaIcEEEcEET_PFiPT0_mPKS8_P13__va_list_tagEmSB_z+0x195>
  404d5b:	48 89 c3             	mov    %rax,%rbx
  404d5e:	48 8d 85 13 ff ff ff 	lea    -0xed(%rbp),%rax
  404d65:	48 89 c7             	mov    %rax,%rdi
  404d68:	e8 b3 e1 ff ff       	callq  402f20 <_ZNSaIcED1Ev@plt>
  404d6d:	48 89 d8             	mov    %rbx,%rax
  404d70:	48 89 c7             	mov    %rax,%rdi
  404d73:	e8 78 e3 ff ff       	callq  4030f0 <_Unwind_Resume@plt>
  404d78:	e8 c3 e1 ff ff       	callq  402f40 <__stack_chk_fail@plt>
  404d7d:	48 8b 5d f8          	mov    -0x8(%rbp),%rbx
  404d81:	c9                   	leaveq 
  404d82:	c3                   	retq   
  404d83:	90                   	nop

0000000000404d84 <_ZNSt7__cxx1112basic_stringIcSt11char_traitsIcESaIcEE12_Alloc_hiderD1Ev>:
  404d84:	55                   	push   %rbp
  404d85:	48 89 e5             	mov    %rsp,%rbp
  404d88:	48 83 ec 10          	sub    $0x10,%rsp
  404d8c:	48 89 7d f8          	mov    %rdi,-0x8(%rbp)
  404d90:	48 8b 45 f8          	mov    -0x8(%rbp),%rax
  404d94:	48 89 c7             	mov    %rax,%rdi
  404d97:	e8 24 de ff ff       	callq  402bc0 <_ZNSaIcED2Ev@plt>
  404d9c:	90                   	nop
  404d9d:	c9                   	leaveq 
  404d9e:	c3                   	retq   

0000000000404d9f <_ZSt4moveIRNSt7__cxx1112basic_stringIcSt11char_traitsIcESaIcEEEEONSt16remove_referenceIT_E4typeEOS8_>:
  404d9f:	55                   	push   %rbp
  404da0:	48 89 e5             	mov    %rsp,%rbp
  404da3:	48 89 7d f8          	mov    %rdi,-0x8(%rbp)
  404da7:	48 8b 45 f8          	mov    -0x8(%rbp),%rax
  404dab:	5d                   	pop    %rbp
  404dac:	c3                   	retq   

0000000000404dad <_ZStplIcSt11char_traitsIcESaIcEENSt7__cxx1112basic_stringIT_T0_T1_EEOS8_S9_>:
  404dad:	55                   	push   %rbp
  404dae:	48 89 e5             	mov    %rsp,%rbp
  404db1:	53                   	push   %rbx
  404db2:	48 83 ec 38          	sub    $0x38,%rsp
  404db6:	48 89 7d d8          	mov    %rdi,-0x28(%rbp)
  404dba:	48 89 75 d0          	mov    %rsi,-0x30(%rbp)
  404dbe:	48 89 55 c8          	mov    %rdx,-0x38(%rbp)
  404dc2:	48 8b 45 d0          	mov    -0x30(%rbp),%rax
  404dc6:	48 89 c7             	mov    %rax,%rdi
  404dc9:	e8 b2 df ff ff       	callq  402d80 <_ZNKSt7__cxx1112basic_stringIcSt11char_traitsIcESaIcEE4sizeEv@plt>
  404dce:	48 89 c3             	mov    %rax,%rbx
  404dd1:	48 8b 45 c8          	mov    -0x38(%rbp),%rax
  404dd5:	48 89 c7             	mov    %rax,%rdi
  404dd8:	e8 a3 df ff ff       	callq  402d80 <_ZNKSt7__cxx1112basic_stringIcSt11char_traitsIcESaIcEE4sizeEv@plt>
  404ddd:	48 01 d8             	add    %rbx,%rax
  404de0:	48 89 45 e8          	mov    %rax,-0x18(%rbp)
  404de4:	48 8b 45 d0          	mov    -0x30(%rbp),%rax
  404de8:	48 89 c7             	mov    %rax,%rdi
  404deb:	e8 60 dd ff ff       	callq  402b50 <_ZNKSt7__cxx1112basic_stringIcSt11char_traitsIcESaIcEE8capacityEv@plt>
  404df0:	48 3b 45 e8          	cmp    -0x18(%rbp),%rax
  404df4:	73 19                	jae    404e0f <_ZStplIcSt11char_traitsIcESaIcEENSt7__cxx1112basic_stringIT_T0_T1_EEOS8_S9_+0x62>
  404df6:	48 8b 45 c8          	mov    -0x38(%rbp),%rax
  404dfa:	48 89 c7             	mov    %rax,%rdi
  404dfd:	e8 4e dd ff ff       	callq  402b50 <_ZNKSt7__cxx1112basic_stringIcSt11char_traitsIcESaIcEE8capacityEv@plt>
  404e02:	48 3b 45 e8          	cmp    -0x18(%rbp),%rax
  404e06:	72 07                	jb     404e0f <_ZStplIcSt11char_traitsIcESaIcEENSt7__cxx1112basic_stringIT_T0_T1_EEOS8_S9_+0x62>
  404e08:	b8 01 00 00 00       	mov    $0x1,%eax
  404e0d:	eb 05                	jmp    404e14 <_ZStplIcSt11char_traitsIcESaIcEENSt7__cxx1112basic_stringIT_T0_T1_EEOS8_S9_+0x67>
  404e0f:	b8 00 00 00 00       	mov    $0x0,%eax
  404e14:	88 45 e7             	mov    %al,-0x19(%rbp)
  404e17:	80 7d e7 00          	cmpb   $0x0,-0x19(%rbp)
  404e1b:	74 22                	je     404e3f <_ZStplIcSt11char_traitsIcESaIcEENSt7__cxx1112basic_stringIT_T0_T1_EEOS8_S9_+0x92>
  404e1d:	48 8b 55 d0          	mov    -0x30(%rbp),%rdx
  404e21:	48 8b 45 c8          	mov    -0x38(%rbp),%rax
  404e25:	be 00 00 00 00       	mov    $0x0,%esi
  404e2a:	48 89 c7             	mov    %rax,%rdi
  404e2d:	e8 0e e2 ff ff       	callq  403040 <_ZNSt7__cxx1112basic_stringIcSt11char_traitsIcESaIcEE6insertEmRKS4_@plt>
  404e32:	48 89 c7             	mov    %rax,%rdi
  404e35:	e8 65 ff ff ff       	callq  404d9f <_ZSt4moveIRNSt7__cxx1112basic_stringIcSt11char_traitsIcESaIcEEEEONSt16remove_referenceIT_E4typeEOS8_>
  404e3a:	48 89 c2             	mov    %rax,%rdx
  404e3d:	eb 1e                	jmp    404e5d <_ZStplIcSt11char_traitsIcESaIcEENSt7__cxx1112basic_stringIT_T0_T1_EEOS8_S9_+0xb0>
  404e3f:	48 8b 55 c8          	mov    -0x38(%rbp),%rdx
  404e43:	48 8b 45 d0          	mov    -0x30(%rbp),%rax
  404e47:	48 89 d6             	mov    %rdx,%rsi
  404e4a:	48 89 c7             	mov    %rax,%rdi
  404e4d:	e8 0e e3 ff ff       	callq  403160 <_ZNSt7__cxx1112basic_stringIcSt11char_traitsIcESaIcEE6appendERKS4_@plt>
  404e52:	48 89 c7             	mov    %rax,%rdi
  404e55:	e8 45 ff ff ff       	callq  404d9f <_ZSt4moveIRNSt7__cxx1112basic_stringIcSt11char_traitsIcESaIcEEEEONSt16remove_referenceIT_E4typeEOS8_>
  404e5a:	48 89 c2             	mov    %rax,%rdx
  404e5d:	48 8b 45 d8          	mov    -0x28(%rbp),%rax
  404e61:	48 89 d6             	mov    %rdx,%rsi
  404e64:	48 89 c7             	mov    %rax,%rdi
  404e67:	e8 b4 de ff ff       	callq  402d20 <_ZNSt7__cxx1112basic_stringIcSt11char_traitsIcESaIcEEC1EOS4_@plt>
  404e6c:	48 8b 45 d8          	mov    -0x28(%rbp),%rax
  404e70:	48 83 c4 38          	add    $0x38,%rsp
  404e74:	5b                   	pop    %rbx
  404e75:	5d                   	pop    %rbp
  404e76:	c3                   	retq   
  404e77:	90                   	nop

0000000000404e78 <_ZNSt3mapINSt7__cxx1112basic_stringIcSt11char_traitsIcESaIcEEES5_St4lessIS5_ESaISt4pairIKS5_S5_EEEC1Ev>:
  404e78:	55                   	push   %rbp
  404e79:	48 89 e5             	mov    %rsp,%rbp
  404e7c:	48 83 ec 10          	sub    $0x10,%rsp
  404e80:	48 89 7d f8          	mov    %rdi,-0x8(%rbp)
  404e84:	48 8b 45 f8          	mov    -0x8(%rbp),%rax
  404e88:	48 89 c7             	mov    %rax,%rdi
  404e8b:	e8 c4 06 00 00       	callq  405554 <_ZNSt8_Rb_treeINSt7__cxx1112basic_stringIcSt11char_traitsIcESaIcEEESt4pairIKS5_S5_ESt10_Select1stIS8_ESt4lessIS5_ESaIS8_EEC1Ev>
  404e90:	90                   	nop
  404e91:	c9                   	leaveq 
  404e92:	c3                   	retq   
  404e93:	90                   	nop

0000000000404e94 <_ZNSt8_Rb_treeINSt7__cxx1112basic_stringIcSt11char_traitsIcESaIcEEESt4pairIKS5_S5_ESt10_Select1stIS8_ESt4lessIS5_ESaIS8_EE13_Rb_tree_implISC_Lb1EED1Ev>:
  404e94:	55                   	push   %rbp
  404e95:	48 89 e5             	mov    %rsp,%rbp
  404e98:	48 83 ec 10          	sub    $0x10,%rsp
  404e9c:	48 89 7d f8          	mov    %rdi,-0x8(%rbp)
  404ea0:	48 8b 45 f8          	mov    -0x8(%rbp),%rax
  404ea4:	48 89 c7             	mov    %rax,%rdi
  404ea7:	e8 c4 06 00 00       	callq  405570 <_ZNSaISt13_Rb_tree_nodeISt4pairIKNSt7__cxx1112basic_stringIcSt11char_traitsIcESaIcEEES6_EEED1Ev>
  404eac:	90                   	nop
  404ead:	c9                   	leaveq 
  404eae:	c3                   	retq   
  404eaf:	90                   	nop

0000000000404eb0 <_ZNSt8_Rb_treeINSt7__cxx1112basic_stringIcSt11char_traitsIcESaIcEEESt4pairIKS5_S5_ESt10_Select1stIS8_ESt4lessIS5_ESaIS8_EED1Ev>:
  404eb0:	55                   	push   %rbp
  404eb1:	48 89 e5             	mov    %rsp,%rbp
  404eb4:	48 83 ec 10          	sub    $0x10,%rsp
  404eb8:	48 89 7d f8          	mov    %rdi,-0x8(%rbp)
  404ebc:	48 8b 45 f8          	mov    -0x8(%rbp),%rax
  404ec0:	48 89 c7             	mov    %rax,%rdi
  404ec3:	e8 2a 07 00 00       	callq  4055f2 <_ZNSt8_Rb_treeINSt7__cxx1112basic_stringIcSt11char_traitsIcESaIcEEESt4pairIKS5_S5_ESt10_Select1stIS8_ESt4lessIS5_ESaIS8_EE8_M_beginEv>
  404ec8:	48 89 c2             	mov    %rax,%rdx
  404ecb:	48 8b 45 f8          	mov    -0x8(%rbp),%rax
  404ecf:	48 89 d6             	mov    %rdx,%rsi
  404ed2:	48 89 c7             	mov    %rax,%rdi
  404ed5:	e8 b2 06 00 00       	callq  40558c <_ZNSt8_Rb_treeINSt7__cxx1112basic_stringIcSt11char_traitsIcESaIcEEESt4pairIKS5_S5_ESt10_Select1stIS8_ESt4lessIS5_ESaIS8_EE8_M_eraseEPSt13_Rb_tree_nodeIS8_E>
  404eda:	48 8b 45 f8          	mov    -0x8(%rbp),%rax
  404ede:	48 89 c7             	mov    %rax,%rdi
  404ee1:	e8 ae ff ff ff       	callq  404e94 <_ZNSt8_Rb_treeINSt7__cxx1112basic_stringIcSt11char_traitsIcESaIcEEESt4pairIKS5_S5_ESt10_Select1stIS8_ESt4lessIS5_ESaIS8_EE13_Rb_tree_implISC_Lb1EED1Ev>
  404ee6:	90                   	nop
  404ee7:	c9                   	leaveq 
  404ee8:	c3                   	retq   
  404ee9:	90                   	nop

0000000000404eea <_ZNSt6vectorIhSaIhEEC1Ev>:
  404eea:	55                   	push   %rbp
  404eeb:	48 89 e5             	mov    %rsp,%rbp
  404eee:	48 83 ec 10          	sub    $0x10,%rsp
  404ef2:	48 89 7d f8          	mov    %rdi,-0x8(%rbp)
  404ef6:	48 8b 45 f8          	mov    -0x8(%rbp),%rax
  404efa:	48 89 c7             	mov    %rax,%rdi
  404efd:	e8 1e 07 00 00       	callq  405620 <_ZNSt12_Vector_baseIhSaIhEEC1Ev>
  404f02:	90                   	nop
  404f03:	c9                   	leaveq 
  404f04:	c3                   	retq   
  404f05:	90                   	nop

0000000000404f06 <_ZNSt6vectorIhSaIhEED1Ev>:
  404f06:	55                   	push   %rbp
  404f07:	48 89 e5             	mov    %rsp,%rbp
  404f0a:	48 83 ec 10          	sub    $0x10,%rsp
  404f0e:	48 89 7d f8          	mov    %rdi,-0x8(%rbp)
  404f12:	48 8b 45 f8          	mov    -0x8(%rbp),%rax
  404f16:	48 89 c7             	mov    %rax,%rdi
  404f19:	e8 6a 07 00 00       	callq  405688 <_ZNSt12_Vector_baseIhSaIhEE19_M_get_Tp_allocatorEv>
  404f1e:	48 89 c2             	mov    %rax,%rdx
  404f21:	48 8b 45 f8          	mov    -0x8(%rbp),%rax
  404f25:	48 8b 48 08          	mov    0x8(%rax),%rcx
  404f29:	48 8b 45 f8          	mov    -0x8(%rbp),%rax
  404f2d:	48 8b 00             	mov    (%rax),%rax
  404f30:	48 89 ce             	mov    %rcx,%rsi
  404f33:	48 89 c7             	mov    %rax,%rdi
  404f36:	e8 5b 07 00 00       	callq  405696 <_ZSt8_DestroyIPhhEvT_S1_RSaIT0_E>
  404f3b:	48 8b 45 f8          	mov    -0x8(%rbp),%rax
  404f3f:	48 89 c7             	mov    %rax,%rdi
  404f42:	e8 f5 06 00 00       	callq  40563c <_ZNSt12_Vector_baseIhSaIhEED1Ev>
  404f47:	90                   	nop
  404f48:	c9                   	leaveq 
  404f49:	c3                   	retq   

0000000000404f4a <_ZNKSt4lessINSt7__cxx1112basic_stringIcSt11char_traitsIcESaIcEEEEclERKS5_S8_>:
  404f4a:	55                   	push   %rbp
  404f4b:	48 89 e5             	mov    %rsp,%rbp
  404f4e:	48 83 ec 20          	sub    $0x20,%rsp
  404f52:	48 89 7d f8          	mov    %rdi,-0x8(%rbp)
  404f56:	48 89 75 f0          	mov    %rsi,-0x10(%rbp)
  404f5a:	48 89 55 e8          	mov    %rdx,-0x18(%rbp)
  404f5e:	48 8b 55 e8          	mov    -0x18(%rbp),%rdx
  404f62:	48 8b 45 f0          	mov    -0x10(%rbp),%rax
  404f66:	48 89 d6             	mov    %rdx,%rsi
  404f69:	48 89 c7             	mov    %rax,%rdi
  404f6c:	e8 b4 07 00 00       	callq  405725 <_ZStltIcSt11char_traitsIcESaIcEEbRKNSt7__cxx1112basic_stringIT_T0_T1_EESA_>
  404f71:	c9                   	leaveq 
  404f72:	c3                   	retq   

0000000000404f73 <_ZSt7forwardINSt7__cxx1112basic_stringIcSt11char_traitsIcESaIcEEEEOT_RNSt16remove_referenceIS6_E4typeE>:
  404f73:	55                   	push   %rbp
  404f74:	48 89 e5             	mov    %rsp,%rbp
  404f77:	48 89 7d f8          	mov    %rdi,-0x8(%rbp)
  404f7b:	48 8b 45 f8          	mov    -0x8(%rbp),%rax
  404f7f:	5d                   	pop    %rbp
  404f80:	c3                   	retq   
  404f81:	90                   	nop

0000000000404f82 <_ZNSt10_Head_baseILm0EONSt7__cxx1112basic_stringIcSt11char_traitsIcESaIcEEELb0EEC1IS5_EEOT_>:
  404f82:	55                   	push   %rbp
  404f83:	48 89 e5             	mov    %rsp,%rbp
  404f86:	48 83 ec 10          	sub    $0x10,%rsp
  404f8a:	48 89 7d f8          	mov    %rdi,-0x8(%rbp)
  404f8e:	48 89 75 f0          	mov    %rsi,-0x10(%rbp)
  404f92:	48 8b 45 f0          	mov    -0x10(%rbp),%rax
  404f96:	48 89 c7             	mov    %rax,%rdi
  404f99:	e8 d5 ff ff ff       	callq  404f73 <_ZSt7forwardINSt7__cxx1112basic_stringIcSt11char_traitsIcESaIcEEEEOT_RNSt16remove_referenceIS6_E4typeE>
  404f9e:	48 89 c2             	mov    %rax,%rdx
  404fa1:	48 8b 45 f8          	mov    -0x8(%rbp),%rax
  404fa5:	48 89 10             	mov    %rdx,(%rax)
  404fa8:	90                   	nop
  404fa9:	c9                   	leaveq 
  404faa:	c3                   	retq   
  404fab:	90                   	nop

0000000000404fac <_ZNSt11_Tuple_implILm0EJONSt7__cxx1112basic_stringIcSt11char_traitsIcESaIcEEEEEC1IS5_EEOT_>:
  404fac:	55                   	push   %rbp
  404fad:	48 89 e5             	mov    %rsp,%rbp
  404fb0:	48 83 ec 10          	sub    $0x10,%rsp
  404fb4:	48 89 7d f8          	mov    %rdi,-0x8(%rbp)
  404fb8:	48 89 75 f0          	mov    %rsi,-0x10(%rbp)
  404fbc:	48 8b 45 f0          	mov    -0x10(%rbp),%rax
  404fc0:	48 89 c7             	mov    %rax,%rdi
  404fc3:	e8 ab ff ff ff       	callq  404f73 <_ZSt7forwardINSt7__cxx1112basic_stringIcSt11char_traitsIcESaIcEEEEOT_RNSt16remove_referenceIS6_E4typeE>
  404fc8:	48 89 c2             	mov    %rax,%rdx
  404fcb:	48 8b 45 f8          	mov    -0x8(%rbp),%rax
  404fcf:	48 89 d6             	mov    %rdx,%rsi
  404fd2:	48 89 c7             	mov    %rax,%rdi
  404fd5:	e8 a8 ff ff ff       	callq  404f82 <_ZNSt10_Head_baseILm0EONSt7__cxx1112basic_stringIcSt11char_traitsIcESaIcEEELb0EEC1IS5_EEOT_>
  404fda:	90                   	nop
  404fdb:	c9                   	leaveq 
  404fdc:	c3                   	retq   
  404fdd:	90                   	nop

0000000000404fde <_ZNSt5tupleIJONSt7__cxx1112basic_stringIcSt11char_traitsIcESaIcEEEEEC1IJS5_ELb1EEEDpOT_>:
  404fde:	55                   	push   %rbp
  404fdf:	48 89 e5             	mov    %rsp,%rbp
  404fe2:	48 83 ec 10          	sub    $0x10,%rsp
  404fe6:	48 89 7d f8          	mov    %rdi,-0x8(%rbp)
  404fea:	48 89 75 f0          	mov    %rsi,-0x10(%rbp)
  404fee:	48 8b 45 f0          	mov    -0x10(%rbp),%rax
  404ff2:	48 89 c7             	mov    %rax,%rdi
  404ff5:	e8 79 ff ff ff       	callq  404f73 <_ZSt7forwardINSt7__cxx1112basic_stringIcSt11char_traitsIcESaIcEEEEOT_RNSt16remove_referenceIS6_E4typeE>
  404ffa:	48 89 c2             	mov    %rax,%rdx
  404ffd:	48 8b 45 f8          	mov    -0x8(%rbp),%rax
  405001:	48 89 d6             	mov    %rdx,%rsi
  405004:	48 89 c7             	mov    %rax,%rdi
  405007:	e8 a0 ff ff ff       	callq  404fac <_ZNSt11_Tuple_implILm0EJONSt7__cxx1112basic_stringIcSt11char_traitsIcESaIcEEEEEC1IS5_EEOT_>
  40500c:	90                   	nop
  40500d:	c9                   	leaveq 
  40500e:	c3                   	retq   

000000000040500f <_ZNSt10_Head_baseILm0EONSt7__cxx1112basic_stringIcSt11char_traitsIcESaIcEEELb0EE7_M_headERS7_>:
  40500f:	55                   	push   %rbp
  405010:	48 89 e5             	mov    %rsp,%rbp
  405013:	48 89 7d f8          	mov    %rdi,-0x8(%rbp)
  405017:	48 8b 45 f8          	mov    -0x8(%rbp),%rax
  40501b:	48 8b 00             	mov    (%rax),%rax
  40501e:	5d                   	pop    %rbp
  40501f:	c3                   	retq   

0000000000405020 <_ZNSt11_Tuple_implILm0EJONSt7__cxx1112basic_stringIcSt11char_traitsIcESaIcEEEEE7_M_headERS7_>:
  405020:	55                   	push   %rbp
  405021:	48 89 e5             	mov    %rsp,%rbp
  405024:	48 83 ec 10          	sub    $0x10,%rsp
  405028:	48 89 7d f8          	mov    %rdi,-0x8(%rbp)
  40502c:	48 8b 45 f8          	mov    -0x8(%rbp),%rax
  405030:	48 89 c7             	mov    %rax,%rdi
  405033:	e8 d7 ff ff ff       	callq  40500f <_ZNSt10_Head_baseILm0EONSt7__cxx1112basic_stringIcSt11char_traitsIcESaIcEEELb0EE7_M_headERS7_>
  405038:	c9                   	leaveq 
  405039:	c3                   	retq   

000000000040503a <_ZSt7forwardIONSt7__cxx1112basic_stringIcSt11char_traitsIcESaIcEEEEOT_RNSt16remove_referenceIS7_E4typeE>:
  40503a:	55                   	push   %rbp
  40503b:	48 89 e5             	mov    %rsp,%rbp
  40503e:	48 89 7d f8          	mov    %rdi,-0x8(%rbp)
  405042:	48 8b 45 f8          	mov    -0x8(%rbp),%rax
  405046:	5d                   	pop    %rbp
  405047:	c3                   	retq   

0000000000405048 <_ZNSt11_Tuple_implILm0EJONSt7__cxx1112basic_stringIcSt11char_traitsIcESaIcEEEEEC1EOS7_>:
  405048:	55                   	push   %rbp
  405049:	48 89 e5             	mov    %rsp,%rbp
  40504c:	48 83 ec 10          	sub    $0x10,%rsp
  405050:	48 89 7d f8          	mov    %rdi,-0x8(%rbp)
  405054:	48 89 75 f0          	mov    %rsi,-0x10(%rbp)
  405058:	48 8b 45 f0          	mov    -0x10(%rbp),%rax
  40505c:	48 89 c7             	mov    %rax,%rdi
  40505f:	e8 bc ff ff ff       	callq  405020 <_ZNSt11_Tuple_implILm0EJONSt7__cxx1112basic_stringIcSt11char_traitsIcESaIcEEEEE7_M_headERS7_>
  405064:	48 89 c7             	mov    %rax,%rdi
  405067:	e8 ce ff ff ff       	callq  40503a <_ZSt7forwardIONSt7__cxx1112basic_stringIcSt11char_traitsIcESaIcEEEEOT_RNSt16remove_referenceIS7_E4typeE>
  40506c:	48 89 c2             	mov    %rax,%rdx
  40506f:	48 8b 45 f8          	mov    -0x8(%rbp),%rax
  405073:	48 89 d6             	mov    %rdx,%rsi
  405076:	48 89 c7             	mov    %rax,%rdi
  405079:	e8 04 ff ff ff       	callq  404f82 <_ZNSt10_Head_baseILm0EONSt7__cxx1112basic_stringIcSt11char_traitsIcESaIcEEELb0EEC1IS5_EEOT_>
  40507e:	90                   	nop
  40507f:	c9                   	leaveq 
  405080:	c3                   	retq   
  405081:	90                   	nop

0000000000405082 <_ZNSt5tupleIJONSt7__cxx1112basic_stringIcSt11char_traitsIcESaIcEEEEEC1EOS7_>:
  405082:	55                   	push   %rbp
  405083:	48 89 e5             	mov    %rsp,%rbp
  405086:	48 83 ec 10          	sub    $0x10,%rsp
  40508a:	48 89 7d f8          	mov    %rdi,-0x8(%rbp)
  40508e:	48 89 75 f0          	mov    %rsi,-0x10(%rbp)
  405092:	48 8b 55 f0          	mov    -0x10(%rbp),%rdx
  405096:	48 8b 45 f8          	mov    -0x8(%rbp),%rax
  40509a:	48 89 d6             	mov    %rdx,%rsi
  40509d:	48 89 c7             	mov    %rax,%rdi
  4050a0:	e8 a3 ff ff ff       	callq  405048 <_ZNSt11_Tuple_implILm0EJONSt7__cxx1112basic_stringIcSt11char_traitsIcESaIcEEEEEC1EOS7_>
  4050a5:	90                   	nop
  4050a6:	c9                   	leaveq 
  4050a7:	c3                   	retq   

00000000004050a8 <_ZSt16forward_as_tupleIJNSt7__cxx1112basic_stringIcSt11char_traitsIcESaIcEEEEESt5tupleIJDpOT_EES9_>:
  4050a8:	55                   	push   %rbp
  4050a9:	48 89 e5             	mov    %rsp,%rbp
  4050ac:	48 83 ec 10          	sub    $0x10,%rsp
  4050b0:	48 89 7d f8          	mov    %rdi,-0x8(%rbp)
  4050b4:	48 89 75 f0          	mov    %rsi,-0x10(%rbp)
  4050b8:	48 8b 45 f0          	mov    -0x10(%rbp),%rax
  4050bc:	48 89 c7             	mov    %rax,%rdi
  4050bf:	e8 af fe ff ff       	callq  404f73 <_ZSt7forwardINSt7__cxx1112basic_stringIcSt11char_traitsIcESaIcEEEEOT_RNSt16remove_referenceIS6_E4typeE>
  4050c4:	48 89 c2             	mov    %rax,%rdx
  4050c7:	48 8b 45 f8          	mov    -0x8(%rbp),%rax
  4050cb:	48 89 d6             	mov    %rdx,%rsi
  4050ce:	48 89 c7             	mov    %rax,%rdi
  4050d1:	e8 08 ff ff ff       	callq  404fde <_ZNSt5tupleIJONSt7__cxx1112basic_stringIcSt11char_traitsIcESaIcEEEEEC1IJS5_ELb1EEEDpOT_>
  4050d6:	48 8b 45 f8          	mov    -0x8(%rbp),%rax
  4050da:	c9                   	leaveq 
  4050db:	c3                   	retq   

00000000004050dc <_ZNSt3mapINSt7__cxx1112basic_stringIcSt11char_traitsIcESaIcEEES5_St4lessIS5_ESaISt4pairIKS5_S5_EEEixEOS5_>:
  4050dc:	55                   	push   %rbp
  4050dd:	48 89 e5             	mov    %rsp,%rbp
  4050e0:	41 55                	push   %r13
  4050e2:	41 54                	push   %r12
  4050e4:	53                   	push   %rbx
  4050e5:	48 83 ec 48          	sub    $0x48,%rsp
  4050e9:	48 89 7d a8          	mov    %rdi,-0x58(%rbp)
  4050ed:	48 89 75 a0          	mov    %rsi,-0x60(%rbp)
  4050f1:	64 48 8b 04 25 28 00 	mov    %fs:0x28,%rax
  4050f8:	00 00 
  4050fa:	48 89 45 d8          	mov    %rax,-0x28(%rbp)
  4050fe:	31 c0                	xor    %eax,%eax
  405100:	48 8b 55 a0          	mov    -0x60(%rbp),%rdx
  405104:	48 8b 45 a8          	mov    -0x58(%rbp),%rax
  405108:	48 89 d6             	mov    %rdx,%rsi
  40510b:	48 89 c7             	mov    %rax,%rdi
  40510e:	e8 ad 05 00 00       	callq  4056c0 <_ZNSt3mapINSt7__cxx1112basic_stringIcSt11char_traitsIcESaIcEEES5_St4lessIS5_ESaISt4pairIKS5_S5_EEE11lower_boundERS9_>
  405113:	48 89 45 b8          	mov    %rax,-0x48(%rbp)
  405117:	bb 00 00 00 00       	mov    $0x0,%ebx
  40511c:	48 8b 45 a8          	mov    -0x58(%rbp),%rax
  405120:	48 89 c7             	mov    %rax,%rdi
  405123:	e8 d6 02 00 00       	callq  4053fe <_ZNSt3mapINSt7__cxx1112basic_stringIcSt11char_traitsIcESaIcEEES5_St4lessIS5_ESaISt4pairIKS5_S5_EEE3endEv>
  405128:	48 89 45 c0          	mov    %rax,-0x40(%rbp)
  40512c:	41 bc 01 00 00 00    	mov    $0x1,%r12d
  405132:	48 8d 55 c0          	lea    -0x40(%rbp),%rdx
  405136:	48 8d 45 b8          	lea    -0x48(%rbp),%rax
  40513a:	48 89 d6             	mov    %rdx,%rsi
  40513d:	48 89 c7             	mov    %rax,%rdi
  405140:	e8 d3 02 00 00       	callq  405418 <_ZNKSt17_Rb_tree_iteratorISt4pairIKNSt7__cxx1112basic_stringIcSt11char_traitsIcESaIcEEES6_EEeqERKS9_>
  405145:	84 c0                	test   %al,%al
  405147:	75 3a                	jne    405183 <_ZNSt3mapINSt7__cxx1112basic_stringIcSt11char_traitsIcESaIcEEES5_St4lessIS5_ESaISt4pairIKS5_S5_EEEixEOS5_+0xa7>
  405149:	48 8d 45 b8          	lea    -0x48(%rbp),%rax
  40514d:	48 89 c7             	mov    %rax,%rdi
  405150:	e8 b3 05 00 00       	callq  405708 <_ZNKSt17_Rb_tree_iteratorISt4pairIKNSt7__cxx1112basic_stringIcSt11char_traitsIcESaIcEEES6_EEdeEv>
  405155:	49 89 c5             	mov    %rax,%r13
  405158:	48 8b 45 a8          	mov    -0x58(%rbp),%rax
  40515c:	48 89 c7             	mov    %rax,%rdi
  40515f:	e8 82 05 00 00       	callq  4056e6 <_ZNKSt3mapINSt7__cxx1112basic_stringIcSt11char_traitsIcESaIcEEES5_St4lessIS5_ESaISt4pairIKS5_S5_EEE8key_compEv>
  405164:	bb 01 00 00 00       	mov    $0x1,%ebx
  405169:	48 8b 4d a0          	mov    -0x60(%rbp),%rcx
  40516d:	48 8d 45 b6          	lea    -0x4a(%rbp),%rax
  405171:	4c 89 ea             	mov    %r13,%rdx
  405174:	48 89 ce             	mov    %rcx,%rsi
  405177:	48 89 c7             	mov    %rax,%rdi
  40517a:	e8 cb fd ff ff       	callq  404f4a <_ZNKSt4lessINSt7__cxx1112basic_stringIcSt11char_traitsIcESaIcEEEEclERKS5_S8_>
  40517f:	84 c0                	test   %al,%al
  405181:	74 07                	je     40518a <_ZNSt3mapINSt7__cxx1112basic_stringIcSt11char_traitsIcESaIcEEES5_St4lessIS5_ESaISt4pairIKS5_S5_EEEixEOS5_+0xae>
  405183:	b8 01 00 00 00       	mov    $0x1,%eax
  405188:	eb 05                	jmp    40518f <_ZNSt3mapINSt7__cxx1112basic_stringIcSt11char_traitsIcESaIcEEES5_St4lessIS5_ESaISt4pairIKS5_S5_EEEixEOS5_+0xb3>
  40518a:	b8 00 00 00 00       	mov    $0x0,%eax
  40518f:	84 db                	test   %bl,%bl
  405191:	45 84 e4             	test   %r12b,%r12b
  405194:	84 c0                	test   %al,%al
  405196:	74 58                	je     4051f0 <_ZNSt3mapINSt7__cxx1112basic_stringIcSt11char_traitsIcESaIcEEES5_St4lessIS5_ESaISt4pairIKS5_S5_EEEixEOS5_+0x114>
  405198:	48 8b 45 a0          	mov    -0x60(%rbp),%rax
  40519c:	48 89 c7             	mov    %rax,%rdi
  40519f:	e8 fb fb ff ff       	callq  404d9f <_ZSt4moveIRNSt7__cxx1112basic_stringIcSt11char_traitsIcESaIcEEEEONSt16remove_referenceIT_E4typeEOS8_>
  4051a4:	48 89 c2             	mov    %rax,%rdx
  4051a7:	48 8d 45 c8          	lea    -0x38(%rbp),%rax
  4051ab:	48 89 d6             	mov    %rdx,%rsi
  4051ae:	48 89 c7             	mov    %rax,%rdi
  4051b1:	e8 f2 fe ff ff       	callq  4050a8 <_ZSt16forward_as_tupleIJNSt7__cxx1112basic_stringIcSt11char_traitsIcESaIcEEEEESt5tupleIJDpOT_EES9_>
  4051b6:	48 8d 55 b8          	lea    -0x48(%rbp),%rdx
  4051ba:	48 8d 45 d0          	lea    -0x30(%rbp),%rax
  4051be:	48 89 d6             	mov    %rdx,%rsi
  4051c1:	48 89 c7             	mov    %rax,%rdi
  4051c4:	e8 85 05 00 00       	callq  40574e <_ZNSt23_Rb_tree_const_iteratorISt4pairIKNSt7__cxx1112basic_stringIcSt11char_traitsIcESaIcEEES6_EEC1ERKSt17_Rb_tree_iteratorIS8_E>
  4051c9:	48 8b 45 a8          	mov    -0x58(%rbp),%rax
  4051cd:	48 8d 4d b7          	lea    -0x49(%rbp),%rcx
  4051d1:	48 8d 55 c8          	lea    -0x38(%rbp),%rdx
  4051d5:	48 8b 75 d0          	mov    -0x30(%rbp),%rsi
  4051d9:	49 89 c8             	mov    %rcx,%r8
  4051dc:	48 89 d1             	mov    %rdx,%rcx
  4051df:	ba 28 db 40 00       	mov    $0x40db28,%edx
  4051e4:	48 89 c7             	mov    %rax,%rdi
  4051e7:	e8 aa 05 00 00       	callq  405796 <_ZNSt8_Rb_treeINSt7__cxx1112basic_stringIcSt11char_traitsIcESaIcEEESt4pairIKS5_S5_ESt10_Select1stIS8_ESt4lessIS5_ESaIS8_EE22_M_emplace_hint_uniqueIJRKSt21piecewise_construct_tSt5tupleIJOS5_EESJ_IJEEEEESt17_Rb_tree_iteratorIS8_ESt23_Rb_tree_const_iteratorIS8_EDpOT_>
  4051ec:	48 89 45 b8          	mov    %rax,-0x48(%rbp)
  4051f0:	48 8d 45 b8          	lea    -0x48(%rbp),%rax
  4051f4:	48 89 c7             	mov    %rax,%rdi
  4051f7:	e8 0c 05 00 00       	callq  405708 <_ZNKSt17_Rb_tree_iteratorISt4pairIKNSt7__cxx1112basic_stringIcSt11char_traitsIcESaIcEEES6_EEdeEv>
  4051fc:	48 83 c0 20          	add    $0x20,%rax
  405200:	48 8b 5d d8          	mov    -0x28(%rbp),%rbx
  405204:	64 48 33 1c 25 28 00 	xor    %fs:0x28,%rbx
  40520b:	00 00 
  40520d:	74 15                	je     405224 <_ZNSt3mapINSt7__cxx1112basic_stringIcSt11char_traitsIcESaIcEEES5_St4lessIS5_ESaISt4pairIKS5_S5_EEEixEOS5_+0x148>
  40520f:	eb 0e                	jmp    40521f <_ZNSt3mapINSt7__cxx1112basic_stringIcSt11char_traitsIcESaIcEEES5_St4lessIS5_ESaISt4pairIKS5_S5_EEEixEOS5_+0x143>
  405211:	84 db                	test   %bl,%bl
  405213:	45 84 e4             	test   %r12b,%r12b
  405216:	90                   	nop
  405217:	48 89 c7             	mov    %rax,%rdi
  40521a:	e8 d1 de ff ff       	callq  4030f0 <_Unwind_Resume@plt>
  40521f:	e8 1c dd ff ff       	callq  402f40 <__stack_chk_fail@plt>
  405224:	48 83 c4 48          	add    $0x48,%rsp
  405228:	5b                   	pop    %rbx
  405229:	41 5c                	pop    %r12
  40522b:	41 5d                	pop    %r13
  40522d:	5d                   	pop    %rbp
  40522e:	c3                   	retq   

000000000040522f <_ZSteqIcSt11char_traitsIcESaIcEEbRKNSt7__cxx1112basic_stringIT_T0_T1_EEPKS5_>:
  40522f:	55                   	push   %rbp
  405230:	48 89 e5             	mov    %rsp,%rbp
  405233:	48 83 ec 10          	sub    $0x10,%rsp
  405237:	48 89 7d f8          	mov    %rdi,-0x8(%rbp)
  40523b:	48 89 75 f0          	mov    %rsi,-0x10(%rbp)
  40523f:	48 8b 55 f0          	mov    -0x10(%rbp),%rdx
  405243:	48 8b 45 f8          	mov    -0x8(%rbp),%rax
  405247:	48 89 d6             	mov    %rdx,%rsi
  40524a:	48 89 c7             	mov    %rax,%rdi
  40524d:	e8 ce d9 ff ff       	callq  402c20 <_ZNKSt7__cxx1112basic_stringIcSt11char_traitsIcESaIcEE7compareEPKc@plt>
  405252:	85 c0                	test   %eax,%eax
  405254:	0f 94 c0             	sete   %al
  405257:	c9                   	leaveq 
  405258:	c3                   	retq   
  405259:	90                   	nop

000000000040525a <_ZNSaISt4pairIKNSt7__cxx1112basic_stringIcSt11char_traitsIcESaIcEEES5_EEC1Ev>:
  40525a:	55                   	push   %rbp
  40525b:	48 89 e5             	mov    %rsp,%rbp
  40525e:	48 83 ec 10          	sub    $0x10,%rsp
  405262:	48 89 7d f8          	mov    %rdi,-0x8(%rbp)
  405266:	48 8b 45 f8          	mov    -0x8(%rbp),%rax
  40526a:	48 89 c7             	mov    %rax,%rdi
  40526d:	e8 ba 06 00 00       	callq  40592c <_ZN9__gnu_cxx13new_allocatorISt4pairIKNSt7__cxx1112basic_stringIcSt11char_traitsIcESaIcEEES7_EEC1Ev>
  405272:	90                   	nop
  405273:	c9                   	leaveq 
  405274:	c3                   	retq   
  405275:	90                   	nop

0000000000405276 <_ZNSaISt4pairIKNSt7__cxx1112basic_stringIcSt11char_traitsIcESaIcEEES5_EED1Ev>:
  405276:	55                   	push   %rbp
  405277:	48 89 e5             	mov    %rsp,%rbp
  40527a:	48 83 ec 10          	sub    $0x10,%rsp
  40527e:	48 89 7d f8          	mov    %rdi,-0x8(%rbp)
  405282:	48 8b 45 f8          	mov    -0x8(%rbp),%rax
  405286:	48 89 c7             	mov    %rax,%rdi
  405289:	e8 aa 06 00 00       	callq  405938 <_ZN9__gnu_cxx13new_allocatorISt4pairIKNSt7__cxx1112basic_stringIcSt11char_traitsIcESaIcEEES7_EED1Ev>
  40528e:	90                   	nop
  40528f:	c9                   	leaveq 
  405290:	c3                   	retq   
  405291:	90                   	nop

0000000000405292 <_ZNKSt16initializer_listISt4pairIKNSt7__cxx1112basic_stringIcSt11char_traitsIcESaIcEEES6_EE5beginEv>:
  405292:	55                   	push   %rbp
  405293:	48 89 e5             	mov    %rsp,%rbp
  405296:	48 89 7d f8          	mov    %rdi,-0x8(%rbp)
  40529a:	48 8b 45 f8          	mov    -0x8(%rbp),%rax
  40529e:	48 8b 00             	mov    (%rax),%rax
  4052a1:	5d                   	pop    %rbp
  4052a2:	c3                   	retq   
  4052a3:	90                   	nop

00000000004052a4 <_ZNKSt16initializer_listISt4pairIKNSt7__cxx1112basic_stringIcSt11char_traitsIcESaIcEEES6_EE4sizeEv>:
  4052a4:	55                   	push   %rbp
  4052a5:	48 89 e5             	mov    %rsp,%rbp
  4052a8:	48 89 7d f8          	mov    %rdi,-0x8(%rbp)
  4052ac:	48 8b 45 f8          	mov    -0x8(%rbp),%rax
  4052b0:	48 8b 40 08          	mov    0x8(%rax),%rax
  4052b4:	5d                   	pop    %rbp
  4052b5:	c3                   	retq   

00000000004052b6 <_ZNKSt16initializer_listISt4pairIKNSt7__cxx1112basic_stringIcSt11char_traitsIcESaIcEEES6_EE3endEv>:
  4052b6:	55                   	push   %rbp
  4052b7:	48 89 e5             	mov    %rsp,%rbp
  4052ba:	53                   	push   %rbx
  4052bb:	48 83 ec 18          	sub    $0x18,%rsp
  4052bf:	48 89 7d e8          	mov    %rdi,-0x18(%rbp)
  4052c3:	48 8b 45 e8          	mov    -0x18(%rbp),%rax
  4052c7:	48 89 c7             	mov    %rax,%rdi
  4052ca:	e8 c3 ff ff ff       	callq  405292 <_ZNKSt16initializer_listISt4pairIKNSt7__cxx1112basic_stringIcSt11char_traitsIcESaIcEEES6_EE5beginEv>
  4052cf:	48 89 c3             	mov    %rax,%rbx
  4052d2:	48 8b 45 e8          	mov    -0x18(%rbp),%rax
  4052d6:	48 89 c7             	mov    %rax,%rdi
  4052d9:	e8 c6 ff ff ff       	callq  4052a4 <_ZNKSt16initializer_listISt4pairIKNSt7__cxx1112basic_stringIcSt11char_traitsIcESaIcEEES6_EE4sizeEv>
  4052de:	48 c1 e0 06          	shl    $0x6,%rax
  4052e2:	48 01 d8             	add    %rbx,%rax
  4052e5:	48 83 c4 18          	add    $0x18,%rsp
  4052e9:	5b                   	pop    %rbx
  4052ea:	5d                   	pop    %rbp
  4052eb:	c3                   	retq   

00000000004052ec <_ZNSt3mapINSt7__cxx1112basic_stringIcSt11char_traitsIcESaIcEEES5_St4lessIS5_ESaISt4pairIKS5_S5_EEEC1ESt16initializer_listISA_ERKS7_RKSB_>:
  4052ec:	55                   	push   %rbp
  4052ed:	48 89 e5             	mov    %rsp,%rbp
  4052f0:	53                   	push   %rbx
  4052f1:	48 83 ec 48          	sub    $0x48,%rsp
  4052f5:	48 89 7d d8          	mov    %rdi,-0x28(%rbp)
  4052f9:	48 89 f0             	mov    %rsi,%rax
  4052fc:	48 89 d6             	mov    %rdx,%rsi
  4052ff:	48 89 f2             	mov    %rsi,%rdx
  405302:	48 89 45 c0          	mov    %rax,-0x40(%rbp)
  405306:	48 89 55 c8          	mov    %rdx,-0x38(%rbp)
  40530a:	48 89 4d d0          	mov    %rcx,-0x30(%rbp)
  40530e:	4c 89 45 b8          	mov    %r8,-0x48(%rbp)
  405312:	64 48 8b 04 25 28 00 	mov    %fs:0x28,%rax
  405319:	00 00 
  40531b:	48 89 45 e8          	mov    %rax,-0x18(%rbp)
  40531f:	31 c0                	xor    %eax,%eax
  405321:	48 8b 55 b8          	mov    -0x48(%rbp),%rdx
  405325:	48 8d 45 e7          	lea    -0x19(%rbp),%rax
  405329:	48 89 d6             	mov    %rdx,%rsi
  40532c:	48 89 c7             	mov    %rax,%rdi
  40532f:	e8 10 06 00 00       	callq  405944 <_ZNSaISt4pairIKNSt7__cxx1112basic_stringIcSt11char_traitsIcESaIcEEES5_EEC1ERKS8_>
  405334:	48 8b 45 d8          	mov    -0x28(%rbp),%rax
  405338:	48 8d 55 e7          	lea    -0x19(%rbp),%rdx
  40533c:	48 8b 4d d0          	mov    -0x30(%rbp),%rcx
  405340:	48 89 ce             	mov    %rcx,%rsi
  405343:	48 89 c7             	mov    %rax,%rdi
  405346:	e8 1f 06 00 00       	callq  40596a <_ZNSt8_Rb_treeINSt7__cxx1112basic_stringIcSt11char_traitsIcESaIcEEESt4pairIKS5_S5_ESt10_Select1stIS8_ESt4lessIS5_ESaIS8_EEC1ERKSC_RKSD_>
  40534b:	48 8d 45 e7          	lea    -0x19(%rbp),%rax
  40534f:	48 89 c7             	mov    %rax,%rdi
  405352:	e8 1f ff ff ff       	callq  405276 <_ZNSaISt4pairIKNSt7__cxx1112basic_stringIcSt11char_traitsIcESaIcEEES5_EED1Ev>
  405357:	48 8d 45 c0          	lea    -0x40(%rbp),%rax
  40535b:	48 89 c7             	mov    %rax,%rdi
  40535e:	e8 53 ff ff ff       	callq  4052b6 <_ZNKSt16initializer_listISt4pairIKNSt7__cxx1112basic_stringIcSt11char_traitsIcESaIcEEES6_EE3endEv>
  405363:	48 89 c3             	mov    %rax,%rbx
  405366:	48 8d 45 c0          	lea    -0x40(%rbp),%rax
  40536a:	48 89 c7             	mov    %rax,%rdi
  40536d:	e8 20 ff ff ff       	callq  405292 <_ZNKSt16initializer_listISt4pairIKNSt7__cxx1112basic_stringIcSt11char_traitsIcESaIcEEES6_EE5beginEv>
  405372:	48 89 c1             	mov    %rax,%rcx
  405375:	48 8b 45 d8          	mov    -0x28(%rbp),%rax
  405379:	48 89 da             	mov    %rbx,%rdx
  40537c:	48 89 ce             	mov    %rcx,%rsi
  40537f:	48 89 c7             	mov    %rax,%rdi
  405382:	e8 75 06 00 00       	callq  4059fc <_ZNSt8_Rb_treeINSt7__cxx1112basic_stringIcSt11char_traitsIcESaIcEEESt4pairIKS5_S5_ESt10_Select1stIS8_ESt4lessIS5_ESaIS8_EE16_M_insert_uniqueIPKS8_EEvT_SI_>
  405387:	eb 34                	jmp    4053bd <_ZNSt3mapINSt7__cxx1112basic_stringIcSt11char_traitsIcESaIcEEES5_St4lessIS5_ESaISt4pairIKS5_S5_EEEC1ESt16initializer_listISA_ERKS7_RKSB_+0xd1>
  405389:	48 89 c3             	mov    %rax,%rbx
  40538c:	48 8d 45 e7          	lea    -0x19(%rbp),%rax
  405390:	48 89 c7             	mov    %rax,%rdi
  405393:	e8 de fe ff ff       	callq  405276 <_ZNSaISt4pairIKNSt7__cxx1112basic_stringIcSt11char_traitsIcESaIcEEES5_EED1Ev>
  405398:	48 89 d8             	mov    %rbx,%rax
  40539b:	48 89 c7             	mov    %rax,%rdi
  40539e:	e8 4d dd ff ff       	callq  4030f0 <_Unwind_Resume@plt>
  4053a3:	48 89 c3             	mov    %rax,%rbx
  4053a6:	48 8b 45 d8          	mov    -0x28(%rbp),%rax
  4053aa:	48 89 c7             	mov    %rax,%rdi
  4053ad:	e8 fe fa ff ff       	callq  404eb0 <_ZNSt8_Rb_treeINSt7__cxx1112basic_stringIcSt11char_traitsIcESaIcEEESt4pairIKS5_S5_ESt10_Select1stIS8_ESt4lessIS5_ESaIS8_EED1Ev>
  4053b2:	48 89 d8             	mov    %rbx,%rax
  4053b5:	48 89 c7             	mov    %rax,%rdi
  4053b8:	e8 33 dd ff ff       	callq  4030f0 <_Unwind_Resume@plt>
  4053bd:	48 8b 45 e8          	mov    -0x18(%rbp),%rax
  4053c1:	64 48 33 04 25 28 00 	xor    %fs:0x28,%rax
  4053c8:	00 00 
  4053ca:	74 05                	je     4053d1 <_ZNSt3mapINSt7__cxx1112basic_stringIcSt11char_traitsIcESaIcEEES5_St4lessIS5_ESaISt4pairIKS5_S5_EEEC1ESt16initializer_listISA_ERKS7_RKSB_+0xe5>
  4053cc:	e8 6f db ff ff       	callq  402f40 <__stack_chk_fail@plt>
  4053d1:	48 83 c4 48          	add    $0x48,%rsp
  4053d5:	5b                   	pop    %rbx
  4053d6:	5d                   	pop    %rbp
  4053d7:	c3                   	retq   

00000000004053d8 <_ZNSt3mapINSt7__cxx1112basic_stringIcSt11char_traitsIcESaIcEEES5_St4lessIS5_ESaISt4pairIKS5_S5_EEE4findERS9_>:
  4053d8:	55                   	push   %rbp
  4053d9:	48 89 e5             	mov    %rsp,%rbp
  4053dc:	48 83 ec 10          	sub    $0x10,%rsp
  4053e0:	48 89 7d f8          	mov    %rdi,-0x8(%rbp)
  4053e4:	48 89 75 f0          	mov    %rsi,-0x10(%rbp)
  4053e8:	48 8b 45 f8          	mov    -0x8(%rbp),%rax
  4053ec:	48 8b 55 f0          	mov    -0x10(%rbp),%rdx
  4053f0:	48 89 d6             	mov    %rdx,%rsi
  4053f3:	48 89 c7             	mov    %rax,%rdi
  4053f6:	e8 9b 06 00 00       	callq  405a96 <_ZNSt8_Rb_treeINSt7__cxx1112basic_stringIcSt11char_traitsIcESaIcEEESt4pairIKS5_S5_ESt10_Select1stIS8_ESt4lessIS5_ESaIS8_EE4findERS7_>
  4053fb:	c9                   	leaveq 
  4053fc:	c3                   	retq   
  4053fd:	90                   	nop

00000000004053fe <_ZNSt3mapINSt7__cxx1112basic_stringIcSt11char_traitsIcESaIcEEES5_St4lessIS5_ESaISt4pairIKS5_S5_EEE3endEv>:
  4053fe:	55                   	push   %rbp
  4053ff:	48 89 e5             	mov    %rsp,%rbp
  405402:	48 83 ec 10          	sub    $0x10,%rsp
  405406:	48 89 7d f8          	mov    %rdi,-0x8(%rbp)
  40540a:	48 8b 45 f8          	mov    -0x8(%rbp),%rax
  40540e:	48 89 c7             	mov    %rax,%rdi
  405411:	e8 66 07 00 00       	callq  405b7c <_ZNSt8_Rb_treeINSt7__cxx1112basic_stringIcSt11char_traitsIcESaIcEEESt4pairIKS5_S5_ESt10_Select1stIS8_ESt4lessIS5_ESaIS8_EE3endEv>
  405416:	c9                   	leaveq 
  405417:	c3                   	retq   

0000000000405418 <_ZNKSt17_Rb_tree_iteratorISt4pairIKNSt7__cxx1112basic_stringIcSt11char_traitsIcESaIcEEES6_EEeqERKS9_>:
  405418:	55                   	push   %rbp
  405419:	48 89 e5             	mov    %rsp,%rbp
  40541c:	48 89 7d f8          	mov    %rdi,-0x8(%rbp)
  405420:	48 89 75 f0          	mov    %rsi,-0x10(%rbp)
  405424:	48 8b 45 f8          	mov    -0x8(%rbp),%rax
  405428:	48 8b 10             	mov    (%rax),%rdx
  40542b:	48 8b 45 f0          	mov    -0x10(%rbp),%rax
  40542f:	48 8b 00             	mov    (%rax),%rax
  405432:	48 39 c2             	cmp    %rax,%rdx
  405435:	0f 94 c0             	sete   %al
  405438:	5d                   	pop    %rbp
  405439:	c3                   	retq   

000000000040543a <_ZNKSt17_Rb_tree_iteratorISt4pairIKNSt7__cxx1112basic_stringIcSt11char_traitsIcESaIcEEES6_EEneERKS9_>:
  40543a:	55                   	push   %rbp
  40543b:	48 89 e5             	mov    %rsp,%rbp
  40543e:	48 89 7d f8          	mov    %rdi,-0x8(%rbp)
  405442:	48 89 75 f0          	mov    %rsi,-0x10(%rbp)
  405446:	48 8b 45 f8          	mov    -0x8(%rbp),%rax
  40544a:	48 8b 10             	mov    (%rax),%rdx
  40544d:	48 8b 45 f0          	mov    -0x10(%rbp),%rax
  405451:	48 8b 00             	mov    (%rax),%rax
  405454:	48 39 c2             	cmp    %rax,%rdx
  405457:	0f 95 c0             	setne  %al
  40545a:	5d                   	pop    %rbp
  40545b:	c3                   	retq   

000000000040545c <_ZNKSt17_Rb_tree_iteratorISt4pairIKNSt7__cxx1112basic_stringIcSt11char_traitsIcESaIcEEES6_EEptEv>:
  40545c:	55                   	push   %rbp
  40545d:	48 89 e5             	mov    %rsp,%rbp
  405460:	48 83 ec 10          	sub    $0x10,%rsp
  405464:	48 89 7d f8          	mov    %rdi,-0x8(%rbp)
  405468:	48 8b 45 f8          	mov    -0x8(%rbp),%rax
  40546c:	48 8b 00             	mov    (%rax),%rax
  40546f:	48 89 c7             	mov    %rax,%rdi
  405472:	e8 51 07 00 00       	callq  405bc8 <_ZNSt13_Rb_tree_nodeISt4pairIKNSt7__cxx1112basic_stringIcSt11char_traitsIcESaIcEEES6_EE9_M_valptrEv>
  405477:	c9                   	leaveq 
  405478:	c3                   	retq   

0000000000405479 <_ZSt7forwardISt4pairIPKcNSt7__cxx1112basic_stringIcSt11char_traitsIcESaIcEEEEEOT_RNSt16remove_referenceISA_E4typeE>:
  405479:	55                   	push   %rbp
  40547a:	48 89 e5             	mov    %rsp,%rbp
  40547d:	48 89 7d f8          	mov    %rdi,-0x8(%rbp)
  405481:	48 8b 45 f8          	mov    -0x8(%rbp),%rax
  405485:	5d                   	pop    %rbp
  405486:	c3                   	retq   
  405487:	90                   	nop

0000000000405488 <_ZNSt3mapINSt7__cxx1112basic_stringIcSt11char_traitsIcESaIcEEES5_St4lessIS5_ESaISt4pairIKS5_S5_EEE6insertIS8_IPKcS5_EvEES8_ISt17_Rb_tree_iteratorISA_EbEOT_>:
  405488:	55                   	push   %rbp
  405489:	48 89 e5             	mov    %rsp,%rbp
  40548c:	48 83 ec 10          	sub    $0x10,%rsp
  405490:	48 89 7d f8          	mov    %rdi,-0x8(%rbp)
  405494:	48 89 75 f0          	mov    %rsi,-0x10(%rbp)
  405498:	48 8b 45 f0          	mov    -0x10(%rbp),%rax
  40549c:	48 89 c7             	mov    %rax,%rdi
  40549f:	e8 d5 ff ff ff       	callq  405479 <_ZSt7forwardISt4pairIPKcNSt7__cxx1112basic_stringIcSt11char_traitsIcESaIcEEEEEOT_RNSt16remove_referenceISA_E4typeE>
  4054a4:	48 89 c2             	mov    %rax,%rdx
  4054a7:	48 8b 45 f8          	mov    -0x8(%rbp),%rax
  4054ab:	48 89 d6             	mov    %rdx,%rsi
  4054ae:	48 89 c7             	mov    %rax,%rdi
  4054b1:	e8 92 07 00 00       	callq  405c48 <_ZNSt8_Rb_treeINSt7__cxx1112basic_stringIcSt11char_traitsIcESaIcEEESt4pairIKS5_S5_ESt10_Select1stIS8_ESt4lessIS5_ESaIS8_EE16_M_insert_uniqueIS6_IPKcS5_EEES6_ISt17_Rb_tree_iteratorIS8_EbEOT_>
  4054b6:	c9                   	leaveq 
  4054b7:	c3                   	retq   

00000000004054b8 <_ZNSt3mapINSt7__cxx1112basic_stringIcSt11char_traitsIcESaIcEEES5_St4lessIS5_ESaISt4pairIKS5_S5_EEEC1ERKSC_>:
  4054b8:	55                   	push   %rbp
  4054b9:	48 89 e5             	mov    %rsp,%rbp
  4054bc:	48 83 ec 10          	sub    $0x10,%rsp
  4054c0:	48 89 7d f8          	mov    %rdi,-0x8(%rbp)
  4054c4:	48 89 75 f0          	mov    %rsi,-0x10(%rbp)
  4054c8:	48 8b 55 f0          	mov    -0x10(%rbp),%rdx
  4054cc:	48 8b 45 f8          	mov    -0x8(%rbp),%rax
  4054d0:	48 89 d6             	mov    %rdx,%rsi
  4054d3:	48 89 c7             	mov    %rax,%rdi
  4054d6:	e8 01 09 00 00       	callq  405ddc <_ZNSt8_Rb_treeINSt7__cxx1112basic_stringIcSt11char_traitsIcESaIcEEESt4pairIKS5_S5_ESt10_Select1stIS8_ESt4lessIS5_ESaIS8_EEC1ERKSE_>
  4054db:	90                   	nop
  4054dc:	c9                   	leaveq 
  4054dd:	c3                   	retq   

00000000004054de <_ZNSt7__cxx1112basic_stringIcSt11char_traitsIcESaIcEEC1IPcvEET_S7_RKS3_>:
  4054de:	55                   	push   %rbp
  4054df:	48 89 e5             	mov    %rsp,%rbp
  4054e2:	53                   	push   %rbx
  4054e3:	48 83 ec 28          	sub    $0x28,%rsp
  4054e7:	48 89 7d e8          	mov    %rdi,-0x18(%rbp)
  4054eb:	48 89 75 e0          	mov    %rsi,-0x20(%rbp)
  4054ef:	48 89 55 d8          	mov    %rdx,-0x28(%rbp)
  4054f3:	48 89 4d d0          	mov    %rcx,-0x30(%rbp)
  4054f7:	48 8b 45 e8          	mov    -0x18(%rbp),%rax
  4054fb:	48 89 c7             	mov    %rax,%rdi
  4054fe:	e8 ed d8 ff ff       	callq  402df0 <_ZNSt7__cxx1112basic_stringIcSt11char_traitsIcESaIcEE13_M_local_dataEv@plt>
  405503:	48 89 c1             	mov    %rax,%rcx
  405506:	48 8b 45 e8          	mov    -0x18(%rbp),%rax
  40550a:	48 8b 55 d0          	mov    -0x30(%rbp),%rdx
  40550e:	48 89 ce             	mov    %rcx,%rsi
  405511:	48 89 c7             	mov    %rax,%rdi
  405514:	e8 f7 d9 ff ff       	callq  402f10 <_ZNSt7__cxx1112basic_stringIcSt11char_traitsIcESaIcEE12_Alloc_hiderC1EPcRKS3_@plt>
  405519:	48 8b 55 d8          	mov    -0x28(%rbp),%rdx
  40551d:	48 8b 4d e0          	mov    -0x20(%rbp),%rcx
  405521:	48 8b 45 e8          	mov    -0x18(%rbp),%rax
  405525:	48 89 ce             	mov    %rcx,%rsi
  405528:	48 89 c7             	mov    %rax,%rdi
  40552b:	e8 a0 03 00 00       	callq  4058d0 <_ZNSt7__cxx1112basic_stringIcSt11char_traitsIcESaIcEE12_M_constructIPcEEvT_S7_>
  405530:	eb 1a                	jmp    40554c <_ZNSt7__cxx1112basic_stringIcSt11char_traitsIcESaIcEEC1IPcvEET_S7_RKS3_+0x6e>
  405532:	48 89 c3             	mov    %rax,%rbx
  405535:	48 8b 45 e8          	mov    -0x18(%rbp),%rax
  405539:	48 89 c7             	mov    %rax,%rdi
  40553c:	e8 43 f8 ff ff       	callq  404d84 <_ZNSt7__cxx1112basic_stringIcSt11char_traitsIcESaIcEE12_Alloc_hiderD1Ev>
  405541:	48 89 d8             	mov    %rbx,%rax
  405544:	48 89 c7             	mov    %rax,%rdi
  405547:	e8 a4 db ff ff       	callq  4030f0 <_Unwind_Resume@plt>
  40554c:	48 83 c4 28          	add    $0x28,%rsp
  405550:	5b                   	pop    %rbx
  405551:	5d                   	pop    %rbp
  405552:	c3                   	retq   
  405553:	90                   	nop

0000000000405554 <_ZNSt8_Rb_treeINSt7__cxx1112basic_stringIcSt11char_traitsIcESaIcEEESt4pairIKS5_S5_ESt10_Select1stIS8_ESt4lessIS5_ESaIS8_EEC1Ev>:
  405554:	55                   	push   %rbp
  405555:	48 89 e5             	mov    %rsp,%rbp
  405558:	48 83 ec 10          	sub    $0x10,%rsp
  40555c:	48 89 7d f8          	mov    %rdi,-0x8(%rbp)
  405560:	48 8b 45 f8          	mov    -0x8(%rbp),%rax
  405564:	48 89 c7             	mov    %rax,%rdi
  405567:	e8 e6 09 00 00       	callq  405f52 <_ZNSt8_Rb_treeINSt7__cxx1112basic_stringIcSt11char_traitsIcESaIcEEESt4pairIKS5_S5_ESt10_Select1stIS8_ESt4lessIS5_ESaIS8_EE13_Rb_tree_implISC_Lb1EEC1Ev>
  40556c:	90                   	nop
  40556d:	c9                   	leaveq 
  40556e:	c3                   	retq   
  40556f:	90                   	nop

0000000000405570 <_ZNSaISt13_Rb_tree_nodeISt4pairIKNSt7__cxx1112basic_stringIcSt11char_traitsIcESaIcEEES6_EEED1Ev>:
  405570:	55                   	push   %rbp
  405571:	48 89 e5             	mov    %rsp,%rbp
  405574:	48 83 ec 10          	sub    $0x10,%rsp
  405578:	48 89 7d f8          	mov    %rdi,-0x8(%rbp)
  40557c:	48 8b 45 f8          	mov    -0x8(%rbp),%rax
  405580:	48 89 c7             	mov    %rax,%rdi
  405583:	e8 2c 0a 00 00       	callq  405fb4 <_ZN9__gnu_cxx13new_allocatorISt13_Rb_tree_nodeISt4pairIKNSt7__cxx1112basic_stringIcSt11char_traitsIcESaIcEEES8_EEED1Ev>
  405588:	90                   	nop
  405589:	c9                   	leaveq 
  40558a:	c3                   	retq   
  40558b:	90                   	nop

000000000040558c <_ZNSt8_Rb_treeINSt7__cxx1112basic_stringIcSt11char_traitsIcESaIcEEESt4pairIKS5_S5_ESt10_Select1stIS8_ESt4lessIS5_ESaIS8_EE8_M_eraseEPSt13_Rb_tree_nodeIS8_E>:
  40558c:	55                   	push   %rbp
  40558d:	48 89 e5             	mov    %rsp,%rbp
  405590:	48 83 ec 20          	sub    $0x20,%rsp
  405594:	48 89 7d e8          	mov    %rdi,-0x18(%rbp)
  405598:	48 89 75 e0          	mov    %rsi,-0x20(%rbp)
  40559c:	48 83 7d e0 00       	cmpq   $0x0,-0x20(%rbp)
  4055a1:	74 4b                	je     4055ee <_ZNSt8_Rb_treeINSt7__cxx1112basic_stringIcSt11char_traitsIcESaIcEEESt4pairIKS5_S5_ESt10_Select1stIS8_ESt4lessIS5_ESaIS8_EE8_M_eraseEPSt13_Rb_tree_nodeIS8_E+0x62>
  4055a3:	48 8b 45 e0          	mov    -0x20(%rbp),%rax
  4055a7:	48 89 c7             	mov    %rax,%rdi
  4055aa:	e8 10 0a 00 00       	callq  405fbf <_ZNSt8_Rb_treeINSt7__cxx1112basic_stringIcSt11char_traitsIcESaIcEEESt4pairIKS5_S5_ESt10_Select1stIS8_ESt4lessIS5_ESaIS8_EE8_S_rightEPSt18_Rb_tree_node_base>
  4055af:	48 89 c2             	mov    %rax,%rdx
  4055b2:	48 8b 45 e8          	mov    -0x18(%rbp),%rax
  4055b6:	48 89 d6             	mov    %rdx,%rsi
  4055b9:	48 89 c7             	mov    %rax,%rdi
  4055bc:	e8 cb ff ff ff       	callq  40558c <_ZNSt8_Rb_treeINSt7__cxx1112basic_stringIcSt11char_traitsIcESaIcEEESt4pairIKS5_S5_ESt10_Select1stIS8_ESt4lessIS5_ESaIS8_EE8_M_eraseEPSt13_Rb_tree_nodeIS8_E>
  4055c1:	48 8b 45 e0          	mov    -0x20(%rbp),%rax
  4055c5:	48 89 c7             	mov    %rax,%rdi
  4055c8:	e8 04 0a 00 00       	callq  405fd1 <_ZNSt8_Rb_treeINSt7__cxx1112basic_stringIcSt11char_traitsIcESaIcEEESt4pairIKS5_S5_ESt10_Select1stIS8_ESt4lessIS5_ESaIS8_EE7_S_leftEPSt18_Rb_tree_node_base>
  4055cd:	48 89 45 f8          	mov    %rax,-0x8(%rbp)
  4055d1:	48 8b 55 e0          	mov    -0x20(%rbp),%rdx
  4055d5:	48 8b 45 e8          	mov    -0x18(%rbp),%rax
  4055d9:	48 89 d6             	mov    %rdx,%rsi
  4055dc:	48 89 c7             	mov    %rax,%rdi
  4055df:	e8 00 0a 00 00       	callq  405fe4 <_ZNSt8_Rb_treeINSt7__cxx1112basic_stringIcSt11char_traitsIcESaIcEEESt4pairIKS5_S5_ESt10_Select1stIS8_ESt4lessIS5_ESaIS8_EE12_M_drop_nodeEPSt13_Rb_tree_nodeIS8_E>
  4055e4:	48 8b 45 f8          	mov    -0x8(%rbp),%rax
  4055e8:	48 89 45 e0          	mov    %rax,-0x20(%rbp)
  4055ec:	eb ae                	jmp    40559c <_ZNSt8_Rb_treeINSt7__cxx1112basic_stringIcSt11char_traitsIcESaIcEEESt4pairIKS5_S5_ESt10_Select1stIS8_ESt4lessIS5_ESaIS8_EE8_M_eraseEPSt13_Rb_tree_nodeIS8_E+0x10>
  4055ee:	90                   	nop
  4055ef:	c9                   	leaveq 
  4055f0:	c3                   	retq   
  4055f1:	90                   	nop

00000000004055f2 <_ZNSt8_Rb_treeINSt7__cxx1112basic_stringIcSt11char_traitsIcESaIcEEESt4pairIKS5_S5_ESt10_Select1stIS8_ESt4lessIS5_ESaIS8_EE8_M_beginEv>:
  4055f2:	55                   	push   %rbp
  4055f3:	48 89 e5             	mov    %rsp,%rbp
  4055f6:	48 89 7d f8          	mov    %rdi,-0x8(%rbp)
  4055fa:	48 8b 45 f8          	mov    -0x8(%rbp),%rax
  4055fe:	48 8b 40 10          	mov    0x10(%rax),%rax
  405602:	5d                   	pop    %rbp
  405603:	c3                   	retq   

0000000000405604 <_ZNSt12_Vector_baseIhSaIhEE12_Vector_implD1Ev>:
  405604:	55                   	push   %rbp
  405605:	48 89 e5             	mov    %rsp,%rbp
  405608:	48 83 ec 10          	sub    $0x10,%rsp
  40560c:	48 89 7d f8          	mov    %rdi,-0x8(%rbp)
  405610:	48 8b 45 f8          	mov    -0x8(%rbp),%rax
  405614:	48 89 c7             	mov    %rax,%rdi
  405617:	e8 40 0a 00 00       	callq  40605c <_ZNSaIhED1Ev>
  40561c:	90                   	nop
  40561d:	c9                   	leaveq 
  40561e:	c3                   	retq   
  40561f:	90                   	nop

0000000000405620 <_ZNSt12_Vector_baseIhSaIhEEC1Ev>:
  405620:	55                   	push   %rbp
  405621:	48 89 e5             	mov    %rsp,%rbp
  405624:	48 83 ec 10          	sub    $0x10,%rsp
  405628:	48 89 7d f8          	mov    %rdi,-0x8(%rbp)
  40562c:	48 8b 45 f8          	mov    -0x8(%rbp),%rax
  405630:	48 89 c7             	mov    %rax,%rdi
  405633:	e8 e6 09 00 00       	callq  40601e <_ZNSt12_Vector_baseIhSaIhEE12_Vector_implC1Ev>
  405638:	90                   	nop
  405639:	c9                   	leaveq 
  40563a:	c3                   	retq   
  40563b:	90                   	nop

000000000040563c <_ZNSt12_Vector_baseIhSaIhEED1Ev>:
  40563c:	55                   	push   %rbp
  40563d:	48 89 e5             	mov    %rsp,%rbp
  405640:	48 83 ec 10          	sub    $0x10,%rsp
  405644:	48 89 7d f8          	mov    %rdi,-0x8(%rbp)
  405648:	48 8b 45 f8          	mov    -0x8(%rbp),%rax
  40564c:	48 8b 40 10          	mov    0x10(%rax),%rax
  405650:	48 89 c2             	mov    %rax,%rdx
  405653:	48 8b 45 f8          	mov    -0x8(%rbp),%rax
  405657:	48 8b 00             	mov    (%rax),%rax
  40565a:	48 29 c2             	sub    %rax,%rdx
  40565d:	48 89 d0             	mov    %rdx,%rax
  405660:	48 89 c2             	mov    %rax,%rdx
  405663:	48 8b 45 f8          	mov    -0x8(%rbp),%rax
  405667:	48 8b 08             	mov    (%rax),%rcx
  40566a:	48 8b 45 f8          	mov    -0x8(%rbp),%rax
  40566e:	48 89 ce             	mov    %rcx,%rsi
  405671:	48 89 c7             	mov    %rax,%rdi
  405674:	e8 ff 09 00 00       	callq  406078 <_ZNSt12_Vector_baseIhSaIhEE13_M_deallocateEPhm>
  405679:	48 8b 45 f8          	mov    -0x8(%rbp),%rax
  40567d:	48 89 c7             	mov    %rax,%rdi
  405680:	e8 7f ff ff ff       	callq  405604 <_ZNSt12_Vector_baseIhSaIhEE12_Vector_implD1Ev>
  405685:	90                   	nop
  405686:	c9                   	leaveq 
  405687:	c3                   	retq   

0000000000405688 <_ZNSt12_Vector_baseIhSaIhEE19_M_get_Tp_allocatorEv>:
  405688:	55                   	push   %rbp
  405689:	48 89 e5             	mov    %rsp,%rbp
  40568c:	48 89 7d f8          	mov    %rdi,-0x8(%rbp)
  405690:	48 8b 45 f8          	mov    -0x8(%rbp),%rax
  405694:	5d                   	pop    %rbp
  405695:	c3                   	retq   

0000000000405696 <_ZSt8_DestroyIPhhEvT_S1_RSaIT0_E>:
  405696:	55                   	push   %rbp
  405697:	48 89 e5             	mov    %rsp,%rbp
  40569a:	48 83 ec 20          	sub    $0x20,%rsp
  40569e:	48 89 7d f8          	mov    %rdi,-0x8(%rbp)
  4056a2:	48 89 75 f0          	mov    %rsi,-0x10(%rbp)
  4056a6:	48 89 55 e8          	mov    %rdx,-0x18(%rbp)
  4056aa:	48 8b 55 f0          	mov    -0x10(%rbp),%rdx
  4056ae:	48 8b 45 f8          	mov    -0x8(%rbp),%rax
  4056b2:	48 89 d6             	mov    %rdx,%rsi
  4056b5:	48 89 c7             	mov    %rax,%rdi
  4056b8:	e8 f0 09 00 00       	callq  4060ad <_ZSt8_DestroyIPhEvT_S1_>
  4056bd:	90                   	nop
  4056be:	c9                   	leaveq 
  4056bf:	c3                   	retq   

00000000004056c0 <_ZNSt3mapINSt7__cxx1112basic_stringIcSt11char_traitsIcESaIcEEES5_St4lessIS5_ESaISt4pairIKS5_S5_EEE11lower_boundERS9_>:
  4056c0:	55                   	push   %rbp
  4056c1:	48 89 e5             	mov    %rsp,%rbp
  4056c4:	48 83 ec 10          	sub    $0x10,%rsp
  4056c8:	48 89 7d f8          	mov    %rdi,-0x8(%rbp)
  4056cc:	48 89 75 f0          	mov    %rsi,-0x10(%rbp)
  4056d0:	48 8b 45 f8          	mov    -0x8(%rbp),%rax
  4056d4:	48 8b 55 f0          	mov    -0x10(%rbp),%rdx
  4056d8:	48 89 d6             	mov    %rdx,%rsi
  4056db:	48 89 c7             	mov    %rax,%rdi
  4056de:	e8 f1 09 00 00       	callq  4060d4 <_ZNSt8_Rb_treeINSt7__cxx1112basic_stringIcSt11char_traitsIcESaIcEEESt4pairIKS5_S5_ESt10_Select1stIS8_ESt4lessIS5_ESaIS8_EE11lower_boundERS7_>
  4056e3:	c9                   	leaveq 
  4056e4:	c3                   	retq   
  4056e5:	90                   	nop

00000000004056e6 <_ZNKSt3mapINSt7__cxx1112basic_stringIcSt11char_traitsIcESaIcEEES5_St4lessIS5_ESaISt4pairIKS5_S5_EEE8key_compEv>:
  4056e6:	55                   	push   %rbp
  4056e7:	48 89 e5             	mov    %rsp,%rbp
  4056ea:	53                   	push   %rbx
  4056eb:	48 83 ec 18          	sub    $0x18,%rsp
  4056ef:	48 89 7d e8          	mov    %rdi,-0x18(%rbp)
  4056f3:	48 8b 45 e8          	mov    -0x18(%rbp),%rax
  4056f7:	48 89 c7             	mov    %rax,%rdi
  4056fa:	e8 21 0a 00 00       	callq  406120 <_ZNKSt8_Rb_treeINSt7__cxx1112basic_stringIcSt11char_traitsIcESaIcEEESt4pairIKS5_S5_ESt10_Select1stIS8_ESt4lessIS5_ESaIS8_EE8key_compEv>
  4056ff:	89 d8                	mov    %ebx,%eax
  405701:	48 83 c4 18          	add    $0x18,%rsp
  405705:	5b                   	pop    %rbx
  405706:	5d                   	pop    %rbp
  405707:	c3                   	retq   

0000000000405708 <_ZNKSt17_Rb_tree_iteratorISt4pairIKNSt7__cxx1112basic_stringIcSt11char_traitsIcESaIcEEES6_EEdeEv>:
  405708:	55                   	push   %rbp
  405709:	48 89 e5             	mov    %rsp,%rbp
  40570c:	48 83 ec 10          	sub    $0x10,%rsp
  405710:	48 89 7d f8          	mov    %rdi,-0x8(%rbp)
  405714:	48 8b 45 f8          	mov    -0x8(%rbp),%rax
  405718:	48 8b 00             	mov    (%rax),%rax
  40571b:	48 89 c7             	mov    %rax,%rdi
  40571e:	e8 a5 04 00 00       	callq  405bc8 <_ZNSt13_Rb_tree_nodeISt4pairIKNSt7__cxx1112basic_stringIcSt11char_traitsIcESaIcEEES6_EE9_M_valptrEv>
  405723:	c9                   	leaveq 
  405724:	c3                   	retq   

0000000000405725 <_ZStltIcSt11char_traitsIcESaIcEEbRKNSt7__cxx1112basic_stringIT_T0_T1_EESA_>:
  405725:	55                   	push   %rbp
  405726:	48 89 e5             	mov    %rsp,%rbp
  405729:	48 83 ec 10          	sub    $0x10,%rsp
  40572d:	48 89 7d f8          	mov    %rdi,-0x8(%rbp)
  405731:	48 89 75 f0          	mov    %rsi,-0x10(%rbp)
  405735:	48 8b 55 f0          	mov    -0x10(%rbp),%rdx
  405739:	48 8b 45 f8          	mov    -0x8(%rbp),%rax
  40573d:	48 89 d6             	mov    %rdx,%rsi
  405740:	48 89 c7             	mov    %rax,%rdi
  405743:	e8 18 d4 ff ff       	callq  402b60 <_ZNKSt7__cxx1112basic_stringIcSt11char_traitsIcESaIcEE7compareERKS4_@plt>
  405748:	c1 e8 1f             	shr    $0x1f,%eax
  40574b:	c9                   	leaveq 
  40574c:	c3                   	retq   
  40574d:	90                   	nop

000000000040574e <_ZNSt23_Rb_tree_const_iteratorISt4pairIKNSt7__cxx1112basic_stringIcSt11char_traitsIcESaIcEEES6_EEC1ERKSt17_Rb_tree_iteratorIS8_E>:
  40574e:	55                   	push   %rbp
  40574f:	48 89 e5             	mov    %rsp,%rbp
  405752:	48 89 7d f8          	mov    %rdi,-0x8(%rbp)
  405756:	48 89 75 f0          	mov    %rsi,-0x10(%rbp)
  40575a:	48 8b 45 f0          	mov    -0x10(%rbp),%rax
  40575e:	48 8b 10             	mov    (%rax),%rdx
  405761:	48 8b 45 f8          	mov    -0x8(%rbp),%rax
  405765:	48 89 10             	mov    %rdx,(%rax)
  405768:	90                   	nop
  405769:	5d                   	pop    %rbp
  40576a:	c3                   	retq   

000000000040576b <_ZSt7forwardIRKSt21piecewise_construct_tEOT_RNSt16remove_referenceIS3_E4typeE>:
  40576b:	55                   	push   %rbp
  40576c:	48 89 e5             	mov    %rsp,%rbp
  40576f:	48 89 7d f8          	mov    %rdi,-0x8(%rbp)
  405773:	48 8b 45 f8          	mov    -0x8(%rbp),%rax
  405777:	5d                   	pop    %rbp
  405778:	c3                   	retq   

0000000000405779 <_ZSt7forwardISt5tupleIJONSt7__cxx1112basic_stringIcSt11char_traitsIcESaIcEEEEEEOT_RNSt16remove_referenceIS9_E4typeE>:
  405779:	55                   	push   %rbp
  40577a:	48 89 e5             	mov    %rsp,%rbp
  40577d:	48 89 7d f8          	mov    %rdi,-0x8(%rbp)
  405781:	48 8b 45 f8          	mov    -0x8(%rbp),%rax
  405785:	5d                   	pop    %rbp
  405786:	c3                   	retq   

0000000000405787 <_ZSt7forwardISt5tupleIJEEEOT_RNSt16remove_referenceIS2_E4typeE>:
  405787:	55                   	push   %rbp
  405788:	48 89 e5             	mov    %rsp,%rbp
  40578b:	48 89 7d f8          	mov    %rdi,-0x8(%rbp)
  40578f:	48 8b 45 f8          	mov    -0x8(%rbp),%rax
  405793:	5d                   	pop    %rbp
  405794:	c3                   	retq   
  405795:	90                   	nop

0000000000405796 <_ZNSt8_Rb_treeINSt7__cxx1112basic_stringIcSt11char_traitsIcESaIcEEESt4pairIKS5_S5_ESt10_Select1stIS8_ESt4lessIS5_ESaIS8_EE22_M_emplace_hint_uniqueIJRKSt21piecewise_construct_tSt5tupleIJOS5_EESJ_IJEEEEESt17_Rb_tree_iteratorIS8_ESt23_Rb_tree_const_iteratorIS8_EDpOT_>:
  405796:	55                   	push   %rbp
  405797:	48 89 e5             	mov    %rsp,%rbp
  40579a:	41 54                	push   %r12
  40579c:	53                   	push   %rbx
  40579d:	48 83 ec 60          	sub    $0x60,%rsp
  4057a1:	48 89 7d b8          	mov    %rdi,-0x48(%rbp)
  4057a5:	48 89 75 b0          	mov    %rsi,-0x50(%rbp)
  4057a9:	48 89 55 a8          	mov    %rdx,-0x58(%rbp)
  4057ad:	48 89 4d a0          	mov    %rcx,-0x60(%rbp)
  4057b1:	4c 89 45 98          	mov    %r8,-0x68(%rbp)
  4057b5:	64 48 8b 04 25 28 00 	mov    %fs:0x28,%rax
  4057bc:	00 00 
  4057be:	48 89 45 e8          	mov    %rax,-0x18(%rbp)
  4057c2:	31 c0                	xor    %eax,%eax
  4057c4:	48 8b 45 98          	mov    -0x68(%rbp),%rax
  4057c8:	48 89 c7             	mov    %rax,%rdi
  4057cb:	e8 b7 ff ff ff       	callq  405787 <_ZSt7forwardISt5tupleIJEEEOT_RNSt16remove_referenceIS2_E4typeE>
  4057d0:	49 89 c4             	mov    %rax,%r12
  4057d3:	48 8b 45 a0          	mov    -0x60(%rbp),%rax
  4057d7:	48 89 c7             	mov    %rax,%rdi
  4057da:	e8 9a ff ff ff       	callq  405779 <_ZSt7forwardISt5tupleIJONSt7__cxx1112basic_stringIcSt11char_traitsIcESaIcEEEEEEOT_RNSt16remove_referenceIS9_E4typeE>
  4057df:	48 89 c3             	mov    %rax,%rbx
  4057e2:	48 8b 45 a8          	mov    -0x58(%rbp),%rax
  4057e6:	48 89 c7             	mov    %rax,%rdi
  4057e9:	e8 7d ff ff ff       	callq  40576b <_ZSt7forwardIRKSt21piecewise_construct_tEOT_RNSt16remove_referenceIS3_E4typeE>
  4057ee:	48 89 c6             	mov    %rax,%rsi
  4057f1:	48 8b 45 b8          	mov    -0x48(%rbp),%rax
  4057f5:	4c 89 e1             	mov    %r12,%rcx
  4057f8:	48 89 da             	mov    %rbx,%rdx
  4057fb:	48 89 c7             	mov    %rax,%rdi
  4057fe:	e8 27 09 00 00       	callq  40612a <_ZNSt8_Rb_treeINSt7__cxx1112basic_stringIcSt11char_traitsIcESaIcEEESt4pairIKS5_S5_ESt10_Select1stIS8_ESt4lessIS5_ESaIS8_EE14_M_create_nodeIJRKSt21piecewise_construct_tSt5tupleIJOS5_EESJ_IJEEEEEPSt13_Rb_tree_nodeIS8_EDpOT_>
  405803:	48 89 45 c8          	mov    %rax,-0x38(%rbp)
  405807:	48 8b 45 c8          	mov    -0x38(%rbp),%rax
  40580b:	48 89 c7             	mov    %rax,%rdi
  40580e:	e8 f9 0d 00 00       	callq  40660c <_ZNSt8_Rb_treeINSt7__cxx1112basic_stringIcSt11char_traitsIcESaIcEEESt4pairIKS5_S5_ESt10_Select1stIS8_ESt4lessIS5_ESaIS8_EE6_S_keyEPKSt13_Rb_tree_nodeIS8_E>
  405813:	48 89 c2             	mov    %rax,%rdx
  405816:	48 8b 4d b0          	mov    -0x50(%rbp),%rcx
  40581a:	48 8b 45 b8          	mov    -0x48(%rbp),%rax
  40581e:	48 89 ce             	mov    %rcx,%rsi
  405821:	48 89 c7             	mov    %rax,%rdi
  405824:	e8 47 0a 00 00       	callq  406270 <_ZNSt8_Rb_treeINSt7__cxx1112basic_stringIcSt11char_traitsIcESaIcEEESt4pairIKS5_S5_ESt10_Select1stIS8_ESt4lessIS5_ESaIS8_EE29_M_get_insert_hint_unique_posESt23_Rb_tree_const_iteratorIS8_ERS7_>
  405829:	48 89 45 d0          	mov    %rax,-0x30(%rbp)
  40582d:	48 89 55 d8          	mov    %rdx,-0x28(%rbp)
  405831:	48 8b 45 d8          	mov    -0x28(%rbp),%rax
  405835:	48 85 c0             	test   %rax,%rax
  405838:	74 1a                	je     405854 <_ZNSt8_Rb_treeINSt7__cxx1112basic_stringIcSt11char_traitsIcESaIcEEESt4pairIKS5_S5_ESt10_Select1stIS8_ESt4lessIS5_ESaIS8_EE22_M_emplace_hint_uniqueIJRKSt21piecewise_construct_tSt5tupleIJOS5_EESJ_IJEEEEESt17_Rb_tree_iteratorIS8_ESt23_Rb_tree_const_iteratorIS8_EDpOT_+0xbe>
  40583a:	48 8b 55 d8          	mov    -0x28(%rbp),%rdx
  40583e:	48 8b 75 d0          	mov    -0x30(%rbp),%rsi
  405842:	48 8b 4d c8          	mov    -0x38(%rbp),%rcx
  405846:	48 8b 45 b8          	mov    -0x48(%rbp),%rax
  40584a:	48 89 c7             	mov    %rax,%rdi
  40584d:	e8 0a 0e 00 00       	callq  40665c <_ZNSt8_Rb_treeINSt7__cxx1112basic_stringIcSt11char_traitsIcESaIcEEESt4pairIKS5_S5_ESt10_Select1stIS8_ESt4lessIS5_ESaIS8_EE14_M_insert_nodeEPSt18_Rb_tree_node_baseSG_PSt13_Rb_tree_nodeIS8_E>
  405852:	eb 2a                	jmp    40587e <_ZNSt8_Rb_treeINSt7__cxx1112basic_stringIcSt11char_traitsIcESaIcEEESt4pairIKS5_S5_ESt10_Select1stIS8_ESt4lessIS5_ESaIS8_EE22_M_emplace_hint_uniqueIJRKSt21piecewise_construct_tSt5tupleIJOS5_EESJ_IJEEEEESt17_Rb_tree_iteratorIS8_ESt23_Rb_tree_const_iteratorIS8_EDpOT_+0xe8>
  405854:	48 8b 55 c8          	mov    -0x38(%rbp),%rdx
  405858:	48 8b 45 b8          	mov    -0x48(%rbp),%rax
  40585c:	48 89 d6             	mov    %rdx,%rsi
  40585f:	48 89 c7             	mov    %rax,%rdi
  405862:	e8 7d 07 00 00       	callq  405fe4 <_ZNSt8_Rb_treeINSt7__cxx1112basic_stringIcSt11char_traitsIcESaIcEEESt4pairIKS5_S5_ESt10_Select1stIS8_ESt4lessIS5_ESaIS8_EE12_M_drop_nodeEPSt13_Rb_tree_nodeIS8_E>
  405867:	48 8b 55 d0          	mov    -0x30(%rbp),%rdx
  40586b:	48 8d 45 c0          	lea    -0x40(%rbp),%rax
  40586f:	48 89 d6             	mov    %rdx,%rsi
  405872:	48 89 c7             	mov    %rax,%rdi
  405875:	e8 c8 0e 00 00       	callq  406742 <_ZNSt17_Rb_tree_iteratorISt4pairIKNSt7__cxx1112basic_stringIcSt11char_traitsIcESaIcEEES6_EEC1EPSt18_Rb_tree_node_base>
  40587a:	48 8b 45 c0          	mov    -0x40(%rbp),%rax
  40587e:	48 8b 5d e8          	mov    -0x18(%rbp),%rbx
  405882:	64 48 33 1c 25 28 00 	xor    %fs:0x28,%rbx
  405889:	00 00 
  40588b:	74 3a                	je     4058c7 <_ZNSt8_Rb_treeINSt7__cxx1112basic_stringIcSt11char_traitsIcESaIcEEESt4pairIKS5_S5_ESt10_Select1stIS8_ESt4lessIS5_ESaIS8_EE22_M_emplace_hint_uniqueIJRKSt21piecewise_construct_tSt5tupleIJOS5_EESJ_IJEEEEESt17_Rb_tree_iteratorIS8_ESt23_Rb_tree_const_iteratorIS8_EDpOT_+0x131>
  40588d:	eb 33                	jmp    4058c2 <_ZNSt8_Rb_treeINSt7__cxx1112basic_stringIcSt11char_traitsIcESaIcEEESt4pairIKS5_S5_ESt10_Select1stIS8_ESt4lessIS5_ESaIS8_EE22_M_emplace_hint_uniqueIJRKSt21piecewise_construct_tSt5tupleIJOS5_EESJ_IJEEEEESt17_Rb_tree_iteratorIS8_ESt23_Rb_tree_const_iteratorIS8_EDpOT_+0x12c>
  40588f:	48 89 c7             	mov    %rax,%rdi
  405892:	e8 f9 d3 ff ff       	callq  402c90 <__cxa_begin_catch@plt>
  405897:	48 8b 55 c8          	mov    -0x38(%rbp),%rdx
  40589b:	48 8b 45 b8          	mov    -0x48(%rbp),%rax
  40589f:	48 89 d6             	mov    %rdx,%rsi
  4058a2:	48 89 c7             	mov    %rax,%rdi
  4058a5:	e8 3a 07 00 00       	callq  405fe4 <_ZNSt8_Rb_treeINSt7__cxx1112basic_stringIcSt11char_traitsIcESaIcEEESt4pairIKS5_S5_ESt10_Select1stIS8_ESt4lessIS5_ESaIS8_EE12_M_drop_nodeEPSt13_Rb_tree_nodeIS8_E>
  4058aa:	e8 31 d7 ff ff       	callq  402fe0 <__cxa_rethrow@plt>
  4058af:	48 89 c3             	mov    %rax,%rbx
  4058b2:	e8 b9 d7 ff ff       	callq  403070 <__cxa_end_catch@plt>
  4058b7:	48 89 d8             	mov    %rbx,%rax
  4058ba:	48 89 c7             	mov    %rax,%rdi
  4058bd:	e8 2e d8 ff ff       	callq  4030f0 <_Unwind_Resume@plt>
  4058c2:	e8 79 d6 ff ff       	callq  402f40 <__stack_chk_fail@plt>
  4058c7:	48 83 c4 60          	add    $0x60,%rsp
  4058cb:	5b                   	pop    %rbx
  4058cc:	41 5c                	pop    %r12
  4058ce:	5d                   	pop    %rbp
  4058cf:	c3                   	retq   

00000000004058d0 <_ZNSt7__cxx1112basic_stringIcSt11char_traitsIcESaIcEE12_M_constructIPcEEvT_S7_>:
  4058d0:	55                   	push   %rbp
  4058d1:	48 89 e5             	mov    %rsp,%rbp
  4058d4:	48 83 ec 30          	sub    $0x30,%rsp
  4058d8:	48 89 7d e8          	mov    %rdi,-0x18(%rbp)
  4058dc:	48 89 75 e0          	mov    %rsi,-0x20(%rbp)
  4058e0:	48 89 55 d8          	mov    %rdx,-0x28(%rbp)
  4058e4:	64 48 8b 04 25 28 00 	mov    %fs:0x28,%rax
  4058eb:	00 00 
  4058ed:	48 89 45 f8          	mov    %rax,-0x8(%rbp)
  4058f1:	31 c0                	xor    %eax,%eax
  4058f3:	48 8b 55 d8          	mov    -0x28(%rbp),%rdx
  4058f7:	48 8b 4d e0          	mov    -0x20(%rbp),%rcx
  4058fb:	48 8b 45 e8          	mov    -0x18(%rbp),%rax
  4058ff:	48 83 ec 08          	sub    $0x8,%rsp
  405903:	41 50                	push   %r8
  405905:	48 89 ce             	mov    %rcx,%rsi
  405908:	48 89 c7             	mov    %rax,%rdi
  40590b:	e8 4c 0e 00 00       	callq  40675c <_ZNSt7__cxx1112basic_stringIcSt11char_traitsIcESaIcEE16_M_construct_auxIPcEEvT_S7_St12__false_type>
  405910:	48 83 c4 10          	add    $0x10,%rsp
  405914:	90                   	nop
  405915:	48 8b 45 f8          	mov    -0x8(%rbp),%rax
  405919:	64 48 33 04 25 28 00 	xor    %fs:0x28,%rax
  405920:	00 00 
  405922:	74 05                	je     405929 <_ZNSt7__cxx1112basic_stringIcSt11char_traitsIcESaIcEE12_M_constructIPcEEvT_S7_+0x59>
  405924:	e8 17 d6 ff ff       	callq  402f40 <__stack_chk_fail@plt>
  405929:	c9                   	leaveq 
  40592a:	c3                   	retq   
  40592b:	90                   	nop

000000000040592c <_ZN9__gnu_cxx13new_allocatorISt4pairIKNSt7__cxx1112basic_stringIcSt11char_traitsIcESaIcEEES7_EEC1Ev>:
  40592c:	55                   	push   %rbp
  40592d:	48 89 e5             	mov    %rsp,%rbp
  405930:	48 89 7d f8          	mov    %rdi,-0x8(%rbp)
  405934:	90                   	nop
  405935:	5d                   	pop    %rbp
  405936:	c3                   	retq   
  405937:	90                   	nop

0000000000405938 <_ZN9__gnu_cxx13new_allocatorISt4pairIKNSt7__cxx1112basic_stringIcSt11char_traitsIcESaIcEEES7_EED1Ev>:
  405938:	55                   	push   %rbp
  405939:	48 89 e5             	mov    %rsp,%rbp
  40593c:	48 89 7d f8          	mov    %rdi,-0x8(%rbp)
  405940:	90                   	nop
  405941:	5d                   	pop    %rbp
  405942:	c3                   	retq   
  405943:	90                   	nop

0000000000405944 <_ZNSaISt4pairIKNSt7__cxx1112basic_stringIcSt11char_traitsIcESaIcEEES5_EEC1ERKS8_>:
  405944:	55                   	push   %rbp
  405945:	48 89 e5             	mov    %rsp,%rbp
  405948:	48 83 ec 10          	sub    $0x10,%rsp
  40594c:	48 89 7d f8          	mov    %rdi,-0x8(%rbp)
  405950:	48 89 75 f0          	mov    %rsi,-0x10(%rbp)
  405954:	48 8b 55 f0          	mov    -0x10(%rbp),%rdx
  405958:	48 8b 45 f8          	mov    -0x8(%rbp),%rax
  40595c:	48 89 d6             	mov    %rdx,%rsi
  40595f:	48 89 c7             	mov    %rax,%rdi
  405962:	e8 51 0e 00 00       	callq  4067b8 <_ZN9__gnu_cxx13new_allocatorISt4pairIKNSt7__cxx1112basic_stringIcSt11char_traitsIcESaIcEEES7_EEC1ERKSA_>
  405967:	90                   	nop
  405968:	c9                   	leaveq 
  405969:	c3                   	retq   

000000000040596a <_ZNSt8_Rb_treeINSt7__cxx1112basic_stringIcSt11char_traitsIcESaIcEEESt4pairIKS5_S5_ESt10_Select1stIS8_ESt4lessIS5_ESaIS8_EEC1ERKSC_RKSD_>:
  40596a:	55                   	push   %rbp
  40596b:	48 89 e5             	mov    %rsp,%rbp
  40596e:	53                   	push   %rbx
  40596f:	48 83 ec 38          	sub    $0x38,%rsp
  405973:	48 89 7d d8          	mov    %rdi,-0x28(%rbp)
  405977:	48 89 75 d0          	mov    %rsi,-0x30(%rbp)
  40597b:	48 89 55 c8          	mov    %rdx,-0x38(%rbp)
  40597f:	64 48 8b 04 25 28 00 	mov    %fs:0x28,%rax
  405986:	00 00 
  405988:	48 89 45 e8          	mov    %rax,-0x18(%rbp)
  40598c:	31 c0                	xor    %eax,%eax
  40598e:	48 8b 55 c8          	mov    -0x38(%rbp),%rdx
  405992:	48 8d 45 e7          	lea    -0x19(%rbp),%rax
  405996:	48 89 d6             	mov    %rdx,%rsi
  405999:	48 89 c7             	mov    %rax,%rdi
  40599c:	e8 27 0e 00 00       	callq  4067c8 <_ZNSaISt13_Rb_tree_nodeISt4pairIKNSt7__cxx1112basic_stringIcSt11char_traitsIcESaIcEEES6_EEEC1IS8_EERKSaIT_E>
  4059a1:	48 8b 45 d8          	mov    -0x28(%rbp),%rax
  4059a5:	48 8d 55 e7          	lea    -0x19(%rbp),%rdx
  4059a9:	48 8b 4d d0          	mov    -0x30(%rbp),%rcx
  4059ad:	48 89 ce             	mov    %rcx,%rsi
  4059b0:	48 89 c7             	mov    %rax,%rdi
  4059b3:	e8 3e 0e 00 00       	callq  4067f6 <_ZNSt8_Rb_treeINSt7__cxx1112basic_stringIcSt11char_traitsIcESaIcEEESt4pairIKS5_S5_ESt10_Select1stIS8_ESt4lessIS5_ESaIS8_EE13_Rb_tree_implISC_Lb1EEC1ERKSC_OSaISt13_Rb_tree_nodeIS8_EE>
  4059b8:	48 8d 45 e7          	lea    -0x19(%rbp),%rax
  4059bc:	48 89 c7             	mov    %rax,%rdi
  4059bf:	e8 ac fb ff ff       	callq  405570 <_ZNSaISt13_Rb_tree_nodeISt4pairIKNSt7__cxx1112basic_stringIcSt11char_traitsIcESaIcEEES6_EEED1Ev>
  4059c4:	90                   	nop
  4059c5:	48 8b 45 e8          	mov    -0x18(%rbp),%rax
  4059c9:	64 48 33 04 25 28 00 	xor    %fs:0x28,%rax
  4059d0:	00 00 
  4059d2:	74 21                	je     4059f5 <_ZNSt8_Rb_treeINSt7__cxx1112basic_stringIcSt11char_traitsIcESaIcEEESt4pairIKS5_S5_ESt10_Select1stIS8_ESt4lessIS5_ESaIS8_EEC1ERKSC_RKSD_+0x8b>
  4059d4:	eb 1a                	jmp    4059f0 <_ZNSt8_Rb_treeINSt7__cxx1112basic_stringIcSt11char_traitsIcESaIcEEESt4pairIKS5_S5_ESt10_Select1stIS8_ESt4lessIS5_ESaIS8_EEC1ERKSC_RKSD_+0x86>
  4059d6:	48 89 c3             	mov    %rax,%rbx
  4059d9:	48 8d 45 e7          	lea    -0x19(%rbp),%rax
  4059dd:	48 89 c7             	mov    %rax,%rdi
  4059e0:	e8 8b fb ff ff       	callq  405570 <_ZNSaISt13_Rb_tree_nodeISt4pairIKNSt7__cxx1112basic_stringIcSt11char_traitsIcESaIcEEES6_EEED1Ev>
  4059e5:	48 89 d8             	mov    %rbx,%rax
  4059e8:	48 89 c7             	mov    %rax,%rdi
  4059eb:	e8 00 d7 ff ff       	callq  4030f0 <_Unwind_Resume@plt>
  4059f0:	e8 4b d5 ff ff       	callq  402f40 <__stack_chk_fail@plt>
  4059f5:	48 83 c4 38          	add    $0x38,%rsp
  4059f9:	5b                   	pop    %rbx
  4059fa:	5d                   	pop    %rbp
  4059fb:	c3                   	retq   

00000000004059fc <_ZNSt8_Rb_treeINSt7__cxx1112basic_stringIcSt11char_traitsIcESaIcEEESt4pairIKS5_S5_ESt10_Select1stIS8_ESt4lessIS5_ESaIS8_EE16_M_insert_uniqueIPKS8_EEvT_SI_>:
  4059fc:	55                   	push   %rbp
  4059fd:	48 89 e5             	mov    %rsp,%rbp
  405a00:	48 83 ec 40          	sub    $0x40,%rsp
  405a04:	48 89 7d d8          	mov    %rdi,-0x28(%rbp)
  405a08:	48 89 75 d0          	mov    %rsi,-0x30(%rbp)
  405a0c:	48 89 55 c8          	mov    %rdx,-0x38(%rbp)
  405a10:	64 48 8b 04 25 28 00 	mov    %fs:0x28,%rax
  405a17:	00 00 
  405a19:	48 89 45 f8          	mov    %rax,-0x8(%rbp)
  405a1d:	31 c0                	xor    %eax,%eax
  405a1f:	48 8b 55 d8          	mov    -0x28(%rbp),%rdx
  405a23:	48 8d 45 e0          	lea    -0x20(%rbp),%rax
  405a27:	48 89 d6             	mov    %rdx,%rsi
  405a2a:	48 89 c7             	mov    %rax,%rdi
  405a2d:	e8 40 0e 00 00       	callq  406872 <_ZNSt8_Rb_treeINSt7__cxx1112basic_stringIcSt11char_traitsIcESaIcEEESt4pairIKS5_S5_ESt10_Select1stIS8_ESt4lessIS5_ESaIS8_EE11_Alloc_nodeC1ERSE_>
  405a32:	48 8b 45 d0          	mov    -0x30(%rbp),%rax
  405a36:	48 3b 45 c8          	cmp    -0x38(%rbp),%rax
  405a3a:	74 42                	je     405a7e <_ZNSt8_Rb_treeINSt7__cxx1112basic_stringIcSt11char_traitsIcESaIcEEESt4pairIKS5_S5_ESt10_Select1stIS8_ESt4lessIS5_ESaIS8_EE16_M_insert_uniqueIPKS8_EEvT_SI_+0x82>
  405a3c:	48 8b 45 d8          	mov    -0x28(%rbp),%rax
  405a40:	48 89 c7             	mov    %rax,%rdi
  405a43:	e8 34 01 00 00       	callq  405b7c <_ZNSt8_Rb_treeINSt7__cxx1112basic_stringIcSt11char_traitsIcESaIcEEESt4pairIKS5_S5_ESt10_Select1stIS8_ESt4lessIS5_ESaIS8_EE3endEv>
  405a48:	48 89 45 e8          	mov    %rax,-0x18(%rbp)
  405a4c:	48 8d 55 e8          	lea    -0x18(%rbp),%rdx
  405a50:	48 8d 45 f0          	lea    -0x10(%rbp),%rax
  405a54:	48 89 d6             	mov    %rdx,%rsi
  405a57:	48 89 c7             	mov    %rax,%rdi
  405a5a:	e8 ef fc ff ff       	callq  40574e <_ZNSt23_Rb_tree_const_iteratorISt4pairIKNSt7__cxx1112basic_stringIcSt11char_traitsIcESaIcEEES6_EEC1ERKSt17_Rb_tree_iteratorIS8_E>
  405a5f:	48 8d 4d e0          	lea    -0x20(%rbp),%rcx
  405a63:	48 8b 55 d0          	mov    -0x30(%rbp),%rdx
  405a67:	48 8b 75 f0          	mov    -0x10(%rbp),%rsi
  405a6b:	48 8b 45 d8          	mov    -0x28(%rbp),%rax
  405a6f:	48 89 c7             	mov    %rax,%rdi
  405a72:	e8 23 0e 00 00       	callq  40689a <_ZNSt8_Rb_treeINSt7__cxx1112basic_stringIcSt11char_traitsIcESaIcEEESt4pairIKS5_S5_ESt10_Select1stIS8_ESt4lessIS5_ESaIS8_EE17_M_insert_unique_IRKS8_NSE_11_Alloc_nodeEEESt17_Rb_tree_iteratorIS8_ESt23_Rb_tree_const_iteratorIS8_EOT_RT0_>
  405a77:	48 83 45 d0 40       	addq   $0x40,-0x30(%rbp)
  405a7c:	eb b4                	jmp    405a32 <_ZNSt8_Rb_treeINSt7__cxx1112basic_stringIcSt11char_traitsIcESaIcEEESt4pairIKS5_S5_ESt10_Select1stIS8_ESt4lessIS5_ESaIS8_EE16_M_insert_uniqueIPKS8_EEvT_SI_+0x36>
  405a7e:	90                   	nop
  405a7f:	48 8b 45 f8          	mov    -0x8(%rbp),%rax
  405a83:	64 48 33 04 25 28 00 	xor    %fs:0x28,%rax
  405a8a:	00 00 
  405a8c:	74 05                	je     405a93 <_ZNSt8_Rb_treeINSt7__cxx1112basic_stringIcSt11char_traitsIcESaIcEEESt4pairIKS5_S5_ESt10_Select1stIS8_ESt4lessIS5_ESaIS8_EE16_M_insert_uniqueIPKS8_EEvT_SI_+0x97>
  405a8e:	e8 ad d4 ff ff       	callq  402f40 <__stack_chk_fail@plt>
  405a93:	c9                   	leaveq 
  405a94:	c3                   	retq   
  405a95:	90                   	nop

0000000000405a96 <_ZNSt8_Rb_treeINSt7__cxx1112basic_stringIcSt11char_traitsIcESaIcEEESt4pairIKS5_S5_ESt10_Select1stIS8_ESt4lessIS5_ESaIS8_EE4findERS7_>:
  405a96:	55                   	push   %rbp
  405a97:	48 89 e5             	mov    %rsp,%rbp
  405a9a:	53                   	push   %rbx
  405a9b:	48 83 ec 38          	sub    $0x38,%rsp
  405a9f:	48 89 7d c8          	mov    %rdi,-0x38(%rbp)
  405aa3:	48 89 75 c0          	mov    %rsi,-0x40(%rbp)
  405aa7:	64 48 8b 04 25 28 00 	mov    %fs:0x28,%rax
  405aae:	00 00 
  405ab0:	48 89 45 e8          	mov    %rax,-0x18(%rbp)
  405ab4:	31 c0                	xor    %eax,%eax
  405ab6:	48 8b 45 c8          	mov    -0x38(%rbp),%rax
  405aba:	48 89 c7             	mov    %rax,%rdi
  405abd:	e8 96 0e 00 00       	callq  406958 <_ZNSt8_Rb_treeINSt7__cxx1112basic_stringIcSt11char_traitsIcESaIcEEESt4pairIKS5_S5_ESt10_Select1stIS8_ESt4lessIS5_ESaIS8_EE6_M_endEv>
  405ac2:	48 89 c3             	mov    %rax,%rbx
  405ac5:	48 8b 45 c8          	mov    -0x38(%rbp),%rax
  405ac9:	48 89 c7             	mov    %rax,%rdi
  405acc:	e8 21 fb ff ff       	callq  4055f2 <_ZNSt8_Rb_treeINSt7__cxx1112basic_stringIcSt11char_traitsIcESaIcEEESt4pairIKS5_S5_ESt10_Select1stIS8_ESt4lessIS5_ESaIS8_EE8_M_beginEv>
  405ad1:	48 89 c6             	mov    %rax,%rsi
  405ad4:	48 8b 55 c0          	mov    -0x40(%rbp),%rdx
  405ad8:	48 8b 45 c8          	mov    -0x38(%rbp),%rax
  405adc:	48 89 d1             	mov    %rdx,%rcx
  405adf:	48 89 da             	mov    %rbx,%rdx
  405ae2:	48 89 c7             	mov    %rax,%rdi
  405ae5:	e8 80 0e 00 00       	callq  40696a <_ZNSt8_Rb_treeINSt7__cxx1112basic_stringIcSt11char_traitsIcESaIcEEESt4pairIKS5_S5_ESt10_Select1stIS8_ESt4lessIS5_ESaIS8_EE14_M_lower_boundEPSt13_Rb_tree_nodeIS8_EPSt18_Rb_tree_node_baseRS7_>
  405aea:	48 89 45 d8          	mov    %rax,-0x28(%rbp)
  405aee:	48 8b 45 c8          	mov    -0x38(%rbp),%rax
  405af2:	48 89 c7             	mov    %rax,%rdi
  405af5:	e8 82 00 00 00       	callq  405b7c <_ZNSt8_Rb_treeINSt7__cxx1112basic_stringIcSt11char_traitsIcESaIcEEESt4pairIKS5_S5_ESt10_Select1stIS8_ESt4lessIS5_ESaIS8_EE3endEv>
  405afa:	48 89 45 e0          	mov    %rax,-0x20(%rbp)
  405afe:	bb 01 00 00 00       	mov    $0x1,%ebx
  405b03:	48 8d 55 e0          	lea    -0x20(%rbp),%rdx
  405b07:	48 8d 45 d8          	lea    -0x28(%rbp),%rax
  405b0b:	48 89 d6             	mov    %rdx,%rsi
  405b0e:	48 89 c7             	mov    %rax,%rdi
  405b11:	e8 02 f9 ff ff       	callq  405418 <_ZNKSt17_Rb_tree_iteratorISt4pairIKNSt7__cxx1112basic_stringIcSt11char_traitsIcESaIcEEES6_EEeqERKS9_>
  405b16:	84 c0                	test   %al,%al
  405b18:	75 26                	jne    405b40 <_ZNSt8_Rb_treeINSt7__cxx1112basic_stringIcSt11char_traitsIcESaIcEEESt4pairIKS5_S5_ESt10_Select1stIS8_ESt4lessIS5_ESaIS8_EE4findERS7_+0xaa>
  405b1a:	48 8b 45 d8          	mov    -0x28(%rbp),%rax
  405b1e:	48 89 c7             	mov    %rax,%rdi
  405b21:	e8 f4 0e 00 00       	callq  406a1a <_ZNSt8_Rb_treeINSt7__cxx1112basic_stringIcSt11char_traitsIcESaIcEEESt4pairIKS5_S5_ESt10_Select1stIS8_ESt4lessIS5_ESaIS8_EE6_S_keyEPKSt18_Rb_tree_node_base>
  405b26:	48 89 c2             	mov    %rax,%rdx
  405b29:	48 8b 45 c8          	mov    -0x38(%rbp),%rax
  405b2d:	48 8b 4d c0          	mov    -0x40(%rbp),%rcx
  405b31:	48 89 ce             	mov    %rcx,%rsi
  405b34:	48 89 c7             	mov    %rax,%rdi
  405b37:	e8 0e f4 ff ff       	callq  404f4a <_ZNKSt4lessINSt7__cxx1112basic_stringIcSt11char_traitsIcESaIcEEEEclERKS5_S8_>
  405b3c:	84 c0                	test   %al,%al
  405b3e:	74 0e                	je     405b4e <_ZNSt8_Rb_treeINSt7__cxx1112basic_stringIcSt11char_traitsIcESaIcEEESt4pairIKS5_S5_ESt10_Select1stIS8_ESt4lessIS5_ESaIS8_EE4findERS7_+0xb8>
  405b40:	48 8b 45 c8          	mov    -0x38(%rbp),%rax
  405b44:	48 89 c7             	mov    %rax,%rdi
  405b47:	e8 30 00 00 00       	callq  405b7c <_ZNSt8_Rb_treeINSt7__cxx1112basic_stringIcSt11char_traitsIcESaIcEEESt4pairIKS5_S5_ESt10_Select1stIS8_ESt4lessIS5_ESaIS8_EE3endEv>
  405b4c:	eb 04                	jmp    405b52 <_ZNSt8_Rb_treeINSt7__cxx1112basic_stringIcSt11char_traitsIcESaIcEEESt4pairIKS5_S5_ESt10_Select1stIS8_ESt4lessIS5_ESaIS8_EE4findERS7_+0xbc>
  405b4e:	48 8b 45 d8          	mov    -0x28(%rbp),%rax
  405b52:	84 db                	test   %bl,%bl
  405b54:	48 8b 4d e8          	mov    -0x18(%rbp),%rcx
  405b58:	64 48 33 0c 25 28 00 	xor    %fs:0x28,%rcx
  405b5f:	00 00 
  405b61:	74 12                	je     405b75 <_ZNSt8_Rb_treeINSt7__cxx1112basic_stringIcSt11char_traitsIcESaIcEEESt4pairIKS5_S5_ESt10_Select1stIS8_ESt4lessIS5_ESaIS8_EE4findERS7_+0xdf>
  405b63:	eb 0b                	jmp    405b70 <_ZNSt8_Rb_treeINSt7__cxx1112basic_stringIcSt11char_traitsIcESaIcEEESt4pairIKS5_S5_ESt10_Select1stIS8_ESt4lessIS5_ESaIS8_EE4findERS7_+0xda>
  405b65:	84 db                	test   %bl,%bl
  405b67:	90                   	nop
  405b68:	48 89 c7             	mov    %rax,%rdi
  405b6b:	e8 80 d5 ff ff       	callq  4030f0 <_Unwind_Resume@plt>
  405b70:	e8 cb d3 ff ff       	callq  402f40 <__stack_chk_fail@plt>
  405b75:	48 83 c4 38          	add    $0x38,%rsp
  405b79:	5b                   	pop    %rbx
  405b7a:	5d                   	pop    %rbp
  405b7b:	c3                   	retq   

0000000000405b7c <_ZNSt8_Rb_treeINSt7__cxx1112basic_stringIcSt11char_traitsIcESaIcEEESt4pairIKS5_S5_ESt10_Select1stIS8_ESt4lessIS5_ESaIS8_EE3endEv>:
  405b7c:	55                   	push   %rbp
  405b7d:	48 89 e5             	mov    %rsp,%rbp
  405b80:	48 83 ec 20          	sub    $0x20,%rsp
  405b84:	48 89 7d e8          	mov    %rdi,-0x18(%rbp)
  405b88:	64 48 8b 04 25 28 00 	mov    %fs:0x28,%rax
  405b8f:	00 00 
  405b91:	48 89 45 f8          	mov    %rax,-0x8(%rbp)
  405b95:	31 c0                	xor    %eax,%eax
  405b97:	48 8b 45 e8          	mov    -0x18(%rbp),%rax
  405b9b:	48 8d 50 08          	lea    0x8(%rax),%rdx
  405b9f:	48 8d 45 f0          	lea    -0x10(%rbp),%rax
  405ba3:	48 89 d6             	mov    %rdx,%rsi
  405ba6:	48 89 c7             	mov    %rax,%rdi
  405ba9:	e8 94 0b 00 00       	callq  406742 <_ZNSt17_Rb_tree_iteratorISt4pairIKNSt7__cxx1112basic_stringIcSt11char_traitsIcESaIcEEES6_EEC1EPSt18_Rb_tree_node_base>
  405bae:	48 8b 45 f0          	mov    -0x10(%rbp),%rax
  405bb2:	48 8b 4d f8          	mov    -0x8(%rbp),%rcx
  405bb6:	64 48 33 0c 25 28 00 	xor    %fs:0x28,%rcx
  405bbd:	00 00 
  405bbf:	74 05                	je     405bc6 <_ZNSt8_Rb_treeINSt7__cxx1112basic_stringIcSt11char_traitsIcESaIcEEESt4pairIKS5_S5_ESt10_Select1stIS8_ESt4lessIS5_ESaIS8_EE3endEv+0x4a>
  405bc1:	e8 7a d3 ff ff       	callq  402f40 <__stack_chk_fail@plt>
  405bc6:	c9                   	leaveq 
  405bc7:	c3                   	retq   

0000000000405bc8 <_ZNSt13_Rb_tree_nodeISt4pairIKNSt7__cxx1112basic_stringIcSt11char_traitsIcESaIcEEES6_EE9_M_valptrEv>:
  405bc8:	55                   	push   %rbp
  405bc9:	48 89 e5             	mov    %rsp,%rbp
  405bcc:	48 83 ec 10          	sub    $0x10,%rsp
  405bd0:	48 89 7d f8          	mov    %rdi,-0x8(%rbp)
  405bd4:	48 8b 45 f8          	mov    -0x8(%rbp),%rax
  405bd8:	48 83 c0 20          	add    $0x20,%rax
  405bdc:	48 89 c7             	mov    %rax,%rdi
  405bdf:	e8 86 0e 00 00       	callq  406a6a <_ZN9__gnu_cxx16__aligned_membufISt4pairIKNSt7__cxx1112basic_stringIcSt11char_traitsIcESaIcEEES7_EE6_M_ptrEv>
  405be4:	c9                   	leaveq 
  405be5:	c3                   	retq   

0000000000405be6 <_ZSt7forwardISt17_Rb_tree_iteratorISt4pairIKNSt7__cxx1112basic_stringIcSt11char_traitsIcESaIcEEES7_EEEOT_RNSt16remove_referenceISB_E4typeE>:
  405be6:	55                   	push   %rbp
  405be7:	48 89 e5             	mov    %rsp,%rbp
  405bea:	48 89 7d f8          	mov    %rdi,-0x8(%rbp)
  405bee:	48 8b 45 f8          	mov    -0x8(%rbp),%rax
  405bf2:	5d                   	pop    %rbp
  405bf3:	c3                   	retq   

0000000000405bf4 <_ZSt7forwardIbEOT_RNSt16remove_referenceIS0_E4typeE>:
  405bf4:	55                   	push   %rbp
  405bf5:	48 89 e5             	mov    %rsp,%rbp
  405bf8:	48 89 7d f8          	mov    %rdi,-0x8(%rbp)
  405bfc:	48 8b 45 f8          	mov    -0x8(%rbp),%rax
  405c00:	5d                   	pop    %rbp
  405c01:	c3                   	retq   

0000000000405c02 <_ZNSt4pairISt17_Rb_tree_iteratorIS_IKNSt7__cxx1112basic_stringIcSt11char_traitsIcESaIcEEES6_EEbEC1IS9_bLb1EEEOT_OT0_>:
  405c02:	55                   	push   %rbp
  405c03:	48 89 e5             	mov    %rsp,%rbp
  405c06:	48 83 ec 20          	sub    $0x20,%rsp
  405c0a:	48 89 7d f8          	mov    %rdi,-0x8(%rbp)
  405c0e:	48 89 75 f0          	mov    %rsi,-0x10(%rbp)
  405c12:	48 89 55 e8          	mov    %rdx,-0x18(%rbp)
  405c16:	48 8b 45 f0          	mov    -0x10(%rbp),%rax
  405c1a:	48 89 c7             	mov    %rax,%rdi
  405c1d:	e8 c4 ff ff ff       	callq  405be6 <_ZSt7forwardISt17_Rb_tree_iteratorISt4pairIKNSt7__cxx1112basic_stringIcSt11char_traitsIcESaIcEEES7_EEEOT_RNSt16remove_referenceISB_E4typeE>
  405c22:	48 89 c2             	mov    %rax,%rdx
  405c25:	48 8b 45 f8          	mov    -0x8(%rbp),%rax
  405c29:	48 8b 12             	mov    (%rdx),%rdx
  405c2c:	48 89 10             	mov    %rdx,(%rax)
  405c2f:	48 8b 45 e8          	mov    -0x18(%rbp),%rax
  405c33:	48 89 c7             	mov    %rax,%rdi
  405c36:	e8 b9 ff ff ff       	callq  405bf4 <_ZSt7forwardIbEOT_RNSt16remove_referenceIS0_E4typeE>
  405c3b:	0f b6 10             	movzbl (%rax),%edx
  405c3e:	48 8b 45 f8          	mov    -0x8(%rbp),%rax
  405c42:	88 50 08             	mov    %dl,0x8(%rax)
  405c45:	90                   	nop
  405c46:	c9                   	leaveq 
  405c47:	c3                   	retq   

0000000000405c48 <_ZNSt8_Rb_treeINSt7__cxx1112basic_stringIcSt11char_traitsIcESaIcEEESt4pairIKS5_S5_ESt10_Select1stIS8_ESt4lessIS5_ESaIS8_EE16_M_insert_uniqueIS6_IPKcS5_EEES6_ISt17_Rb_tree_iteratorIS8_EbEOT_>:
  405c48:	55                   	push   %rbp
  405c49:	48 89 e5             	mov    %rsp,%rbp
  405c4c:	53                   	push   %rbx
  405c4d:	48 81 ec 88 00 00 00 	sub    $0x88,%rsp
  405c54:	48 89 bd 78 ff ff ff 	mov    %rdi,-0x88(%rbp)
  405c5b:	48 89 b5 70 ff ff ff 	mov    %rsi,-0x90(%rbp)
  405c62:	64 48 8b 04 25 28 00 	mov    %fs:0x28,%rax
  405c69:	00 00 
  405c6b:	48 89 45 e8          	mov    %rax,-0x18(%rbp)
  405c6f:	31 c0                	xor    %eax,%eax
  405c71:	48 8d 45 b0          	lea    -0x50(%rbp),%rax
  405c75:	48 89 c7             	mov    %rax,%rdi
  405c78:	e8 83 d4 ff ff       	callq  403100 <_ZNSaIcEC1Ev@plt>
  405c7d:	48 8b 95 70 ff ff ff 	mov    -0x90(%rbp),%rdx
  405c84:	48 8d 45 98          	lea    -0x68(%rbp),%rax
  405c88:	48 89 d6             	mov    %rdx,%rsi
  405c8b:	48 89 c7             	mov    %rax,%rdi
  405c8e:	e8 d3 0f 00 00       	callq  406c66 <_ZNKSt10_Select1stISt4pairIKNSt7__cxx1112basic_stringIcSt11char_traitsIcESaIcEEES6_EEclIS0_IPKcS6_EEERNT_10first_typeERSE_>
  405c93:	48 8b 08             	mov    (%rax),%rcx
  405c96:	48 8d 55 b0          	lea    -0x50(%rbp),%rdx
  405c9a:	48 8d 45 c0          	lea    -0x40(%rbp),%rax
  405c9e:	48 89 ce             	mov    %rcx,%rsi
  405ca1:	48 89 c7             	mov    %rax,%rdi
  405ca4:	e8 17 d3 ff ff       	callq  402fc0 <_ZNSt7__cxx1112basic_stringIcSt11char_traitsIcESaIcEEC1EPKcRKS3_@plt>
  405ca9:	48 8d 55 c0          	lea    -0x40(%rbp),%rdx
  405cad:	48 8b 85 78 ff ff ff 	mov    -0x88(%rbp),%rax
  405cb4:	48 89 d6             	mov    %rdx,%rsi
  405cb7:	48 89 c7             	mov    %rax,%rdi
  405cba:	e8 17 0e 00 00       	callq  406ad6 <_ZNSt8_Rb_treeINSt7__cxx1112basic_stringIcSt11char_traitsIcESaIcEEESt4pairIKS5_S5_ESt10_Select1stIS8_ESt4lessIS5_ESaIS8_EE24_M_get_insert_unique_posERS7_>
  405cbf:	48 89 45 a0          	mov    %rax,-0x60(%rbp)
  405cc3:	48 89 55 a8          	mov    %rdx,-0x58(%rbp)
  405cc7:	48 8d 45 c0          	lea    -0x40(%rbp),%rax
  405ccb:	48 89 c7             	mov    %rax,%rdi
  405cce:	e8 5d d0 ff ff       	callq  402d30 <_ZNSt7__cxx1112basic_stringIcSt11char_traitsIcESaIcEED1Ev@plt>
  405cd3:	48 8d 45 b0          	lea    -0x50(%rbp),%rax
  405cd7:	48 89 c7             	mov    %rax,%rdi
  405cda:	e8 41 d2 ff ff       	callq  402f20 <_ZNSaIcED1Ev@plt>
  405cdf:	48 8b 45 a8          	mov    -0x58(%rbp),%rax
  405ce3:	48 85 c0             	test   %rax,%rax
  405ce6:	74 72                	je     405d5a <_ZNSt8_Rb_treeINSt7__cxx1112basic_stringIcSt11char_traitsIcESaIcEEESt4pairIKS5_S5_ESt10_Select1stIS8_ESt4lessIS5_ESaIS8_EE16_M_insert_uniqueIS6_IPKcS5_EEES6_ISt17_Rb_tree_iteratorIS8_EbEOT_+0x112>
  405ce8:	48 8b 95 78 ff ff ff 	mov    -0x88(%rbp),%rdx
  405cef:	48 8d 45 90          	lea    -0x70(%rbp),%rax
  405cf3:	48 89 d6             	mov    %rdx,%rsi
  405cf6:	48 89 c7             	mov    %rax,%rdi
  405cf9:	e8 74 0b 00 00       	callq  406872 <_ZNSt8_Rb_treeINSt7__cxx1112basic_stringIcSt11char_traitsIcESaIcEEESt4pairIKS5_S5_ESt10_Select1stIS8_ESt4lessIS5_ESaIS8_EE11_Alloc_nodeC1ERSE_>
  405cfe:	c6 45 8f 01          	movb   $0x1,-0x71(%rbp)
  405d02:	48 8b 85 70 ff ff ff 	mov    -0x90(%rbp),%rax
  405d09:	48 89 c7             	mov    %rax,%rdi
  405d0c:	e8 68 f7 ff ff       	callq  405479 <_ZSt7forwardISt4pairIPKcNSt7__cxx1112basic_stringIcSt11char_traitsIcESaIcEEEEEOT_RNSt16remove_referenceISA_E4typeE>
  405d11:	48 89 c7             	mov    %rax,%rdi
  405d14:	48 8b 55 a8          	mov    -0x58(%rbp),%rdx
  405d18:	48 8b 75 a0          	mov    -0x60(%rbp),%rsi
  405d1c:	48 8d 4d 90          	lea    -0x70(%rbp),%rcx
  405d20:	48 8b 85 78 ff ff ff 	mov    -0x88(%rbp),%rax
  405d27:	49 89 c8             	mov    %rcx,%r8
  405d2a:	48 89 f9             	mov    %rdi,%rcx
  405d2d:	48 89 c7             	mov    %rax,%rdi
  405d30:	e8 43 0f 00 00       	callq  406c78 <_ZNSt8_Rb_treeINSt7__cxx1112basic_stringIcSt11char_traitsIcESaIcEEESt4pairIKS5_S5_ESt10_Select1stIS8_ESt4lessIS5_ESaIS8_EE10_M_insert_IS6_IPKcS5_ENSE_11_Alloc_nodeEEESt17_Rb_tree_iteratorIS8_EPSt18_Rb_tree_node_baseSN_OT_RT0_>
  405d35:	48 89 45 98          	mov    %rax,-0x68(%rbp)
  405d39:	48 8d 55 8f          	lea    -0x71(%rbp),%rdx
  405d3d:	48 8d 4d 98          	lea    -0x68(%rbp),%rcx
  405d41:	48 8d 45 b0          	lea    -0x50(%rbp),%rax
  405d45:	48 89 ce             	mov    %rcx,%rsi
  405d48:	48 89 c7             	mov    %rax,%rdi
  405d4b:	e8 b2 fe ff ff       	callq  405c02 <_ZNSt4pairISt17_Rb_tree_iteratorIS_IKNSt7__cxx1112basic_stringIcSt11char_traitsIcESaIcEEES6_EEbEC1IS9_bLb1EEEOT_OT0_>
  405d50:	48 8b 45 b0          	mov    -0x50(%rbp),%rax
  405d54:	48 8b 55 b8          	mov    -0x48(%rbp),%rdx
  405d58:	eb 36                	jmp    405d90 <_ZNSt8_Rb_treeINSt7__cxx1112basic_stringIcSt11char_traitsIcESaIcEEESt4pairIKS5_S5_ESt10_Select1stIS8_ESt4lessIS5_ESaIS8_EE16_M_insert_uniqueIS6_IPKcS5_EEES6_ISt17_Rb_tree_iteratorIS8_EbEOT_+0x148>
  405d5a:	c6 45 90 00          	movb   $0x0,-0x70(%rbp)
  405d5e:	48 8b 55 a0          	mov    -0x60(%rbp),%rdx
  405d62:	48 8d 45 98          	lea    -0x68(%rbp),%rax
  405d66:	48 89 d6             	mov    %rdx,%rsi
  405d69:	48 89 c7             	mov    %rax,%rdi
  405d6c:	e8 d1 09 00 00       	callq  406742 <_ZNSt17_Rb_tree_iteratorISt4pairIKNSt7__cxx1112basic_stringIcSt11char_traitsIcESaIcEEES6_EEC1EPSt18_Rb_tree_node_base>
  405d71:	48 8d 55 90          	lea    -0x70(%rbp),%rdx
  405d75:	48 8d 4d 98          	lea    -0x68(%rbp),%rcx
  405d79:	48 8d 45 b0          	lea    -0x50(%rbp),%rax
  405d7d:	48 89 ce             	mov    %rcx,%rsi
  405d80:	48 89 c7             	mov    %rax,%rdi
  405d83:	e8 7a fe ff ff       	callq  405c02 <_ZNSt4pairISt17_Rb_tree_iteratorIS_IKNSt7__cxx1112basic_stringIcSt11char_traitsIcESaIcEEES6_EEbEC1IS9_bLb1EEEOT_OT0_>
  405d88:	48 8b 45 b0          	mov    -0x50(%rbp),%rax
  405d8c:	48 8b 55 b8          	mov    -0x48(%rbp),%rdx
  405d90:	48 8b 5d e8          	mov    -0x18(%rbp),%rbx
  405d94:	64 48 33 1c 25 28 00 	xor    %fs:0x28,%rbx
  405d9b:	00 00 
  405d9d:	74 32                	je     405dd1 <_ZNSt8_Rb_treeINSt7__cxx1112basic_stringIcSt11char_traitsIcESaIcEEESt4pairIKS5_S5_ESt10_Select1stIS8_ESt4lessIS5_ESaIS8_EE16_M_insert_uniqueIS6_IPKcS5_EEES6_ISt17_Rb_tree_iteratorIS8_EbEOT_+0x189>
  405d9f:	eb 2b                	jmp    405dcc <_ZNSt8_Rb_treeINSt7__cxx1112basic_stringIcSt11char_traitsIcESaIcEEESt4pairIKS5_S5_ESt10_Select1stIS8_ESt4lessIS5_ESaIS8_EE16_M_insert_uniqueIS6_IPKcS5_EEES6_ISt17_Rb_tree_iteratorIS8_EbEOT_+0x184>
  405da1:	48 89 c3             	mov    %rax,%rbx
  405da4:	48 8d 45 c0          	lea    -0x40(%rbp),%rax
  405da8:	48 89 c7             	mov    %rax,%rdi
  405dab:	e8 80 cf ff ff       	callq  402d30 <_ZNSt7__cxx1112basic_stringIcSt11char_traitsIcESaIcEED1Ev@plt>
  405db0:	eb 03                	jmp    405db5 <_ZNSt8_Rb_treeINSt7__cxx1112basic_stringIcSt11char_traitsIcESaIcEEESt4pairIKS5_S5_ESt10_Select1stIS8_ESt4lessIS5_ESaIS8_EE16_M_insert_uniqueIS6_IPKcS5_EEES6_ISt17_Rb_tree_iteratorIS8_EbEOT_+0x16d>
  405db2:	48 89 c3             	mov    %rax,%rbx
  405db5:	48 8d 45 b0          	lea    -0x50(%rbp),%rax
  405db9:	48 89 c7             	mov    %rax,%rdi
  405dbc:	e8 5f d1 ff ff       	callq  402f20 <_ZNSaIcED1Ev@plt>
  405dc1:	48 89 d8             	mov    %rbx,%rax
  405dc4:	48 89 c7             	mov    %rax,%rdi
  405dc7:	e8 24 d3 ff ff       	callq  4030f0 <_Unwind_Resume@plt>
  405dcc:	e8 6f d1 ff ff       	callq  402f40 <__stack_chk_fail@plt>
  405dd1:	48 81 c4 88 00 00 00 	add    $0x88,%rsp
  405dd8:	5b                   	pop    %rbx
  405dd9:	5d                   	pop    %rbp
  405dda:	c3                   	retq   
  405ddb:	90                   	nop

0000000000405ddc <_ZNSt8_Rb_treeINSt7__cxx1112basic_stringIcSt11char_traitsIcESaIcEEESt4pairIKS5_S5_ESt10_Select1stIS8_ESt4lessIS5_ESaIS8_EEC1ERKSE_>:
  405ddc:	55                   	push   %rbp
  405ddd:	48 89 e5             	mov    %rsp,%rbp
  405de0:	41 54                	push   %r12
  405de2:	53                   	push   %rbx
  405de3:	48 83 ec 20          	sub    $0x20,%rsp
  405de7:	48 89 7d d8          	mov    %rdi,-0x28(%rbp)
  405deb:	48 89 75 d0          	mov    %rsi,-0x30(%rbp)
  405def:	64 48 8b 04 25 28 00 	mov    %fs:0x28,%rax
  405df6:	00 00 
  405df8:	48 89 45 e8          	mov    %rax,-0x18(%rbp)
  405dfc:	31 c0                	xor    %eax,%eax
  405dfe:	48 8b 45 d0          	mov    -0x30(%rbp),%rax
  405e02:	48 89 c7             	mov    %rax,%rdi
  405e05:	e8 a2 10 00 00       	callq  406eac <_ZNKSt8_Rb_treeINSt7__cxx1112basic_stringIcSt11char_traitsIcESaIcEEESt4pairIKS5_S5_ESt10_Select1stIS8_ESt4lessIS5_ESaIS8_EE21_M_get_Node_allocatorEv>
  405e0a:	48 89 c2             	mov    %rax,%rdx
  405e0d:	48 8d 45 e7          	lea    -0x19(%rbp),%rax
  405e11:	48 89 d6             	mov    %rdx,%rsi
  405e14:	48 89 c7             	mov    %rax,%rdi
  405e17:	e8 44 10 00 00       	callq  406e60 <_ZN9__gnu_cxx14__alloc_traitsISaISt13_Rb_tree_nodeISt4pairIKNSt7__cxx1112basic_stringIcSt11char_traitsIcESaIcEEES8_EEEE17_S_select_on_copyERKSC_>
  405e1c:	48 8b 4d d0          	mov    -0x30(%rbp),%rcx
  405e20:	48 8b 45 d8          	mov    -0x28(%rbp),%rax
  405e24:	48 8d 55 e7          	lea    -0x19(%rbp),%rdx
  405e28:	48 89 ce             	mov    %rcx,%rsi
  405e2b:	48 89 c7             	mov    %rax,%rdi
  405e2e:	e8 c3 09 00 00       	callq  4067f6 <_ZNSt8_Rb_treeINSt7__cxx1112basic_stringIcSt11char_traitsIcESaIcEEESt4pairIKS5_S5_ESt10_Select1stIS8_ESt4lessIS5_ESaIS8_EE13_Rb_tree_implISC_Lb1EEC1ERKSC_OSaISt13_Rb_tree_nodeIS8_EE>
  405e33:	48 8d 45 e7          	lea    -0x19(%rbp),%rax
  405e37:	48 89 c7             	mov    %rax,%rdi
  405e3a:	e8 31 f7 ff ff       	callq  405570 <_ZNSaISt13_Rb_tree_nodeISt4pairIKNSt7__cxx1112basic_stringIcSt11char_traitsIcESaIcEEES6_EEED1Ev>
  405e3f:	48 8b 45 d0          	mov    -0x30(%rbp),%rax
  405e43:	48 89 c7             	mov    %rax,%rdi
  405e46:	e8 6f 10 00 00       	callq  406eba <_ZNKSt8_Rb_treeINSt7__cxx1112basic_stringIcSt11char_traitsIcESaIcEEESt4pairIKS5_S5_ESt10_Select1stIS8_ESt4lessIS5_ESaIS8_EE7_M_rootEv>
  405e4b:	48 85 c0             	test   %rax,%rax
  405e4e:	0f 95 c0             	setne  %al
  405e51:	84 c0                	test   %al,%al
  405e53:	0f 84 da 00 00 00    	je     405f33 <_ZNSt8_Rb_treeINSt7__cxx1112basic_stringIcSt11char_traitsIcESaIcEEESt4pairIKS5_S5_ESt10_Select1stIS8_ESt4lessIS5_ESaIS8_EEC1ERKSE_+0x157>
  405e59:	48 8b 45 d8          	mov    -0x28(%rbp),%rax
  405e5d:	48 89 c7             	mov    %rax,%rdi
  405e60:	e8 67 10 00 00       	callq  406ecc <_ZNSt8_Rb_treeINSt7__cxx1112basic_stringIcSt11char_traitsIcESaIcEEESt4pairIKS5_S5_ESt10_Select1stIS8_ESt4lessIS5_ESaIS8_EE7_M_rootEv>
  405e65:	48 89 c3             	mov    %rax,%rbx
  405e68:	48 8b 45 d8          	mov    -0x28(%rbp),%rax
  405e6c:	48 89 c7             	mov    %rax,%rdi
  405e6f:	e8 e4 0a 00 00       	callq  406958 <_ZNSt8_Rb_treeINSt7__cxx1112basic_stringIcSt11char_traitsIcESaIcEEESt4pairIKS5_S5_ESt10_Select1stIS8_ESt4lessIS5_ESaIS8_EE6_M_endEv>
  405e74:	49 89 c4             	mov    %rax,%r12
  405e77:	48 8b 45 d0          	mov    -0x30(%rbp),%rax
  405e7b:	48 89 c7             	mov    %rax,%rdi
  405e7e:	e8 5b 10 00 00       	callq  406ede <_ZNKSt8_Rb_treeINSt7__cxx1112basic_stringIcSt11char_traitsIcESaIcEEESt4pairIKS5_S5_ESt10_Select1stIS8_ESt4lessIS5_ESaIS8_EE8_M_beginEv>
  405e83:	48 89 c1             	mov    %rax,%rcx
  405e86:	48 8b 45 d8          	mov    -0x28(%rbp),%rax
  405e8a:	4c 89 e2             	mov    %r12,%rdx
  405e8d:	48 89 ce             	mov    %rcx,%rsi
  405e90:	48 89 c7             	mov    %rax,%rdi
  405e93:	e8 58 10 00 00       	callq  406ef0 <_ZNSt8_Rb_treeINSt7__cxx1112basic_stringIcSt11char_traitsIcESaIcEEESt4pairIKS5_S5_ESt10_Select1stIS8_ESt4lessIS5_ESaIS8_EE7_M_copyEPKSt13_Rb_tree_nodeIS8_EPSt18_Rb_tree_node_base>
  405e98:	48 89 03             	mov    %rax,(%rbx)
  405e9b:	48 8b 45 d8          	mov    -0x28(%rbp),%rax
  405e9f:	48 89 c7             	mov    %rax,%rdi
  405ea2:	e8 ad 10 00 00       	callq  406f54 <_ZNSt8_Rb_treeINSt7__cxx1112basic_stringIcSt11char_traitsIcESaIcEEESt4pairIKS5_S5_ESt10_Select1stIS8_ESt4lessIS5_ESaIS8_EE11_M_leftmostEv>
  405ea7:	48 89 c3             	mov    %rax,%rbx
  405eaa:	48 8b 45 d8          	mov    -0x28(%rbp),%rax
  405eae:	48 89 c7             	mov    %rax,%rdi
  405eb1:	e8 16 10 00 00       	callq  406ecc <_ZNSt8_Rb_treeINSt7__cxx1112basic_stringIcSt11char_traitsIcESaIcEEESt4pairIKS5_S5_ESt10_Select1stIS8_ESt4lessIS5_ESaIS8_EE7_M_rootEv>
  405eb6:	48 8b 00             	mov    (%rax),%rax
  405eb9:	48 89 c7             	mov    %rax,%rdi
  405ebc:	e8 a5 10 00 00       	callq  406f66 <_ZNSt8_Rb_treeINSt7__cxx1112basic_stringIcSt11char_traitsIcESaIcEEESt4pairIKS5_S5_ESt10_Select1stIS8_ESt4lessIS5_ESaIS8_EE10_S_minimumEPSt18_Rb_tree_node_base>
  405ec1:	48 89 03             	mov    %rax,(%rbx)
  405ec4:	48 8b 45 d8          	mov    -0x28(%rbp),%rax
  405ec8:	48 89 c7             	mov    %rax,%rdi
  405ecb:	e8 b0 10 00 00       	callq  406f80 <_ZNSt8_Rb_treeINSt7__cxx1112basic_stringIcSt11char_traitsIcESaIcEEESt4pairIKS5_S5_ESt10_Select1stIS8_ESt4lessIS5_ESaIS8_EE12_M_rightmostEv>
  405ed0:	48 89 c3             	mov    %rax,%rbx
  405ed3:	48 8b 45 d8          	mov    -0x28(%rbp),%rax
  405ed7:	48 89 c7             	mov    %rax,%rdi
  405eda:	e8 ed 0f 00 00       	callq  406ecc <_ZNSt8_Rb_treeINSt7__cxx1112basic_stringIcSt11char_traitsIcESaIcEEESt4pairIKS5_S5_ESt10_Select1stIS8_ESt4lessIS5_ESaIS8_EE7_M_rootEv>
  405edf:	48 8b 00             	mov    (%rax),%rax
  405ee2:	48 89 c7             	mov    %rax,%rdi
  405ee5:	e8 a8 10 00 00       	callq  406f92 <_ZNSt8_Rb_treeINSt7__cxx1112basic_stringIcSt11char_traitsIcESaIcEEESt4pairIKS5_S5_ESt10_Select1stIS8_ESt4lessIS5_ESaIS8_EE10_S_maximumEPSt18_Rb_tree_node_base>
  405eea:	48 89 03             	mov    %rax,(%rbx)
  405eed:	48 8b 45 d0          	mov    -0x30(%rbp),%rax
  405ef1:	48 8b 50 28          	mov    0x28(%rax),%rdx
  405ef5:	48 8b 45 d8          	mov    -0x28(%rbp),%rax
  405ef9:	48 89 50 28          	mov    %rdx,0x28(%rax)
  405efd:	eb 34                	jmp    405f33 <_ZNSt8_Rb_treeINSt7__cxx1112basic_stringIcSt11char_traitsIcESaIcEEESt4pairIKS5_S5_ESt10_Select1stIS8_ESt4lessIS5_ESaIS8_EEC1ERKSE_+0x157>
  405eff:	48 89 c3             	mov    %rax,%rbx
  405f02:	48 8d 45 e7          	lea    -0x19(%rbp),%rax
  405f06:	48 89 c7             	mov    %rax,%rdi
  405f09:	e8 62 f6 ff ff       	callq  405570 <_ZNSaISt13_Rb_tree_nodeISt4pairIKNSt7__cxx1112basic_stringIcSt11char_traitsIcESaIcEEES6_EEED1Ev>
  405f0e:	48 89 d8             	mov    %rbx,%rax
  405f11:	48 89 c7             	mov    %rax,%rdi
  405f14:	e8 d7 d1 ff ff       	callq  4030f0 <_Unwind_Resume@plt>
  405f19:	48 89 c3             	mov    %rax,%rbx
  405f1c:	48 8b 45 d8          	mov    -0x28(%rbp),%rax
  405f20:	48 89 c7             	mov    %rax,%rdi
  405f23:	e8 6c ef ff ff       	callq  404e94 <_ZNSt8_Rb_treeINSt7__cxx1112basic_stringIcSt11char_traitsIcESaIcEEESt4pairIKS5_S5_ESt10_Select1stIS8_ESt4lessIS5_ESaIS8_EE13_Rb_tree_implISC_Lb1EED1Ev>
  405f28:	48 89 d8             	mov    %rbx,%rax
  405f2b:	48 89 c7             	mov    %rax,%rdi
  405f2e:	e8 bd d1 ff ff       	callq  4030f0 <_Unwind_Resume@plt>
  405f33:	90                   	nop
  405f34:	48 8b 45 e8          	mov    -0x18(%rbp),%rax
  405f38:	64 48 33 04 25 28 00 	xor    %fs:0x28,%rax
  405f3f:	00 00 
  405f41:	74 05                	je     405f48 <_ZNSt8_Rb_treeINSt7__cxx1112basic_stringIcSt11char_traitsIcESaIcEEESt4pairIKS5_S5_ESt10_Select1stIS8_ESt4lessIS5_ESaIS8_EEC1ERKSE_+0x16c>
  405f43:	e8 f8 cf ff ff       	callq  402f40 <__stack_chk_fail@plt>
  405f48:	48 83 c4 20          	add    $0x20,%rsp
  405f4c:	5b                   	pop    %rbx
  405f4d:	41 5c                	pop    %r12
  405f4f:	5d                   	pop    %rbp
  405f50:	c3                   	retq   
  405f51:	90                   	nop

0000000000405f52 <_ZNSt8_Rb_treeINSt7__cxx1112basic_stringIcSt11char_traitsIcESaIcEEESt4pairIKS5_S5_ESt10_Select1stIS8_ESt4lessIS5_ESaIS8_EE13_Rb_tree_implISC_Lb1EEC1Ev>:
  405f52:	55                   	push   %rbp
  405f53:	48 89 e5             	mov    %rsp,%rbp
  405f56:	48 83 ec 10          	sub    $0x10,%rsp
  405f5a:	48 89 7d f8          	mov    %rdi,-0x8(%rbp)
  405f5e:	48 8b 45 f8          	mov    -0x8(%rbp),%rax
  405f62:	48 89 c7             	mov    %rax,%rdi
  405f65:	e8 42 10 00 00       	callq  406fac <_ZNSaISt13_Rb_tree_nodeISt4pairIKNSt7__cxx1112basic_stringIcSt11char_traitsIcESaIcEEES6_EEEC1Ev>
  405f6a:	48 8b 45 f8          	mov    -0x8(%rbp),%rax
  405f6e:	c7 40 08 00 00 00 00 	movl   $0x0,0x8(%rax)
  405f75:	48 8b 45 f8          	mov    -0x8(%rbp),%rax
  405f79:	48 c7 40 10 00 00 00 	movq   $0x0,0x10(%rax)
  405f80:	00 
  405f81:	48 8b 45 f8          	mov    -0x8(%rbp),%rax
  405f85:	48 c7 40 18 00 00 00 	movq   $0x0,0x18(%rax)
  405f8c:	00 
  405f8d:	48 8b 45 f8          	mov    -0x8(%rbp),%rax
  405f91:	48 c7 40 20 00 00 00 	movq   $0x0,0x20(%rax)
  405f98:	00 
  405f99:	48 8b 45 f8          	mov    -0x8(%rbp),%rax
  405f9d:	48 c7 40 28 00 00 00 	movq   $0x0,0x28(%rax)
  405fa4:	00 
  405fa5:	48 8b 45 f8          	mov    -0x8(%rbp),%rax
  405fa9:	48 89 c7             	mov    %rax,%rdi
  405fac:	e8 17 10 00 00       	callq  406fc8 <_ZNSt8_Rb_treeINSt7__cxx1112basic_stringIcSt11char_traitsIcESaIcEEESt4pairIKS5_S5_ESt10_Select1stIS8_ESt4lessIS5_ESaIS8_EE13_Rb_tree_implISC_Lb1EE13_M_initializeEv>
  405fb1:	90                   	nop
  405fb2:	c9                   	leaveq 
  405fb3:	c3                   	retq   

0000000000405fb4 <_ZN9__gnu_cxx13new_allocatorISt13_Rb_tree_nodeISt4pairIKNSt7__cxx1112basic_stringIcSt11char_traitsIcESaIcEEES8_EEED1Ev>:
  405fb4:	55                   	push   %rbp
  405fb5:	48 89 e5             	mov    %rsp,%rbp
  405fb8:	48 89 7d f8          	mov    %rdi,-0x8(%rbp)
  405fbc:	90                   	nop
  405fbd:	5d                   	pop    %rbp
  405fbe:	c3                   	retq   

0000000000405fbf <_ZNSt8_Rb_treeINSt7__cxx1112basic_stringIcSt11char_traitsIcESaIcEEESt4pairIKS5_S5_ESt10_Select1stIS8_ESt4lessIS5_ESaIS8_EE8_S_rightEPSt18_Rb_tree_node_base>:
  405fbf:	55                   	push   %rbp
  405fc0:	48 89 e5             	mov    %rsp,%rbp
  405fc3:	48 89 7d f8          	mov    %rdi,-0x8(%rbp)
  405fc7:	48 8b 45 f8          	mov    -0x8(%rbp),%rax
  405fcb:	48 8b 40 18          	mov    0x18(%rax),%rax
  405fcf:	5d                   	pop    %rbp
  405fd0:	c3                   	retq   

0000000000405fd1 <_ZNSt8_Rb_treeINSt7__cxx1112basic_stringIcSt11char_traitsIcESaIcEEESt4pairIKS5_S5_ESt10_Select1stIS8_ESt4lessIS5_ESaIS8_EE7_S_leftEPSt18_Rb_tree_node_base>:
  405fd1:	55                   	push   %rbp
  405fd2:	48 89 e5             	mov    %rsp,%rbp
  405fd5:	48 89 7d f8          	mov    %rdi,-0x8(%rbp)
  405fd9:	48 8b 45 f8          	mov    -0x8(%rbp),%rax
  405fdd:	48 8b 40 10          	mov    0x10(%rax),%rax
  405fe1:	5d                   	pop    %rbp
  405fe2:	c3                   	retq   
  405fe3:	90                   	nop

0000000000405fe4 <_ZNSt8_Rb_treeINSt7__cxx1112basic_stringIcSt11char_traitsIcESaIcEEESt4pairIKS5_S5_ESt10_Select1stIS8_ESt4lessIS5_ESaIS8_EE12_M_drop_nodeEPSt13_Rb_tree_nodeIS8_E>:
  405fe4:	55                   	push   %rbp
  405fe5:	48 89 e5             	mov    %rsp,%rbp
  405fe8:	48 83 ec 10          	sub    $0x10,%rsp
  405fec:	48 89 7d f8          	mov    %rdi,-0x8(%rbp)
  405ff0:	48 89 75 f0          	mov    %rsi,-0x10(%rbp)
  405ff4:	48 8b 55 f0          	mov    -0x10(%rbp),%rdx
  405ff8:	48 8b 45 f8          	mov    -0x8(%rbp),%rax
  405ffc:	48 89 d6             	mov    %rdx,%rsi
  405fff:	48 89 c7             	mov    %rax,%rdi
  406002:	e8 03 10 00 00       	callq  40700a <_ZNSt8_Rb_treeINSt7__cxx1112basic_stringIcSt11char_traitsIcESaIcEEESt4pairIKS5_S5_ESt10_Select1stIS8_ESt4lessIS5_ESaIS8_EE15_M_destroy_nodeEPSt13_Rb_tree_nodeIS8_E>
  406007:	48 8b 55 f0          	mov    -0x10(%rbp),%rdx
  40600b:	48 8b 45 f8          	mov    -0x8(%rbp),%rax
  40600f:	48 89 d6             	mov    %rdx,%rsi
  406012:	48 89 c7             	mov    %rax,%rdi
  406015:	e8 30 10 00 00       	callq  40704a <_ZNSt8_Rb_treeINSt7__cxx1112basic_stringIcSt11char_traitsIcESaIcEEESt4pairIKS5_S5_ESt10_Select1stIS8_ESt4lessIS5_ESaIS8_EE11_M_put_nodeEPSt13_Rb_tree_nodeIS8_E>
  40601a:	90                   	nop
  40601b:	c9                   	leaveq 
  40601c:	c3                   	retq   
  40601d:	90                   	nop

000000000040601e <_ZNSt12_Vector_baseIhSaIhEE12_Vector_implC1Ev>:
  40601e:	55                   	push   %rbp
  40601f:	48 89 e5             	mov    %rsp,%rbp
  406022:	48 83 ec 10          	sub    $0x10,%rsp
  406026:	48 89 7d f8          	mov    %rdi,-0x8(%rbp)
  40602a:	48 8b 45 f8          	mov    -0x8(%rbp),%rax
  40602e:	48 89 c7             	mov    %rax,%rdi
  406031:	e8 4a 10 00 00       	callq  407080 <_ZNSaIhEC1Ev>
  406036:	48 8b 45 f8          	mov    -0x8(%rbp),%rax
  40603a:	48 c7 00 00 00 00 00 	movq   $0x0,(%rax)
  406041:	48 8b 45 f8          	mov    -0x8(%rbp),%rax
  406045:	48 c7 40 08 00 00 00 	movq   $0x0,0x8(%rax)
  40604c:	00 
  40604d:	48 8b 45 f8          	mov    -0x8(%rbp),%rax
  406051:	48 c7 40 10 00 00 00 	movq   $0x0,0x10(%rax)
  406058:	00 
  406059:	90                   	nop
  40605a:	c9                   	leaveq 
  40605b:	c3                   	retq   

000000000040605c <_ZNSaIhED1Ev>:
  40605c:	55                   	push   %rbp
  40605d:	48 89 e5             	mov    %rsp,%rbp
  406060:	48 83 ec 10          	sub    $0x10,%rsp
  406064:	48 89 7d f8          	mov    %rdi,-0x8(%rbp)
  406068:	48 8b 45 f8          	mov    -0x8(%rbp),%rax
  40606c:	48 89 c7             	mov    %rax,%rdi
  40606f:	e8 28 10 00 00       	callq  40709c <_ZN9__gnu_cxx13new_allocatorIhED1Ev>
  406074:	90                   	nop
  406075:	c9                   	leaveq 
  406076:	c3                   	retq   
  406077:	90                   	nop

0000000000406078 <_ZNSt12_Vector_baseIhSaIhEE13_M_deallocateEPhm>:
  406078:	55                   	push   %rbp
  406079:	48 89 e5             	mov    %rsp,%rbp
  40607c:	48 83 ec 20          	sub    $0x20,%rsp
  406080:	48 89 7d f8          	mov    %rdi,-0x8(%rbp)
  406084:	48 89 75 f0          	mov    %rsi,-0x10(%rbp)
  406088:	48 89 55 e8          	mov    %rdx,-0x18(%rbp)
  40608c:	48 83 7d f0 00       	cmpq   $0x0,-0x10(%rbp)
  406091:	74 17                	je     4060aa <_ZNSt12_Vector_baseIhSaIhEE13_M_deallocateEPhm+0x32>
  406093:	48 8b 45 f8          	mov    -0x8(%rbp),%rax
  406097:	48 8b 55 e8          	mov    -0x18(%rbp),%rdx
  40609b:	48 8b 4d f0          	mov    -0x10(%rbp),%rcx
  40609f:	48 89 ce             	mov    %rcx,%rsi
  4060a2:	48 89 c7             	mov    %rax,%rdi
  4060a5:	e8 fd 0f 00 00       	callq  4070a7 <_ZNSt16allocator_traitsISaIhEE10deallocateERS0_Phm>
  4060aa:	90                   	nop
  4060ab:	c9                   	leaveq 
  4060ac:	c3                   	retq   

00000000004060ad <_ZSt8_DestroyIPhEvT_S1_>:
  4060ad:	55                   	push   %rbp
  4060ae:	48 89 e5             	mov    %rsp,%rbp
  4060b1:	48 83 ec 10          	sub    $0x10,%rsp
  4060b5:	48 89 7d f8          	mov    %rdi,-0x8(%rbp)
  4060b9:	48 89 75 f0          	mov    %rsi,-0x10(%rbp)
  4060bd:	48 8b 55 f0          	mov    -0x10(%rbp),%rdx
  4060c1:	48 8b 45 f8          	mov    -0x8(%rbp),%rax
  4060c5:	48 89 d6             	mov    %rdx,%rsi
  4060c8:	48 89 c7             	mov    %rax,%rdi
  4060cb:	e8 05 10 00 00       	callq  4070d5 <_ZNSt12_Destroy_auxILb1EE9__destroyIPhEEvT_S3_>
  4060d0:	90                   	nop
  4060d1:	c9                   	leaveq 
  4060d2:	c3                   	retq   
  4060d3:	90                   	nop

00000000004060d4 <_ZNSt8_Rb_treeINSt7__cxx1112basic_stringIcSt11char_traitsIcESaIcEEESt4pairIKS5_S5_ESt10_Select1stIS8_ESt4lessIS5_ESaIS8_EE11lower_boundERS7_>:
  4060d4:	55                   	push   %rbp
  4060d5:	48 89 e5             	mov    %rsp,%rbp
  4060d8:	53                   	push   %rbx
  4060d9:	48 83 ec 18          	sub    $0x18,%rsp
  4060dd:	48 89 7d e8          	mov    %rdi,-0x18(%rbp)
  4060e1:	48 89 75 e0          	mov    %rsi,-0x20(%rbp)
  4060e5:	48 8b 45 e8          	mov    -0x18(%rbp),%rax
  4060e9:	48 89 c7             	mov    %rax,%rdi
  4060ec:	e8 67 08 00 00       	callq  406958 <_ZNSt8_Rb_treeINSt7__cxx1112basic_stringIcSt11char_traitsIcESaIcEEESt4pairIKS5_S5_ESt10_Select1stIS8_ESt4lessIS5_ESaIS8_EE6_M_endEv>
  4060f1:	48 89 c3             	mov    %rax,%rbx
  4060f4:	48 8b 45 e8          	mov    -0x18(%rbp),%rax
  4060f8:	48 89 c7             	mov    %rax,%rdi
  4060fb:	e8 f2 f4 ff ff       	callq  4055f2 <_ZNSt8_Rb_treeINSt7__cxx1112basic_stringIcSt11char_traitsIcESaIcEEESt4pairIKS5_S5_ESt10_Select1stIS8_ESt4lessIS5_ESaIS8_EE8_M_beginEv>
  406100:	48 89 c6             	mov    %rax,%rsi
  406103:	48 8b 55 e0          	mov    -0x20(%rbp),%rdx
  406107:	48 8b 45 e8          	mov    -0x18(%rbp),%rax
  40610b:	48 89 d1             	mov    %rdx,%rcx
  40610e:	48 89 da             	mov    %rbx,%rdx
  406111:	48 89 c7             	mov    %rax,%rdi
  406114:	e8 51 08 00 00       	callq  40696a <_ZNSt8_Rb_treeINSt7__cxx1112basic_stringIcSt11char_traitsIcESaIcEEESt4pairIKS5_S5_ESt10_Select1stIS8_ESt4lessIS5_ESaIS8_EE14_M_lower_boundEPSt13_Rb_tree_nodeIS8_EPSt18_Rb_tree_node_baseRS7_>
  406119:	48 83 c4 18          	add    $0x18,%rsp
  40611d:	5b                   	pop    %rbx
  40611e:	5d                   	pop    %rbp
  40611f:	c3                   	retq   

0000000000406120 <_ZNKSt8_Rb_treeINSt7__cxx1112basic_stringIcSt11char_traitsIcESaIcEEESt4pairIKS5_S5_ESt10_Select1stIS8_ESt4lessIS5_ESaIS8_EE8key_compEv>:
  406120:	55                   	push   %rbp
  406121:	48 89 e5             	mov    %rsp,%rbp
  406124:	48 89 7d f8          	mov    %rdi,-0x8(%rbp)
  406128:	5d                   	pop    %rbp
  406129:	c3                   	retq   

000000000040612a <_ZNSt8_Rb_treeINSt7__cxx1112basic_stringIcSt11char_traitsIcESaIcEEESt4pairIKS5_S5_ESt10_Select1stIS8_ESt4lessIS5_ESaIS8_EE14_M_create_nodeIJRKSt21piecewise_construct_tSt5tupleIJOS5_EESJ_IJEEEEEPSt13_Rb_tree_nodeIS8_EDpOT_>:
  40612a:	55                   	push   %rbp
  40612b:	48 89 e5             	mov    %rsp,%rbp
  40612e:	41 54                	push   %r12
  406130:	53                   	push   %rbx
  406131:	48 83 ec 30          	sub    $0x30,%rsp
  406135:	48 89 7d d8          	mov    %rdi,-0x28(%rbp)
  406139:	48 89 75 d0          	mov    %rsi,-0x30(%rbp)
  40613d:	48 89 55 c8          	mov    %rdx,-0x38(%rbp)
  406141:	48 89 4d c0          	mov    %rcx,-0x40(%rbp)
  406145:	48 8b 45 d8          	mov    -0x28(%rbp),%rax
  406149:	48 89 c7             	mov    %rax,%rdi
  40614c:	e8 93 0f 00 00       	callq  4070e4 <_ZNSt8_Rb_treeINSt7__cxx1112basic_stringIcSt11char_traitsIcESaIcEEESt4pairIKS5_S5_ESt10_Select1stIS8_ESt4lessIS5_ESaIS8_EE11_M_get_nodeEv>
  406151:	48 89 45 e8          	mov    %rax,-0x18(%rbp)
  406155:	48 8b 45 c0          	mov    -0x40(%rbp),%rax
  406159:	48 89 c7             	mov    %rax,%rdi
  40615c:	e8 26 f6 ff ff       	callq  405787 <_ZSt7forwardISt5tupleIJEEEOT_RNSt16remove_referenceIS2_E4typeE>
  406161:	49 89 c4             	mov    %rax,%r12
  406164:	48 8b 45 c8          	mov    -0x38(%rbp),%rax
  406168:	48 89 c7             	mov    %rax,%rdi
  40616b:	e8 09 f6 ff ff       	callq  405779 <_ZSt7forwardISt5tupleIJONSt7__cxx1112basic_stringIcSt11char_traitsIcESaIcEEEEEEOT_RNSt16remove_referenceIS9_E4typeE>
  406170:	48 89 c3             	mov    %rax,%rbx
  406173:	48 8b 45 d0          	mov    -0x30(%rbp),%rax
  406177:	48 89 c7             	mov    %rax,%rdi
  40617a:	e8 ec f5 ff ff       	callq  40576b <_ZSt7forwardIRKSt21piecewise_construct_tEOT_RNSt16remove_referenceIS3_E4typeE>
  40617f:	48 89 c2             	mov    %rax,%rdx
  406182:	48 8b 75 e8          	mov    -0x18(%rbp),%rsi
  406186:	48 8b 45 d8          	mov    -0x28(%rbp),%rax
  40618a:	4d 89 e0             	mov    %r12,%r8
  40618d:	48 89 d9             	mov    %rbx,%rcx
  406190:	48 89 c7             	mov    %rax,%rdi
  406193:	e8 b8 0f 00 00       	callq  407150 <_ZNSt8_Rb_treeINSt7__cxx1112basic_stringIcSt11char_traitsIcESaIcEEESt4pairIKS5_S5_ESt10_Select1stIS8_ESt4lessIS5_ESaIS8_EE17_M_construct_nodeIJRKSt21piecewise_construct_tSt5tupleIJOS5_EESJ_IJEEEEEvPSt13_Rb_tree_nodeIS8_EDpOT_>
  406198:	48 8b 45 e8          	mov    -0x18(%rbp),%rax
  40619c:	48 83 c4 30          	add    $0x30,%rsp
  4061a0:	5b                   	pop    %rbx
  4061a1:	41 5c                	pop    %r12
  4061a3:	5d                   	pop    %rbp
  4061a4:	c3                   	retq   

00000000004061a5 <_ZSt7forwardIRPSt18_Rb_tree_node_baseEOT_RNSt16remove_referenceIS3_E4typeE>:
  4061a5:	55                   	push   %rbp
  4061a6:	48 89 e5             	mov    %rsp,%rbp
  4061a9:	48 89 7d f8          	mov    %rdi,-0x8(%rbp)
  4061ad:	48 8b 45 f8          	mov    -0x8(%rbp),%rax
  4061b1:	5d                   	pop    %rbp
  4061b2:	c3                   	retq   
  4061b3:	90                   	nop

00000000004061b4 <_ZNSt4pairIPSt18_Rb_tree_node_baseS1_EC1IRS1_Lb1EEERKS1_OT_>:
  4061b4:	55                   	push   %rbp
  4061b5:	48 89 e5             	mov    %rsp,%rbp
  4061b8:	48 83 ec 20          	sub    $0x20,%rsp
  4061bc:	48 89 7d f8          	mov    %rdi,-0x8(%rbp)
  4061c0:	48 89 75 f0          	mov    %rsi,-0x10(%rbp)
  4061c4:	48 89 55 e8          	mov    %rdx,-0x18(%rbp)
  4061c8:	48 8b 45 f0          	mov    -0x10(%rbp),%rax
  4061cc:	48 8b 10             	mov    (%rax),%rdx
  4061cf:	48 8b 45 f8          	mov    -0x8(%rbp),%rax
  4061d3:	48 89 10             	mov    %rdx,(%rax)
  4061d6:	48 8b 45 e8          	mov    -0x18(%rbp),%rax
  4061da:	48 89 c7             	mov    %rax,%rdi
  4061dd:	e8 c3 ff ff ff       	callq  4061a5 <_ZSt7forwardIRPSt18_Rb_tree_node_baseEOT_RNSt16remove_referenceIS3_E4typeE>
  4061e2:	48 8b 10             	mov    (%rax),%rdx
  4061e5:	48 8b 45 f8          	mov    -0x8(%rbp),%rax
  4061e9:	48 89 50 08          	mov    %rdx,0x8(%rax)
  4061ed:	90                   	nop
  4061ee:	c9                   	leaveq 
  4061ef:	c3                   	retq   

00000000004061f0 <_ZNSt4pairIPSt18_Rb_tree_node_baseS1_EC1IRS1_S4_Lb1EEEOT_OT0_>:
  4061f0:	55                   	push   %rbp
  4061f1:	48 89 e5             	mov    %rsp,%rbp
  4061f4:	48 83 ec 20          	sub    $0x20,%rsp
  4061f8:	48 89 7d f8          	mov    %rdi,-0x8(%rbp)
  4061fc:	48 89 75 f0          	mov    %rsi,-0x10(%rbp)
  406200:	48 89 55 e8          	mov    %rdx,-0x18(%rbp)
  406204:	48 8b 45 f0          	mov    -0x10(%rbp),%rax
  406208:	48 89 c7             	mov    %rax,%rdi
  40620b:	e8 95 ff ff ff       	callq  4061a5 <_ZSt7forwardIRPSt18_Rb_tree_node_baseEOT_RNSt16remove_referenceIS3_E4typeE>
  406210:	48 8b 10             	mov    (%rax),%rdx
  406213:	48 8b 45 f8          	mov    -0x8(%rbp),%rax
  406217:	48 89 10             	mov    %rdx,(%rax)
  40621a:	48 8b 45 e8          	mov    -0x18(%rbp),%rax
  40621e:	48 89 c7             	mov    %rax,%rdi
  406221:	e8 7f ff ff ff       	callq  4061a5 <_ZSt7forwardIRPSt18_Rb_tree_node_baseEOT_RNSt16remove_referenceIS3_E4typeE>
  406226:	48 8b 10             	mov    (%rax),%rdx
  406229:	48 8b 45 f8          	mov    -0x8(%rbp),%rax
  40622d:	48 89 50 08          	mov    %rdx,0x8(%rax)
  406231:	90                   	nop
  406232:	c9                   	leaveq 
  406233:	c3                   	retq   

0000000000406234 <_ZNSt4pairIPSt18_Rb_tree_node_baseS1_EC1IRS1_Lb1EEEOT_RKS1_>:
  406234:	55                   	push   %rbp
  406235:	48 89 e5             	mov    %rsp,%rbp
  406238:	48 83 ec 20          	sub    $0x20,%rsp
  40623c:	48 89 7d f8          	mov    %rdi,-0x8(%rbp)
  406240:	48 89 75 f0          	mov    %rsi,-0x10(%rbp)
  406244:	48 89 55 e8          	mov    %rdx,-0x18(%rbp)
  406248:	48 8b 45 f0          	mov    -0x10(%rbp),%rax
  40624c:	48 89 c7             	mov    %rax,%rdi
  40624f:	e8 51 ff ff ff       	callq  4061a5 <_ZSt7forwardIRPSt18_Rb_tree_node_baseEOT_RNSt16remove_referenceIS3_E4typeE>
  406254:	48 8b 10             	mov    (%rax),%rdx
  406257:	48 8b 45 f8          	mov    -0x8(%rbp),%rax
  40625b:	48 89 10             	mov    %rdx,(%rax)
  40625e:	48 8b 45 e8          	mov    -0x18(%rbp),%rax
  406262:	48 8b 10             	mov    (%rax),%rdx
  406265:	48 8b 45 f8          	mov    -0x8(%rbp),%rax
  406269:	48 89 50 08          	mov    %rdx,0x8(%rax)
  40626d:	90                   	nop
  40626e:	c9                   	leaveq 
  40626f:	c3                   	retq   

0000000000406270 <_ZNSt8_Rb_treeINSt7__cxx1112basic_stringIcSt11char_traitsIcESaIcEEESt4pairIKS5_S5_ESt10_Select1stIS8_ESt4lessIS5_ESaIS8_EE29_M_get_insert_hint_unique_posESt23_Rb_tree_const_iteratorIS8_ERS7_>:
  406270:	55                   	push   %rbp
  406271:	48 89 e5             	mov    %rsp,%rbp
  406274:	53                   	push   %rbx
  406275:	48 83 ec 68          	sub    $0x68,%rsp
  406279:	48 89 7d a8          	mov    %rdi,-0x58(%rbp)
  40627d:	48 89 75 a0          	mov    %rsi,-0x60(%rbp)
  406281:	48 89 55 98          	mov    %rdx,-0x68(%rbp)
  406285:	64 48 8b 04 25 28 00 	mov    %fs:0x28,%rax
  40628c:	00 00 
  40628e:	48 89 45 e8          	mov    %rax,-0x18(%rbp)
  406292:	31 c0                	xor    %eax,%eax
  406294:	48 8d 45 a0          	lea    -0x60(%rbp),%rax
  406298:	48 89 c7             	mov    %rax,%rdi
  40629b:	e8 90 0f 00 00       	callq  407230 <_ZNKSt23_Rb_tree_const_iteratorISt4pairIKNSt7__cxx1112basic_stringIcSt11char_traitsIcESaIcEEES6_EE13_M_const_castEv>
  4062a0:	48 89 45 b8          	mov    %rax,-0x48(%rbp)
  4062a4:	48 8b 5d b8          	mov    -0x48(%rbp),%rbx
  4062a8:	48 8b 45 a8          	mov    -0x58(%rbp),%rax
  4062ac:	48 89 c7             	mov    %rax,%rdi
  4062af:	e8 a4 06 00 00       	callq  406958 <_ZNSt8_Rb_treeINSt7__cxx1112basic_stringIcSt11char_traitsIcESaIcEEESt4pairIKS5_S5_ESt10_Select1stIS8_ESt4lessIS5_ESaIS8_EE6_M_endEv>
  4062b4:	48 39 c3             	cmp    %rax,%rbx
  4062b7:	0f 94 c0             	sete   %al
  4062ba:	84 c0                	test   %al,%al
  4062bc:	0f 84 a1 00 00 00    	je     406363 <_ZNSt8_Rb_treeINSt7__cxx1112basic_stringIcSt11char_traitsIcESaIcEEESt4pairIKS5_S5_ESt10_Select1stIS8_ESt4lessIS5_ESaIS8_EE29_M_get_insert_hint_unique_posESt23_Rb_tree_const_iteratorIS8_ERS7_+0xf3>
  4062c2:	48 8b 45 a8          	mov    -0x58(%rbp),%rax
  4062c6:	48 89 c7             	mov    %rax,%rdi
  4062c9:	e8 ae 0f 00 00       	callq  40727c <_ZNKSt8_Rb_treeINSt7__cxx1112basic_stringIcSt11char_traitsIcESaIcEEESt4pairIKS5_S5_ESt10_Select1stIS8_ESt4lessIS5_ESaIS8_EE4sizeEv>
  4062ce:	48 85 c0             	test   %rax,%rax
  4062d1:	74 38                	je     40630b <_ZNSt8_Rb_treeINSt7__cxx1112basic_stringIcSt11char_traitsIcESaIcEEESt4pairIKS5_S5_ESt10_Select1stIS8_ESt4lessIS5_ESaIS8_EE29_M_get_insert_hint_unique_posESt23_Rb_tree_const_iteratorIS8_ERS7_+0x9b>
  4062d3:	48 8b 45 a8          	mov    -0x58(%rbp),%rax
  4062d7:	48 89 c7             	mov    %rax,%rdi
  4062da:	e8 a1 0c 00 00       	callq  406f80 <_ZNSt8_Rb_treeINSt7__cxx1112basic_stringIcSt11char_traitsIcESaIcEEESt4pairIKS5_S5_ESt10_Select1stIS8_ESt4lessIS5_ESaIS8_EE12_M_rightmostEv>
  4062df:	48 8b 00             	mov    (%rax),%rax
  4062e2:	48 89 c7             	mov    %rax,%rdi
  4062e5:	e8 30 07 00 00       	callq  406a1a <_ZNSt8_Rb_treeINSt7__cxx1112basic_stringIcSt11char_traitsIcESaIcEEESt4pairIKS5_S5_ESt10_Select1stIS8_ESt4lessIS5_ESaIS8_EE6_S_keyEPKSt18_Rb_tree_node_base>
  4062ea:	48 89 c1             	mov    %rax,%rcx
  4062ed:	48 8b 45 a8          	mov    -0x58(%rbp),%rax
  4062f1:	48 8b 55 98          	mov    -0x68(%rbp),%rdx
  4062f5:	48 89 ce             	mov    %rcx,%rsi
  4062f8:	48 89 c7             	mov    %rax,%rdi
  4062fb:	e8 4a ec ff ff       	callq  404f4a <_ZNKSt4lessINSt7__cxx1112basic_stringIcSt11char_traitsIcESaIcEEEEclERKS5_S8_>
  406300:	84 c0                	test   %al,%al
  406302:	74 07                	je     40630b <_ZNSt8_Rb_treeINSt7__cxx1112basic_stringIcSt11char_traitsIcESaIcEEESt4pairIKS5_S5_ESt10_Select1stIS8_ESt4lessIS5_ESaIS8_EE29_M_get_insert_hint_unique_posESt23_Rb_tree_const_iteratorIS8_ERS7_+0x9b>
  406304:	b8 01 00 00 00       	mov    $0x1,%eax
  406309:	eb 05                	jmp    406310 <_ZNSt8_Rb_treeINSt7__cxx1112basic_stringIcSt11char_traitsIcESaIcEEESt4pairIKS5_S5_ESt10_Select1stIS8_ESt4lessIS5_ESaIS8_EE29_M_get_insert_hint_unique_posESt23_Rb_tree_const_iteratorIS8_ERS7_+0xa0>
  40630b:	b8 00 00 00 00       	mov    $0x0,%eax
  406310:	84 c0                	test   %al,%al
  406312:	74 37                	je     40634b <_ZNSt8_Rb_treeINSt7__cxx1112basic_stringIcSt11char_traitsIcESaIcEEESt4pairIKS5_S5_ESt10_Select1stIS8_ESt4lessIS5_ESaIS8_EE29_M_get_insert_hint_unique_posESt23_Rb_tree_const_iteratorIS8_ERS7_+0xdb>
  406314:	48 8b 45 a8          	mov    -0x58(%rbp),%rax
  406318:	48 89 c7             	mov    %rax,%rdi
  40631b:	e8 60 0c 00 00       	callq  406f80 <_ZNSt8_Rb_treeINSt7__cxx1112basic_stringIcSt11char_traitsIcESaIcEEESt4pairIKS5_S5_ESt10_Select1stIS8_ESt4lessIS5_ESaIS8_EE12_M_rightmostEv>
  406320:	48 89 c2             	mov    %rax,%rdx
  406323:	48 c7 45 c8 00 00 00 	movq   $0x0,-0x38(%rbp)
  40632a:	00 
  40632b:	48 8d 4d c8          	lea    -0x38(%rbp),%rcx
  40632f:	48 8d 45 d0          	lea    -0x30(%rbp),%rax
  406333:	48 89 ce             	mov    %rcx,%rsi
  406336:	48 89 c7             	mov    %rax,%rdi
  406339:	e8 76 fe ff ff       	callq  4061b4 <_ZNSt4pairIPSt18_Rb_tree_node_baseS1_EC1IRS1_Lb1EEERKS1_OT_>
  40633e:	48 8b 45 d0          	mov    -0x30(%rbp),%rax
  406342:	48 8b 55 d8          	mov    -0x28(%rbp),%rdx
  406346:	e9 a6 02 00 00       	jmpq   4065f1 <_ZNSt8_Rb_treeINSt7__cxx1112basic_stringIcSt11char_traitsIcESaIcEEESt4pairIKS5_S5_ESt10_Select1stIS8_ESt4lessIS5_ESaIS8_EE29_M_get_insert_hint_unique_posESt23_Rb_tree_const_iteratorIS8_ERS7_+0x381>
  40634b:	48 8b 55 98          	mov    -0x68(%rbp),%rdx
  40634f:	48 8b 45 a8          	mov    -0x58(%rbp),%rax
  406353:	48 89 d6             	mov    %rdx,%rsi
  406356:	48 89 c7             	mov    %rax,%rdi
  406359:	e8 78 07 00 00       	callq  406ad6 <_ZNSt8_Rb_treeINSt7__cxx1112basic_stringIcSt11char_traitsIcESaIcEEESt4pairIKS5_S5_ESt10_Select1stIS8_ESt4lessIS5_ESaIS8_EE24_M_get_insert_unique_posERS7_>
  40635e:	e9 8e 02 00 00       	jmpq   4065f1 <_ZNSt8_Rb_treeINSt7__cxx1112basic_stringIcSt11char_traitsIcESaIcEEESt4pairIKS5_S5_ESt10_Select1stIS8_ESt4lessIS5_ESaIS8_EE29_M_get_insert_hint_unique_posESt23_Rb_tree_const_iteratorIS8_ERS7_+0x381>
  406363:	48 8b 45 b8          	mov    -0x48(%rbp),%rax
  406367:	48 89 c7             	mov    %rax,%rdi
  40636a:	e8 ab 06 00 00       	callq  406a1a <_ZNSt8_Rb_treeINSt7__cxx1112basic_stringIcSt11char_traitsIcESaIcEEESt4pairIKS5_S5_ESt10_Select1stIS8_ESt4lessIS5_ESaIS8_EE6_S_keyEPKSt18_Rb_tree_node_base>
  40636f:	48 89 c2             	mov    %rax,%rdx
  406372:	48 8b 45 a8          	mov    -0x58(%rbp),%rax
  406376:	48 8b 4d 98          	mov    -0x68(%rbp),%rcx
  40637a:	48 89 ce             	mov    %rcx,%rsi
  40637d:	48 89 c7             	mov    %rax,%rdi
  406380:	e8 c5 eb ff ff       	callq  404f4a <_ZNKSt4lessINSt7__cxx1112basic_stringIcSt11char_traitsIcESaIcEEEEclERKS5_S8_>
  406385:	84 c0                	test   %al,%al
  406387:	0f 84 11 01 00 00    	je     40649e <_ZNSt8_Rb_treeINSt7__cxx1112basic_stringIcSt11char_traitsIcESaIcEEESt4pairIKS5_S5_ESt10_Select1stIS8_ESt4lessIS5_ESaIS8_EE29_M_get_insert_hint_unique_posESt23_Rb_tree_const_iteratorIS8_ERS7_+0x22e>
  40638d:	48 8b 45 b8          	mov    -0x48(%rbp),%rax
  406391:	48 89 45 c0          	mov    %rax,-0x40(%rbp)
  406395:	48 8b 5d b8          	mov    -0x48(%rbp),%rbx
  406399:	48 8b 45 a8          	mov    -0x58(%rbp),%rax
  40639d:	48 89 c7             	mov    %rax,%rdi
  4063a0:	e8 af 0b 00 00       	callq  406f54 <_ZNSt8_Rb_treeINSt7__cxx1112basic_stringIcSt11char_traitsIcESaIcEEESt4pairIKS5_S5_ESt10_Select1stIS8_ESt4lessIS5_ESaIS8_EE11_M_leftmostEv>
  4063a5:	48 8b 00             	mov    (%rax),%rax
  4063a8:	48 39 c3             	cmp    %rax,%rbx
  4063ab:	0f 94 c0             	sete   %al
  4063ae:	84 c0                	test   %al,%al
  4063b0:	74 3d                	je     4063ef <_ZNSt8_Rb_treeINSt7__cxx1112basic_stringIcSt11char_traitsIcESaIcEEESt4pairIKS5_S5_ESt10_Select1stIS8_ESt4lessIS5_ESaIS8_EE29_M_get_insert_hint_unique_posESt23_Rb_tree_const_iteratorIS8_ERS7_+0x17f>
  4063b2:	48 8b 45 a8          	mov    -0x58(%rbp),%rax
  4063b6:	48 89 c7             	mov    %rax,%rdi
  4063b9:	e8 96 0b 00 00       	callq  406f54 <_ZNSt8_Rb_treeINSt7__cxx1112basic_stringIcSt11char_traitsIcESaIcEEESt4pairIKS5_S5_ESt10_Select1stIS8_ESt4lessIS5_ESaIS8_EE11_M_leftmostEv>
  4063be:	48 89 c3             	mov    %rax,%rbx
  4063c1:	48 8b 45 a8          	mov    -0x58(%rbp),%rax
  4063c5:	48 89 c7             	mov    %rax,%rdi
  4063c8:	e8 87 0b 00 00       	callq  406f54 <_ZNSt8_Rb_treeINSt7__cxx1112basic_stringIcSt11char_traitsIcESaIcEEESt4pairIKS5_S5_ESt10_Select1stIS8_ESt4lessIS5_ESaIS8_EE11_M_leftmostEv>
  4063cd:	48 89 c1             	mov    %rax,%rcx
  4063d0:	48 8d 45 d0          	lea    -0x30(%rbp),%rax
  4063d4:	48 89 da             	mov    %rbx,%rdx
  4063d7:	48 89 ce             	mov    %rcx,%rsi
  4063da:	48 89 c7             	mov    %rax,%rdi
  4063dd:	e8 0e fe ff ff       	callq  4061f0 <_ZNSt4pairIPSt18_Rb_tree_node_baseS1_EC1IRS1_S4_Lb1EEEOT_OT0_>
  4063e2:	48 8b 45 d0          	mov    -0x30(%rbp),%rax
  4063e6:	48 8b 55 d8          	mov    -0x28(%rbp),%rdx
  4063ea:	e9 02 02 00 00       	jmpq   4065f1 <_ZNSt8_Rb_treeINSt7__cxx1112basic_stringIcSt11char_traitsIcESaIcEEESt4pairIKS5_S5_ESt10_Select1stIS8_ESt4lessIS5_ESaIS8_EE29_M_get_insert_hint_unique_posESt23_Rb_tree_const_iteratorIS8_ERS7_+0x381>
  4063ef:	48 8d 45 c0          	lea    -0x40(%rbp),%rax
  4063f3:	48 89 c7             	mov    %rax,%rdi
  4063f6:	e8 93 0e 00 00       	callq  40728e <_ZNSt17_Rb_tree_iteratorISt4pairIKNSt7__cxx1112basic_stringIcSt11char_traitsIcESaIcEEES6_EEmmEv>
  4063fb:	48 8b 00             	mov    (%rax),%rax
  4063fe:	48 89 c7             	mov    %rax,%rdi
  406401:	e8 14 06 00 00       	callq  406a1a <_ZNSt8_Rb_treeINSt7__cxx1112basic_stringIcSt11char_traitsIcESaIcEEESt4pairIKS5_S5_ESt10_Select1stIS8_ESt4lessIS5_ESaIS8_EE6_S_keyEPKSt18_Rb_tree_node_base>
  406406:	48 89 c1             	mov    %rax,%rcx
  406409:	48 8b 45 a8          	mov    -0x58(%rbp),%rax
  40640d:	48 8b 55 98          	mov    -0x68(%rbp),%rdx
  406411:	48 89 ce             	mov    %rcx,%rsi
  406414:	48 89 c7             	mov    %rax,%rdi
  406417:	e8 2e eb ff ff       	callq  404f4a <_ZNKSt4lessINSt7__cxx1112basic_stringIcSt11char_traitsIcESaIcEEEEclERKS5_S8_>
  40641c:	84 c0                	test   %al,%al
  40641e:	74 66                	je     406486 <_ZNSt8_Rb_treeINSt7__cxx1112basic_stringIcSt11char_traitsIcESaIcEEESt4pairIKS5_S5_ESt10_Select1stIS8_ESt4lessIS5_ESaIS8_EE29_M_get_insert_hint_unique_posESt23_Rb_tree_const_iteratorIS8_ERS7_+0x216>
  406420:	48 8b 45 c0          	mov    -0x40(%rbp),%rax
  406424:	48 89 c7             	mov    %rax,%rdi
  406427:	e8 93 fb ff ff       	callq  405fbf <_ZNSt8_Rb_treeINSt7__cxx1112basic_stringIcSt11char_traitsIcESaIcEEESt4pairIKS5_S5_ESt10_Select1stIS8_ESt4lessIS5_ESaIS8_EE8_S_rightEPSt18_Rb_tree_node_base>
  40642c:	48 85 c0             	test   %rax,%rax
  40642f:	0f 94 c0             	sete   %al
  406432:	84 c0                	test   %al,%al
  406434:	74 2c                	je     406462 <_ZNSt8_Rb_treeINSt7__cxx1112basic_stringIcSt11char_traitsIcESaIcEEESt4pairIKS5_S5_ESt10_Select1stIS8_ESt4lessIS5_ESaIS8_EE29_M_get_insert_hint_unique_posESt23_Rb_tree_const_iteratorIS8_ERS7_+0x1f2>
  406436:	48 c7 45 c8 00 00 00 	movq   $0x0,-0x38(%rbp)
  40643d:	00 
  40643e:	48 8d 55 c0          	lea    -0x40(%rbp),%rdx
  406442:	48 8d 4d c8          	lea    -0x38(%rbp),%rcx
  406446:	48 8d 45 d0          	lea    -0x30(%rbp),%rax
  40644a:	48 89 ce             	mov    %rcx,%rsi
  40644d:	48 89 c7             	mov    %rax,%rdi
  406450:	e8 5f fd ff ff       	callq  4061b4 <_ZNSt4pairIPSt18_Rb_tree_node_baseS1_EC1IRS1_Lb1EEERKS1_OT_>
  406455:	48 8b 45 d0          	mov    -0x30(%rbp),%rax
  406459:	48 8b 55 d8          	mov    -0x28(%rbp),%rdx
  40645d:	e9 8f 01 00 00       	jmpq   4065f1 <_ZNSt8_Rb_treeINSt7__cxx1112basic_stringIcSt11char_traitsIcESaIcEEESt4pairIKS5_S5_ESt10_Select1stIS8_ESt4lessIS5_ESaIS8_EE29_M_get_insert_hint_unique_posESt23_Rb_tree_const_iteratorIS8_ERS7_+0x381>
  406462:	48 8d 55 b8          	lea    -0x48(%rbp),%rdx
  406466:	48 8d 4d b8          	lea    -0x48(%rbp),%rcx
  40646a:	48 8d 45 d0          	lea    -0x30(%rbp),%rax
  40646e:	48 89 ce             	mov    %rcx,%rsi
  406471:	48 89 c7             	mov    %rax,%rdi
  406474:	e8 77 fd ff ff       	callq  4061f0 <_ZNSt4pairIPSt18_Rb_tree_node_baseS1_EC1IRS1_S4_Lb1EEEOT_OT0_>
  406479:	48 8b 45 d0          	mov    -0x30(%rbp),%rax
  40647d:	48 8b 55 d8          	mov    -0x28(%rbp),%rdx
  406481:	e9 6b 01 00 00       	jmpq   4065f1 <_ZNSt8_Rb_treeINSt7__cxx1112basic_stringIcSt11char_traitsIcESaIcEEESt4pairIKS5_S5_ESt10_Select1stIS8_ESt4lessIS5_ESaIS8_EE29_M_get_insert_hint_unique_posESt23_Rb_tree_const_iteratorIS8_ERS7_+0x381>
  406486:	48 8b 55 98          	mov    -0x68(%rbp),%rdx
  40648a:	48 8b 45 a8          	mov    -0x58(%rbp),%rax
  40648e:	48 89 d6             	mov    %rdx,%rsi
  406491:	48 89 c7             	mov    %rax,%rdi
  406494:	e8 3d 06 00 00       	callq  406ad6 <_ZNSt8_Rb_treeINSt7__cxx1112basic_stringIcSt11char_traitsIcESaIcEEESt4pairIKS5_S5_ESt10_Select1stIS8_ESt4lessIS5_ESaIS8_EE24_M_get_insert_unique_posERS7_>
  406499:	e9 53 01 00 00       	jmpq   4065f1 <_ZNSt8_Rb_treeINSt7__cxx1112basic_stringIcSt11char_traitsIcESaIcEEESt4pairIKS5_S5_ESt10_Select1stIS8_ESt4lessIS5_ESaIS8_EE29_M_get_insert_hint_unique_posESt23_Rb_tree_const_iteratorIS8_ERS7_+0x381>
  40649e:	48 8b 45 b8          	mov    -0x48(%rbp),%rax
  4064a2:	48 89 c7             	mov    %rax,%rdi
  4064a5:	e8 70 05 00 00       	callq  406a1a <_ZNSt8_Rb_treeINSt7__cxx1112basic_stringIcSt11char_traitsIcESaIcEEESt4pairIKS5_S5_ESt10_Select1stIS8_ESt4lessIS5_ESaIS8_EE6_S_keyEPKSt18_Rb_tree_node_base>
  4064aa:	48 89 c1             	mov    %rax,%rcx
  4064ad:	48 8b 45 a8          	mov    -0x58(%rbp),%rax
  4064b1:	48 8b 55 98          	mov    -0x68(%rbp),%rdx
  4064b5:	48 89 ce             	mov    %rcx,%rsi
  4064b8:	48 89 c7             	mov    %rax,%rdi
  4064bb:	e8 8a ea ff ff       	callq  404f4a <_ZNKSt4lessINSt7__cxx1112basic_stringIcSt11char_traitsIcESaIcEEEEclERKS5_S8_>
  4064c0:	84 c0                	test   %al,%al
  4064c2:	0f 84 02 01 00 00    	je     4065ca <_ZNSt8_Rb_treeINSt7__cxx1112basic_stringIcSt11char_traitsIcESaIcEEESt4pairIKS5_S5_ESt10_Select1stIS8_ESt4lessIS5_ESaIS8_EE29_M_get_insert_hint_unique_posESt23_Rb_tree_const_iteratorIS8_ERS7_+0x35a>
  4064c8:	48 8b 45 b8          	mov    -0x48(%rbp),%rax
  4064cc:	48 89 45 c0          	mov    %rax,-0x40(%rbp)
  4064d0:	48 8b 5d b8          	mov    -0x48(%rbp),%rbx
  4064d4:	48 8b 45 a8          	mov    -0x58(%rbp),%rax
  4064d8:	48 89 c7             	mov    %rax,%rdi
  4064db:	e8 a0 0a 00 00       	callq  406f80 <_ZNSt8_Rb_treeINSt7__cxx1112basic_stringIcSt11char_traitsIcESaIcEEESt4pairIKS5_S5_ESt10_Select1stIS8_ESt4lessIS5_ESaIS8_EE12_M_rightmostEv>
  4064e0:	48 8b 00             	mov    (%rax),%rax
  4064e3:	48 39 c3             	cmp    %rax,%rbx
  4064e6:	0f 94 c0             	sete   %al
  4064e9:	84 c0                	test   %al,%al
  4064eb:	74 37                	je     406524 <_ZNSt8_Rb_treeINSt7__cxx1112basic_stringIcSt11char_traitsIcESaIcEEESt4pairIKS5_S5_ESt10_Select1stIS8_ESt4lessIS5_ESaIS8_EE29_M_get_insert_hint_unique_posESt23_Rb_tree_const_iteratorIS8_ERS7_+0x2b4>
  4064ed:	48 8b 45 a8          	mov    -0x58(%rbp),%rax
  4064f1:	48 89 c7             	mov    %rax,%rdi
  4064f4:	e8 87 0a 00 00       	callq  406f80 <_ZNSt8_Rb_treeINSt7__cxx1112basic_stringIcSt11char_traitsIcESaIcEEESt4pairIKS5_S5_ESt10_Select1stIS8_ESt4lessIS5_ESaIS8_EE12_M_rightmostEv>
  4064f9:	48 89 c2             	mov    %rax,%rdx
  4064fc:	48 c7 45 c8 00 00 00 	movq   $0x0,-0x38(%rbp)
  406503:	00 
  406504:	48 8d 4d c8          	lea    -0x38(%rbp),%rcx
  406508:	48 8d 45 d0          	lea    -0x30(%rbp),%rax
  40650c:	48 89 ce             	mov    %rcx,%rsi
  40650f:	48 89 c7             	mov    %rax,%rdi
  406512:	e8 9d fc ff ff       	callq  4061b4 <_ZNSt4pairIPSt18_Rb_tree_node_baseS1_EC1IRS1_Lb1EEERKS1_OT_>
  406517:	48 8b 45 d0          	mov    -0x30(%rbp),%rax
  40651b:	48 8b 55 d8          	mov    -0x28(%rbp),%rdx
  40651f:	e9 cd 00 00 00       	jmpq   4065f1 <_ZNSt8_Rb_treeINSt7__cxx1112basic_stringIcSt11char_traitsIcESaIcEEESt4pairIKS5_S5_ESt10_Select1stIS8_ESt4lessIS5_ESaIS8_EE29_M_get_insert_hint_unique_posESt23_Rb_tree_const_iteratorIS8_ERS7_+0x381>
  406524:	48 8d 45 c0          	lea    -0x40(%rbp),%rax
  406528:	48 89 c7             	mov    %rax,%rdi
  40652b:	e8 8a 0d 00 00       	callq  4072ba <_ZNSt17_Rb_tree_iteratorISt4pairIKNSt7__cxx1112basic_stringIcSt11char_traitsIcESaIcEEES6_EEppEv>
  406530:	48 8b 00             	mov    (%rax),%rax
  406533:	48 89 c7             	mov    %rax,%rdi
  406536:	e8 df 04 00 00       	callq  406a1a <_ZNSt8_Rb_treeINSt7__cxx1112basic_stringIcSt11char_traitsIcESaIcEEESt4pairIKS5_S5_ESt10_Select1stIS8_ESt4lessIS5_ESaIS8_EE6_S_keyEPKSt18_Rb_tree_node_base>
  40653b:	48 89 c2             	mov    %rax,%rdx
  40653e:	48 8b 45 a8          	mov    -0x58(%rbp),%rax
  406542:	48 8b 4d 98          	mov    -0x68(%rbp),%rcx
  406546:	48 89 ce             	mov    %rcx,%rsi
  406549:	48 89 c7             	mov    %rax,%rdi
  40654c:	e8 f9 e9 ff ff       	callq  404f4a <_ZNKSt4lessINSt7__cxx1112basic_stringIcSt11char_traitsIcESaIcEEEEclERKS5_S8_>
  406551:	84 c0                	test   %al,%al
  406553:	74 60                	je     4065b5 <_ZNSt8_Rb_treeINSt7__cxx1112basic_stringIcSt11char_traitsIcESaIcEEESt4pairIKS5_S5_ESt10_Select1stIS8_ESt4lessIS5_ESaIS8_EE29_M_get_insert_hint_unique_posESt23_Rb_tree_const_iteratorIS8_ERS7_+0x345>
  406555:	48 8b 45 b8          	mov    -0x48(%rbp),%rax
  406559:	48 89 c7             	mov    %rax,%rdi
  40655c:	e8 5e fa ff ff       	callq  405fbf <_ZNSt8_Rb_treeINSt7__cxx1112basic_stringIcSt11char_traitsIcESaIcEEESt4pairIKS5_S5_ESt10_Select1stIS8_ESt4lessIS5_ESaIS8_EE8_S_rightEPSt18_Rb_tree_node_base>
  406561:	48 85 c0             	test   %rax,%rax
  406564:	0f 94 c0             	sete   %al
  406567:	84 c0                	test   %al,%al
  406569:	74 29                	je     406594 <_ZNSt8_Rb_treeINSt7__cxx1112basic_stringIcSt11char_traitsIcESaIcEEESt4pairIKS5_S5_ESt10_Select1stIS8_ESt4lessIS5_ESaIS8_EE29_M_get_insert_hint_unique_posESt23_Rb_tree_const_iteratorIS8_ERS7_+0x324>
  40656b:	48 c7 45 c8 00 00 00 	movq   $0x0,-0x38(%rbp)
  406572:	00 
  406573:	48 8d 55 b8          	lea    -0x48(%rbp),%rdx
  406577:	48 8d 4d c8          	lea    -0x38(%rbp),%rcx
  40657b:	48 8d 45 d0          	lea    -0x30(%rbp),%rax
  40657f:	48 89 ce             	mov    %rcx,%rsi
  406582:	48 89 c7             	mov    %rax,%rdi
  406585:	e8 2a fc ff ff       	callq  4061b4 <_ZNSt4pairIPSt18_Rb_tree_node_baseS1_EC1IRS1_Lb1EEERKS1_OT_>
  40658a:	48 8b 45 d0          	mov    -0x30(%rbp),%rax
  40658e:	48 8b 55 d8          	mov    -0x28(%rbp),%rdx
  406592:	eb 5d                	jmp    4065f1 <_ZNSt8_Rb_treeINSt7__cxx1112basic_stringIcSt11char_traitsIcESaIcEEESt4pairIKS5_S5_ESt10_Select1stIS8_ESt4lessIS5_ESaIS8_EE29_M_get_insert_hint_unique_posESt23_Rb_tree_const_iteratorIS8_ERS7_+0x381>
  406594:	48 8d 55 c0          	lea    -0x40(%rbp),%rdx
  406598:	48 8d 4d c0          	lea    -0x40(%rbp),%rcx
  40659c:	48 8d 45 d0          	lea    -0x30(%rbp),%rax
  4065a0:	48 89 ce             	mov    %rcx,%rsi
  4065a3:	48 89 c7             	mov    %rax,%rdi
  4065a6:	e8 45 fc ff ff       	callq  4061f0 <_ZNSt4pairIPSt18_Rb_tree_node_baseS1_EC1IRS1_S4_Lb1EEEOT_OT0_>
  4065ab:	48 8b 45 d0          	mov    -0x30(%rbp),%rax
  4065af:	48 8b 55 d8          	mov    -0x28(%rbp),%rdx
  4065b3:	eb 3c                	jmp    4065f1 <_ZNSt8_Rb_treeINSt7__cxx1112basic_stringIcSt11char_traitsIcESaIcEEESt4pairIKS5_S5_ESt10_Select1stIS8_ESt4lessIS5_ESaIS8_EE29_M_get_insert_hint_unique_posESt23_Rb_tree_const_iteratorIS8_ERS7_+0x381>
  4065b5:	48 8b 55 98          	mov    -0x68(%rbp),%rdx
  4065b9:	48 8b 45 a8          	mov    -0x58(%rbp),%rax
  4065bd:	48 89 d6             	mov    %rdx,%rsi
  4065c0:	48 89 c7             	mov    %rax,%rdi
  4065c3:	e8 0e 05 00 00       	callq  406ad6 <_ZNSt8_Rb_treeINSt7__cxx1112basic_stringIcSt11char_traitsIcESaIcEEESt4pairIKS5_S5_ESt10_Select1stIS8_ESt4lessIS5_ESaIS8_EE24_M_get_insert_unique_posERS7_>
  4065c8:	eb 27                	jmp    4065f1 <_ZNSt8_Rb_treeINSt7__cxx1112basic_stringIcSt11char_traitsIcESaIcEEESt4pairIKS5_S5_ESt10_Select1stIS8_ESt4lessIS5_ESaIS8_EE29_M_get_insert_hint_unique_posESt23_Rb_tree_const_iteratorIS8_ERS7_+0x381>
  4065ca:	48 c7 45 c8 00 00 00 	movq   $0x0,-0x38(%rbp)
  4065d1:	00 
  4065d2:	48 8d 55 c8          	lea    -0x38(%rbp),%rdx
  4065d6:	48 8d 4d b8          	lea    -0x48(%rbp),%rcx
  4065da:	48 8d 45 d0          	lea    -0x30(%rbp),%rax
  4065de:	48 89 ce             	mov    %rcx,%rsi
  4065e1:	48 89 c7             	mov    %rax,%rdi
  4065e4:	e8 4b fc ff ff       	callq  406234 <_ZNSt4pairIPSt18_Rb_tree_node_baseS1_EC1IRS1_Lb1EEEOT_RKS1_>
  4065e9:	48 8b 45 d0          	mov    -0x30(%rbp),%rax
  4065ed:	48 8b 55 d8          	mov    -0x28(%rbp),%rdx
  4065f1:	48 8b 5d e8          	mov    -0x18(%rbp),%rbx
  4065f5:	64 48 33 1c 25 28 00 	xor    %fs:0x28,%rbx
  4065fc:	00 00 
  4065fe:	74 05                	je     406605 <_ZNSt8_Rb_treeINSt7__cxx1112basic_stringIcSt11char_traitsIcESaIcEEESt4pairIKS5_S5_ESt10_Select1stIS8_ESt4lessIS5_ESaIS8_EE29_M_get_insert_hint_unique_posESt23_Rb_tree_const_iteratorIS8_ERS7_+0x395>
  406600:	e8 3b c9 ff ff       	callq  402f40 <__stack_chk_fail@plt>
  406605:	48 83 c4 68          	add    $0x68,%rsp
  406609:	5b                   	pop    %rbx
  40660a:	5d                   	pop    %rbp
  40660b:	c3                   	retq   

000000000040660c <_ZNSt8_Rb_treeINSt7__cxx1112basic_stringIcSt11char_traitsIcESaIcEEESt4pairIKS5_S5_ESt10_Select1stIS8_ESt4lessIS5_ESaIS8_EE6_S_keyEPKSt13_Rb_tree_nodeIS8_E>:
  40660c:	55                   	push   %rbp
  40660d:	48 89 e5             	mov    %rsp,%rbp
  406610:	48 83 ec 20          	sub    $0x20,%rsp
  406614:	48 89 7d e8          	mov    %rdi,-0x18(%rbp)
  406618:	64 48 8b 04 25 28 00 	mov    %fs:0x28,%rax
  40661f:	00 00 
  406621:	48 89 45 f8          	mov    %rax,-0x8(%rbp)
  406625:	31 c0                	xor    %eax,%eax
  406627:	48 8b 45 e8          	mov    -0x18(%rbp),%rax
  40662b:	48 89 c7             	mov    %rax,%rdi
  40662e:	e8 b2 0c 00 00       	callq  4072e5 <_ZNSt8_Rb_treeINSt7__cxx1112basic_stringIcSt11char_traitsIcESaIcEEESt4pairIKS5_S5_ESt10_Select1stIS8_ESt4lessIS5_ESaIS8_EE8_S_valueEPKSt13_Rb_tree_nodeIS8_E>
  406633:	48 89 c2             	mov    %rax,%rdx
  406636:	48 8d 45 f7          	lea    -0x9(%rbp),%rax
  40663a:	48 89 d6             	mov    %rdx,%rsi
  40663d:	48 89 c7             	mov    %rax,%rdi
  406640:	e8 bb 0c 00 00       	callq  407300 <_ZNKSt10_Select1stISt4pairIKNSt7__cxx1112basic_stringIcSt11char_traitsIcESaIcEEES6_EEclERKS8_>
  406645:	48 8b 4d f8          	mov    -0x8(%rbp),%rcx
  406649:	64 48 33 0c 25 28 00 	xor    %fs:0x28,%rcx
  406650:	00 00 
  406652:	74 05                	je     406659 <_ZNSt8_Rb_treeINSt7__cxx1112basic_stringIcSt11char_traitsIcESaIcEEESt4pairIKS5_S5_ESt10_Select1stIS8_ESt4lessIS5_ESaIS8_EE6_S_keyEPKSt13_Rb_tree_nodeIS8_E+0x4d>
  406654:	e8 e7 c8 ff ff       	callq  402f40 <__stack_chk_fail@plt>
  406659:	c9                   	leaveq 
  40665a:	c3                   	retq   
  40665b:	90                   	nop

000000000040665c <_ZNSt8_Rb_treeINSt7__cxx1112basic_stringIcSt11char_traitsIcESaIcEEESt4pairIKS5_S5_ESt10_Select1stIS8_ESt4lessIS5_ESaIS8_EE14_M_insert_nodeEPSt18_Rb_tree_node_baseSG_PSt13_Rb_tree_nodeIS8_E>:
  40665c:	55                   	push   %rbp
  40665d:	48 89 e5             	mov    %rsp,%rbp
  406660:	53                   	push   %rbx
  406661:	48 83 ec 48          	sub    $0x48,%rsp
  406665:	48 89 7d c8          	mov    %rdi,-0x38(%rbp)
  406669:	48 89 75 c0          	mov    %rsi,-0x40(%rbp)
  40666d:	48 89 55 b8          	mov    %rdx,-0x48(%rbp)
  406671:	48 89 4d b0          	mov    %rcx,-0x50(%rbp)
  406675:	64 48 8b 04 25 28 00 	mov    %fs:0x28,%rax
  40667c:	00 00 
  40667e:	48 89 45 e8          	mov    %rax,-0x18(%rbp)
  406682:	31 c0                	xor    %eax,%eax
  406684:	48 83 7d c0 00       	cmpq   $0x0,-0x40(%rbp)
  406689:	75 46                	jne    4066d1 <_ZNSt8_Rb_treeINSt7__cxx1112basic_stringIcSt11char_traitsIcESaIcEEESt4pairIKS5_S5_ESt10_Select1stIS8_ESt4lessIS5_ESaIS8_EE14_M_insert_nodeEPSt18_Rb_tree_node_baseSG_PSt13_Rb_tree_nodeIS8_E+0x75>
  40668b:	48 8b 45 c8          	mov    -0x38(%rbp),%rax
  40668f:	48 89 c7             	mov    %rax,%rdi
  406692:	e8 c1 02 00 00       	callq  406958 <_ZNSt8_Rb_treeINSt7__cxx1112basic_stringIcSt11char_traitsIcESaIcEEESt4pairIKS5_S5_ESt10_Select1stIS8_ESt4lessIS5_ESaIS8_EE6_M_endEv>
  406697:	48 3b 45 b8          	cmp    -0x48(%rbp),%rax
  40669b:	74 34                	je     4066d1 <_ZNSt8_Rb_treeINSt7__cxx1112basic_stringIcSt11char_traitsIcESaIcEEESt4pairIKS5_S5_ESt10_Select1stIS8_ESt4lessIS5_ESaIS8_EE14_M_insert_nodeEPSt18_Rb_tree_node_baseSG_PSt13_Rb_tree_nodeIS8_E+0x75>
  40669d:	48 8b 45 b8          	mov    -0x48(%rbp),%rax
  4066a1:	48 89 c7             	mov    %rax,%rdi
  4066a4:	e8 71 03 00 00       	callq  406a1a <_ZNSt8_Rb_treeINSt7__cxx1112basic_stringIcSt11char_traitsIcESaIcEEESt4pairIKS5_S5_ESt10_Select1stIS8_ESt4lessIS5_ESaIS8_EE6_S_keyEPKSt18_Rb_tree_node_base>
  4066a9:	48 89 c3             	mov    %rax,%rbx
  4066ac:	48 8b 45 b0          	mov    -0x50(%rbp),%rax
  4066b0:	48 89 c7             	mov    %rax,%rdi
  4066b3:	e8 54 ff ff ff       	callq  40660c <_ZNSt8_Rb_treeINSt7__cxx1112basic_stringIcSt11char_traitsIcESaIcEEESt4pairIKS5_S5_ESt10_Select1stIS8_ESt4lessIS5_ESaIS8_EE6_S_keyEPKSt13_Rb_tree_nodeIS8_E>
  4066b8:	48 89 c1             	mov    %rax,%rcx
  4066bb:	48 8b 45 c8          	mov    -0x38(%rbp),%rax
  4066bf:	48 89 da             	mov    %rbx,%rdx
  4066c2:	48 89 ce             	mov    %rcx,%rsi
  4066c5:	48 89 c7             	mov    %rax,%rdi
  4066c8:	e8 7d e8 ff ff       	callq  404f4a <_ZNKSt4lessINSt7__cxx1112basic_stringIcSt11char_traitsIcESaIcEEEEclERKS5_S8_>
  4066cd:	84 c0                	test   %al,%al
  4066cf:	74 07                	je     4066d8 <_ZNSt8_Rb_treeINSt7__cxx1112basic_stringIcSt11char_traitsIcESaIcEEESt4pairIKS5_S5_ESt10_Select1stIS8_ESt4lessIS5_ESaIS8_EE14_M_insert_nodeEPSt18_Rb_tree_node_baseSG_PSt13_Rb_tree_nodeIS8_E+0x7c>
  4066d1:	b8 01 00 00 00       	mov    $0x1,%eax
  4066d6:	eb 05                	jmp    4066dd <_ZNSt8_Rb_treeINSt7__cxx1112basic_stringIcSt11char_traitsIcESaIcEEESt4pairIKS5_S5_ESt10_Select1stIS8_ESt4lessIS5_ESaIS8_EE14_M_insert_nodeEPSt18_Rb_tree_node_baseSG_PSt13_Rb_tree_nodeIS8_E+0x81>
  4066d8:	b8 00 00 00 00       	mov    $0x0,%eax
  4066dd:	88 45 df             	mov    %al,-0x21(%rbp)
  4066e0:	48 8b 45 c8          	mov    -0x38(%rbp),%rax
  4066e4:	48 8d 48 08          	lea    0x8(%rax),%rcx
  4066e8:	0f b6 45 df          	movzbl -0x21(%rbp),%eax
  4066ec:	48 8b 55 b8          	mov    -0x48(%rbp),%rdx
  4066f0:	48 8b 75 b0          	mov    -0x50(%rbp),%rsi
  4066f4:	89 c7                	mov    %eax,%edi
  4066f6:	e8 b5 c4 ff ff       	callq  402bb0 <_ZSt29_Rb_tree_insert_and_rebalancebPSt18_Rb_tree_node_baseS0_RS_@plt>
  4066fb:	48 8b 45 c8          	mov    -0x38(%rbp),%rax
  4066ff:	48 8b 40 28          	mov    0x28(%rax),%rax
  406703:	48 8d 50 01          	lea    0x1(%rax),%rdx
  406707:	48 8b 45 c8          	mov    -0x38(%rbp),%rax
  40670b:	48 89 50 28          	mov    %rdx,0x28(%rax)
  40670f:	48 8b 55 b0          	mov    -0x50(%rbp),%rdx
  406713:	48 8d 45 e0          	lea    -0x20(%rbp),%rax
  406717:	48 89 d6             	mov    %rdx,%rsi
  40671a:	48 89 c7             	mov    %rax,%rdi
  40671d:	e8 20 00 00 00       	callq  406742 <_ZNSt17_Rb_tree_iteratorISt4pairIKNSt7__cxx1112basic_stringIcSt11char_traitsIcESaIcEEES6_EEC1EPSt18_Rb_tree_node_base>
  406722:	48 8b 45 e0          	mov    -0x20(%rbp),%rax
  406726:	48 8b 5d e8          	mov    -0x18(%rbp),%rbx
  40672a:	64 48 33 1c 25 28 00 	xor    %fs:0x28,%rbx
  406731:	00 00 
  406733:	74 05                	je     40673a <_ZNSt8_Rb_treeINSt7__cxx1112basic_stringIcSt11char_traitsIcESaIcEEESt4pairIKS5_S5_ESt10_Select1stIS8_ESt4lessIS5_ESaIS8_EE14_M_insert_nodeEPSt18_Rb_tree_node_baseSG_PSt13_Rb_tree_nodeIS8_E+0xde>
  406735:	e8 06 c8 ff ff       	callq  402f40 <__stack_chk_fail@plt>
  40673a:	48 83 c4 48          	add    $0x48,%rsp
  40673e:	5b                   	pop    %rbx
  40673f:	5d                   	pop    %rbp
  406740:	c3                   	retq   
  406741:	90                   	nop

0000000000406742 <_ZNSt17_Rb_tree_iteratorISt4pairIKNSt7__cxx1112basic_stringIcSt11char_traitsIcESaIcEEES6_EEC1EPSt18_Rb_tree_node_base>:
  406742:	55                   	push   %rbp
  406743:	48 89 e5             	mov    %rsp,%rbp
  406746:	48 89 7d f8          	mov    %rdi,-0x8(%rbp)
  40674a:	48 89 75 f0          	mov    %rsi,-0x10(%rbp)
  40674e:	48 8b 45 f8          	mov    -0x8(%rbp),%rax
  406752:	48 8b 55 f0          	mov    -0x10(%rbp),%rdx
  406756:	48 89 10             	mov    %rdx,(%rax)
  406759:	90                   	nop
  40675a:	5d                   	pop    %rbp
  40675b:	c3                   	retq   

000000000040675c <_ZNSt7__cxx1112basic_stringIcSt11char_traitsIcESaIcEE16_M_construct_auxIPcEEvT_S7_St12__false_type>:
  40675c:	55                   	push   %rbp
  40675d:	48 89 e5             	mov    %rsp,%rbp
  406760:	48 83 ec 30          	sub    $0x30,%rsp
  406764:	48 89 7d e8          	mov    %rdi,-0x18(%rbp)
  406768:	48 89 75 e0          	mov    %rsi,-0x20(%rbp)
  40676c:	48 89 55 d8          	mov    %rdx,-0x28(%rbp)
  406770:	64 48 8b 04 25 28 00 	mov    %fs:0x28,%rax
  406777:	00 00 
  406779:	48 89 45 f8          	mov    %rax,-0x8(%rbp)
  40677d:	31 c0                	xor    %eax,%eax
  40677f:	48 8b 55 d8          	mov    -0x28(%rbp),%rdx
  406783:	48 8b 4d e0          	mov    -0x20(%rbp),%rcx
  406787:	48 8b 45 e8          	mov    -0x18(%rbp),%rax
  40678b:	48 83 ec 08          	sub    $0x8,%rsp
  40678f:	41 50                	push   %r8
  406791:	48 89 ce             	mov    %rcx,%rsi
  406794:	48 89 c7             	mov    %rax,%rdi
  406797:	e8 76 0b 00 00       	callq  407312 <_ZNSt7__cxx1112basic_stringIcSt11char_traitsIcESaIcEE12_M_constructIPcEEvT_S7_St20forward_iterator_tag>
  40679c:	48 83 c4 10          	add    $0x10,%rsp
  4067a0:	90                   	nop
  4067a1:	48 8b 45 f8          	mov    -0x8(%rbp),%rax
  4067a5:	64 48 33 04 25 28 00 	xor    %fs:0x28,%rax
  4067ac:	00 00 
  4067ae:	74 05                	je     4067b5 <_ZNSt7__cxx1112basic_stringIcSt11char_traitsIcESaIcEE16_M_construct_auxIPcEEvT_S7_St12__false_type+0x59>
  4067b0:	e8 8b c7 ff ff       	callq  402f40 <__stack_chk_fail@plt>
  4067b5:	c9                   	leaveq 
  4067b6:	c3                   	retq   
  4067b7:	90                   	nop

00000000004067b8 <_ZN9__gnu_cxx13new_allocatorISt4pairIKNSt7__cxx1112basic_stringIcSt11char_traitsIcESaIcEEES7_EEC1ERKSA_>:
  4067b8:	55                   	push   %rbp
  4067b9:	48 89 e5             	mov    %rsp,%rbp
  4067bc:	48 89 7d f8          	mov    %rdi,-0x8(%rbp)
  4067c0:	48 89 75 f0          	mov    %rsi,-0x10(%rbp)
  4067c4:	90                   	nop
  4067c5:	5d                   	pop    %rbp
  4067c6:	c3                   	retq   
  4067c7:	90                   	nop

00000000004067c8 <_ZNSaISt13_Rb_tree_nodeISt4pairIKNSt7__cxx1112basic_stringIcSt11char_traitsIcESaIcEEES6_EEEC1IS8_EERKSaIT_E>:
  4067c8:	55                   	push   %rbp
  4067c9:	48 89 e5             	mov    %rsp,%rbp
  4067cc:	48 83 ec 10          	sub    $0x10,%rsp
  4067d0:	48 89 7d f8          	mov    %rdi,-0x8(%rbp)
  4067d4:	48 89 75 f0          	mov    %rsi,-0x10(%rbp)
  4067d8:	48 8b 45 f8          	mov    -0x8(%rbp),%rax
  4067dc:	48 89 c7             	mov    %rax,%rdi
  4067df:	e8 64 0c 00 00       	callq  407448 <_ZN9__gnu_cxx13new_allocatorISt13_Rb_tree_nodeISt4pairIKNSt7__cxx1112basic_stringIcSt11char_traitsIcESaIcEEES8_EEEC1Ev>
  4067e4:	90                   	nop
  4067e5:	c9                   	leaveq 
  4067e6:	c3                   	retq   

00000000004067e7 <_ZSt4moveIRSaISt13_Rb_tree_nodeISt4pairIKNSt7__cxx1112basic_stringIcSt11char_traitsIcESaIcEEES7_EEEEONSt16remove_referenceIT_E4typeEOSE_>:
  4067e7:	55                   	push   %rbp
  4067e8:	48 89 e5             	mov    %rsp,%rbp
  4067eb:	48 89 7d f8          	mov    %rdi,-0x8(%rbp)
  4067ef:	48 8b 45 f8          	mov    -0x8(%rbp),%rax
  4067f3:	5d                   	pop    %rbp
  4067f4:	c3                   	retq   
  4067f5:	90                   	nop

00000000004067f6 <_ZNSt8_Rb_treeINSt7__cxx1112basic_stringIcSt11char_traitsIcESaIcEEESt4pairIKS5_S5_ESt10_Select1stIS8_ESt4lessIS5_ESaIS8_EE13_Rb_tree_implISC_Lb1EEC1ERKSC_OSaISt13_Rb_tree_nodeIS8_EE>:
  4067f6:	55                   	push   %rbp
  4067f7:	48 89 e5             	mov    %rsp,%rbp
  4067fa:	48 83 ec 20          	sub    $0x20,%rsp
  4067fe:	48 89 7d f8          	mov    %rdi,-0x8(%rbp)
  406802:	48 89 75 f0          	mov    %rsi,-0x10(%rbp)
  406806:	48 89 55 e8          	mov    %rdx,-0x18(%rbp)
  40680a:	48 8b 45 e8          	mov    -0x18(%rbp),%rax
  40680e:	48 89 c7             	mov    %rax,%rdi
  406811:	e8 d1 ff ff ff       	callq  4067e7 <_ZSt4moveIRSaISt13_Rb_tree_nodeISt4pairIKNSt7__cxx1112basic_stringIcSt11char_traitsIcESaIcEEES7_EEEEONSt16remove_referenceIT_E4typeEOSE_>
  406816:	48 89 c2             	mov    %rax,%rdx
  406819:	48 8b 45 f8          	mov    -0x8(%rbp),%rax
  40681d:	48 89 d6             	mov    %rdx,%rsi
  406820:	48 89 c7             	mov    %rax,%rdi
  406823:	e8 2c 0c 00 00       	callq  407454 <_ZNSaISt13_Rb_tree_nodeISt4pairIKNSt7__cxx1112basic_stringIcSt11char_traitsIcESaIcEEES6_EEEC1ERKSA_>
  406828:	48 8b 45 f8          	mov    -0x8(%rbp),%rax
  40682c:	c7 40 08 00 00 00 00 	movl   $0x0,0x8(%rax)
  406833:	48 8b 45 f8          	mov    -0x8(%rbp),%rax
  406837:	48 c7 40 10 00 00 00 	movq   $0x0,0x10(%rax)
  40683e:	00 
  40683f:	48 8b 45 f8          	mov    -0x8(%rbp),%rax
  406843:	48 c7 40 18 00 00 00 	movq   $0x0,0x18(%rax)
  40684a:	00 
  40684b:	48 8b 45 f8          	mov    -0x8(%rbp),%rax
  40684f:	48 c7 40 20 00 00 00 	movq   $0x0,0x20(%rax)
  406856:	00 
  406857:	48 8b 45 f8          	mov    -0x8(%rbp),%rax
  40685b:	48 c7 40 28 00 00 00 	movq   $0x0,0x28(%rax)
  406862:	00 
  406863:	48 8b 45 f8          	mov    -0x8(%rbp),%rax
  406867:	48 89 c7             	mov    %rax,%rdi
  40686a:	e8 59 07 00 00       	callq  406fc8 <_ZNSt8_Rb_treeINSt7__cxx1112basic_stringIcSt11char_traitsIcESaIcEEESt4pairIKS5_S5_ESt10_Select1stIS8_ESt4lessIS5_ESaIS8_EE13_Rb_tree_implISC_Lb1EE13_M_initializeEv>
  40686f:	90                   	nop
  406870:	c9                   	leaveq 
  406871:	c3                   	retq   

0000000000406872 <_ZNSt8_Rb_treeINSt7__cxx1112basic_stringIcSt11char_traitsIcESaIcEEESt4pairIKS5_S5_ESt10_Select1stIS8_ESt4lessIS5_ESaIS8_EE11_Alloc_nodeC1ERSE_>:
  406872:	55                   	push   %rbp
  406873:	48 89 e5             	mov    %rsp,%rbp
  406876:	48 89 7d f8          	mov    %rdi,-0x8(%rbp)
  40687a:	48 89 75 f0          	mov    %rsi,-0x10(%rbp)
  40687e:	48 8b 45 f8          	mov    -0x8(%rbp),%rax
  406882:	48 8b 55 f0          	mov    -0x10(%rbp),%rdx
  406886:	48 89 10             	mov    %rdx,(%rax)
  406889:	90                   	nop
  40688a:	5d                   	pop    %rbp
  40688b:	c3                   	retq   

000000000040688c <_ZSt7forwardIRKSt4pairIKNSt7__cxx1112basic_stringIcSt11char_traitsIcESaIcEEES6_EEOT_RNSt16remove_referenceISB_E4typeE>:
  40688c:	55                   	push   %rbp
  40688d:	48 89 e5             	mov    %rsp,%rbp
  406890:	48 89 7d f8          	mov    %rdi,-0x8(%rbp)
  406894:	48 8b 45 f8          	mov    -0x8(%rbp),%rax
  406898:	5d                   	pop    %rbp
  406899:	c3                   	retq   

000000000040689a <_ZNSt8_Rb_treeINSt7__cxx1112basic_stringIcSt11char_traitsIcESaIcEEESt4pairIKS5_S5_ESt10_Select1stIS8_ESt4lessIS5_ESaIS8_EE17_M_insert_unique_IRKS8_NSE_11_Alloc_nodeEEESt17_Rb_tree_iteratorIS8_ESt23_Rb_tree_const_iteratorIS8_EOT_RT0_>:
  40689a:	55                   	push   %rbp
  40689b:	48 89 e5             	mov    %rsp,%rbp
  40689e:	48 83 ec 50          	sub    $0x50,%rsp
  4068a2:	48 89 7d c8          	mov    %rdi,-0x38(%rbp)
  4068a6:	48 89 75 c0          	mov    %rsi,-0x40(%rbp)
  4068aa:	48 89 55 b8          	mov    %rdx,-0x48(%rbp)
  4068ae:	48 89 4d b0          	mov    %rcx,-0x50(%rbp)
  4068b2:	64 48 8b 04 25 28 00 	mov    %fs:0x28,%rax
  4068b9:	00 00 
  4068bb:	48 89 45 f8          	mov    %rax,-0x8(%rbp)
  4068bf:	31 c0                	xor    %eax,%eax
  4068c1:	48 8b 55 b8          	mov    -0x48(%rbp),%rdx
  4068c5:	48 8d 45 d8          	lea    -0x28(%rbp),%rax
  4068c9:	48 89 d6             	mov    %rdx,%rsi
  4068cc:	48 89 c7             	mov    %rax,%rdi
  4068cf:	e8 2c 0a 00 00       	callq  407300 <_ZNKSt10_Select1stISt4pairIKNSt7__cxx1112basic_stringIcSt11char_traitsIcESaIcEEES6_EEclERKS8_>
  4068d4:	48 89 c2             	mov    %rax,%rdx
  4068d7:	48 8b 4d c0          	mov    -0x40(%rbp),%rcx
  4068db:	48 8b 45 c8          	mov    -0x38(%rbp),%rax
  4068df:	48 89 ce             	mov    %rcx,%rsi
  4068e2:	48 89 c7             	mov    %rax,%rdi
  4068e5:	e8 86 f9 ff ff       	callq  406270 <_ZNSt8_Rb_treeINSt7__cxx1112basic_stringIcSt11char_traitsIcESaIcEEESt4pairIKS5_S5_ESt10_Select1stIS8_ESt4lessIS5_ESaIS8_EE29_M_get_insert_hint_unique_posESt23_Rb_tree_const_iteratorIS8_ERS7_>
  4068ea:	48 89 45 e0          	mov    %rax,-0x20(%rbp)
  4068ee:	48 89 55 e8          	mov    %rdx,-0x18(%rbp)
  4068f2:	48 8b 45 e8          	mov    -0x18(%rbp),%rax
  4068f6:	48 85 c0             	test   %rax,%rax
  4068f9:	74 2f                	je     40692a <_ZNSt8_Rb_treeINSt7__cxx1112basic_stringIcSt11char_traitsIcESaIcEEESt4pairIKS5_S5_ESt10_Select1stIS8_ESt4lessIS5_ESaIS8_EE17_M_insert_unique_IRKS8_NSE_11_Alloc_nodeEEESt17_Rb_tree_iteratorIS8_ESt23_Rb_tree_const_iteratorIS8_EOT_RT0_+0x90>
  4068fb:	48 8b 45 b8          	mov    -0x48(%rbp),%rax
  4068ff:	48 89 c7             	mov    %rax,%rdi
  406902:	e8 85 ff ff ff       	callq  40688c <_ZSt7forwardIRKSt4pairIKNSt7__cxx1112basic_stringIcSt11char_traitsIcESaIcEEES6_EEOT_RNSt16remove_referenceISB_E4typeE>
  406907:	48 89 c7             	mov    %rax,%rdi
  40690a:	48 8b 55 e8          	mov    -0x18(%rbp),%rdx
  40690e:	48 8b 75 e0          	mov    -0x20(%rbp),%rsi
  406912:	48 8b 4d b0          	mov    -0x50(%rbp),%rcx
  406916:	48 8b 45 c8          	mov    -0x38(%rbp),%rax
  40691a:	49 89 c8             	mov    %rcx,%r8
  40691d:	48 89 f9             	mov    %rdi,%rcx
  406920:	48 89 c7             	mov    %rax,%rdi
  406923:	e8 52 0b 00 00       	callq  40747a <_ZNSt8_Rb_treeINSt7__cxx1112basic_stringIcSt11char_traitsIcESaIcEEESt4pairIKS5_S5_ESt10_Select1stIS8_ESt4lessIS5_ESaIS8_EE10_M_insert_IRKS8_NSE_11_Alloc_nodeEEESt17_Rb_tree_iteratorIS8_EPSt18_Rb_tree_node_baseSM_OT_RT0_>
  406928:	eb 17                	jmp    406941 <_ZNSt8_Rb_treeINSt7__cxx1112basic_stringIcSt11char_traitsIcESaIcEEESt4pairIKS5_S5_ESt10_Select1stIS8_ESt4lessIS5_ESaIS8_EE17_M_insert_unique_IRKS8_NSE_11_Alloc_nodeEEESt17_Rb_tree_iteratorIS8_ESt23_Rb_tree_const_iteratorIS8_EOT_RT0_+0xa7>
  40692a:	48 8b 55 e0          	mov    -0x20(%rbp),%rdx
  40692e:	48 8d 45 d8          	lea    -0x28(%rbp),%rax
  406932:	48 89 d6             	mov    %rdx,%rsi
  406935:	48 89 c7             	mov    %rax,%rdi
  406938:	e8 05 fe ff ff       	callq  406742 <_ZNSt17_Rb_tree_iteratorISt4pairIKNSt7__cxx1112basic_stringIcSt11char_traitsIcESaIcEEES6_EEC1EPSt18_Rb_tree_node_base>
  40693d:	48 8b 45 d8          	mov    -0x28(%rbp),%rax
  406941:	48 8b 4d f8          	mov    -0x8(%rbp),%rcx
  406945:	64 48 33 0c 25 28 00 	xor    %fs:0x28,%rcx
  40694c:	00 00 
  40694e:	74 05                	je     406955 <_ZNSt8_Rb_treeINSt7__cxx1112basic_stringIcSt11char_traitsIcESaIcEEESt4pairIKS5_S5_ESt10_Select1stIS8_ESt4lessIS5_ESaIS8_EE17_M_insert_unique_IRKS8_NSE_11_Alloc_nodeEEESt17_Rb_tree_iteratorIS8_ESt23_Rb_tree_const_iteratorIS8_EOT_RT0_+0xbb>
  406950:	e8 eb c5 ff ff       	callq  402f40 <__stack_chk_fail@plt>
  406955:	c9                   	leaveq 
  406956:	c3                   	retq   
  406957:	90                   	nop

0000000000406958 <_ZNSt8_Rb_treeINSt7__cxx1112basic_stringIcSt11char_traitsIcESaIcEEESt4pairIKS5_S5_ESt10_Select1stIS8_ESt4lessIS5_ESaIS8_EE6_M_endEv>:
  406958:	55                   	push   %rbp
  406959:	48 89 e5             	mov    %rsp,%rbp
  40695c:	48 89 7d f8          	mov    %rdi,-0x8(%rbp)
  406960:	48 8b 45 f8          	mov    -0x8(%rbp),%rax
  406964:	48 83 c0 08          	add    $0x8,%rax
  406968:	5d                   	pop    %rbp
  406969:	c3                   	retq   

000000000040696a <_ZNSt8_Rb_treeINSt7__cxx1112basic_stringIcSt11char_traitsIcESaIcEEESt4pairIKS5_S5_ESt10_Select1stIS8_ESt4lessIS5_ESaIS8_EE14_M_lower_boundEPSt13_Rb_tree_nodeIS8_EPSt18_Rb_tree_node_baseRS7_>:
  40696a:	55                   	push   %rbp
  40696b:	48 89 e5             	mov    %rsp,%rbp
  40696e:	48 83 ec 30          	sub    $0x30,%rsp
  406972:	48 89 7d e8          	mov    %rdi,-0x18(%rbp)
  406976:	48 89 75 e0          	mov    %rsi,-0x20(%rbp)
  40697a:	48 89 55 d8          	mov    %rdx,-0x28(%rbp)
  40697e:	48 89 4d d0          	mov    %rcx,-0x30(%rbp)
  406982:	64 48 8b 04 25 28 00 	mov    %fs:0x28,%rax
  406989:	00 00 
  40698b:	48 89 45 f8          	mov    %rax,-0x8(%rbp)
  40698f:	31 c0                	xor    %eax,%eax
  406991:	48 83 7d e0 00       	cmpq   $0x0,-0x20(%rbp)
  406996:	74 55                	je     4069ed <_ZNSt8_Rb_treeINSt7__cxx1112basic_stringIcSt11char_traitsIcESaIcEEESt4pairIKS5_S5_ESt10_Select1stIS8_ESt4lessIS5_ESaIS8_EE14_M_lower_boundEPSt13_Rb_tree_nodeIS8_EPSt18_Rb_tree_node_baseRS7_+0x83>
  406998:	48 8b 45 e0          	mov    -0x20(%rbp),%rax
  40699c:	48 89 c7             	mov    %rax,%rdi
  40699f:	e8 68 fc ff ff       	callq  40660c <_ZNSt8_Rb_treeINSt7__cxx1112basic_stringIcSt11char_traitsIcESaIcEEESt4pairIKS5_S5_ESt10_Select1stIS8_ESt4lessIS5_ESaIS8_EE6_S_keyEPKSt13_Rb_tree_nodeIS8_E>
  4069a4:	48 89 c1             	mov    %rax,%rcx
  4069a7:	48 8b 45 e8          	mov    -0x18(%rbp),%rax
  4069ab:	48 8b 55 d0          	mov    -0x30(%rbp),%rdx
  4069af:	48 89 ce             	mov    %rcx,%rsi
  4069b2:	48 89 c7             	mov    %rax,%rdi
  4069b5:	e8 90 e5 ff ff       	callq  404f4a <_ZNKSt4lessINSt7__cxx1112basic_stringIcSt11char_traitsIcESaIcEEEEclERKS5_S8_>
  4069ba:	83 f0 01             	xor    $0x1,%eax
  4069bd:	84 c0                	test   %al,%al
  4069bf:	74 1a                	je     4069db <_ZNSt8_Rb_treeINSt7__cxx1112basic_stringIcSt11char_traitsIcESaIcEEESt4pairIKS5_S5_ESt10_Select1stIS8_ESt4lessIS5_ESaIS8_EE14_M_lower_boundEPSt13_Rb_tree_nodeIS8_EPSt18_Rb_tree_node_baseRS7_+0x71>
  4069c1:	48 8b 45 e0          	mov    -0x20(%rbp),%rax
  4069c5:	48 89 45 d8          	mov    %rax,-0x28(%rbp)
  4069c9:	48 8b 45 e0          	mov    -0x20(%rbp),%rax
  4069cd:	48 89 c7             	mov    %rax,%rdi
  4069d0:	e8 fc f5 ff ff       	callq  405fd1 <_ZNSt8_Rb_treeINSt7__cxx1112basic_stringIcSt11char_traitsIcESaIcEEESt4pairIKS5_S5_ESt10_Select1stIS8_ESt4lessIS5_ESaIS8_EE7_S_leftEPSt18_Rb_tree_node_base>
  4069d5:	48 89 45 e0          	mov    %rax,-0x20(%rbp)
  4069d9:	eb b6                	jmp    406991 <_ZNSt8_Rb_treeINSt7__cxx1112basic_stringIcSt11char_traitsIcESaIcEEESt4pairIKS5_S5_ESt10_Select1stIS8_ESt4lessIS5_ESaIS8_EE14_M_lower_boundEPSt13_Rb_tree_nodeIS8_EPSt18_Rb_tree_node_baseRS7_+0x27>
  4069db:	48 8b 45 e0          	mov    -0x20(%rbp),%rax
  4069df:	48 89 c7             	mov    %rax,%rdi
  4069e2:	e8 d8 f5 ff ff       	callq  405fbf <_ZNSt8_Rb_treeINSt7__cxx1112basic_stringIcSt11char_traitsIcESaIcEEESt4pairIKS5_S5_ESt10_Select1stIS8_ESt4lessIS5_ESaIS8_EE8_S_rightEPSt18_Rb_tree_node_base>
  4069e7:	48 89 45 e0          	mov    %rax,-0x20(%rbp)
  4069eb:	eb a4                	jmp    406991 <_ZNSt8_Rb_treeINSt7__cxx1112basic_stringIcSt11char_traitsIcESaIcEEESt4pairIKS5_S5_ESt10_Select1stIS8_ESt4lessIS5_ESaIS8_EE14_M_lower_boundEPSt13_Rb_tree_nodeIS8_EPSt18_Rb_tree_node_baseRS7_+0x27>
  4069ed:	48 8b 55 d8          	mov    -0x28(%rbp),%rdx
  4069f1:	48 8d 45 f0          	lea    -0x10(%rbp),%rax
  4069f5:	48 89 d6             	mov    %rdx,%rsi
  4069f8:	48 89 c7             	mov    %rax,%rdi
  4069fb:	e8 42 fd ff ff       	callq  406742 <_ZNSt17_Rb_tree_iteratorISt4pairIKNSt7__cxx1112basic_stringIcSt11char_traitsIcESaIcEEES6_EEC1EPSt18_Rb_tree_node_base>
  406a00:	48 8b 45 f0          	mov    -0x10(%rbp),%rax
  406a04:	48 8b 4d f8          	mov    -0x8(%rbp),%rcx
  406a08:	64 48 33 0c 25 28 00 	xor    %fs:0x28,%rcx
  406a0f:	00 00 
  406a11:	74 05                	je     406a18 <_ZNSt8_Rb_treeINSt7__cxx1112basic_stringIcSt11char_traitsIcESaIcEEESt4pairIKS5_S5_ESt10_Select1stIS8_ESt4lessIS5_ESaIS8_EE14_M_lower_boundEPSt13_Rb_tree_nodeIS8_EPSt18_Rb_tree_node_baseRS7_+0xae>
  406a13:	e8 28 c5 ff ff       	callq  402f40 <__stack_chk_fail@plt>
  406a18:	c9                   	leaveq 
  406a19:	c3                   	retq   

0000000000406a1a <_ZNSt8_Rb_treeINSt7__cxx1112basic_stringIcSt11char_traitsIcESaIcEEESt4pairIKS5_S5_ESt10_Select1stIS8_ESt4lessIS5_ESaIS8_EE6_S_keyEPKSt18_Rb_tree_node_base>:
  406a1a:	55                   	push   %rbp
  406a1b:	48 89 e5             	mov    %rsp,%rbp
  406a1e:	48 83 ec 20          	sub    $0x20,%rsp
  406a22:	48 89 7d e8          	mov    %rdi,-0x18(%rbp)
  406a26:	64 48 8b 04 25 28 00 	mov    %fs:0x28,%rax
  406a2d:	00 00 
  406a2f:	48 89 45 f8          	mov    %rax,-0x8(%rbp)
  406a33:	31 c0                	xor    %eax,%eax
  406a35:	48 8b 45 e8          	mov    -0x18(%rbp),%rax
  406a39:	48 89 c7             	mov    %rax,%rdi
  406a3c:	e8 69 0b 00 00       	callq  4075aa <_ZNSt8_Rb_treeINSt7__cxx1112basic_stringIcSt11char_traitsIcESaIcEEESt4pairIKS5_S5_ESt10_Select1stIS8_ESt4lessIS5_ESaIS8_EE8_S_valueEPKSt18_Rb_tree_node_base>
  406a41:	48 89 c2             	mov    %rax,%rdx
  406a44:	48 8d 45 f7          	lea    -0x9(%rbp),%rax
  406a48:	48 89 d6             	mov    %rdx,%rsi
  406a4b:	48 89 c7             	mov    %rax,%rdi
  406a4e:	e8 ad 08 00 00       	callq  407300 <_ZNKSt10_Select1stISt4pairIKNSt7__cxx1112basic_stringIcSt11char_traitsIcESaIcEEES6_EEclERKS8_>
  406a53:	48 8b 4d f8          	mov    -0x8(%rbp),%rcx
  406a57:	64 48 33 0c 25 28 00 	xor    %fs:0x28,%rcx
  406a5e:	00 00 
  406a60:	74 05                	je     406a67 <_ZNSt8_Rb_treeINSt7__cxx1112basic_stringIcSt11char_traitsIcESaIcEEESt4pairIKS5_S5_ESt10_Select1stIS8_ESt4lessIS5_ESaIS8_EE6_S_keyEPKSt18_Rb_tree_node_base+0x4d>
  406a62:	e8 d9 c4 ff ff       	callq  402f40 <__stack_chk_fail@plt>
  406a67:	c9                   	leaveq 
  406a68:	c3                   	retq   
  406a69:	90                   	nop

0000000000406a6a <_ZN9__gnu_cxx16__aligned_membufISt4pairIKNSt7__cxx1112basic_stringIcSt11char_traitsIcESaIcEEES7_EE6_M_ptrEv>:
  406a6a:	55                   	push   %rbp
  406a6b:	48 89 e5             	mov    %rsp,%rbp
  406a6e:	48 83 ec 10          	sub    $0x10,%rsp
  406a72:	48 89 7d f8          	mov    %rdi,-0x8(%rbp)
  406a76:	48 8b 45 f8          	mov    -0x8(%rbp),%rax
  406a7a:	48 89 c7             	mov    %rax,%rdi
  406a7d:	e8 42 0b 00 00       	callq  4075c4 <_ZN9__gnu_cxx16__aligned_membufISt4pairIKNSt7__cxx1112basic_stringIcSt11char_traitsIcESaIcEEES7_EE7_M_addrEv>
  406a82:	c9                   	leaveq 
  406a83:	c3                   	retq   

0000000000406a84 <_ZSt7forwardIRPSt13_Rb_tree_nodeISt4pairIKNSt7__cxx1112basic_stringIcSt11char_traitsIcESaIcEEES7_EEEOT_RNSt16remove_referenceISD_E4typeE>:
  406a84:	55                   	push   %rbp
  406a85:	48 89 e5             	mov    %rsp,%rbp
  406a88:	48 89 7d f8          	mov    %rdi,-0x8(%rbp)
  406a8c:	48 8b 45 f8          	mov    -0x8(%rbp),%rax
  406a90:	5d                   	pop    %rbp
  406a91:	c3                   	retq   

0000000000406a92 <_ZNSt4pairIPSt18_Rb_tree_node_baseS1_EC1IRPSt13_Rb_tree_nodeIS_IKNSt7__cxx1112basic_stringIcSt11char_traitsIcESaIcEEESA_EERS1_Lb1EEEOT_OT0_>:
  406a92:	55                   	push   %rbp
  406a93:	48 89 e5             	mov    %rsp,%rbp
  406a96:	48 83 ec 20          	sub    $0x20,%rsp
  406a9a:	48 89 7d f8          	mov    %rdi,-0x8(%rbp)
  406a9e:	48 89 75 f0          	mov    %rsi,-0x10(%rbp)
  406aa2:	48 89 55 e8          	mov    %rdx,-0x18(%rbp)
  406aa6:	48 8b 45 f0          	mov    -0x10(%rbp),%rax
  406aaa:	48 89 c7             	mov    %rax,%rdi
  406aad:	e8 d2 ff ff ff       	callq  406a84 <_ZSt7forwardIRPSt13_Rb_tree_nodeISt4pairIKNSt7__cxx1112basic_stringIcSt11char_traitsIcESaIcEEES7_EEEOT_RNSt16remove_referenceISD_E4typeE>
  406ab2:	48 8b 10             	mov    (%rax),%rdx
  406ab5:	48 8b 45 f8          	mov    -0x8(%rbp),%rax
  406ab9:	48 89 10             	mov    %rdx,(%rax)
  406abc:	48 8b 45 e8          	mov    -0x18(%rbp),%rax
  406ac0:	48 89 c7             	mov    %rax,%rdi
  406ac3:	e8 dd f6 ff ff       	callq  4061a5 <_ZSt7forwardIRPSt18_Rb_tree_node_baseEOT_RNSt16remove_referenceIS3_E4typeE>
  406ac8:	48 8b 10             	mov    (%rax),%rdx
  406acb:	48 8b 45 f8          	mov    -0x8(%rbp),%rax
  406acf:	48 89 50 08          	mov    %rdx,0x8(%rax)
  406ad3:	90                   	nop
  406ad4:	c9                   	leaveq 
  406ad5:	c3                   	retq   

0000000000406ad6 <_ZNSt8_Rb_treeINSt7__cxx1112basic_stringIcSt11char_traitsIcESaIcEEESt4pairIKS5_S5_ESt10_Select1stIS8_ESt4lessIS5_ESaIS8_EE24_M_get_insert_unique_posERS7_>:
  406ad6:	55                   	push   %rbp
  406ad7:	48 89 e5             	mov    %rsp,%rbp
  406ada:	48 83 ec 60          	sub    $0x60,%rsp
  406ade:	48 89 7d a8          	mov    %rdi,-0x58(%rbp)
  406ae2:	48 89 75 a0          	mov    %rsi,-0x60(%rbp)
  406ae6:	64 48 8b 04 25 28 00 	mov    %fs:0x28,%rax
  406aed:	00 00 
  406aef:	48 89 45 f8          	mov    %rax,-0x8(%rbp)
  406af3:	31 c0                	xor    %eax,%eax
  406af5:	48 8b 45 a8          	mov    -0x58(%rbp),%rax
  406af9:	48 89 c7             	mov    %rax,%rdi
  406afc:	e8 f1 ea ff ff       	callq  4055f2 <_ZNSt8_Rb_treeINSt7__cxx1112basic_stringIcSt11char_traitsIcESaIcEEESt4pairIKS5_S5_ESt10_Select1stIS8_ESt4lessIS5_ESaIS8_EE8_M_beginEv>
  406b01:	48 89 45 c0          	mov    %rax,-0x40(%rbp)
  406b05:	48 8b 45 a8          	mov    -0x58(%rbp),%rax
  406b09:	48 89 c7             	mov    %rax,%rdi
  406b0c:	e8 47 fe ff ff       	callq  406958 <_ZNSt8_Rb_treeINSt7__cxx1112basic_stringIcSt11char_traitsIcESaIcEEESt4pairIKS5_S5_ESt10_Select1stIS8_ESt4lessIS5_ESaIS8_EE6_M_endEv>
  406b11:	48 89 45 c8          	mov    %rax,-0x38(%rbp)
  406b15:	c6 45 bf 01          	movb   $0x1,-0x41(%rbp)
  406b19:	48 8b 45 c0          	mov    -0x40(%rbp),%rax
  406b1d:	48 85 c0             	test   %rax,%rax
  406b20:	74 53                	je     406b75 <_ZNSt8_Rb_treeINSt7__cxx1112basic_stringIcSt11char_traitsIcESaIcEEESt4pairIKS5_S5_ESt10_Select1stIS8_ESt4lessIS5_ESaIS8_EE24_M_get_insert_unique_posERS7_+0x9f>
  406b22:	48 8b 45 c0          	mov    -0x40(%rbp),%rax
  406b26:	48 89 45 c8          	mov    %rax,-0x38(%rbp)
  406b2a:	48 8b 45 c0          	mov    -0x40(%rbp),%rax
  406b2e:	48 89 c7             	mov    %rax,%rdi
  406b31:	e8 d6 fa ff ff       	callq  40660c <_ZNSt8_Rb_treeINSt7__cxx1112basic_stringIcSt11char_traitsIcESaIcEEESt4pairIKS5_S5_ESt10_Select1stIS8_ESt4lessIS5_ESaIS8_EE6_S_keyEPKSt13_Rb_tree_nodeIS8_E>
  406b36:	48 89 c2             	mov    %rax,%rdx
  406b39:	48 8b 45 a8          	mov    -0x58(%rbp),%rax
  406b3d:	48 8b 4d a0          	mov    -0x60(%rbp),%rcx
  406b41:	48 89 ce             	mov    %rcx,%rsi
  406b44:	48 89 c7             	mov    %rax,%rdi
  406b47:	e8 fe e3 ff ff       	callq  404f4a <_ZNKSt4lessINSt7__cxx1112basic_stringIcSt11char_traitsIcESaIcEEEEclERKS5_S8_>
  406b4c:	88 45 bf             	mov    %al,-0x41(%rbp)
  406b4f:	80 7d bf 00          	cmpb   $0x0,-0x41(%rbp)
  406b53:	74 0e                	je     406b63 <_ZNSt8_Rb_treeINSt7__cxx1112basic_stringIcSt11char_traitsIcESaIcEEESt4pairIKS5_S5_ESt10_Select1stIS8_ESt4lessIS5_ESaIS8_EE24_M_get_insert_unique_posERS7_+0x8d>
  406b55:	48 8b 45 c0          	mov    -0x40(%rbp),%rax
  406b59:	48 89 c7             	mov    %rax,%rdi
  406b5c:	e8 70 f4 ff ff       	callq  405fd1 <_ZNSt8_Rb_treeINSt7__cxx1112basic_stringIcSt11char_traitsIcESaIcEEESt4pairIKS5_S5_ESt10_Select1stIS8_ESt4lessIS5_ESaIS8_EE7_S_leftEPSt18_Rb_tree_node_base>
  406b61:	eb 0c                	jmp    406b6f <_ZNSt8_Rb_treeINSt7__cxx1112basic_stringIcSt11char_traitsIcESaIcEEESt4pairIKS5_S5_ESt10_Select1stIS8_ESt4lessIS5_ESaIS8_EE24_M_get_insert_unique_posERS7_+0x99>
  406b63:	48 8b 45 c0          	mov    -0x40(%rbp),%rax
  406b67:	48 89 c7             	mov    %rax,%rdi
  406b6a:	e8 50 f4 ff ff       	callq  405fbf <_ZNSt8_Rb_treeINSt7__cxx1112basic_stringIcSt11char_traitsIcESaIcEEESt4pairIKS5_S5_ESt10_Select1stIS8_ESt4lessIS5_ESaIS8_EE8_S_rightEPSt18_Rb_tree_node_base>
  406b6f:	48 89 45 c0          	mov    %rax,-0x40(%rbp)
  406b73:	eb a4                	jmp    406b19 <_ZNSt8_Rb_treeINSt7__cxx1112basic_stringIcSt11char_traitsIcESaIcEEESt4pairIKS5_S5_ESt10_Select1stIS8_ESt4lessIS5_ESaIS8_EE24_M_get_insert_unique_posERS7_+0x43>
  406b75:	48 8b 55 c8          	mov    -0x38(%rbp),%rdx
  406b79:	48 8d 45 d0          	lea    -0x30(%rbp),%rax
  406b7d:	48 89 d6             	mov    %rdx,%rsi
  406b80:	48 89 c7             	mov    %rax,%rdi
  406b83:	e8 ba fb ff ff       	callq  406742 <_ZNSt17_Rb_tree_iteratorISt4pairIKNSt7__cxx1112basic_stringIcSt11char_traitsIcESaIcEEES6_EEC1EPSt18_Rb_tree_node_base>
  406b88:	80 7d bf 00          	cmpb   $0x0,-0x41(%rbp)
  406b8c:	74 54                	je     406be2 <_ZNSt8_Rb_treeINSt7__cxx1112basic_stringIcSt11char_traitsIcESaIcEEESt4pairIKS5_S5_ESt10_Select1stIS8_ESt4lessIS5_ESaIS8_EE24_M_get_insert_unique_posERS7_+0x10c>
  406b8e:	48 8b 45 a8          	mov    -0x58(%rbp),%rax
  406b92:	48 89 c7             	mov    %rax,%rdi
  406b95:	e8 38 0a 00 00       	callq  4075d2 <_ZNSt8_Rb_treeINSt7__cxx1112basic_stringIcSt11char_traitsIcESaIcEEESt4pairIKS5_S5_ESt10_Select1stIS8_ESt4lessIS5_ESaIS8_EE5beginEv>
  406b9a:	48 89 45 e0          	mov    %rax,-0x20(%rbp)
  406b9e:	48 8d 55 e0          	lea    -0x20(%rbp),%rdx
  406ba2:	48 8d 45 d0          	lea    -0x30(%rbp),%rax
  406ba6:	48 89 d6             	mov    %rdx,%rsi
  406ba9:	48 89 c7             	mov    %rax,%rdi
  406bac:	e8 67 e8 ff ff       	callq  405418 <_ZNKSt17_Rb_tree_iteratorISt4pairIKNSt7__cxx1112basic_stringIcSt11char_traitsIcESaIcEEES6_EEeqERKS9_>
  406bb1:	84 c0                	test   %al,%al
  406bb3:	74 21                	je     406bd6 <_ZNSt8_Rb_treeINSt7__cxx1112basic_stringIcSt11char_traitsIcESaIcEEESt4pairIKS5_S5_ESt10_Select1stIS8_ESt4lessIS5_ESaIS8_EE24_M_get_insert_unique_posERS7_+0x100>
  406bb5:	48 8d 55 c8          	lea    -0x38(%rbp),%rdx
  406bb9:	48 8d 4d c0          	lea    -0x40(%rbp),%rcx
  406bbd:	48 8d 45 e0          	lea    -0x20(%rbp),%rax
  406bc1:	48 89 ce             	mov    %rcx,%rsi
  406bc4:	48 89 c7             	mov    %rax,%rdi
  406bc7:	e8 c6 fe ff ff       	callq  406a92 <_ZNSt4pairIPSt18_Rb_tree_node_baseS1_EC1IRPSt13_Rb_tree_nodeIS_IKNSt7__cxx1112basic_stringIcSt11char_traitsIcESaIcEEESA_EERS1_Lb1EEEOT_OT0_>
  406bcc:	48 8b 45 e0          	mov    -0x20(%rbp),%rax
  406bd0:	48 8b 55 e8          	mov    -0x18(%rbp),%rdx
  406bd4:	eb 7a                	jmp    406c50 <_ZNSt8_Rb_treeINSt7__cxx1112basic_stringIcSt11char_traitsIcESaIcEEESt4pairIKS5_S5_ESt10_Select1stIS8_ESt4lessIS5_ESaIS8_EE24_M_get_insert_unique_posERS7_+0x17a>
  406bd6:	48 8d 45 d0          	lea    -0x30(%rbp),%rax
  406bda:	48 89 c7             	mov    %rax,%rdi
  406bdd:	e8 ac 06 00 00       	callq  40728e <_ZNSt17_Rb_tree_iteratorISt4pairIKNSt7__cxx1112basic_stringIcSt11char_traitsIcESaIcEEES6_EEmmEv>
  406be2:	48 8b 45 d0          	mov    -0x30(%rbp),%rax
  406be6:	48 89 c7             	mov    %rax,%rdi
  406be9:	e8 2c fe ff ff       	callq  406a1a <_ZNSt8_Rb_treeINSt7__cxx1112basic_stringIcSt11char_traitsIcESaIcEEESt4pairIKS5_S5_ESt10_Select1stIS8_ESt4lessIS5_ESaIS8_EE6_S_keyEPKSt18_Rb_tree_node_base>
  406bee:	48 89 c1             	mov    %rax,%rcx
  406bf1:	48 8b 45 a8          	mov    -0x58(%rbp),%rax
  406bf5:	48 8b 55 a0          	mov    -0x60(%rbp),%rdx
  406bf9:	48 89 ce             	mov    %rcx,%rsi
  406bfc:	48 89 c7             	mov    %rax,%rdi
  406bff:	e8 46 e3 ff ff       	callq  404f4a <_ZNKSt4lessINSt7__cxx1112basic_stringIcSt11char_traitsIcESaIcEEEEclERKS5_S8_>
  406c04:	84 c0                	test   %al,%al
  406c06:	74 21                	je     406c29 <_ZNSt8_Rb_treeINSt7__cxx1112basic_stringIcSt11char_traitsIcESaIcEEESt4pairIKS5_S5_ESt10_Select1stIS8_ESt4lessIS5_ESaIS8_EE24_M_get_insert_unique_posERS7_+0x153>
  406c08:	48 8d 55 c8          	lea    -0x38(%rbp),%rdx
  406c0c:	48 8d 4d c0          	lea    -0x40(%rbp),%rcx
  406c10:	48 8d 45 e0          	lea    -0x20(%rbp),%rax
  406c14:	48 89 ce             	mov    %rcx,%rsi
  406c17:	48 89 c7             	mov    %rax,%rdi
  406c1a:	e8 73 fe ff ff       	callq  406a92 <_ZNSt4pairIPSt18_Rb_tree_node_baseS1_EC1IRPSt13_Rb_tree_nodeIS_IKNSt7__cxx1112basic_stringIcSt11char_traitsIcESaIcEEESA_EERS1_Lb1EEEOT_OT0_>
  406c1f:	48 8b 45 e0          	mov    -0x20(%rbp),%rax
  406c23:	48 8b 55 e8          	mov    -0x18(%rbp),%rdx
  406c27:	eb 27                	jmp    406c50 <_ZNSt8_Rb_treeINSt7__cxx1112basic_stringIcSt11char_traitsIcESaIcEEESt4pairIKS5_S5_ESt10_Select1stIS8_ESt4lessIS5_ESaIS8_EE24_M_get_insert_unique_posERS7_+0x17a>
  406c29:	48 c7 45 d8 00 00 00 	movq   $0x0,-0x28(%rbp)
  406c30:	00 
  406c31:	48 8d 55 d8          	lea    -0x28(%rbp),%rdx
  406c35:	48 8d 4d d0          	lea    -0x30(%rbp),%rcx
  406c39:	48 8d 45 e0          	lea    -0x20(%rbp),%rax
  406c3d:	48 89 ce             	mov    %rcx,%rsi
  406c40:	48 89 c7             	mov    %rax,%rdi
  406c43:	e8 ec f5 ff ff       	callq  406234 <_ZNSt4pairIPSt18_Rb_tree_node_baseS1_EC1IRS1_Lb1EEEOT_RKS1_>
  406c48:	48 8b 45 e0          	mov    -0x20(%rbp),%rax
  406c4c:	48 8b 55 e8          	mov    -0x18(%rbp),%rdx
  406c50:	48 8b 75 f8          	mov    -0x8(%rbp),%rsi
  406c54:	64 48 33 34 25 28 00 	xor    %fs:0x28,%rsi
  406c5b:	00 00 
  406c5d:	74 05                	je     406c64 <_ZNSt8_Rb_treeINSt7__cxx1112basic_stringIcSt11char_traitsIcESaIcEEESt4pairIKS5_S5_ESt10_Select1stIS8_ESt4lessIS5_ESaIS8_EE24_M_get_insert_unique_posERS7_+0x18e>
  406c5f:	e8 dc c2 ff ff       	callq  402f40 <__stack_chk_fail@plt>
  406c64:	c9                   	leaveq 
  406c65:	c3                   	retq   

0000000000406c66 <_ZNKSt10_Select1stISt4pairIKNSt7__cxx1112basic_stringIcSt11char_traitsIcESaIcEEES6_EEclIS0_IPKcS6_EEERNT_10first_typeERSE_>:
  406c66:	55                   	push   %rbp
  406c67:	48 89 e5             	mov    %rsp,%rbp
  406c6a:	48 89 7d f8          	mov    %rdi,-0x8(%rbp)
  406c6e:	48 89 75 f0          	mov    %rsi,-0x10(%rbp)
  406c72:	48 8b 45 f0          	mov    -0x10(%rbp),%rax
  406c76:	5d                   	pop    %rbp
  406c77:	c3                   	retq   

0000000000406c78 <_ZNSt8_Rb_treeINSt7__cxx1112basic_stringIcSt11char_traitsIcESaIcEEESt4pairIKS5_S5_ESt10_Select1stIS8_ESt4lessIS5_ESaIS8_EE10_M_insert_IS6_IPKcS5_ENSE_11_Alloc_nodeEEESt17_Rb_tree_iteratorIS8_EPSt18_Rb_tree_node_baseSN_OT_RT0_>:
  406c78:	55                   	push   %rbp
  406c79:	48 89 e5             	mov    %rsp,%rbp
  406c7c:	41 56                	push   %r14
  406c7e:	41 55                	push   %r13
  406c80:	41 54                	push   %r12
  406c82:	53                   	push   %rbx
  406c83:	48 83 c4 80          	add    $0xffffffffffffff80,%rsp
  406c87:	48 89 7d 88          	mov    %rdi,-0x78(%rbp)
  406c8b:	48 89 75 80          	mov    %rsi,-0x80(%rbp)
  406c8f:	48 89 95 78 ff ff ff 	mov    %rdx,-0x88(%rbp)
  406c96:	48 89 8d 70 ff ff ff 	mov    %rcx,-0x90(%rbp)
  406c9d:	4c 89 85 68 ff ff ff 	mov    %r8,-0x98(%rbp)
  406ca4:	64 48 8b 04 25 28 00 	mov    %fs:0x28,%rax
  406cab:	00 00 
  406cad:	48 89 45 d8          	mov    %rax,-0x28(%rbp)
  406cb1:	31 c0                	xor    %eax,%eax
  406cb3:	bb 00 00 00 00       	mov    $0x0,%ebx
  406cb8:	41 bc 00 00 00 00    	mov    $0x0,%r12d
  406cbe:	41 bd 00 00 00 00    	mov    $0x0,%r13d
  406cc4:	48 83 7d 80 00       	cmpq   $0x0,-0x80(%rbp)
  406cc9:	0f 85 8a 00 00 00    	jne    406d59 <_ZNSt8_Rb_treeINSt7__cxx1112basic_stringIcSt11char_traitsIcESaIcEEESt4pairIKS5_S5_ESt10_Select1stIS8_ESt4lessIS5_ESaIS8_EE10_M_insert_IS6_IPKcS5_ENSE_11_Alloc_nodeEEESt17_Rb_tree_iteratorIS8_EPSt18_Rb_tree_node_baseSN_OT_RT0_+0xe1>
  406ccf:	48 8b 45 88          	mov    -0x78(%rbp),%rax
  406cd3:	48 89 c7             	mov    %rax,%rdi
  406cd6:	e8 7d fc ff ff       	callq  406958 <_ZNSt8_Rb_treeINSt7__cxx1112basic_stringIcSt11char_traitsIcESaIcEEESt4pairIKS5_S5_ESt10_Select1stIS8_ESt4lessIS5_ESaIS8_EE6_M_endEv>
  406cdb:	48 3b 85 78 ff ff ff 	cmp    -0x88(%rbp),%rax
  406ce2:	74 75                	je     406d59 <_ZNSt8_Rb_treeINSt7__cxx1112basic_stringIcSt11char_traitsIcESaIcEEESt4pairIKS5_S5_ESt10_Select1stIS8_ESt4lessIS5_ESaIS8_EE10_M_insert_IS6_IPKcS5_ENSE_11_Alloc_nodeEEESt17_Rb_tree_iteratorIS8_EPSt18_Rb_tree_node_baseSN_OT_RT0_+0xe1>
  406ce4:	48 8b 85 78 ff ff ff 	mov    -0x88(%rbp),%rax
  406ceb:	48 89 c7             	mov    %rax,%rdi
  406cee:	e8 27 fd ff ff       	callq  406a1a <_ZNSt8_Rb_treeINSt7__cxx1112basic_stringIcSt11char_traitsIcESaIcEEESt4pairIKS5_S5_ESt10_Select1stIS8_ESt4lessIS5_ESaIS8_EE6_S_keyEPKSt18_Rb_tree_node_base>
  406cf3:	49 89 c6             	mov    %rax,%r14
  406cf6:	48 8d 45 9e          	lea    -0x62(%rbp),%rax
  406cfa:	48 89 c7             	mov    %rax,%rdi
  406cfd:	e8 fe c3 ff ff       	callq  403100 <_ZNSaIcEC1Ev@plt>
  406d02:	bb 01 00 00 00       	mov    $0x1,%ebx
  406d07:	41 bc 01 00 00 00    	mov    $0x1,%r12d
  406d0d:	48 8b 95 70 ff ff ff 	mov    -0x90(%rbp),%rdx
  406d14:	48 8d 45 9d          	lea    -0x63(%rbp),%rax
  406d18:	48 89 d6             	mov    %rdx,%rsi
  406d1b:	48 89 c7             	mov    %rax,%rdi
  406d1e:	e8 43 ff ff ff       	callq  406c66 <_ZNKSt10_Select1stISt4pairIKNSt7__cxx1112basic_stringIcSt11char_traitsIcESaIcEEES6_EEclIS0_IPKcS6_EEERNT_10first_typeERSE_>
  406d23:	48 8b 08             	mov    (%rax),%rcx
  406d26:	48 8d 55 9e          	lea    -0x62(%rbp),%rdx
  406d2a:	48 8d 45 b0          	lea    -0x50(%rbp),%rax
  406d2e:	48 89 ce             	mov    %rcx,%rsi
  406d31:	48 89 c7             	mov    %rax,%rdi
  406d34:	e8 87 c2 ff ff       	callq  402fc0 <_ZNSt7__cxx1112basic_stringIcSt11char_traitsIcESaIcEEC1EPKcRKS3_@plt>
  406d39:	41 bd 01 00 00 00    	mov    $0x1,%r13d
  406d3f:	48 8b 45 88          	mov    -0x78(%rbp),%rax
  406d43:	48 8d 4d b0          	lea    -0x50(%rbp),%rcx
  406d47:	4c 89 f2             	mov    %r14,%rdx
  406d4a:	48 89 ce             	mov    %rcx,%rsi
  406d4d:	48 89 c7             	mov    %rax,%rdi
  406d50:	e8 f5 e1 ff ff       	callq  404f4a <_ZNKSt4lessINSt7__cxx1112basic_stringIcSt11char_traitsIcESaIcEEEEclERKS5_S8_>
  406d55:	84 c0                	test   %al,%al
  406d57:	74 07                	je     406d60 <_ZNSt8_Rb_treeINSt7__cxx1112basic_stringIcSt11char_traitsIcESaIcEEESt4pairIKS5_S5_ESt10_Select1stIS8_ESt4lessIS5_ESaIS8_EE10_M_insert_IS6_IPKcS5_ENSE_11_Alloc_nodeEEESt17_Rb_tree_iteratorIS8_EPSt18_Rb_tree_node_baseSN_OT_RT0_+0xe8>
  406d59:	b8 01 00 00 00       	mov    $0x1,%eax
  406d5e:	eb 05                	jmp    406d65 <_ZNSt8_Rb_treeINSt7__cxx1112basic_stringIcSt11char_traitsIcESaIcEEESt4pairIKS5_S5_ESt10_Select1stIS8_ESt4lessIS5_ESaIS8_EE10_M_insert_IS6_IPKcS5_ENSE_11_Alloc_nodeEEESt17_Rb_tree_iteratorIS8_EPSt18_Rb_tree_node_baseSN_OT_RT0_+0xed>
  406d60:	b8 00 00 00 00       	mov    $0x0,%eax
  406d65:	88 45 9f             	mov    %al,-0x61(%rbp)
  406d68:	45 84 ed             	test   %r13b,%r13b
  406d6b:	74 0c                	je     406d79 <_ZNSt8_Rb_treeINSt7__cxx1112basic_stringIcSt11char_traitsIcESaIcEEESt4pairIKS5_S5_ESt10_Select1stIS8_ESt4lessIS5_ESaIS8_EE10_M_insert_IS6_IPKcS5_ENSE_11_Alloc_nodeEEESt17_Rb_tree_iteratorIS8_EPSt18_Rb_tree_node_baseSN_OT_RT0_+0x101>
  406d6d:	48 8d 45 b0          	lea    -0x50(%rbp),%rax
  406d71:	48 89 c7             	mov    %rax,%rdi
  406d74:	e8 b7 bf ff ff       	callq  402d30 <_ZNSt7__cxx1112basic_stringIcSt11char_traitsIcESaIcEED1Ev@plt>
  406d79:	45 84 e4             	test   %r12b,%r12b
  406d7c:	84 db                	test   %bl,%bl
  406d7e:	74 0f                	je     406d8f <_ZNSt8_Rb_treeINSt7__cxx1112basic_stringIcSt11char_traitsIcESaIcEEESt4pairIKS5_S5_ESt10_Select1stIS8_ESt4lessIS5_ESaIS8_EE10_M_insert_IS6_IPKcS5_ENSE_11_Alloc_nodeEEESt17_Rb_tree_iteratorIS8_EPSt18_Rb_tree_node_baseSN_OT_RT0_+0x117>
  406d80:	90                   	nop
  406d81:	48 8d 45 9e          	lea    -0x62(%rbp),%rax
  406d85:	48 89 c7             	mov    %rax,%rdi
  406d88:	e8 93 c1 ff ff       	callq  402f20 <_ZNSaIcED1Ev@plt>
  406d8d:	eb 01                	jmp    406d90 <_ZNSt8_Rb_treeINSt7__cxx1112basic_stringIcSt11char_traitsIcESaIcEEESt4pairIKS5_S5_ESt10_Select1stIS8_ESt4lessIS5_ESaIS8_EE10_M_insert_IS6_IPKcS5_ENSE_11_Alloc_nodeEEESt17_Rb_tree_iteratorIS8_EPSt18_Rb_tree_node_baseSN_OT_RT0_+0x118>
  406d8f:	90                   	nop
  406d90:	48 8b 85 70 ff ff ff 	mov    -0x90(%rbp),%rax
  406d97:	48 89 c7             	mov    %rax,%rdi
  406d9a:	e8 da e6 ff ff       	callq  405479 <_ZSt7forwardISt4pairIPKcNSt7__cxx1112basic_stringIcSt11char_traitsIcESaIcEEEEEOT_RNSt16remove_referenceISA_E4typeE>
  406d9f:	48 89 c2             	mov    %rax,%rdx
  406da2:	48 8b 85 68 ff ff ff 	mov    -0x98(%rbp),%rax
  406da9:	48 89 d6             	mov    %rdx,%rsi
  406dac:	48 89 c7             	mov    %rax,%rdi
  406daf:	e8 6a 08 00 00       	callq  40761e <_ZNKSt8_Rb_treeINSt7__cxx1112basic_stringIcSt11char_traitsIcESaIcEEESt4pairIKS5_S5_ESt10_Select1stIS8_ESt4lessIS5_ESaIS8_EE11_Alloc_nodeclIS6_IPKcS5_EEEPSt13_Rb_tree_nodeIS8_EOT_>
  406db4:	48 89 45 a8          	mov    %rax,-0x58(%rbp)
  406db8:	48 8b 45 88          	mov    -0x78(%rbp),%rax
  406dbc:	48 8d 48 08          	lea    0x8(%rax),%rcx
  406dc0:	0f b6 45 9f          	movzbl -0x61(%rbp),%eax
  406dc4:	48 8b 95 78 ff ff ff 	mov    -0x88(%rbp),%rdx
  406dcb:	48 8b 75 a8          	mov    -0x58(%rbp),%rsi
  406dcf:	89 c7                	mov    %eax,%edi
  406dd1:	e8 da bd ff ff       	callq  402bb0 <_ZSt29_Rb_tree_insert_and_rebalancebPSt18_Rb_tree_node_baseS0_RS_@plt>
  406dd6:	48 8b 45 88          	mov    -0x78(%rbp),%rax
  406dda:	48 8b 40 28          	mov    0x28(%rax),%rax
  406dde:	48 8d 50 01          	lea    0x1(%rax),%rdx
  406de2:	48 8b 45 88          	mov    -0x78(%rbp),%rax
  406de6:	48 89 50 28          	mov    %rdx,0x28(%rax)
  406dea:	48 8b 55 a8          	mov    -0x58(%rbp),%rdx
  406dee:	48 8d 45 a0          	lea    -0x60(%rbp),%rax
  406df2:	48 89 d6             	mov    %rdx,%rsi
  406df5:	48 89 c7             	mov    %rax,%rdi
  406df8:	e8 45 f9 ff ff       	callq  406742 <_ZNSt17_Rb_tree_iteratorISt4pairIKNSt7__cxx1112basic_stringIcSt11char_traitsIcESaIcEEES6_EEC1EPSt18_Rb_tree_node_base>
  406dfd:	48 8b 45 a0          	mov    -0x60(%rbp),%rax
  406e01:	48 8b 5d d8          	mov    -0x28(%rbp),%rbx
  406e05:	64 48 33 1c 25 28 00 	xor    %fs:0x28,%rbx
  406e0c:	00 00 
  406e0e:	74 43                	je     406e53 <_ZNSt8_Rb_treeINSt7__cxx1112basic_stringIcSt11char_traitsIcESaIcEEESt4pairIKS5_S5_ESt10_Select1stIS8_ESt4lessIS5_ESaIS8_EE10_M_insert_IS6_IPKcS5_ENSE_11_Alloc_nodeEEESt17_Rb_tree_iteratorIS8_EPSt18_Rb_tree_node_baseSN_OT_RT0_+0x1db>
  406e10:	eb 3c                	jmp    406e4e <_ZNSt8_Rb_treeINSt7__cxx1112basic_stringIcSt11char_traitsIcESaIcEEESt4pairIKS5_S5_ESt10_Select1stIS8_ESt4lessIS5_ESaIS8_EE10_M_insert_IS6_IPKcS5_ENSE_11_Alloc_nodeEEESt17_Rb_tree_iteratorIS8_EPSt18_Rb_tree_node_baseSN_OT_RT0_+0x1d6>
  406e12:	49 89 c6             	mov    %rax,%r14
  406e15:	45 84 ed             	test   %r13b,%r13b
  406e18:	74 0c                	je     406e26 <_ZNSt8_Rb_treeINSt7__cxx1112basic_stringIcSt11char_traitsIcESaIcEEESt4pairIKS5_S5_ESt10_Select1stIS8_ESt4lessIS5_ESaIS8_EE10_M_insert_IS6_IPKcS5_ENSE_11_Alloc_nodeEEESt17_Rb_tree_iteratorIS8_EPSt18_Rb_tree_node_baseSN_OT_RT0_+0x1ae>
  406e1a:	48 8d 45 b0          	lea    -0x50(%rbp),%rax
  406e1e:	48 89 c7             	mov    %rax,%rdi
  406e21:	e8 0a bf ff ff       	callq  402d30 <_ZNSt7__cxx1112basic_stringIcSt11char_traitsIcESaIcEED1Ev@plt>
  406e26:	4c 89 f0             	mov    %r14,%rax
  406e29:	45 84 e4             	test   %r12b,%r12b
  406e2c:	49 89 c4             	mov    %rax,%r12
  406e2f:	84 db                	test   %bl,%bl
  406e31:	74 0f                	je     406e42 <_ZNSt8_Rb_treeINSt7__cxx1112basic_stringIcSt11char_traitsIcESaIcEEESt4pairIKS5_S5_ESt10_Select1stIS8_ESt4lessIS5_ESaIS8_EE10_M_insert_IS6_IPKcS5_ENSE_11_Alloc_nodeEEESt17_Rb_tree_iteratorIS8_EPSt18_Rb_tree_node_baseSN_OT_RT0_+0x1ca>
  406e33:	90                   	nop
  406e34:	48 8d 45 9e          	lea    -0x62(%rbp),%rax
  406e38:	48 89 c7             	mov    %rax,%rdi
  406e3b:	e8 e0 c0 ff ff       	callq  402f20 <_ZNSaIcED1Ev@plt>
  406e40:	eb 01                	jmp    406e43 <_ZNSt8_Rb_treeINSt7__cxx1112basic_stringIcSt11char_traitsIcESaIcEEESt4pairIKS5_S5_ESt10_Select1stIS8_ESt4lessIS5_ESaIS8_EE10_M_insert_IS6_IPKcS5_ENSE_11_Alloc_nodeEEESt17_Rb_tree_iteratorIS8_EPSt18_Rb_tree_node_baseSN_OT_RT0_+0x1cb>
  406e42:	90                   	nop
  406e43:	4c 89 e0             	mov    %r12,%rax
  406e46:	48 89 c7             	mov    %rax,%rdi
  406e49:	e8 a2 c2 ff ff       	callq  4030f0 <_Unwind_Resume@plt>
  406e4e:	e8 ed c0 ff ff       	callq  402f40 <__stack_chk_fail@plt>
  406e53:	48 83 ec 80          	sub    $0xffffffffffffff80,%rsp
  406e57:	5b                   	pop    %rbx
  406e58:	41 5c                	pop    %r12
  406e5a:	41 5d                	pop    %r13
  406e5c:	41 5e                	pop    %r14
  406e5e:	5d                   	pop    %rbp
  406e5f:	c3                   	retq   

0000000000406e60 <_ZN9__gnu_cxx14__alloc_traitsISaISt13_Rb_tree_nodeISt4pairIKNSt7__cxx1112basic_stringIcSt11char_traitsIcESaIcEEES8_EEEE17_S_select_on_copyERKSC_>:
  406e60:	55                   	push   %rbp
  406e61:	48 89 e5             	mov    %rsp,%rbp
  406e64:	48 83 ec 20          	sub    $0x20,%rsp
  406e68:	48 89 7d e8          	mov    %rdi,-0x18(%rbp)
  406e6c:	48 89 75 e0          	mov    %rsi,-0x20(%rbp)
  406e70:	64 48 8b 04 25 28 00 	mov    %fs:0x28,%rax
  406e77:	00 00 
  406e79:	48 89 45 f8          	mov    %rax,-0x8(%rbp)
  406e7d:	31 c0                	xor    %eax,%eax
  406e7f:	48 8b 45 e8          	mov    -0x18(%rbp),%rax
  406e83:	48 8b 55 e0          	mov    -0x20(%rbp),%rdx
  406e87:	48 89 d6             	mov    %rdx,%rsi
  406e8a:	48 89 c7             	mov    %rax,%rdi
  406e8d:	e8 bf 07 00 00       	callq  407651 <_ZNSt16allocator_traitsISaISt13_Rb_tree_nodeISt4pairIKNSt7__cxx1112basic_stringIcSt11char_traitsIcESaIcEEES7_EEEE37select_on_container_copy_constructionERKSB_>
  406e92:	48 8b 45 e8          	mov    -0x18(%rbp),%rax
  406e96:	48 8b 4d f8          	mov    -0x8(%rbp),%rcx
  406e9a:	64 48 33 0c 25 28 00 	xor    %fs:0x28,%rcx
  406ea1:	00 00 
  406ea3:	74 05                	je     406eaa <_ZN9__gnu_cxx14__alloc_traitsISaISt13_Rb_tree_nodeISt4pairIKNSt7__cxx1112basic_stringIcSt11char_traitsIcESaIcEEES8_EEEE17_S_select_on_copyERKSC_+0x4a>
  406ea5:	e8 96 c0 ff ff       	callq  402f40 <__stack_chk_fail@plt>
  406eaa:	c9                   	leaveq 
  406eab:	c3                   	retq   

0000000000406eac <_ZNKSt8_Rb_treeINSt7__cxx1112basic_stringIcSt11char_traitsIcESaIcEEESt4pairIKS5_S5_ESt10_Select1stIS8_ESt4lessIS5_ESaIS8_EE21_M_get_Node_allocatorEv>:
  406eac:	55                   	push   %rbp
  406ead:	48 89 e5             	mov    %rsp,%rbp
  406eb0:	48 89 7d f8          	mov    %rdi,-0x8(%rbp)
  406eb4:	48 8b 45 f8          	mov    -0x8(%rbp),%rax
  406eb8:	5d                   	pop    %rbp
  406eb9:	c3                   	retq   

0000000000406eba <_ZNKSt8_Rb_treeINSt7__cxx1112basic_stringIcSt11char_traitsIcESaIcEEESt4pairIKS5_S5_ESt10_Select1stIS8_ESt4lessIS5_ESaIS8_EE7_M_rootEv>:
  406eba:	55                   	push   %rbp
  406ebb:	48 89 e5             	mov    %rsp,%rbp
  406ebe:	48 89 7d f8          	mov    %rdi,-0x8(%rbp)
  406ec2:	48 8b 45 f8          	mov    -0x8(%rbp),%rax
  406ec6:	48 8b 40 10          	mov    0x10(%rax),%rax
  406eca:	5d                   	pop    %rbp
  406ecb:	c3                   	retq   

0000000000406ecc <_ZNSt8_Rb_treeINSt7__cxx1112basic_stringIcSt11char_traitsIcESaIcEEESt4pairIKS5_S5_ESt10_Select1stIS8_ESt4lessIS5_ESaIS8_EE7_M_rootEv>:
  406ecc:	55                   	push   %rbp
  406ecd:	48 89 e5             	mov    %rsp,%rbp
  406ed0:	48 89 7d f8          	mov    %rdi,-0x8(%rbp)
  406ed4:	48 8b 45 f8          	mov    -0x8(%rbp),%rax
  406ed8:	48 83 c0 10          	add    $0x10,%rax
  406edc:	5d                   	pop    %rbp
  406edd:	c3                   	retq   

0000000000406ede <_ZNKSt8_Rb_treeINSt7__cxx1112basic_stringIcSt11char_traitsIcESaIcEEESt4pairIKS5_S5_ESt10_Select1stIS8_ESt4lessIS5_ESaIS8_EE8_M_beginEv>:
  406ede:	55                   	push   %rbp
  406edf:	48 89 e5             	mov    %rsp,%rbp
  406ee2:	48 89 7d f8          	mov    %rdi,-0x8(%rbp)
  406ee6:	48 8b 45 f8          	mov    -0x8(%rbp),%rax
  406eea:	48 8b 40 10          	mov    0x10(%rax),%rax
  406eee:	5d                   	pop    %rbp
  406eef:	c3                   	retq   

0000000000406ef0 <_ZNSt8_Rb_treeINSt7__cxx1112basic_stringIcSt11char_traitsIcESaIcEEESt4pairIKS5_S5_ESt10_Select1stIS8_ESt4lessIS5_ESaIS8_EE7_M_copyEPKSt13_Rb_tree_nodeIS8_EPSt18_Rb_tree_node_base>:
  406ef0:	55                   	push   %rbp
  406ef1:	48 89 e5             	mov    %rsp,%rbp
  406ef4:	48 83 ec 30          	sub    $0x30,%rsp
  406ef8:	48 89 7d e8          	mov    %rdi,-0x18(%rbp)
  406efc:	48 89 75 e0          	mov    %rsi,-0x20(%rbp)
  406f00:	48 89 55 d8          	mov    %rdx,-0x28(%rbp)
  406f04:	64 48 8b 04 25 28 00 	mov    %fs:0x28,%rax
  406f0b:	00 00 
  406f0d:	48 89 45 f8          	mov    %rax,-0x8(%rbp)
  406f11:	31 c0                	xor    %eax,%eax
  406f13:	48 8b 55 e8          	mov    -0x18(%rbp),%rdx
  406f17:	48 8d 45 f0          	lea    -0x10(%rbp),%rax
  406f1b:	48 89 d6             	mov    %rdx,%rsi
  406f1e:	48 89 c7             	mov    %rax,%rdi
  406f21:	e8 4c f9 ff ff       	callq  406872 <_ZNSt8_Rb_treeINSt7__cxx1112basic_stringIcSt11char_traitsIcESaIcEEESt4pairIKS5_S5_ESt10_Select1stIS8_ESt4lessIS5_ESaIS8_EE11_Alloc_nodeC1ERSE_>
  406f26:	48 8d 4d f0          	lea    -0x10(%rbp),%rcx
  406f2a:	48 8b 55 d8          	mov    -0x28(%rbp),%rdx
  406f2e:	48 8b 75 e0          	mov    -0x20(%rbp),%rsi
  406f32:	48 8b 45 e8          	mov    -0x18(%rbp),%rax
  406f36:	48 89 c7             	mov    %rax,%rdi
  406f39:	e8 3c 07 00 00       	callq  40767a <_ZNSt8_Rb_treeINSt7__cxx1112basic_stringIcSt11char_traitsIcESaIcEEESt4pairIKS5_S5_ESt10_Select1stIS8_ESt4lessIS5_ESaIS8_EE7_M_copyINSE_11_Alloc_nodeEEEPSt13_Rb_tree_nodeIS8_EPKSI_PSt18_Rb_tree_node_baseRT_>
  406f3e:	48 8b 4d f8          	mov    -0x8(%rbp),%rcx
  406f42:	64 48 33 0c 25 28 00 	xor    %fs:0x28,%rcx
  406f49:	00 00 
  406f4b:	74 05                	je     406f52 <_ZNSt8_Rb_treeINSt7__cxx1112basic_stringIcSt11char_traitsIcESaIcEEESt4pairIKS5_S5_ESt10_Select1stIS8_ESt4lessIS5_ESaIS8_EE7_M_copyEPKSt13_Rb_tree_nodeIS8_EPSt18_Rb_tree_node_base+0x62>
  406f4d:	e8 ee bf ff ff       	callq  402f40 <__stack_chk_fail@plt>
  406f52:	c9                   	leaveq 
  406f53:	c3                   	retq   

0000000000406f54 <_ZNSt8_Rb_treeINSt7__cxx1112basic_stringIcSt11char_traitsIcESaIcEEESt4pairIKS5_S5_ESt10_Select1stIS8_ESt4lessIS5_ESaIS8_EE11_M_leftmostEv>:
  406f54:	55                   	push   %rbp
  406f55:	48 89 e5             	mov    %rsp,%rbp
  406f58:	48 89 7d f8          	mov    %rdi,-0x8(%rbp)
  406f5c:	48 8b 45 f8          	mov    -0x8(%rbp),%rax
  406f60:	48 83 c0 18          	add    $0x18,%rax
  406f64:	5d                   	pop    %rbp
  406f65:	c3                   	retq   

0000000000406f66 <_ZNSt8_Rb_treeINSt7__cxx1112basic_stringIcSt11char_traitsIcESaIcEEESt4pairIKS5_S5_ESt10_Select1stIS8_ESt4lessIS5_ESaIS8_EE10_S_minimumEPSt18_Rb_tree_node_base>:
  406f66:	55                   	push   %rbp
  406f67:	48 89 e5             	mov    %rsp,%rbp
  406f6a:	48 83 ec 10          	sub    $0x10,%rsp
  406f6e:	48 89 7d f8          	mov    %rdi,-0x8(%rbp)
  406f72:	48 8b 45 f8          	mov    -0x8(%rbp),%rax
  406f76:	48 89 c7             	mov    %rax,%rdi
  406f79:	e8 34 d9 ff ff       	callq  4048b2 <_ZNSt18_Rb_tree_node_base10_S_minimumEPS_>
  406f7e:	c9                   	leaveq 
  406f7f:	c3                   	retq   

0000000000406f80 <_ZNSt8_Rb_treeINSt7__cxx1112basic_stringIcSt11char_traitsIcESaIcEEESt4pairIKS5_S5_ESt10_Select1stIS8_ESt4lessIS5_ESaIS8_EE12_M_rightmostEv>:
  406f80:	55                   	push   %rbp
  406f81:	48 89 e5             	mov    %rsp,%rbp
  406f84:	48 89 7d f8          	mov    %rdi,-0x8(%rbp)
  406f88:	48 8b 45 f8          	mov    -0x8(%rbp),%rax
  406f8c:	48 83 c0 20          	add    $0x20,%rax
  406f90:	5d                   	pop    %rbp
  406f91:	c3                   	retq   

0000000000406f92 <_ZNSt8_Rb_treeINSt7__cxx1112basic_stringIcSt11char_traitsIcESaIcEEESt4pairIKS5_S5_ESt10_Select1stIS8_ESt4lessIS5_ESaIS8_EE10_S_maximumEPSt18_Rb_tree_node_base>:
  406f92:	55                   	push   %rbp
  406f93:	48 89 e5             	mov    %rsp,%rbp
  406f96:	48 83 ec 10          	sub    $0x10,%rsp
  406f9a:	48 89 7d f8          	mov    %rdi,-0x8(%rbp)
  406f9e:	48 8b 45 f8          	mov    -0x8(%rbp),%rax
  406fa2:	48 89 c7             	mov    %rax,%rdi
  406fa5:	e8 31 d9 ff ff       	callq  4048db <_ZNSt18_Rb_tree_node_base10_S_maximumEPS_>
  406faa:	c9                   	leaveq 
  406fab:	c3                   	retq   

0000000000406fac <_ZNSaISt13_Rb_tree_nodeISt4pairIKNSt7__cxx1112basic_stringIcSt11char_traitsIcESaIcEEES6_EEEC1Ev>:
  406fac:	55                   	push   %rbp
  406fad:	48 89 e5             	mov    %rsp,%rbp
  406fb0:	48 83 ec 10          	sub    $0x10,%rsp
  406fb4:	48 89 7d f8          	mov    %rdi,-0x8(%rbp)
  406fb8:	48 8b 45 f8          	mov    -0x8(%rbp),%rax
  406fbc:	48 89 c7             	mov    %rax,%rdi
  406fbf:	e8 84 04 00 00       	callq  407448 <_ZN9__gnu_cxx13new_allocatorISt13_Rb_tree_nodeISt4pairIKNSt7__cxx1112basic_stringIcSt11char_traitsIcESaIcEEES8_EEEC1Ev>
  406fc4:	90                   	nop
  406fc5:	c9                   	leaveq 
  406fc6:	c3                   	retq   
  406fc7:	90                   	nop

0000000000406fc8 <_ZNSt8_Rb_treeINSt7__cxx1112basic_stringIcSt11char_traitsIcESaIcEEESt4pairIKS5_S5_ESt10_Select1stIS8_ESt4lessIS5_ESaIS8_EE13_Rb_tree_implISC_Lb1EE13_M_initializeEv>:
  406fc8:	55                   	push   %rbp
  406fc9:	48 89 e5             	mov    %rsp,%rbp
  406fcc:	48 89 7d f8          	mov    %rdi,-0x8(%rbp)
  406fd0:	48 8b 45 f8          	mov    -0x8(%rbp),%rax
  406fd4:	c7 40 08 00 00 00 00 	movl   $0x0,0x8(%rax)
  406fdb:	48 8b 45 f8          	mov    -0x8(%rbp),%rax
  406fdf:	48 c7 40 10 00 00 00 	movq   $0x0,0x10(%rax)
  406fe6:	00 
  406fe7:	48 8b 45 f8          	mov    -0x8(%rbp),%rax
  406feb:	48 8d 50 08          	lea    0x8(%rax),%rdx
  406fef:	48 8b 45 f8          	mov    -0x8(%rbp),%rax
  406ff3:	48 89 50 18          	mov    %rdx,0x18(%rax)
  406ff7:	48 8b 45 f8          	mov    -0x8(%rbp),%rax
  406ffb:	48 8d 50 08          	lea    0x8(%rax),%rdx
  406fff:	48 8b 45 f8          	mov    -0x8(%rbp),%rax
  407003:	48 89 50 20          	mov    %rdx,0x20(%rax)
  407007:	90                   	nop
  407008:	5d                   	pop    %rbp
  407009:	c3                   	retq   

000000000040700a <_ZNSt8_Rb_treeINSt7__cxx1112basic_stringIcSt11char_traitsIcESaIcEEESt4pairIKS5_S5_ESt10_Select1stIS8_ESt4lessIS5_ESaIS8_EE15_M_destroy_nodeEPSt13_Rb_tree_nodeIS8_E>:
  40700a:	55                   	push   %rbp
  40700b:	48 89 e5             	mov    %rsp,%rbp
  40700e:	53                   	push   %rbx
  40700f:	48 83 ec 18          	sub    $0x18,%rsp
  407013:	48 89 7d e8          	mov    %rdi,-0x18(%rbp)
  407017:	48 89 75 e0          	mov    %rsi,-0x20(%rbp)
  40701b:	48 8b 45 e0          	mov    -0x20(%rbp),%rax
  40701f:	48 89 c7             	mov    %rax,%rdi
  407022:	e8 a1 eb ff ff       	callq  405bc8 <_ZNSt13_Rb_tree_nodeISt4pairIKNSt7__cxx1112basic_stringIcSt11char_traitsIcESaIcEEES6_EE9_M_valptrEv>
  407027:	48 89 c3             	mov    %rax,%rbx
  40702a:	48 8b 45 e8          	mov    -0x18(%rbp),%rax
  40702e:	48 89 c7             	mov    %rax,%rdi
  407031:	e8 ae 07 00 00       	callq  4077e4 <_ZNSt8_Rb_treeINSt7__cxx1112basic_stringIcSt11char_traitsIcESaIcEEESt4pairIKS5_S5_ESt10_Select1stIS8_ESt4lessIS5_ESaIS8_EE21_M_get_Node_allocatorEv>
  407036:	48 89 de             	mov    %rbx,%rsi
  407039:	48 89 c7             	mov    %rax,%rdi
  40703c:	e8 b1 07 00 00       	callq  4077f2 <_ZNSt16allocator_traitsISaISt13_Rb_tree_nodeISt4pairIKNSt7__cxx1112basic_stringIcSt11char_traitsIcESaIcEEES7_EEEE7destroyIS9_EEvRSB_PT_>
  407041:	90                   	nop
  407042:	48 83 c4 18          	add    $0x18,%rsp
  407046:	5b                   	pop    %rbx
  407047:	5d                   	pop    %rbp
  407048:	c3                   	retq   
  407049:	90                   	nop

000000000040704a <_ZNSt8_Rb_treeINSt7__cxx1112basic_stringIcSt11char_traitsIcESaIcEEESt4pairIKS5_S5_ESt10_Select1stIS8_ESt4lessIS5_ESaIS8_EE11_M_put_nodeEPSt13_Rb_tree_nodeIS8_E>:
  40704a:	55                   	push   %rbp
  40704b:	48 89 e5             	mov    %rsp,%rbp
  40704e:	48 83 ec 10          	sub    $0x10,%rsp
  407052:	48 89 7d f8          	mov    %rdi,-0x8(%rbp)
  407056:	48 89 75 f0          	mov    %rsi,-0x10(%rbp)
  40705a:	48 8b 45 f8          	mov    -0x8(%rbp),%rax
  40705e:	48 89 c7             	mov    %rax,%rdi
  407061:	e8 7e 07 00 00       	callq  4077e4 <_ZNSt8_Rb_treeINSt7__cxx1112basic_stringIcSt11char_traitsIcESaIcEEESt4pairIKS5_S5_ESt10_Select1stIS8_ESt4lessIS5_ESaIS8_EE21_M_get_Node_allocatorEv>
  407066:	48 89 c1             	mov    %rax,%rcx
  407069:	48 8b 45 f0          	mov    -0x10(%rbp),%rax
  40706d:	ba 01 00 00 00       	mov    $0x1,%edx
  407072:	48 89 c6             	mov    %rax,%rsi
  407075:	48 89 cf             	mov    %rcx,%rdi
  407078:	e8 9b 07 00 00       	callq  407818 <_ZNSt16allocator_traitsISaISt13_Rb_tree_nodeISt4pairIKNSt7__cxx1112basic_stringIcSt11char_traitsIcESaIcEEES7_EEEE10deallocateERSB_PSA_m>
  40707d:	90                   	nop
  40707e:	c9                   	leaveq 
  40707f:	c3                   	retq   

0000000000407080 <_ZNSaIhEC1Ev>:
  407080:	55                   	push   %rbp
  407081:	48 89 e5             	mov    %rsp,%rbp
  407084:	48 83 ec 10          	sub    $0x10,%rsp
  407088:	48 89 7d f8          	mov    %rdi,-0x8(%rbp)
  40708c:	48 8b 45 f8          	mov    -0x8(%rbp),%rax
  407090:	48 89 c7             	mov    %rax,%rdi
  407093:	e8 ae 07 00 00       	callq  407846 <_ZN9__gnu_cxx13new_allocatorIhEC1Ev>
  407098:	90                   	nop
  407099:	c9                   	leaveq 
  40709a:	c3                   	retq   
  40709b:	90                   	nop

000000000040709c <_ZN9__gnu_cxx13new_allocatorIhED1Ev>:
  40709c:	55                   	push   %rbp
  40709d:	48 89 e5             	mov    %rsp,%rbp
  4070a0:	48 89 7d f8          	mov    %rdi,-0x8(%rbp)
  4070a4:	90                   	nop
  4070a5:	5d                   	pop    %rbp
  4070a6:	c3                   	retq   

00000000004070a7 <_ZNSt16allocator_traitsISaIhEE10deallocateERS0_Phm>:
  4070a7:	55                   	push   %rbp
  4070a8:	48 89 e5             	mov    %rsp,%rbp
  4070ab:	48 83 ec 20          	sub    $0x20,%rsp
  4070af:	48 89 7d f8          	mov    %rdi,-0x8(%rbp)
  4070b3:	48 89 75 f0          	mov    %rsi,-0x10(%rbp)
  4070b7:	48 89 55 e8          	mov    %rdx,-0x18(%rbp)
  4070bb:	48 8b 55 e8          	mov    -0x18(%rbp),%rdx
  4070bf:	48 8b 4d f0          	mov    -0x10(%rbp),%rcx
  4070c3:	48 8b 45 f8          	mov    -0x8(%rbp),%rax
  4070c7:	48 89 ce             	mov    %rcx,%rsi
  4070ca:	48 89 c7             	mov    %rax,%rdi
  4070cd:	e8 80 07 00 00       	callq  407852 <_ZN9__gnu_cxx13new_allocatorIhE10deallocateEPhm>
  4070d2:	90                   	nop
  4070d3:	c9                   	leaveq 
  4070d4:	c3                   	retq   

00000000004070d5 <_ZNSt12_Destroy_auxILb1EE9__destroyIPhEEvT_S3_>:
  4070d5:	55                   	push   %rbp
  4070d6:	48 89 e5             	mov    %rsp,%rbp
  4070d9:	48 89 7d f8          	mov    %rdi,-0x8(%rbp)
  4070dd:	48 89 75 f0          	mov    %rsi,-0x10(%rbp)
  4070e1:	90                   	nop
  4070e2:	5d                   	pop    %rbp
  4070e3:	c3                   	retq   

00000000004070e4 <_ZNSt8_Rb_treeINSt7__cxx1112basic_stringIcSt11char_traitsIcESaIcEEESt4pairIKS5_S5_ESt10_Select1stIS8_ESt4lessIS5_ESaIS8_EE11_M_get_nodeEv>:
  4070e4:	55                   	push   %rbp
  4070e5:	48 89 e5             	mov    %rsp,%rbp
  4070e8:	48 83 ec 10          	sub    $0x10,%rsp
  4070ec:	48 89 7d f8          	mov    %rdi,-0x8(%rbp)
  4070f0:	48 8b 45 f8          	mov    -0x8(%rbp),%rax
  4070f4:	48 89 c7             	mov    %rax,%rdi
  4070f7:	e8 e8 06 00 00       	callq  4077e4 <_ZNSt8_Rb_treeINSt7__cxx1112basic_stringIcSt11char_traitsIcESaIcEEESt4pairIKS5_S5_ESt10_Select1stIS8_ESt4lessIS5_ESaIS8_EE21_M_get_Node_allocatorEv>
  4070fc:	be 01 00 00 00       	mov    $0x1,%esi
  407101:	48 89 c7             	mov    %rax,%rdi
  407104:	e8 6c 07 00 00       	callq  407875 <_ZNSt16allocator_traitsISaISt13_Rb_tree_nodeISt4pairIKNSt7__cxx1112basic_stringIcSt11char_traitsIcESaIcEEES7_EEEE8allocateERSB_m>
  407109:	c9                   	leaveq 
  40710a:	c3                   	retq   
  40710b:	90                   	nop

000000000040710c <_ZNSt18_Rb_tree_node_baseC1Ev>:
  40710c:	55                   	push   %rbp
  40710d:	48 89 e5             	mov    %rsp,%rbp
  407110:	48 89 7d f8          	mov    %rdi,-0x8(%rbp)
  407114:	90                   	nop
  407115:	5d                   	pop    %rbp
  407116:	c3                   	retq   
  407117:	90                   	nop

0000000000407118 <_ZN9__gnu_cxx16__aligned_membufISt4pairIKNSt7__cxx1112basic_stringIcSt11char_traitsIcESaIcEEES7_EEC1Ev>:
  407118:	55                   	push   %rbp
  407119:	48 89 e5             	mov    %rsp,%rbp
  40711c:	48 89 7d f8          	mov    %rdi,-0x8(%rbp)
  407120:	90                   	nop
  407121:	5d                   	pop    %rbp
  407122:	c3                   	retq   
  407123:	90                   	nop

0000000000407124 <_ZNSt13_Rb_tree_nodeISt4pairIKNSt7__cxx1112basic_stringIcSt11char_traitsIcESaIcEEES6_EEC1Ev>:
  407124:	55                   	push   %rbp
  407125:	48 89 e5             	mov    %rsp,%rbp
  407128:	48 83 ec 10          	sub    $0x10,%rsp
  40712c:	48 89 7d f8          	mov    %rdi,-0x8(%rbp)
  407130:	48 8b 45 f8          	mov    -0x8(%rbp),%rax
  407134:	48 89 c7             	mov    %rax,%rdi
  407137:	e8 d0 ff ff ff       	callq  40710c <_ZNSt18_Rb_tree_node_baseC1Ev>
  40713c:	48 8b 45 f8          	mov    -0x8(%rbp),%rax
  407140:	48 83 c0 20          	add    $0x20,%rax
  407144:	48 89 c7             	mov    %rax,%rdi
  407147:	e8 cc ff ff ff       	callq  407118 <_ZN9__gnu_cxx16__aligned_membufISt4pairIKNSt7__cxx1112basic_stringIcSt11char_traitsIcESaIcEEES7_EEC1Ev>
  40714c:	90                   	nop
  40714d:	c9                   	leaveq 
  40714e:	c3                   	retq   
  40714f:	90                   	nop

0000000000407150 <_ZNSt8_Rb_treeINSt7__cxx1112basic_stringIcSt11char_traitsIcESaIcEEESt4pairIKS5_S5_ESt10_Select1stIS8_ESt4lessIS5_ESaIS8_EE17_M_construct_nodeIJRKSt21piecewise_construct_tSt5tupleIJOS5_EESJ_IJEEEEEvPSt13_Rb_tree_nodeIS8_EDpOT_>:
  407150:	55                   	push   %rbp
  407151:	48 89 e5             	mov    %rsp,%rbp
  407154:	41 56                	push   %r14
  407156:	41 55                	push   %r13
  407158:	41 54                	push   %r12
  40715a:	53                   	push   %rbx
  40715b:	48 83 ec 30          	sub    $0x30,%rsp
  40715f:	48 89 7d d8          	mov    %rdi,-0x28(%rbp)
  407163:	48 89 75 d0          	mov    %rsi,-0x30(%rbp)
  407167:	48 89 55 c8          	mov    %rdx,-0x38(%rbp)
  40716b:	48 89 4d c0          	mov    %rcx,-0x40(%rbp)
  40716f:	4c 89 45 b8          	mov    %r8,-0x48(%rbp)
  407173:	48 8b 45 d0          	mov    -0x30(%rbp),%rax
  407177:	48 89 c6             	mov    %rax,%rsi
  40717a:	bf 60 00 00 00       	mov    $0x60,%edi
  40717f:	e8 af d6 ff ff       	callq  404833 <_ZnwmPv>
  407184:	48 85 c0             	test   %rax,%rax
  407187:	74 08                	je     407191 <_ZNSt8_Rb_treeINSt7__cxx1112basic_stringIcSt11char_traitsIcESaIcEEESt4pairIKS5_S5_ESt10_Select1stIS8_ESt4lessIS5_ESaIS8_EE17_M_construct_nodeIJRKSt21piecewise_construct_tSt5tupleIJOS5_EESJ_IJEEEEEvPSt13_Rb_tree_nodeIS8_EDpOT_+0x41>
  407189:	48 89 c7             	mov    %rax,%rdi
  40718c:	e8 93 ff ff ff       	callq  407124 <_ZNSt13_Rb_tree_nodeISt4pairIKNSt7__cxx1112basic_stringIcSt11char_traitsIcESaIcEEES6_EEC1Ev>
  407191:	48 8b 45 b8          	mov    -0x48(%rbp),%rax
  407195:	48 89 c7             	mov    %rax,%rdi
  407198:	e8 ea e5 ff ff       	callq  405787 <_ZSt7forwardISt5tupleIJEEEOT_RNSt16remove_referenceIS2_E4typeE>
  40719d:	49 89 c6             	mov    %rax,%r14
  4071a0:	48 8b 45 c0          	mov    -0x40(%rbp),%rax
  4071a4:	48 89 c7             	mov    %rax,%rdi
  4071a7:	e8 cd e5 ff ff       	callq  405779 <_ZSt7forwardISt5tupleIJONSt7__cxx1112basic_stringIcSt11char_traitsIcESaIcEEEEEEOT_RNSt16remove_referenceIS9_E4typeE>
  4071ac:	49 89 c5             	mov    %rax,%r13
  4071af:	48 8b 45 c8          	mov    -0x38(%rbp),%rax
  4071b3:	48 89 c7             	mov    %rax,%rdi
  4071b6:	e8 b0 e5 ff ff       	callq  40576b <_ZSt7forwardIRKSt21piecewise_construct_tEOT_RNSt16remove_referenceIS3_E4typeE>
  4071bb:	49 89 c4             	mov    %rax,%r12
  4071be:	48 8b 45 d0          	mov    -0x30(%rbp),%rax
  4071c2:	48 89 c7             	mov    %rax,%rdi
  4071c5:	e8 fe e9 ff ff       	callq  405bc8 <_ZNSt13_Rb_tree_nodeISt4pairIKNSt7__cxx1112basic_stringIcSt11char_traitsIcESaIcEEES6_EE9_M_valptrEv>
  4071ca:	48 89 c3             	mov    %rax,%rbx
  4071cd:	48 8b 45 d8          	mov    -0x28(%rbp),%rax
  4071d1:	48 89 c7             	mov    %rax,%rdi
  4071d4:	e8 0b 06 00 00       	callq  4077e4 <_ZNSt8_Rb_treeINSt7__cxx1112basic_stringIcSt11char_traitsIcESaIcEEESt4pairIKS5_S5_ESt10_Select1stIS8_ESt4lessIS5_ESaIS8_EE21_M_get_Node_allocatorEv>
  4071d9:	4d 89 f0             	mov    %r14,%r8
  4071dc:	4c 89 e9             	mov    %r13,%rcx
  4071df:	4c 89 e2             	mov    %r12,%rdx
  4071e2:	48 89 de             	mov    %rbx,%rsi
  4071e5:	48 89 c7             	mov    %rax,%rdi
  4071e8:	e8 b2 06 00 00       	callq  40789f <_ZNSt16allocator_traitsISaISt13_Rb_tree_nodeISt4pairIKNSt7__cxx1112basic_stringIcSt11char_traitsIcESaIcEEES7_EEEE9constructIS9_JRKSt21piecewise_construct_tSt5tupleIJOS7_EESH_IJEEEEEvRSB_PT_DpOT0_>
  4071ed:	eb 33                	jmp    407222 <_ZNSt8_Rb_treeINSt7__cxx1112basic_stringIcSt11char_traitsIcESaIcEEESt4pairIKS5_S5_ESt10_Select1stIS8_ESt4lessIS5_ESaIS8_EE17_M_construct_nodeIJRKSt21piecewise_construct_tSt5tupleIJOS5_EESJ_IJEEEEEvPSt13_Rb_tree_nodeIS8_EDpOT_+0xd2>
  4071ef:	48 89 c7             	mov    %rax,%rdi
  4071f2:	e8 99 ba ff ff       	callq  402c90 <__cxa_begin_catch@plt>
  4071f7:	48 8b 55 d0          	mov    -0x30(%rbp),%rdx
  4071fb:	48 8b 45 d8          	mov    -0x28(%rbp),%rax
  4071ff:	48 89 d6             	mov    %rdx,%rsi
  407202:	48 89 c7             	mov    %rax,%rdi
  407205:	e8 40 fe ff ff       	callq  40704a <_ZNSt8_Rb_treeINSt7__cxx1112basic_stringIcSt11char_traitsIcESaIcEEESt4pairIKS5_S5_ESt10_Select1stIS8_ESt4lessIS5_ESaIS8_EE11_M_put_nodeEPSt13_Rb_tree_nodeIS8_E>
  40720a:	e8 d1 bd ff ff       	callq  402fe0 <__cxa_rethrow@plt>
  40720f:	48 89 c3             	mov    %rax,%rbx
  407212:	e8 59 be ff ff       	callq  403070 <__cxa_end_catch@plt>
  407217:	48 89 d8             	mov    %rbx,%rax
  40721a:	48 89 c7             	mov    %rax,%rdi
  40721d:	e8 ce be ff ff       	callq  4030f0 <_Unwind_Resume@plt>
  407222:	48 83 c4 30          	add    $0x30,%rsp
  407226:	5b                   	pop    %rbx
  407227:	41 5c                	pop    %r12
  407229:	41 5d                	pop    %r13
  40722b:	41 5e                	pop    %r14
  40722d:	5d                   	pop    %rbp
  40722e:	c3                   	retq   
  40722f:	90                   	nop

0000000000407230 <_ZNKSt23_Rb_tree_const_iteratorISt4pairIKNSt7__cxx1112basic_stringIcSt11char_traitsIcESaIcEEES6_EE13_M_const_castEv>:
  407230:	55                   	push   %rbp
  407231:	48 89 e5             	mov    %rsp,%rbp
  407234:	48 83 ec 20          	sub    $0x20,%rsp
  407238:	48 89 7d e8          	mov    %rdi,-0x18(%rbp)
  40723c:	64 48 8b 04 25 28 00 	mov    %fs:0x28,%rax
  407243:	00 00 
  407245:	48 89 45 f8          	mov    %rax,-0x8(%rbp)
  407249:	31 c0                	xor    %eax,%eax
  40724b:	48 8b 45 e8          	mov    -0x18(%rbp),%rax
  40724f:	48 8b 10             	mov    (%rax),%rdx
  407252:	48 8d 45 f0          	lea    -0x10(%rbp),%rax
  407256:	48 89 d6             	mov    %rdx,%rsi
  407259:	48 89 c7             	mov    %rax,%rdi
  40725c:	e8 e1 f4 ff ff       	callq  406742 <_ZNSt17_Rb_tree_iteratorISt4pairIKNSt7__cxx1112basic_stringIcSt11char_traitsIcESaIcEEES6_EEC1EPSt18_Rb_tree_node_base>
  407261:	48 8b 45 f0          	mov    -0x10(%rbp),%rax
  407265:	48 8b 4d f8          	mov    -0x8(%rbp),%rcx
  407269:	64 48 33 0c 25 28 00 	xor    %fs:0x28,%rcx
  407270:	00 00 
  407272:	74 05                	je     407279 <_ZNKSt23_Rb_tree_const_iteratorISt4pairIKNSt7__cxx1112basic_stringIcSt11char_traitsIcESaIcEEES6_EE13_M_const_castEv+0x49>
  407274:	e8 c7 bc ff ff       	callq  402f40 <__stack_chk_fail@plt>
  407279:	c9                   	leaveq 
  40727a:	c3                   	retq   
  40727b:	90                   	nop

000000000040727c <_ZNKSt8_Rb_treeINSt7__cxx1112basic_stringIcSt11char_traitsIcESaIcEEESt4pairIKS5_S5_ESt10_Select1stIS8_ESt4lessIS5_ESaIS8_EE4sizeEv>:
  40727c:	55                   	push   %rbp
  40727d:	48 89 e5             	mov    %rsp,%rbp
  407280:	48 89 7d f8          	mov    %rdi,-0x8(%rbp)
  407284:	48 8b 45 f8          	mov    -0x8(%rbp),%rax
  407288:	48 8b 40 28          	mov    0x28(%rax),%rax
  40728c:	5d                   	pop    %rbp
  40728d:	c3                   	retq   

000000000040728e <_ZNSt17_Rb_tree_iteratorISt4pairIKNSt7__cxx1112basic_stringIcSt11char_traitsIcESaIcEEES6_EEmmEv>:
  40728e:	55                   	push   %rbp
  40728f:	48 89 e5             	mov    %rsp,%rbp
  407292:	48 83 ec 10          	sub    $0x10,%rsp
  407296:	48 89 7d f8          	mov    %rdi,-0x8(%rbp)
  40729a:	48 8b 45 f8          	mov    -0x8(%rbp),%rax
  40729e:	48 8b 00             	mov    (%rax),%rax
  4072a1:	48 89 c7             	mov    %rax,%rdi
  4072a4:	e8 57 bc ff ff       	callq  402f00 <_ZSt18_Rb_tree_decrementPSt18_Rb_tree_node_base@plt>
  4072a9:	48 89 c2             	mov    %rax,%rdx
  4072ac:	48 8b 45 f8          	mov    -0x8(%rbp),%rax
  4072b0:	48 89 10             	mov    %rdx,(%rax)
  4072b3:	48 8b 45 f8          	mov    -0x8(%rbp),%rax
  4072b7:	c9                   	leaveq 
  4072b8:	c3                   	retq   
  4072b9:	90                   	nop

00000000004072ba <_ZNSt17_Rb_tree_iteratorISt4pairIKNSt7__cxx1112basic_stringIcSt11char_traitsIcESaIcEEES6_EEppEv>:
  4072ba:	55                   	push   %rbp
  4072bb:	48 89 e5             	mov    %rsp,%rbp
  4072be:	48 83 ec 10          	sub    $0x10,%rsp
  4072c2:	48 89 7d f8          	mov    %rdi,-0x8(%rbp)
  4072c6:	48 8b 45 f8          	mov    -0x8(%rbp),%rax
  4072ca:	48 8b 00             	mov    (%rax),%rax
  4072cd:	48 89 c7             	mov    %rax,%rdi
  4072d0:	e8 9b ba ff ff       	callq  402d70 <_ZSt18_Rb_tree_incrementPSt18_Rb_tree_node_base@plt>
  4072d5:	48 89 c2             	mov    %rax,%rdx
  4072d8:	48 8b 45 f8          	mov    -0x8(%rbp),%rax
  4072dc:	48 89 10             	mov    %rdx,(%rax)
  4072df:	48 8b 45 f8          	mov    -0x8(%rbp),%rax
  4072e3:	c9                   	leaveq 
  4072e4:	c3                   	retq   

00000000004072e5 <_ZNSt8_Rb_treeINSt7__cxx1112basic_stringIcSt11char_traitsIcESaIcEEESt4pairIKS5_S5_ESt10_Select1stIS8_ESt4lessIS5_ESaIS8_EE8_S_valueEPKSt13_Rb_tree_nodeIS8_E>:
  4072e5:	55                   	push   %rbp
  4072e6:	48 89 e5             	mov    %rsp,%rbp
  4072e9:	48 83 ec 10          	sub    $0x10,%rsp
  4072ed:	48 89 7d f8          	mov    %rdi,-0x8(%rbp)
  4072f1:	48 8b 45 f8          	mov    -0x8(%rbp),%rax
  4072f5:	48 89 c7             	mov    %rax,%rdi
  4072f8:	e8 0f 06 00 00       	callq  40790c <_ZNKSt13_Rb_tree_nodeISt4pairIKNSt7__cxx1112basic_stringIcSt11char_traitsIcESaIcEEES6_EE9_M_valptrEv>
  4072fd:	c9                   	leaveq 
  4072fe:	c3                   	retq   
  4072ff:	90                   	nop

0000000000407300 <_ZNKSt10_Select1stISt4pairIKNSt7__cxx1112basic_stringIcSt11char_traitsIcESaIcEEES6_EEclERKS8_>:
  407300:	55                   	push   %rbp
  407301:	48 89 e5             	mov    %rsp,%rbp
  407304:	48 89 7d f8          	mov    %rdi,-0x8(%rbp)
  407308:	48 89 75 f0          	mov    %rsi,-0x10(%rbp)
  40730c:	48 8b 45 f0          	mov    -0x10(%rbp),%rax
  407310:	5d                   	pop    %rbp
  407311:	c3                   	retq   

0000000000407312 <_ZNSt7__cxx1112basic_stringIcSt11char_traitsIcESaIcEE12_M_constructIPcEEvT_S7_St20forward_iterator_tag>:
  407312:	55                   	push   %rbp
  407313:	48 89 e5             	mov    %rsp,%rbp
  407316:	53                   	push   %rbx
  407317:	48 83 ec 38          	sub    $0x38,%rsp
  40731b:	48 89 7d d8          	mov    %rdi,-0x28(%rbp)
  40731f:	48 89 75 d0          	mov    %rsi,-0x30(%rbp)
  407323:	48 89 55 c8          	mov    %rdx,-0x38(%rbp)
  407327:	64 48 8b 04 25 28 00 	mov    %fs:0x28,%rax
  40732e:	00 00 
  407330:	48 89 45 e8          	mov    %rax,-0x18(%rbp)
  407334:	31 c0                	xor    %eax,%eax
  407336:	48 8b 45 d0          	mov    -0x30(%rbp),%rax
  40733a:	48 89 c7             	mov    %rax,%rdi
  40733d:	e8 e8 05 00 00       	callq  40792a <_ZN9__gnu_cxx17__is_null_pointerIcEEbPT_>
  407342:	84 c0                	test   %al,%al
  407344:	74 11                	je     407357 <_ZNSt7__cxx1112basic_stringIcSt11char_traitsIcESaIcEE12_M_constructIPcEEvT_S7_St20forward_iterator_tag+0x45>
  407346:	48 8b 45 d0          	mov    -0x30(%rbp),%rax
  40734a:	48 3b 45 c8          	cmp    -0x38(%rbp),%rax
  40734e:	74 07                	je     407357 <_ZNSt7__cxx1112basic_stringIcSt11char_traitsIcESaIcEE12_M_constructIPcEEvT_S7_St20forward_iterator_tag+0x45>
  407350:	b8 01 00 00 00       	mov    $0x1,%eax
  407355:	eb 05                	jmp    40735c <_ZNSt7__cxx1112basic_stringIcSt11char_traitsIcESaIcEE12_M_constructIPcEEvT_S7_St20forward_iterator_tag+0x4a>
  407357:	b8 00 00 00 00       	mov    $0x0,%eax
  40735c:	84 c0                	test   %al,%al
  40735e:	74 0a                	je     40736a <_ZNSt7__cxx1112basic_stringIcSt11char_traitsIcESaIcEE12_M_constructIPcEEvT_S7_St20forward_iterator_tag+0x58>
  407360:	bf b0 db 40 00       	mov    $0x40dbb0,%edi
  407365:	e8 26 ba ff ff       	callq  402d90 <_ZSt19__throw_logic_errorPKc@plt>
  40736a:	48 8b 55 c8          	mov    -0x38(%rbp),%rdx
  40736e:	48 8b 45 d0          	mov    -0x30(%rbp),%rax
  407372:	48 89 d6             	mov    %rdx,%rsi
  407375:	48 89 c7             	mov    %rax,%rdi
  407378:	e8 bf 05 00 00       	callq  40793c <_ZSt8distanceIPcENSt15iterator_traitsIT_E15difference_typeES2_S2_>
  40737d:	48 89 45 e0          	mov    %rax,-0x20(%rbp)
  407381:	48 8b 45 e0          	mov    -0x20(%rbp),%rax
  407385:	48 83 f8 0f          	cmp    $0xf,%rax
  407389:	76 3d                	jbe    4073c8 <_ZNSt7__cxx1112basic_stringIcSt11char_traitsIcESaIcEE12_M_constructIPcEEvT_S7_St20forward_iterator_tag+0xb6>
  40738b:	48 8d 4d e0          	lea    -0x20(%rbp),%rcx
  40738f:	48 8b 45 d8          	mov    -0x28(%rbp),%rax
  407393:	ba 00 00 00 00       	mov    $0x0,%edx
  407398:	48 89 ce             	mov    %rcx,%rsi
  40739b:	48 89 c7             	mov    %rax,%rdi
  40739e:	e8 7d bd ff ff       	callq  403120 <_ZNSt7__cxx1112basic_stringIcSt11char_traitsIcESaIcEE9_M_createERmm@plt>
  4073a3:	48 89 c2             	mov    %rax,%rdx
  4073a6:	48 8b 45 d8          	mov    -0x28(%rbp),%rax
  4073aa:	48 89 d6             	mov    %rdx,%rsi
  4073ad:	48 89 c7             	mov    %rax,%rdi
  4073b0:	e8 5b ba ff ff       	callq  402e10 <_ZNSt7__cxx1112basic_stringIcSt11char_traitsIcESaIcEE7_M_dataEPc@plt>
  4073b5:	48 8b 55 e0          	mov    -0x20(%rbp),%rdx
  4073b9:	48 8b 45 d8          	mov    -0x28(%rbp),%rax
  4073bd:	48 89 d6             	mov    %rdx,%rsi
  4073c0:	48 89 c7             	mov    %rax,%rdi
  4073c3:	e8 c8 bd ff ff       	callq  403190 <_ZNSt7__cxx1112basic_stringIcSt11char_traitsIcESaIcEE11_M_capacityEm@plt>
  4073c8:	48 8b 45 d8          	mov    -0x28(%rbp),%rax
  4073cc:	48 89 c7             	mov    %rax,%rdi
  4073cf:	e8 5c bb ff ff       	callq  402f30 <_ZNKSt7__cxx1112basic_stringIcSt11char_traitsIcESaIcEE7_M_dataEv@plt>
  4073d4:	48 89 c1             	mov    %rax,%rcx
  4073d7:	48 8b 55 c8          	mov    -0x38(%rbp),%rdx
  4073db:	48 8b 45 d0          	mov    -0x30(%rbp),%rax
  4073df:	48 89 c6             	mov    %rax,%rsi
  4073e2:	48 89 cf             	mov    %rcx,%rdi
  4073e5:	e8 46 b8 ff ff       	callq  402c30 <_ZNSt7__cxx1112basic_stringIcSt11char_traitsIcESaIcEE13_S_copy_charsEPcS5_S5_@plt>
  4073ea:	48 8b 55 e0          	mov    -0x20(%rbp),%rdx
  4073ee:	48 8b 45 d8          	mov    -0x28(%rbp),%rax
  4073f2:	48 89 d6             	mov    %rdx,%rsi
  4073f5:	48 89 c7             	mov    %rax,%rdi
  4073f8:	e8 63 b9 ff ff       	callq  402d60 <_ZNSt7__cxx1112basic_stringIcSt11char_traitsIcESaIcEE13_M_set_lengthEm@plt>
  4073fd:	90                   	nop
  4073fe:	48 8b 45 e8          	mov    -0x18(%rbp),%rax
  407402:	64 48 33 04 25 28 00 	xor    %fs:0x28,%rax
  407409:	00 00 
  40740b:	74 33                	je     407440 <_ZNSt7__cxx1112basic_stringIcSt11char_traitsIcESaIcEE12_M_constructIPcEEvT_S7_St20forward_iterator_tag+0x12e>
  40740d:	eb 2c                	jmp    40743b <_ZNSt7__cxx1112basic_stringIcSt11char_traitsIcESaIcEE12_M_constructIPcEEvT_S7_St20forward_iterator_tag+0x129>
  40740f:	48 89 c7             	mov    %rax,%rdi
  407412:	e8 79 b8 ff ff       	callq  402c90 <__cxa_begin_catch@plt>
  407417:	48 8b 45 d8          	mov    -0x28(%rbp),%rax
  40741b:	48 89 c7             	mov    %rax,%rdi
  40741e:	e8 4d bb ff ff       	callq  402f70 <_ZNSt7__cxx1112basic_stringIcSt11char_traitsIcESaIcEE10_M_disposeEv@plt>
  407423:	e8 b8 bb ff ff       	callq  402fe0 <__cxa_rethrow@plt>
  407428:	48 89 c3             	mov    %rax,%rbx
  40742b:	e8 40 bc ff ff       	callq  403070 <__cxa_end_catch@plt>
  407430:	48 89 d8             	mov    %rbx,%rax
  407433:	48 89 c7             	mov    %rax,%rdi
  407436:	e8 b5 bc ff ff       	callq  4030f0 <_Unwind_Resume@plt>
  40743b:	e8 00 bb ff ff       	callq  402f40 <__stack_chk_fail@plt>
  407440:	48 83 c4 38          	add    $0x38,%rsp
  407444:	5b                   	pop    %rbx
  407445:	5d                   	pop    %rbp
  407446:	c3                   	retq   
  407447:	90                   	nop

0000000000407448 <_ZN9__gnu_cxx13new_allocatorISt13_Rb_tree_nodeISt4pairIKNSt7__cxx1112basic_stringIcSt11char_traitsIcESaIcEEES8_EEEC1Ev>:
  407448:	55                   	push   %rbp
  407449:	48 89 e5             	mov    %rsp,%rbp
  40744c:	48 89 7d f8          	mov    %rdi,-0x8(%rbp)
  407450:	90                   	nop
  407451:	5d                   	pop    %rbp
  407452:	c3                   	retq   
  407453:	90                   	nop

0000000000407454 <_ZNSaISt13_Rb_tree_nodeISt4pairIKNSt7__cxx1112basic_stringIcSt11char_traitsIcESaIcEEES6_EEEC1ERKSA_>:
  407454:	55                   	push   %rbp
  407455:	48 89 e5             	mov    %rsp,%rbp
  407458:	48 83 ec 10          	sub    $0x10,%rsp
  40745c:	48 89 7d f8          	mov    %rdi,-0x8(%rbp)
  407460:	48 89 75 f0          	mov    %rsi,-0x10(%rbp)
  407464:	48 8b 55 f0          	mov    -0x10(%rbp),%rdx
  407468:	48 8b 45 f8          	mov    -0x8(%rbp),%rax
  40746c:	48 89 d6             	mov    %rdx,%rsi
  40746f:	48 89 c7             	mov    %rax,%rdi
  407472:	e8 27 05 00 00       	callq  40799e <_ZN9__gnu_cxx13new_allocatorISt13_Rb_tree_nodeISt4pairIKNSt7__cxx1112basic_stringIcSt11char_traitsIcESaIcEEES8_EEEC1ERKSC_>
  407477:	90                   	nop
  407478:	c9                   	leaveq 
  407479:	c3                   	retq   

000000000040747a <_ZNSt8_Rb_treeINSt7__cxx1112basic_stringIcSt11char_traitsIcESaIcEEESt4pairIKS5_S5_ESt10_Select1stIS8_ESt4lessIS5_ESaIS8_EE10_M_insert_IRKS8_NSE_11_Alloc_nodeEEESt17_Rb_tree_iteratorIS8_EPSt18_Rb_tree_node_baseSM_OT_RT0_>:
  40747a:	55                   	push   %rbp
  40747b:	48 89 e5             	mov    %rsp,%rbp
  40747e:	41 54                	push   %r12
  407480:	53                   	push   %rbx
  407481:	48 83 ec 50          	sub    $0x50,%rsp
  407485:	48 89 7d c8          	mov    %rdi,-0x38(%rbp)
  407489:	48 89 75 c0          	mov    %rsi,-0x40(%rbp)
  40748d:	48 89 55 b8          	mov    %rdx,-0x48(%rbp)
  407491:	48 89 4d b0          	mov    %rcx,-0x50(%rbp)
  407495:	4c 89 45 a8          	mov    %r8,-0x58(%rbp)
  407499:	64 48 8b 04 25 28 00 	mov    %fs:0x28,%rax
  4074a0:	00 00 
  4074a2:	48 89 45 e8          	mov    %rax,-0x18(%rbp)
  4074a6:	31 c0                	xor    %eax,%eax
  4074a8:	bb 00 00 00 00       	mov    $0x0,%ebx
  4074ad:	48 83 7d c0 00       	cmpq   $0x0,-0x40(%rbp)
  4074b2:	75 52                	jne    407506 <_ZNSt8_Rb_treeINSt7__cxx1112basic_stringIcSt11char_traitsIcESaIcEEESt4pairIKS5_S5_ESt10_Select1stIS8_ESt4lessIS5_ESaIS8_EE10_M_insert_IRKS8_NSE_11_Alloc_nodeEEESt17_Rb_tree_iteratorIS8_EPSt18_Rb_tree_node_baseSM_OT_RT0_+0x8c>
  4074b4:	48 8b 45 c8          	mov    -0x38(%rbp),%rax
  4074b8:	48 89 c7             	mov    %rax,%rdi
  4074bb:	e8 98 f4 ff ff       	callq  406958 <_ZNSt8_Rb_treeINSt7__cxx1112basic_stringIcSt11char_traitsIcESaIcEEESt4pairIKS5_S5_ESt10_Select1stIS8_ESt4lessIS5_ESaIS8_EE6_M_endEv>
  4074c0:	48 3b 45 b8          	cmp    -0x48(%rbp),%rax
  4074c4:	74 40                	je     407506 <_ZNSt8_Rb_treeINSt7__cxx1112basic_stringIcSt11char_traitsIcESaIcEEESt4pairIKS5_S5_ESt10_Select1stIS8_ESt4lessIS5_ESaIS8_EE10_M_insert_IRKS8_NSE_11_Alloc_nodeEEESt17_Rb_tree_iteratorIS8_EPSt18_Rb_tree_node_baseSM_OT_RT0_+0x8c>
  4074c6:	48 8b 45 b8          	mov    -0x48(%rbp),%rax
  4074ca:	48 89 c7             	mov    %rax,%rdi
  4074cd:	e8 48 f5 ff ff       	callq  406a1a <_ZNSt8_Rb_treeINSt7__cxx1112basic_stringIcSt11char_traitsIcESaIcEEESt4pairIKS5_S5_ESt10_Select1stIS8_ESt4lessIS5_ESaIS8_EE6_S_keyEPKSt18_Rb_tree_node_base>
  4074d2:	49 89 c4             	mov    %rax,%r12
  4074d5:	bb 01 00 00 00       	mov    $0x1,%ebx
  4074da:	48 8b 55 b0          	mov    -0x50(%rbp),%rdx
  4074de:	48 8d 45 d6          	lea    -0x2a(%rbp),%rax
  4074e2:	48 89 d6             	mov    %rdx,%rsi
  4074e5:	48 89 c7             	mov    %rax,%rdi
  4074e8:	e8 13 fe ff ff       	callq  407300 <_ZNKSt10_Select1stISt4pairIKNSt7__cxx1112basic_stringIcSt11char_traitsIcESaIcEEES6_EEclERKS8_>
  4074ed:	48 89 c1             	mov    %rax,%rcx
  4074f0:	48 8b 45 c8          	mov    -0x38(%rbp),%rax
  4074f4:	4c 89 e2             	mov    %r12,%rdx
  4074f7:	48 89 ce             	mov    %rcx,%rsi
  4074fa:	48 89 c7             	mov    %rax,%rdi
  4074fd:	e8 48 da ff ff       	callq  404f4a <_ZNKSt4lessINSt7__cxx1112basic_stringIcSt11char_traitsIcESaIcEEEEclERKS5_S8_>
  407502:	84 c0                	test   %al,%al
  407504:	74 07                	je     40750d <_ZNSt8_Rb_treeINSt7__cxx1112basic_stringIcSt11char_traitsIcESaIcEEESt4pairIKS5_S5_ESt10_Select1stIS8_ESt4lessIS5_ESaIS8_EE10_M_insert_IRKS8_NSE_11_Alloc_nodeEEESt17_Rb_tree_iteratorIS8_EPSt18_Rb_tree_node_baseSM_OT_RT0_+0x93>
  407506:	b8 01 00 00 00       	mov    $0x1,%eax
  40750b:	eb 05                	jmp    407512 <_ZNSt8_Rb_treeINSt7__cxx1112basic_stringIcSt11char_traitsIcESaIcEEESt4pairIKS5_S5_ESt10_Select1stIS8_ESt4lessIS5_ESaIS8_EE10_M_insert_IRKS8_NSE_11_Alloc_nodeEEESt17_Rb_tree_iteratorIS8_EPSt18_Rb_tree_node_baseSM_OT_RT0_+0x98>
  40750d:	b8 00 00 00 00       	mov    $0x0,%eax
  407512:	88 45 d7             	mov    %al,-0x29(%rbp)
  407515:	84 db                	test   %bl,%bl
  407517:	90                   	nop
  407518:	48 8b 45 b0          	mov    -0x50(%rbp),%rax
  40751c:	48 89 c7             	mov    %rax,%rdi
  40751f:	e8 68 f3 ff ff       	callq  40688c <_ZSt7forwardIRKSt4pairIKNSt7__cxx1112basic_stringIcSt11char_traitsIcESaIcEEES6_EEOT_RNSt16remove_referenceISB_E4typeE>
  407524:	48 89 c2             	mov    %rax,%rdx
  407527:	48 8b 45 a8          	mov    -0x58(%rbp),%rax
  40752b:	48 89 d6             	mov    %rdx,%rsi
  40752e:	48 89 c7             	mov    %rax,%rdi
  407531:	e8 78 04 00 00       	callq  4079ae <_ZNKSt8_Rb_treeINSt7__cxx1112basic_stringIcSt11char_traitsIcESaIcEEESt4pairIKS5_S5_ESt10_Select1stIS8_ESt4lessIS5_ESaIS8_EE11_Alloc_nodeclIRKS8_EEPSt13_Rb_tree_nodeIS8_EOT_>
  407536:	48 89 45 e0          	mov    %rax,-0x20(%rbp)
  40753a:	48 8b 45 c8          	mov    -0x38(%rbp),%rax
  40753e:	48 8d 48 08          	lea    0x8(%rax),%rcx
  407542:	0f b6 45 d7          	movzbl -0x29(%rbp),%eax
  407546:	48 8b 55 b8          	mov    -0x48(%rbp),%rdx
  40754a:	48 8b 75 e0          	mov    -0x20(%rbp),%rsi
  40754e:	89 c7                	mov    %eax,%edi
  407550:	e8 5b b6 ff ff       	callq  402bb0 <_ZSt29_Rb_tree_insert_and_rebalancebPSt18_Rb_tree_node_baseS0_RS_@plt>
  407555:	48 8b 45 c8          	mov    -0x38(%rbp),%rax
  407559:	48 8b 40 28          	mov    0x28(%rax),%rax
  40755d:	48 8d 50 01          	lea    0x1(%rax),%rdx
  407561:	48 8b 45 c8          	mov    -0x38(%rbp),%rax
  407565:	48 89 50 28          	mov    %rdx,0x28(%rax)
  407569:	48 8b 55 e0          	mov    -0x20(%rbp),%rdx
  40756d:	48 8d 45 d8          	lea    -0x28(%rbp),%rax
  407571:	48 89 d6             	mov    %rdx,%rsi
  407574:	48 89 c7             	mov    %rax,%rdi
  407577:	e8 c6 f1 ff ff       	callq  406742 <_ZNSt17_Rb_tree_iteratorISt4pairIKNSt7__cxx1112basic_stringIcSt11char_traitsIcESaIcEEES6_EEC1EPSt18_Rb_tree_node_base>
  40757c:	48 8b 45 d8          	mov    -0x28(%rbp),%rax
  407580:	48 8b 5d e8          	mov    -0x18(%rbp),%rbx
  407584:	64 48 33 1c 25 28 00 	xor    %fs:0x28,%rbx
  40758b:	00 00 
  40758d:	74 12                	je     4075a1 <_ZNSt8_Rb_treeINSt7__cxx1112basic_stringIcSt11char_traitsIcESaIcEEESt4pairIKS5_S5_ESt10_Select1stIS8_ESt4lessIS5_ESaIS8_EE10_M_insert_IRKS8_NSE_11_Alloc_nodeEEESt17_Rb_tree_iteratorIS8_EPSt18_Rb_tree_node_baseSM_OT_RT0_+0x127>
  40758f:	eb 0b                	jmp    40759c <_ZNSt8_Rb_treeINSt7__cxx1112basic_stringIcSt11char_traitsIcESaIcEEESt4pairIKS5_S5_ESt10_Select1stIS8_ESt4lessIS5_ESaIS8_EE10_M_insert_IRKS8_NSE_11_Alloc_nodeEEESt17_Rb_tree_iteratorIS8_EPSt18_Rb_tree_node_baseSM_OT_RT0_+0x122>
  407591:	84 db                	test   %bl,%bl
  407593:	90                   	nop
  407594:	48 89 c7             	mov    %rax,%rdi
  407597:	e8 54 bb ff ff       	callq  4030f0 <_Unwind_Resume@plt>
  40759c:	e8 9f b9 ff ff       	callq  402f40 <__stack_chk_fail@plt>
  4075a1:	48 83 c4 50          	add    $0x50,%rsp
  4075a5:	5b                   	pop    %rbx
  4075a6:	41 5c                	pop    %r12
  4075a8:	5d                   	pop    %rbp
  4075a9:	c3                   	retq   

00000000004075aa <_ZNSt8_Rb_treeINSt7__cxx1112basic_stringIcSt11char_traitsIcESaIcEEESt4pairIKS5_S5_ESt10_Select1stIS8_ESt4lessIS5_ESaIS8_EE8_S_valueEPKSt18_Rb_tree_node_base>:
  4075aa:	55                   	push   %rbp
  4075ab:	48 89 e5             	mov    %rsp,%rbp
  4075ae:	48 83 ec 10          	sub    $0x10,%rsp
  4075b2:	48 89 7d f8          	mov    %rdi,-0x8(%rbp)
  4075b6:	48 8b 45 f8          	mov    -0x8(%rbp),%rax
  4075ba:	48 89 c7             	mov    %rax,%rdi
  4075bd:	e8 4a 03 00 00       	callq  40790c <_ZNKSt13_Rb_tree_nodeISt4pairIKNSt7__cxx1112basic_stringIcSt11char_traitsIcESaIcEEES6_EE9_M_valptrEv>
  4075c2:	c9                   	leaveq 
  4075c3:	c3                   	retq   

00000000004075c4 <_ZN9__gnu_cxx16__aligned_membufISt4pairIKNSt7__cxx1112basic_stringIcSt11char_traitsIcESaIcEEES7_EE7_M_addrEv>:
  4075c4:	55                   	push   %rbp
  4075c5:	48 89 e5             	mov    %rsp,%rbp
  4075c8:	48 89 7d f8          	mov    %rdi,-0x8(%rbp)
  4075cc:	48 8b 45 f8          	mov    -0x8(%rbp),%rax
  4075d0:	5d                   	pop    %rbp
  4075d1:	c3                   	retq   

00000000004075d2 <_ZNSt8_Rb_treeINSt7__cxx1112basic_stringIcSt11char_traitsIcESaIcEEESt4pairIKS5_S5_ESt10_Select1stIS8_ESt4lessIS5_ESaIS8_EE5beginEv>:
  4075d2:	55                   	push   %rbp
  4075d3:	48 89 e5             	mov    %rsp,%rbp
  4075d6:	48 83 ec 20          	sub    $0x20,%rsp
  4075da:	48 89 7d e8          	mov    %rdi,-0x18(%rbp)
  4075de:	64 48 8b 04 25 28 00 	mov    %fs:0x28,%rax
  4075e5:	00 00 
  4075e7:	48 89 45 f8          	mov    %rax,-0x8(%rbp)
  4075eb:	31 c0                	xor    %eax,%eax
  4075ed:	48 8b 45 e8          	mov    -0x18(%rbp),%rax
  4075f1:	48 8b 50 18          	mov    0x18(%rax),%rdx
  4075f5:	48 8d 45 f0          	lea    -0x10(%rbp),%rax
  4075f9:	48 89 d6             	mov    %rdx,%rsi
  4075fc:	48 89 c7             	mov    %rax,%rdi
  4075ff:	e8 3e f1 ff ff       	callq  406742 <_ZNSt17_Rb_tree_iteratorISt4pairIKNSt7__cxx1112basic_stringIcSt11char_traitsIcESaIcEEES6_EEC1EPSt18_Rb_tree_node_base>
  407604:	48 8b 45 f0          	mov    -0x10(%rbp),%rax
  407608:	48 8b 4d f8          	mov    -0x8(%rbp),%rcx
  40760c:	64 48 33 0c 25 28 00 	xor    %fs:0x28,%rcx
  407613:	00 00 
  407615:	74 05                	je     40761c <_ZNSt8_Rb_treeINSt7__cxx1112basic_stringIcSt11char_traitsIcESaIcEEESt4pairIKS5_S5_ESt10_Select1stIS8_ESt4lessIS5_ESaIS8_EE5beginEv+0x4a>
  407617:	e8 24 b9 ff ff       	callq  402f40 <__stack_chk_fail@plt>
  40761c:	c9                   	leaveq 
  40761d:	c3                   	retq   

000000000040761e <_ZNKSt8_Rb_treeINSt7__cxx1112basic_stringIcSt11char_traitsIcESaIcEEESt4pairIKS5_S5_ESt10_Select1stIS8_ESt4lessIS5_ESaIS8_EE11_Alloc_nodeclIS6_IPKcS5_EEEPSt13_Rb_tree_nodeIS8_EOT_>:
  40761e:	55                   	push   %rbp
  40761f:	48 89 e5             	mov    %rsp,%rbp
  407622:	48 83 ec 10          	sub    $0x10,%rsp
  407626:	48 89 7d f8          	mov    %rdi,-0x8(%rbp)
  40762a:	48 89 75 f0          	mov    %rsi,-0x10(%rbp)
  40762e:	48 8b 45 f0          	mov    -0x10(%rbp),%rax
  407632:	48 89 c7             	mov    %rax,%rdi
  407635:	e8 3f de ff ff       	callq  405479 <_ZSt7forwardISt4pairIPKcNSt7__cxx1112basic_stringIcSt11char_traitsIcESaIcEEEEEOT_RNSt16remove_referenceISA_E4typeE>
  40763a:	48 89 c2             	mov    %rax,%rdx
  40763d:	48 8b 45 f8          	mov    -0x8(%rbp),%rax
  407641:	48 8b 00             	mov    (%rax),%rax
  407644:	48 89 d6             	mov    %rdx,%rsi
  407647:	48 89 c7             	mov    %rax,%rdi
  40764a:	e8 93 03 00 00       	callq  4079e2 <_ZNSt8_Rb_treeINSt7__cxx1112basic_stringIcSt11char_traitsIcESaIcEEESt4pairIKS5_S5_ESt10_Select1stIS8_ESt4lessIS5_ESaIS8_EE14_M_create_nodeIJS6_IPKcS5_EEEEPSt13_Rb_tree_nodeIS8_EDpOT_>
  40764f:	c9                   	leaveq 
  407650:	c3                   	retq   

0000000000407651 <_ZNSt16allocator_traitsISaISt13_Rb_tree_nodeISt4pairIKNSt7__cxx1112basic_stringIcSt11char_traitsIcESaIcEEES7_EEEE37select_on_container_copy_constructionERKSB_>:
  407651:	55                   	push   %rbp
  407652:	48 89 e5             	mov    %rsp,%rbp
  407655:	48 83 ec 10          	sub    $0x10,%rsp
  407659:	48 89 7d f8          	mov    %rdi,-0x8(%rbp)
  40765d:	48 89 75 f0          	mov    %rsi,-0x10(%rbp)
  407661:	48 8b 55 f0          	mov    -0x10(%rbp),%rdx
  407665:	48 8b 45 f8          	mov    -0x8(%rbp),%rax
  407669:	48 89 d6             	mov    %rdx,%rsi
  40766c:	48 89 c7             	mov    %rax,%rdi
  40766f:	e8 e0 fd ff ff       	callq  407454 <_ZNSaISt13_Rb_tree_nodeISt4pairIKNSt7__cxx1112basic_stringIcSt11char_traitsIcESaIcEEES6_EEEC1ERKSA_>
  407674:	48 8b 45 f8          	mov    -0x8(%rbp),%rax
  407678:	c9                   	leaveq 
  407679:	c3                   	retq   

000000000040767a <_ZNSt8_Rb_treeINSt7__cxx1112basic_stringIcSt11char_traitsIcESaIcEEESt4pairIKS5_S5_ESt10_Select1stIS8_ESt4lessIS5_ESaIS8_EE7_M_copyINSE_11_Alloc_nodeEEEPSt13_Rb_tree_nodeIS8_EPKSI_PSt18_Rb_tree_node_baseRT_>:
  40767a:	55                   	push   %rbp
  40767b:	48 89 e5             	mov    %rsp,%rbp
  40767e:	53                   	push   %rbx
  40767f:	48 83 ec 38          	sub    $0x38,%rsp
  407683:	48 89 7d d8          	mov    %rdi,-0x28(%rbp)
  407687:	48 89 75 d0          	mov    %rsi,-0x30(%rbp)
  40768b:	48 89 55 c8          	mov    %rdx,-0x38(%rbp)
  40768f:	48 89 4d c0          	mov    %rcx,-0x40(%rbp)
  407693:	48 8b 55 c0          	mov    -0x40(%rbp),%rdx
  407697:	48 8b 4d d0          	mov    -0x30(%rbp),%rcx
  40769b:	48 8b 45 d8          	mov    -0x28(%rbp),%rax
  40769f:	48 89 ce             	mov    %rcx,%rsi
  4076a2:	48 89 c7             	mov    %rax,%rdi
  4076a5:	e8 80 03 00 00       	callq  407a2a <_ZNSt8_Rb_treeINSt7__cxx1112basic_stringIcSt11char_traitsIcESaIcEEESt4pairIKS5_S5_ESt10_Select1stIS8_ESt4lessIS5_ESaIS8_EE13_M_clone_nodeINSE_11_Alloc_nodeEEEPSt13_Rb_tree_nodeIS8_EPKSI_RT_>
  4076aa:	48 89 45 e0          	mov    %rax,-0x20(%rbp)
  4076ae:	48 8b 45 e0          	mov    -0x20(%rbp),%rax
  4076b2:	48 8b 55 c8          	mov    -0x38(%rbp),%rdx
  4076b6:	48 89 50 08          	mov    %rdx,0x8(%rax)
  4076ba:	48 8b 45 d0          	mov    -0x30(%rbp),%rax
  4076be:	48 8b 40 18          	mov    0x18(%rax),%rax
  4076c2:	48 85 c0             	test   %rax,%rax
  4076c5:	74 2e                	je     4076f5 <_ZNSt8_Rb_treeINSt7__cxx1112basic_stringIcSt11char_traitsIcESaIcEEESt4pairIKS5_S5_ESt10_Select1stIS8_ESt4lessIS5_ESaIS8_EE7_M_copyINSE_11_Alloc_nodeEEEPSt13_Rb_tree_nodeIS8_EPKSI_PSt18_Rb_tree_node_baseRT_+0x7b>
  4076c7:	48 8b 45 d0          	mov    -0x30(%rbp),%rax
  4076cb:	48 89 c7             	mov    %rax,%rdi
  4076ce:	e8 b7 03 00 00       	callq  407a8a <_ZNSt8_Rb_treeINSt7__cxx1112basic_stringIcSt11char_traitsIcESaIcEEESt4pairIKS5_S5_ESt10_Select1stIS8_ESt4lessIS5_ESaIS8_EE8_S_rightEPKSt18_Rb_tree_node_base>
  4076d3:	48 89 c6             	mov    %rax,%rsi
  4076d6:	48 8b 4d c0          	mov    -0x40(%rbp),%rcx
  4076da:	48 8b 55 e0          	mov    -0x20(%rbp),%rdx
  4076de:	48 8b 45 d8          	mov    -0x28(%rbp),%rax
  4076e2:	48 89 c7             	mov    %rax,%rdi
  4076e5:	e8 90 ff ff ff       	callq  40767a <_ZNSt8_Rb_treeINSt7__cxx1112basic_stringIcSt11char_traitsIcESaIcEEESt4pairIKS5_S5_ESt10_Select1stIS8_ESt4lessIS5_ESaIS8_EE7_M_copyINSE_11_Alloc_nodeEEEPSt13_Rb_tree_nodeIS8_EPKSI_PSt18_Rb_tree_node_baseRT_>
  4076ea:	48 89 c2             	mov    %rax,%rdx
  4076ed:	48 8b 45 e0          	mov    -0x20(%rbp),%rax
  4076f1:	48 89 50 18          	mov    %rdx,0x18(%rax)
  4076f5:	48 8b 45 e0          	mov    -0x20(%rbp),%rax
  4076f9:	48 89 45 c8          	mov    %rax,-0x38(%rbp)
  4076fd:	48 8b 45 d0          	mov    -0x30(%rbp),%rax
  407701:	48 89 c7             	mov    %rax,%rdi
  407704:	e8 93 03 00 00       	callq  407a9c <_ZNSt8_Rb_treeINSt7__cxx1112basic_stringIcSt11char_traitsIcESaIcEEESt4pairIKS5_S5_ESt10_Select1stIS8_ESt4lessIS5_ESaIS8_EE7_S_leftEPKSt18_Rb_tree_node_base>
  407709:	48 89 45 d0          	mov    %rax,-0x30(%rbp)
  40770d:	48 83 7d d0 00       	cmpq   $0x0,-0x30(%rbp)
  407712:	0f 84 8b 00 00 00    	je     4077a3 <_ZNSt8_Rb_treeINSt7__cxx1112basic_stringIcSt11char_traitsIcESaIcEEESt4pairIKS5_S5_ESt10_Select1stIS8_ESt4lessIS5_ESaIS8_EE7_M_copyINSE_11_Alloc_nodeEEEPSt13_Rb_tree_nodeIS8_EPKSI_PSt18_Rb_tree_node_baseRT_+0x129>
  407718:	48 8b 55 c0          	mov    -0x40(%rbp),%rdx
  40771c:	48 8b 4d d0          	mov    -0x30(%rbp),%rcx
  407720:	48 8b 45 d8          	mov    -0x28(%rbp),%rax
  407724:	48 89 ce             	mov    %rcx,%rsi
  407727:	48 89 c7             	mov    %rax,%rdi
  40772a:	e8 fb 02 00 00       	callq  407a2a <_ZNSt8_Rb_treeINSt7__cxx1112basic_stringIcSt11char_traitsIcESaIcEEESt4pairIKS5_S5_ESt10_Select1stIS8_ESt4lessIS5_ESaIS8_EE13_M_clone_nodeINSE_11_Alloc_nodeEEEPSt13_Rb_tree_nodeIS8_EPKSI_RT_>
  40772f:	48 89 45 e8          	mov    %rax,-0x18(%rbp)
  407733:	48 8b 45 c8          	mov    -0x38(%rbp),%rax
  407737:	48 8b 55 e8          	mov    -0x18(%rbp),%rdx
  40773b:	48 89 50 10          	mov    %rdx,0x10(%rax)
  40773f:	48 8b 45 e8          	mov    -0x18(%rbp),%rax
  407743:	48 8b 55 c8          	mov    -0x38(%rbp),%rdx
  407747:	48 89 50 08          	mov    %rdx,0x8(%rax)
  40774b:	48 8b 45 d0          	mov    -0x30(%rbp),%rax
  40774f:	48 8b 40 18          	mov    0x18(%rax),%rax
  407753:	48 85 c0             	test   %rax,%rax
  407756:	74 2e                	je     407786 <_ZNSt8_Rb_treeINSt7__cxx1112basic_stringIcSt11char_traitsIcESaIcEEESt4pairIKS5_S5_ESt10_Select1stIS8_ESt4lessIS5_ESaIS8_EE7_M_copyINSE_11_Alloc_nodeEEEPSt13_Rb_tree_nodeIS8_EPKSI_PSt18_Rb_tree_node_baseRT_+0x10c>
  407758:	48 8b 45 d0          	mov    -0x30(%rbp),%rax
  40775c:	48 89 c7             	mov    %rax,%rdi
  40775f:	e8 26 03 00 00       	callq  407a8a <_ZNSt8_Rb_treeINSt7__cxx1112basic_stringIcSt11char_traitsIcESaIcEEESt4pairIKS5_S5_ESt10_Select1stIS8_ESt4lessIS5_ESaIS8_EE8_S_rightEPKSt18_Rb_tree_node_base>
  407764:	48 89 c6             	mov    %rax,%rsi
  407767:	48 8b 4d c0          	mov    -0x40(%rbp),%rcx
  40776b:	48 8b 55 e8          	mov    -0x18(%rbp),%rdx
  40776f:	48 8b 45 d8          	mov    -0x28(%rbp),%rax
  407773:	48 89 c7             	mov    %rax,%rdi
  407776:	e8 ff fe ff ff       	callq  40767a <_ZNSt8_Rb_treeINSt7__cxx1112basic_stringIcSt11char_traitsIcESaIcEEESt4pairIKS5_S5_ESt10_Select1stIS8_ESt4lessIS5_ESaIS8_EE7_M_copyINSE_11_Alloc_nodeEEEPSt13_Rb_tree_nodeIS8_EPKSI_PSt18_Rb_tree_node_baseRT_>
  40777b:	48 89 c2             	mov    %rax,%rdx
  40777e:	48 8b 45 e8          	mov    -0x18(%rbp),%rax
  407782:	48 89 50 18          	mov    %rdx,0x18(%rax)
  407786:	48 8b 45 e8          	mov    -0x18(%rbp),%rax
  40778a:	48 89 45 c8          	mov    %rax,-0x38(%rbp)
  40778e:	48 8b 45 d0          	mov    -0x30(%rbp),%rax
  407792:	48 89 c7             	mov    %rax,%rdi
  407795:	e8 02 03 00 00       	callq  407a9c <_ZNSt8_Rb_treeINSt7__cxx1112basic_stringIcSt11char_traitsIcESaIcEEESt4pairIKS5_S5_ESt10_Select1stIS8_ESt4lessIS5_ESaIS8_EE7_S_leftEPKSt18_Rb_tree_node_base>
  40779a:	48 89 45 d0          	mov    %rax,-0x30(%rbp)
  40779e:	e9 6a ff ff ff       	jmpq   40770d <_ZNSt8_Rb_treeINSt7__cxx1112basic_stringIcSt11char_traitsIcESaIcEEESt4pairIKS5_S5_ESt10_Select1stIS8_ESt4lessIS5_ESaIS8_EE7_M_copyINSE_11_Alloc_nodeEEEPSt13_Rb_tree_nodeIS8_EPKSI_PSt18_Rb_tree_node_baseRT_+0x93>
  4077a3:	48 8b 45 e0          	mov    -0x20(%rbp),%rax
  4077a7:	eb 33                	jmp    4077dc <_ZNSt8_Rb_treeINSt7__cxx1112basic_stringIcSt11char_traitsIcESaIcEEESt4pairIKS5_S5_ESt10_Select1stIS8_ESt4lessIS5_ESaIS8_EE7_M_copyINSE_11_Alloc_nodeEEEPSt13_Rb_tree_nodeIS8_EPKSI_PSt18_Rb_tree_node_baseRT_+0x162>
  4077a9:	48 89 c7             	mov    %rax,%rdi
  4077ac:	e8 df b4 ff ff       	callq  402c90 <__cxa_begin_catch@plt>
  4077b1:	48 8b 55 e0          	mov    -0x20(%rbp),%rdx
  4077b5:	48 8b 45 d8          	mov    -0x28(%rbp),%rax
  4077b9:	48 89 d6             	mov    %rdx,%rsi
  4077bc:	48 89 c7             	mov    %rax,%rdi
  4077bf:	e8 c8 dd ff ff       	callq  40558c <_ZNSt8_Rb_treeINSt7__cxx1112basic_stringIcSt11char_traitsIcESaIcEEESt4pairIKS5_S5_ESt10_Select1stIS8_ESt4lessIS5_ESaIS8_EE8_M_eraseEPSt13_Rb_tree_nodeIS8_E>
  4077c4:	e8 17 b8 ff ff       	callq  402fe0 <__cxa_rethrow@plt>
  4077c9:	48 89 c3             	mov    %rax,%rbx
  4077cc:	e8 9f b8 ff ff       	callq  403070 <__cxa_end_catch@plt>
  4077d1:	48 89 d8             	mov    %rbx,%rax
  4077d4:	48 89 c7             	mov    %rax,%rdi
  4077d7:	e8 14 b9 ff ff       	callq  4030f0 <_Unwind_Resume@plt>
  4077dc:	48 83 c4 38          	add    $0x38,%rsp
  4077e0:	5b                   	pop    %rbx
  4077e1:	5d                   	pop    %rbp
  4077e2:	c3                   	retq   
  4077e3:	90                   	nop

00000000004077e4 <_ZNSt8_Rb_treeINSt7__cxx1112basic_stringIcSt11char_traitsIcESaIcEEESt4pairIKS5_S5_ESt10_Select1stIS8_ESt4lessIS5_ESaIS8_EE21_M_get_Node_allocatorEv>:
  4077e4:	55                   	push   %rbp
  4077e5:	48 89 e5             	mov    %rsp,%rbp
  4077e8:	48 89 7d f8          	mov    %rdi,-0x8(%rbp)
  4077ec:	48 8b 45 f8          	mov    -0x8(%rbp),%rax
  4077f0:	5d                   	pop    %rbp
  4077f1:	c3                   	retq   

00000000004077f2 <_ZNSt16allocator_traitsISaISt13_Rb_tree_nodeISt4pairIKNSt7__cxx1112basic_stringIcSt11char_traitsIcESaIcEEES7_EEEE7destroyIS9_EEvRSB_PT_>:
  4077f2:	55                   	push   %rbp
  4077f3:	48 89 e5             	mov    %rsp,%rbp
  4077f6:	48 83 ec 10          	sub    $0x10,%rsp
  4077fa:	48 89 7d f8          	mov    %rdi,-0x8(%rbp)
  4077fe:	48 89 75 f0          	mov    %rsi,-0x10(%rbp)
  407802:	48 8b 55 f0          	mov    -0x10(%rbp),%rdx
  407806:	48 8b 45 f8          	mov    -0x8(%rbp),%rax
  40780a:	48 89 d6             	mov    %rdx,%rsi
  40780d:	48 89 c7             	mov    %rax,%rdi
  407810:	e8 99 02 00 00       	callq  407aae <_ZN9__gnu_cxx13new_allocatorISt13_Rb_tree_nodeISt4pairIKNSt7__cxx1112basic_stringIcSt11char_traitsIcESaIcEEES8_EEE7destroyISA_EEvPT_>
  407815:	90                   	nop
  407816:	c9                   	leaveq 
  407817:	c3                   	retq   

0000000000407818 <_ZNSt16allocator_traitsISaISt13_Rb_tree_nodeISt4pairIKNSt7__cxx1112basic_stringIcSt11char_traitsIcESaIcEEES7_EEEE10deallocateERSB_PSA_m>:
  407818:	55                   	push   %rbp
  407819:	48 89 e5             	mov    %rsp,%rbp
  40781c:	48 83 ec 20          	sub    $0x20,%rsp
  407820:	48 89 7d f8          	mov    %rdi,-0x8(%rbp)
  407824:	48 89 75 f0          	mov    %rsi,-0x10(%rbp)
  407828:	48 89 55 e8          	mov    %rdx,-0x18(%rbp)
  40782c:	48 8b 55 e8          	mov    -0x18(%rbp),%rdx
  407830:	48 8b 4d f0          	mov    -0x10(%rbp),%rcx
  407834:	48 8b 45 f8          	mov    -0x8(%rbp),%rax
  407838:	48 89 ce             	mov    %rcx,%rsi
  40783b:	48 89 c7             	mov    %rax,%rdi
  40783e:	e8 8b 02 00 00       	callq  407ace <_ZN9__gnu_cxx13new_allocatorISt13_Rb_tree_nodeISt4pairIKNSt7__cxx1112basic_stringIcSt11char_traitsIcESaIcEEES8_EEE10deallocateEPSB_m>
  407843:	90                   	nop
  407844:	c9                   	leaveq 
  407845:	c3                   	retq   

0000000000407846 <_ZN9__gnu_cxx13new_allocatorIhEC1Ev>:
  407846:	55                   	push   %rbp
  407847:	48 89 e5             	mov    %rsp,%rbp
  40784a:	48 89 7d f8          	mov    %rdi,-0x8(%rbp)
  40784e:	90                   	nop
  40784f:	5d                   	pop    %rbp
  407850:	c3                   	retq   
  407851:	90                   	nop

0000000000407852 <_ZN9__gnu_cxx13new_allocatorIhE10deallocateEPhm>:
  407852:	55                   	push   %rbp
  407853:	48 89 e5             	mov    %rsp,%rbp
  407856:	48 83 ec 20          	sub    $0x20,%rsp
  40785a:	48 89 7d f8          	mov    %rdi,-0x8(%rbp)
  40785e:	48 89 75 f0          	mov    %rsi,-0x10(%rbp)
  407862:	48 89 55 e8          	mov    %rdx,-0x18(%rbp)
  407866:	48 8b 45 f0          	mov    -0x10(%rbp),%rax
  40786a:	48 89 c7             	mov    %rax,%rdi
  40786d:	e8 0e b6 ff ff       	callq  402e80 <_ZdlPv@plt>
  407872:	90                   	nop
  407873:	c9                   	leaveq 
  407874:	c3                   	retq   

0000000000407875 <_ZNSt16allocator_traitsISaISt13_Rb_tree_nodeISt4pairIKNSt7__cxx1112basic_stringIcSt11char_traitsIcESaIcEEES7_EEEE8allocateERSB_m>:
  407875:	55                   	push   %rbp
  407876:	48 89 e5             	mov    %rsp,%rbp
  407879:	48 83 ec 10          	sub    $0x10,%rsp
  40787d:	48 89 7d f8          	mov    %rdi,-0x8(%rbp)
  407881:	48 89 75 f0          	mov    %rsi,-0x10(%rbp)
  407885:	48 8b 4d f0          	mov    -0x10(%rbp),%rcx
  407889:	48 8b 45 f8          	mov    -0x8(%rbp),%rax
  40788d:	ba 00 00 00 00       	mov    $0x0,%edx
  407892:	48 89 ce             	mov    %rcx,%rsi
  407895:	48 89 c7             	mov    %rax,%rdi
  407898:	e8 55 02 00 00       	callq  407af2 <_ZN9__gnu_cxx13new_allocatorISt13_Rb_tree_nodeISt4pairIKNSt7__cxx1112basic_stringIcSt11char_traitsIcESaIcEEES8_EEE8allocateEmPKv>
  40789d:	c9                   	leaveq 
  40789e:	c3                   	retq   

000000000040789f <_ZNSt16allocator_traitsISaISt13_Rb_tree_nodeISt4pairIKNSt7__cxx1112basic_stringIcSt11char_traitsIcESaIcEEES7_EEEE9constructIS9_JRKSt21piecewise_construct_tSt5tupleIJOS7_EESH_IJEEEEEvRSB_PT_DpOT0_>:
  40789f:	55                   	push   %rbp
  4078a0:	48 89 e5             	mov    %rsp,%rbp
  4078a3:	41 54                	push   %r12
  4078a5:	53                   	push   %rbx
  4078a6:	48 83 ec 30          	sub    $0x30,%rsp
  4078aa:	48 89 7d e8          	mov    %rdi,-0x18(%rbp)
  4078ae:	48 89 75 e0          	mov    %rsi,-0x20(%rbp)
  4078b2:	48 89 55 d8          	mov    %rdx,-0x28(%rbp)
  4078b6:	48 89 4d d0          	mov    %rcx,-0x30(%rbp)
  4078ba:	4c 89 45 c8          	mov    %r8,-0x38(%rbp)
  4078be:	48 8b 45 c8          	mov    -0x38(%rbp),%rax
  4078c2:	48 89 c7             	mov    %rax,%rdi
  4078c5:	e8 bd de ff ff       	callq  405787 <_ZSt7forwardISt5tupleIJEEEOT_RNSt16remove_referenceIS2_E4typeE>
  4078ca:	49 89 c4             	mov    %rax,%r12
  4078cd:	48 8b 45 d0          	mov    -0x30(%rbp),%rax
  4078d1:	48 89 c7             	mov    %rax,%rdi
  4078d4:	e8 a0 de ff ff       	callq  405779 <_ZSt7forwardISt5tupleIJONSt7__cxx1112basic_stringIcSt11char_traitsIcESaIcEEEEEEOT_RNSt16remove_referenceIS9_E4typeE>
  4078d9:	48 89 c3             	mov    %rax,%rbx
  4078dc:	48 8b 45 d8          	mov    -0x28(%rbp),%rax
  4078e0:	48 89 c7             	mov    %rax,%rdi
  4078e3:	e8 83 de ff ff       	callq  40576b <_ZSt7forwardIRKSt21piecewise_construct_tEOT_RNSt16remove_referenceIS3_E4typeE>
  4078e8:	48 89 c2             	mov    %rax,%rdx
  4078eb:	48 8b 75 e0          	mov    -0x20(%rbp),%rsi
  4078ef:	48 8b 45 e8          	mov    -0x18(%rbp),%rax
  4078f3:	4d 89 e0             	mov    %r12,%r8
  4078f6:	48 89 d9             	mov    %rbx,%rcx
  4078f9:	48 89 c7             	mov    %rax,%rdi
  4078fc:	e8 3d 02 00 00       	callq  407b3e <_ZN9__gnu_cxx13new_allocatorISt13_Rb_tree_nodeISt4pairIKNSt7__cxx1112basic_stringIcSt11char_traitsIcESaIcEEES8_EEE9constructISA_JRKSt21piecewise_construct_tSt5tupleIJOS8_EESH_IJEEEEEvPT_DpOT0_>
  407901:	90                   	nop
  407902:	48 83 c4 30          	add    $0x30,%rsp
  407906:	5b                   	pop    %rbx
  407907:	41 5c                	pop    %r12
  407909:	5d                   	pop    %rbp
  40790a:	c3                   	retq   
  40790b:	90                   	nop

000000000040790c <_ZNKSt13_Rb_tree_nodeISt4pairIKNSt7__cxx1112basic_stringIcSt11char_traitsIcESaIcEEES6_EE9_M_valptrEv>:
  40790c:	55                   	push   %rbp
  40790d:	48 89 e5             	mov    %rsp,%rbp
  407910:	48 83 ec 10          	sub    $0x10,%rsp
  407914:	48 89 7d f8          	mov    %rdi,-0x8(%rbp)
  407918:	48 8b 45 f8          	mov    -0x8(%rbp),%rax
  40791c:	48 83 c0 20          	add    $0x20,%rax
  407920:	48 89 c7             	mov    %rax,%rdi
  407923:	e8 f4 02 00 00       	callq  407c1c <_ZNK9__gnu_cxx16__aligned_membufISt4pairIKNSt7__cxx1112basic_stringIcSt11char_traitsIcESaIcEEES7_EE6_M_ptrEv>
  407928:	c9                   	leaveq 
  407929:	c3                   	retq   

000000000040792a <_ZN9__gnu_cxx17__is_null_pointerIcEEbPT_>:
  40792a:	55                   	push   %rbp
  40792b:	48 89 e5             	mov    %rsp,%rbp
  40792e:	48 89 7d f8          	mov    %rdi,-0x8(%rbp)
  407932:	48 83 7d f8 00       	cmpq   $0x0,-0x8(%rbp)
  407937:	0f 94 c0             	sete   %al
  40793a:	5d                   	pop    %rbp
  40793b:	c3                   	retq   

000000000040793c <_ZSt8distanceIPcENSt15iterator_traitsIT_E15difference_typeES2_S2_>:
  40793c:	55                   	push   %rbp
  40793d:	48 89 e5             	mov    %rsp,%rbp
  407940:	53                   	push   %rbx
  407941:	48 83 ec 28          	sub    $0x28,%rsp
  407945:	48 89 7d d8          	mov    %rdi,-0x28(%rbp)
  407949:	48 89 75 d0          	mov    %rsi,-0x30(%rbp)
  40794d:	64 48 8b 04 25 28 00 	mov    %fs:0x28,%rax
  407954:	00 00 
  407956:	48 89 45 e8          	mov    %rax,-0x18(%rbp)
  40795a:	31 c0                	xor    %eax,%eax
  40795c:	48 8d 45 d8          	lea    -0x28(%rbp),%rax
  407960:	48 89 c7             	mov    %rax,%rdi
  407963:	e8 ce 02 00 00       	callq  407c36 <_ZSt19__iterator_categoryIPcENSt15iterator_traitsIT_E17iterator_categoryERKS2_>
  407968:	48 8b 45 d8          	mov    -0x28(%rbp),%rax
  40796c:	48 8b 55 d0          	mov    -0x30(%rbp),%rdx
  407970:	48 83 ec 08          	sub    $0x8,%rsp
  407974:	53                   	push   %rbx
  407975:	48 89 d6             	mov    %rdx,%rsi
  407978:	48 89 c7             	mov    %rax,%rdi
  40797b:	e8 c0 02 00 00       	callq  407c40 <_ZSt10__distanceIPcENSt15iterator_traitsIT_E15difference_typeES2_S2_St26random_access_iterator_tag>
  407980:	48 83 c4 10          	add    $0x10,%rsp
  407984:	48 8b 4d e8          	mov    -0x18(%rbp),%rcx
  407988:	64 48 33 0c 25 28 00 	xor    %fs:0x28,%rcx
  40798f:	00 00 
  407991:	74 05                	je     407998 <_ZSt8distanceIPcENSt15iterator_traitsIT_E15difference_typeES2_S2_+0x5c>
  407993:	e8 a8 b5 ff ff       	callq  402f40 <__stack_chk_fail@plt>
  407998:	48 8b 5d f8          	mov    -0x8(%rbp),%rbx
  40799c:	c9                   	leaveq 
  40799d:	c3                   	retq   

000000000040799e <_ZN9__gnu_cxx13new_allocatorISt13_Rb_tree_nodeISt4pairIKNSt7__cxx1112basic_stringIcSt11char_traitsIcESaIcEEES8_EEEC1ERKSC_>:
  40799e:	55                   	push   %rbp
  40799f:	48 89 e5             	mov    %rsp,%rbp
  4079a2:	48 89 7d f8          	mov    %rdi,-0x8(%rbp)
  4079a6:	48 89 75 f0          	mov    %rsi,-0x10(%rbp)
  4079aa:	90                   	nop
  4079ab:	5d                   	pop    %rbp
  4079ac:	c3                   	retq   
  4079ad:	90                   	nop

00000000004079ae <_ZNKSt8_Rb_treeINSt7__cxx1112basic_stringIcSt11char_traitsIcESaIcEEESt4pairIKS5_S5_ESt10_Select1stIS8_ESt4lessIS5_ESaIS8_EE11_Alloc_nodeclIRKS8_EEPSt13_Rb_tree_nodeIS8_EOT_>:
  4079ae:	55                   	push   %rbp
  4079af:	48 89 e5             	mov    %rsp,%rbp
  4079b2:	48 83 ec 10          	sub    $0x10,%rsp
  4079b6:	48 89 7d f8          	mov    %rdi,-0x8(%rbp)
  4079ba:	48 89 75 f0          	mov    %rsi,-0x10(%rbp)
  4079be:	48 8b 45 f0          	mov    -0x10(%rbp),%rax
  4079c2:	48 89 c7             	mov    %rax,%rdi
  4079c5:	e8 c2 ee ff ff       	callq  40688c <_ZSt7forwardIRKSt4pairIKNSt7__cxx1112basic_stringIcSt11char_traitsIcESaIcEEES6_EEOT_RNSt16remove_referenceISB_E4typeE>
  4079ca:	48 89 c2             	mov    %rax,%rdx
  4079cd:	48 8b 45 f8          	mov    -0x8(%rbp),%rax
  4079d1:	48 8b 00             	mov    (%rax),%rax
  4079d4:	48 89 d6             	mov    %rdx,%rsi
  4079d7:	48 89 c7             	mov    %rax,%rdi
  4079da:	e8 7d 02 00 00       	callq  407c5c <_ZNSt8_Rb_treeINSt7__cxx1112basic_stringIcSt11char_traitsIcESaIcEEESt4pairIKS5_S5_ESt10_Select1stIS8_ESt4lessIS5_ESaIS8_EE14_M_create_nodeIJRKS8_EEEPSt13_Rb_tree_nodeIS8_EDpOT_>
  4079df:	c9                   	leaveq 
  4079e0:	c3                   	retq   
  4079e1:	90                   	nop

00000000004079e2 <_ZNSt8_Rb_treeINSt7__cxx1112basic_stringIcSt11char_traitsIcESaIcEEESt4pairIKS5_S5_ESt10_Select1stIS8_ESt4lessIS5_ESaIS8_EE14_M_create_nodeIJS6_IPKcS5_EEEEPSt13_Rb_tree_nodeIS8_EDpOT_>:
  4079e2:	55                   	push   %rbp
  4079e3:	48 89 e5             	mov    %rsp,%rbp
  4079e6:	48 83 ec 20          	sub    $0x20,%rsp
  4079ea:	48 89 7d e8          	mov    %rdi,-0x18(%rbp)
  4079ee:	48 89 75 e0          	mov    %rsi,-0x20(%rbp)
  4079f2:	48 8b 45 e8          	mov    -0x18(%rbp),%rax
  4079f6:	48 89 c7             	mov    %rax,%rdi
  4079f9:	e8 e6 f6 ff ff       	callq  4070e4 <_ZNSt8_Rb_treeINSt7__cxx1112basic_stringIcSt11char_traitsIcESaIcEEESt4pairIKS5_S5_ESt10_Select1stIS8_ESt4lessIS5_ESaIS8_EE11_M_get_nodeEv>
  4079fe:	48 89 45 f8          	mov    %rax,-0x8(%rbp)
  407a02:	48 8b 45 e0          	mov    -0x20(%rbp),%rax
  407a06:	48 89 c7             	mov    %rax,%rdi
  407a09:	e8 6b da ff ff       	callq  405479 <_ZSt7forwardISt4pairIPKcNSt7__cxx1112basic_stringIcSt11char_traitsIcESaIcEEEEEOT_RNSt16remove_referenceISA_E4typeE>
  407a0e:	48 89 c2             	mov    %rax,%rdx
  407a11:	48 8b 4d f8          	mov    -0x8(%rbp),%rcx
  407a15:	48 8b 45 e8          	mov    -0x18(%rbp),%rax
  407a19:	48 89 ce             	mov    %rcx,%rsi
  407a1c:	48 89 c7             	mov    %rax,%rdi
  407a1f:	e8 80 02 00 00       	callq  407ca4 <_ZNSt8_Rb_treeINSt7__cxx1112basic_stringIcSt11char_traitsIcESaIcEEESt4pairIKS5_S5_ESt10_Select1stIS8_ESt4lessIS5_ESaIS8_EE17_M_construct_nodeIJS6_IPKcS5_EEEEvPSt13_Rb_tree_nodeIS8_EDpOT_>
  407a24:	48 8b 45 f8          	mov    -0x8(%rbp),%rax
  407a28:	c9                   	leaveq 
  407a29:	c3                   	retq   

0000000000407a2a <_ZNSt8_Rb_treeINSt7__cxx1112basic_stringIcSt11char_traitsIcESaIcEEESt4pairIKS5_S5_ESt10_Select1stIS8_ESt4lessIS5_ESaIS8_EE13_M_clone_nodeINSE_11_Alloc_nodeEEEPSt13_Rb_tree_nodeIS8_EPKSI_RT_>:
  407a2a:	55                   	push   %rbp
  407a2b:	48 89 e5             	mov    %rsp,%rbp
  407a2e:	48 83 ec 30          	sub    $0x30,%rsp
  407a32:	48 89 7d e8          	mov    %rdi,-0x18(%rbp)
  407a36:	48 89 75 e0          	mov    %rsi,-0x20(%rbp)
  407a3a:	48 89 55 d8          	mov    %rdx,-0x28(%rbp)
  407a3e:	48 8b 45 e0          	mov    -0x20(%rbp),%rax
  407a42:	48 89 c7             	mov    %rax,%rdi
  407a45:	e8 c2 fe ff ff       	callq  40790c <_ZNKSt13_Rb_tree_nodeISt4pairIKNSt7__cxx1112basic_stringIcSt11char_traitsIcESaIcEEES6_EE9_M_valptrEv>
  407a4a:	48 89 c2             	mov    %rax,%rdx
  407a4d:	48 8b 45 d8          	mov    -0x28(%rbp),%rax
  407a51:	48 89 d6             	mov    %rdx,%rsi
  407a54:	48 89 c7             	mov    %rax,%rdi
  407a57:	e8 52 ff ff ff       	callq  4079ae <_ZNKSt8_Rb_treeINSt7__cxx1112basic_stringIcSt11char_traitsIcESaIcEEESt4pairIKS5_S5_ESt10_Select1stIS8_ESt4lessIS5_ESaIS8_EE11_Alloc_nodeclIRKS8_EEPSt13_Rb_tree_nodeIS8_EOT_>
  407a5c:	48 89 45 f8          	mov    %rax,-0x8(%rbp)
  407a60:	48 8b 45 e0          	mov    -0x20(%rbp),%rax
  407a64:	8b 10                	mov    (%rax),%edx
  407a66:	48 8b 45 f8          	mov    -0x8(%rbp),%rax
  407a6a:	89 10                	mov    %edx,(%rax)
  407a6c:	48 8b 45 f8          	mov    -0x8(%rbp),%rax
  407a70:	48 c7 40 10 00 00 00 	movq   $0x0,0x10(%rax)
  407a77:	00 
  407a78:	48 8b 45 f8          	mov    -0x8(%rbp),%rax
  407a7c:	48 c7 40 18 00 00 00 	movq   $0x0,0x18(%rax)
  407a83:	00 
  407a84:	48 8b 45 f8          	mov    -0x8(%rbp),%rax
  407a88:	c9                   	leaveq 
  407a89:	c3                   	retq   

0000000000407a8a <_ZNSt8_Rb_treeINSt7__cxx1112basic_stringIcSt11char_traitsIcESaIcEEESt4pairIKS5_S5_ESt10_Select1stIS8_ESt4lessIS5_ESaIS8_EE8_S_rightEPKSt18_Rb_tree_node_base>:
  407a8a:	55                   	push   %rbp
  407a8b:	48 89 e5             	mov    %rsp,%rbp
  407a8e:	48 89 7d f8          	mov    %rdi,-0x8(%rbp)
  407a92:	48 8b 45 f8          	mov    -0x8(%rbp),%rax
  407a96:	48 8b 40 18          	mov    0x18(%rax),%rax
  407a9a:	5d                   	pop    %rbp
  407a9b:	c3                   	retq   

0000000000407a9c <_ZNSt8_Rb_treeINSt7__cxx1112basic_stringIcSt11char_traitsIcESaIcEEESt4pairIKS5_S5_ESt10_Select1stIS8_ESt4lessIS5_ESaIS8_EE7_S_leftEPKSt18_Rb_tree_node_base>:
  407a9c:	55                   	push   %rbp
  407a9d:	48 89 e5             	mov    %rsp,%rbp
  407aa0:	48 89 7d f8          	mov    %rdi,-0x8(%rbp)
  407aa4:	48 8b 45 f8          	mov    -0x8(%rbp),%rax
  407aa8:	48 8b 40 10          	mov    0x10(%rax),%rax
  407aac:	5d                   	pop    %rbp
  407aad:	c3                   	retq   

0000000000407aae <_ZN9__gnu_cxx13new_allocatorISt13_Rb_tree_nodeISt4pairIKNSt7__cxx1112basic_stringIcSt11char_traitsIcESaIcEEES8_EEE7destroyISA_EEvPT_>:
  407aae:	55                   	push   %rbp
  407aaf:	48 89 e5             	mov    %rsp,%rbp
  407ab2:	48 83 ec 10          	sub    $0x10,%rsp
  407ab6:	48 89 7d f8          	mov    %rdi,-0x8(%rbp)
  407aba:	48 89 75 f0          	mov    %rsi,-0x10(%rbp)
  407abe:	48 8b 45 f0          	mov    -0x10(%rbp),%rax
  407ac2:	48 89 c7             	mov    %rax,%rdi
  407ac5:	e8 6c cf ff ff       	callq  404a36 <_ZNSt4pairIKNSt7__cxx1112basic_stringIcSt11char_traitsIcESaIcEEES5_ED1Ev>
  407aca:	90                   	nop
  407acb:	c9                   	leaveq 
  407acc:	c3                   	retq   
  407acd:	90                   	nop

0000000000407ace <_ZN9__gnu_cxx13new_allocatorISt13_Rb_tree_nodeISt4pairIKNSt7__cxx1112basic_stringIcSt11char_traitsIcESaIcEEES8_EEE10deallocateEPSB_m>:
  407ace:	55                   	push   %rbp
  407acf:	48 89 e5             	mov    %rsp,%rbp
  407ad2:	48 83 ec 20          	sub    $0x20,%rsp
  407ad6:	48 89 7d f8          	mov    %rdi,-0x8(%rbp)
  407ada:	48 89 75 f0          	mov    %rsi,-0x10(%rbp)
  407ade:	48 89 55 e8          	mov    %rdx,-0x18(%rbp)
  407ae2:	48 8b 45 f0          	mov    -0x10(%rbp),%rax
  407ae6:	48 89 c7             	mov    %rax,%rdi
  407ae9:	e8 92 b3 ff ff       	callq  402e80 <_ZdlPv@plt>
  407aee:	90                   	nop
  407aef:	c9                   	leaveq 
  407af0:	c3                   	retq   
  407af1:	90                   	nop

0000000000407af2 <_ZN9__gnu_cxx13new_allocatorISt13_Rb_tree_nodeISt4pairIKNSt7__cxx1112basic_stringIcSt11char_traitsIcESaIcEEES8_EEE8allocateEmPKv>:
  407af2:	55                   	push   %rbp
  407af3:	48 89 e5             	mov    %rsp,%rbp
  407af6:	48 83 ec 20          	sub    $0x20,%rsp
  407afa:	48 89 7d f8          	mov    %rdi,-0x8(%rbp)
  407afe:	48 89 75 f0          	mov    %rsi,-0x10(%rbp)
  407b02:	48 89 55 e8          	mov    %rdx,-0x18(%rbp)
  407b06:	48 8b 45 f8          	mov    -0x8(%rbp),%rax
  407b0a:	48 89 c7             	mov    %rax,%rdi
  407b0d:	e8 3e 02 00 00       	callq  407d50 <_ZNK9__gnu_cxx13new_allocatorISt13_Rb_tree_nodeISt4pairIKNSt7__cxx1112basic_stringIcSt11char_traitsIcESaIcEEES8_EEE8max_sizeEv>
  407b12:	48 3b 45 f0          	cmp    -0x10(%rbp),%rax
  407b16:	0f 92 c0             	setb   %al
  407b19:	84 c0                	test   %al,%al
  407b1b:	74 05                	je     407b22 <_ZN9__gnu_cxx13new_allocatorISt13_Rb_tree_nodeISt4pairIKNSt7__cxx1112basic_stringIcSt11char_traitsIcESaIcEEES8_EEE8allocateEmPKv+0x30>
  407b1d:	e8 4e b1 ff ff       	callq  402c70 <_ZSt17__throw_bad_allocv@plt>
  407b22:	48 8b 55 f0          	mov    -0x10(%rbp),%rdx
  407b26:	48 89 d0             	mov    %rdx,%rax
  407b29:	48 01 c0             	add    %rax,%rax
  407b2c:	48 01 d0             	add    %rdx,%rax
  407b2f:	48 c1 e0 05          	shl    $0x5,%rax
  407b33:	48 89 c7             	mov    %rax,%rdi
  407b36:	e8 75 b3 ff ff       	callq  402eb0 <_Znwm@plt>
  407b3b:	c9                   	leaveq 
  407b3c:	c3                   	retq   
  407b3d:	90                   	nop

0000000000407b3e <_ZN9__gnu_cxx13new_allocatorISt13_Rb_tree_nodeISt4pairIKNSt7__cxx1112basic_stringIcSt11char_traitsIcESaIcEEES8_EEE9constructISA_JRKSt21piecewise_construct_tSt5tupleIJOS8_EESH_IJEEEEEvPT_DpOT0_>:
  407b3e:	55                   	push   %rbp
  407b3f:	48 89 e5             	mov    %rsp,%rbp
  407b42:	41 55                	push   %r13
  407b44:	41 54                	push   %r12
  407b46:	53                   	push   %rbx
  407b47:	48 83 ec 58          	sub    $0x58,%rsp
  407b4b:	48 89 7d b8          	mov    %rdi,-0x48(%rbp)
  407b4f:	48 89 75 b0          	mov    %rsi,-0x50(%rbp)
  407b53:	48 89 55 a8          	mov    %rdx,-0x58(%rbp)
  407b57:	48 89 4d a0          	mov    %rcx,-0x60(%rbp)
  407b5b:	4c 89 45 98          	mov    %r8,-0x68(%rbp)
  407b5f:	64 48 8b 04 25 28 00 	mov    %fs:0x28,%rax
  407b66:	00 00 
  407b68:	48 89 45 d8          	mov    %rax,-0x28(%rbp)
  407b6c:	31 c0                	xor    %eax,%eax
  407b6e:	48 8b 45 a8          	mov    -0x58(%rbp),%rax
  407b72:	48 89 c7             	mov    %rax,%rdi
  407b75:	e8 f1 db ff ff       	callq  40576b <_ZSt7forwardIRKSt21piecewise_construct_tEOT_RNSt16remove_referenceIS3_E4typeE>
  407b7a:	44 88 65 ce          	mov    %r12b,-0x32(%rbp)
  407b7e:	48 8b 45 a0          	mov    -0x60(%rbp),%rax
  407b82:	48 89 c7             	mov    %rax,%rdi
  407b85:	e8 ef db ff ff       	callq  405779 <_ZSt7forwardISt5tupleIJONSt7__cxx1112basic_stringIcSt11char_traitsIcESaIcEEEEEEOT_RNSt16remove_referenceIS9_E4typeE>
  407b8a:	48 89 c2             	mov    %rax,%rdx
  407b8d:	48 8d 45 d0          	lea    -0x30(%rbp),%rax
  407b91:	48 89 d6             	mov    %rdx,%rsi
  407b94:	48 89 c7             	mov    %rax,%rdi
  407b97:	e8 e6 d4 ff ff       	callq  405082 <_ZNSt5tupleIJONSt7__cxx1112basic_stringIcSt11char_traitsIcESaIcEEEEEC1EOS7_>
  407b9c:	4c 8d 6d d0          	lea    -0x30(%rbp),%r13
  407ba0:	48 8b 45 98          	mov    -0x68(%rbp),%rax
  407ba4:	48 89 c7             	mov    %rax,%rdi
  407ba7:	e8 db db ff ff       	callq  405787 <_ZSt7forwardISt5tupleIJEEEOT_RNSt16remove_referenceIS2_E4typeE>
  407bac:	88 5d cf             	mov    %bl,-0x31(%rbp)
  407baf:	4c 8b 65 b0          	mov    -0x50(%rbp),%r12
  407bb3:	4c 89 e6             	mov    %r12,%rsi
  407bb6:	bf 40 00 00 00       	mov    $0x40,%edi
  407bbb:	e8 73 cc ff ff       	callq  404833 <_ZnwmPv>
  407bc0:	48 89 c3             	mov    %rax,%rbx
  407bc3:	48 85 db             	test   %rbx,%rbx
  407bc6:	74 34                	je     407bfc <_ZN9__gnu_cxx13new_allocatorISt13_Rb_tree_nodeISt4pairIKNSt7__cxx1112basic_stringIcSt11char_traitsIcESaIcEEES8_EEE9constructISA_JRKSt21piecewise_construct_tSt5tupleIJOS8_EESH_IJEEEEEvPT_DpOT0_+0xbe>
  407bc8:	0f b6 45 cf          	movzbl -0x31(%rbp),%eax
  407bcc:	50                   	push   %rax
  407bcd:	0f b6 45 ce          	movzbl -0x32(%rbp),%eax
  407bd1:	50                   	push   %rax
  407bd2:	4c 89 ee             	mov    %r13,%rsi
  407bd5:	48 89 df             	mov    %rbx,%rdi
  407bd8:	e8 87 01 00 00       	callq  407d64 <_ZNSt4pairIKNSt7__cxx1112basic_stringIcSt11char_traitsIcESaIcEEES5_EC1IJOS5_EJEEESt21piecewise_construct_tSt5tupleIJDpT_EESB_IJDpT0_EE>
  407bdd:	48 83 c4 10          	add    $0x10,%rsp
  407be1:	eb 19                	jmp    407bfc <_ZN9__gnu_cxx13new_allocatorISt13_Rb_tree_nodeISt4pairIKNSt7__cxx1112basic_stringIcSt11char_traitsIcESaIcEEES8_EEE9constructISA_JRKSt21piecewise_construct_tSt5tupleIJOS8_EESH_IJEEEEEvPT_DpOT0_+0xbe>
  407be3:	49 89 c5             	mov    %rax,%r13
  407be6:	4c 89 e6             	mov    %r12,%rsi
  407be9:	48 89 df             	mov    %rbx,%rdi
  407bec:	e8 54 cc ff ff       	callq  404845 <_ZdlPvS_>
  407bf1:	4c 89 e8             	mov    %r13,%rax
  407bf4:	48 89 c7             	mov    %rax,%rdi
  407bf7:	e8 f4 b4 ff ff       	callq  4030f0 <_Unwind_Resume@plt>
  407bfc:	90                   	nop
  407bfd:	48 8b 45 d8          	mov    -0x28(%rbp),%rax
  407c01:	64 48 33 04 25 28 00 	xor    %fs:0x28,%rax
  407c08:	00 00 
  407c0a:	74 05                	je     407c11 <_ZN9__gnu_cxx13new_allocatorISt13_Rb_tree_nodeISt4pairIKNSt7__cxx1112basic_stringIcSt11char_traitsIcESaIcEEES8_EEE9constructISA_JRKSt21piecewise_construct_tSt5tupleIJOS8_EESH_IJEEEEEvPT_DpOT0_+0xd3>
  407c0c:	e8 2f b3 ff ff       	callq  402f40 <__stack_chk_fail@plt>
  407c11:	48 8d 65 e8          	lea    -0x18(%rbp),%rsp
  407c15:	5b                   	pop    %rbx
  407c16:	41 5c                	pop    %r12
  407c18:	41 5d                	pop    %r13
  407c1a:	5d                   	pop    %rbp
  407c1b:	c3                   	retq   

0000000000407c1c <_ZNK9__gnu_cxx16__aligned_membufISt4pairIKNSt7__cxx1112basic_stringIcSt11char_traitsIcESaIcEEES7_EE6_M_ptrEv>:
  407c1c:	55                   	push   %rbp
  407c1d:	48 89 e5             	mov    %rsp,%rbp
  407c20:	48 83 ec 10          	sub    $0x10,%rsp
  407c24:	48 89 7d f8          	mov    %rdi,-0x8(%rbp)
  407c28:	48 8b 45 f8          	mov    -0x8(%rbp),%rax
  407c2c:	48 89 c7             	mov    %rax,%rdi
  407c2f:	e8 86 01 00 00       	callq  407dba <_ZNK9__gnu_cxx16__aligned_membufISt4pairIKNSt7__cxx1112basic_stringIcSt11char_traitsIcESaIcEEES7_EE7_M_addrEv>
  407c34:	c9                   	leaveq 
  407c35:	c3                   	retq   

0000000000407c36 <_ZSt19__iterator_categoryIPcENSt15iterator_traitsIT_E17iterator_categoryERKS2_>:
  407c36:	55                   	push   %rbp
  407c37:	48 89 e5             	mov    %rsp,%rbp
  407c3a:	48 89 7d f8          	mov    %rdi,-0x8(%rbp)
  407c3e:	5d                   	pop    %rbp
  407c3f:	c3                   	retq   

0000000000407c40 <_ZSt10__distanceIPcENSt15iterator_traitsIT_E15difference_typeES2_S2_St26random_access_iterator_tag>:
  407c40:	55                   	push   %rbp
  407c41:	48 89 e5             	mov    %rsp,%rbp
  407c44:	48 89 7d f8          	mov    %rdi,-0x8(%rbp)
  407c48:	48 89 75 f0          	mov    %rsi,-0x10(%rbp)
  407c4c:	48 8b 55 f0          	mov    -0x10(%rbp),%rdx
  407c50:	48 8b 45 f8          	mov    -0x8(%rbp),%rax
  407c54:	48 29 c2             	sub    %rax,%rdx
  407c57:	48 89 d0             	mov    %rdx,%rax
  407c5a:	5d                   	pop    %rbp
  407c5b:	c3                   	retq   

0000000000407c5c <_ZNSt8_Rb_treeINSt7__cxx1112basic_stringIcSt11char_traitsIcESaIcEEESt4pairIKS5_S5_ESt10_Select1stIS8_ESt4lessIS5_ESaIS8_EE14_M_create_nodeIJRKS8_EEEPSt13_Rb_tree_nodeIS8_EDpOT_>:
  407c5c:	55                   	push   %rbp
  407c5d:	48 89 e5             	mov    %rsp,%rbp
  407c60:	48 83 ec 20          	sub    $0x20,%rsp
  407c64:	48 89 7d e8          	mov    %rdi,-0x18(%rbp)
  407c68:	48 89 75 e0          	mov    %rsi,-0x20(%rbp)
  407c6c:	48 8b 45 e8          	mov    -0x18(%rbp),%rax
  407c70:	48 89 c7             	mov    %rax,%rdi
  407c73:	e8 6c f4 ff ff       	callq  4070e4 <_ZNSt8_Rb_treeINSt7__cxx1112basic_stringIcSt11char_traitsIcESaIcEEESt4pairIKS5_S5_ESt10_Select1stIS8_ESt4lessIS5_ESaIS8_EE11_M_get_nodeEv>
  407c78:	48 89 45 f8          	mov    %rax,-0x8(%rbp)
  407c7c:	48 8b 45 e0          	mov    -0x20(%rbp),%rax
  407c80:	48 89 c7             	mov    %rax,%rdi
  407c83:	e8 04 ec ff ff       	callq  40688c <_ZSt7forwardIRKSt4pairIKNSt7__cxx1112basic_stringIcSt11char_traitsIcESaIcEEES6_EEOT_RNSt16remove_referenceISB_E4typeE>
  407c88:	48 89 c2             	mov    %rax,%rdx
  407c8b:	48 8b 4d f8          	mov    -0x8(%rbp),%rcx
  407c8f:	48 8b 45 e8          	mov    -0x18(%rbp),%rax
  407c93:	48 89 ce             	mov    %rcx,%rsi
  407c96:	48 89 c7             	mov    %rax,%rdi
  407c99:	e8 2a 01 00 00       	callq  407dc8 <_ZNSt8_Rb_treeINSt7__cxx1112basic_stringIcSt11char_traitsIcESaIcEEESt4pairIKS5_S5_ESt10_Select1stIS8_ESt4lessIS5_ESaIS8_EE17_M_construct_nodeIJRKS8_EEEvPSt13_Rb_tree_nodeIS8_EDpOT_>
  407c9e:	48 8b 45 f8          	mov    -0x8(%rbp),%rax
  407ca2:	c9                   	leaveq 
  407ca3:	c3                   	retq   

0000000000407ca4 <_ZNSt8_Rb_treeINSt7__cxx1112basic_stringIcSt11char_traitsIcESaIcEEESt4pairIKS5_S5_ESt10_Select1stIS8_ESt4lessIS5_ESaIS8_EE17_M_construct_nodeIJS6_IPKcS5_EEEEvPSt13_Rb_tree_nodeIS8_EDpOT_>:
  407ca4:	55                   	push   %rbp
  407ca5:	48 89 e5             	mov    %rsp,%rbp
  407ca8:	41 54                	push   %r12
  407caa:	53                   	push   %rbx
  407cab:	48 83 ec 20          	sub    $0x20,%rsp
  407caf:	48 89 7d e8          	mov    %rdi,-0x18(%rbp)
  407cb3:	48 89 75 e0          	mov    %rsi,-0x20(%rbp)
  407cb7:	48 89 55 d8          	mov    %rdx,-0x28(%rbp)
  407cbb:	48 8b 45 e0          	mov    -0x20(%rbp),%rax
  407cbf:	48 89 c6             	mov    %rax,%rsi
  407cc2:	bf 60 00 00 00       	mov    $0x60,%edi
  407cc7:	e8 67 cb ff ff       	callq  404833 <_ZnwmPv>
  407ccc:	48 85 c0             	test   %rax,%rax
  407ccf:	74 08                	je     407cd9 <_ZNSt8_Rb_treeINSt7__cxx1112basic_stringIcSt11char_traitsIcESaIcEEESt4pairIKS5_S5_ESt10_Select1stIS8_ESt4lessIS5_ESaIS8_EE17_M_construct_nodeIJS6_IPKcS5_EEEEvPSt13_Rb_tree_nodeIS8_EDpOT_+0x35>
  407cd1:	48 89 c7             	mov    %rax,%rdi
  407cd4:	e8 4b f4 ff ff       	callq  407124 <_ZNSt13_Rb_tree_nodeISt4pairIKNSt7__cxx1112basic_stringIcSt11char_traitsIcESaIcEEES6_EEC1Ev>
  407cd9:	48 8b 45 d8          	mov    -0x28(%rbp),%rax
  407cdd:	48 89 c7             	mov    %rax,%rdi
  407ce0:	e8 94 d7 ff ff       	callq  405479 <_ZSt7forwardISt4pairIPKcNSt7__cxx1112basic_stringIcSt11char_traitsIcESaIcEEEEEOT_RNSt16remove_referenceISA_E4typeE>
  407ce5:	49 89 c4             	mov    %rax,%r12
  407ce8:	48 8b 45 e0          	mov    -0x20(%rbp),%rax
  407cec:	48 89 c7             	mov    %rax,%rdi
  407cef:	e8 d4 de ff ff       	callq  405bc8 <_ZNSt13_Rb_tree_nodeISt4pairIKNSt7__cxx1112basic_stringIcSt11char_traitsIcESaIcEEES6_EE9_M_valptrEv>
  407cf4:	48 89 c3             	mov    %rax,%rbx
  407cf7:	48 8b 45 e8          	mov    -0x18(%rbp),%rax
  407cfb:	48 89 c7             	mov    %rax,%rdi
  407cfe:	e8 e1 fa ff ff       	callq  4077e4 <_ZNSt8_Rb_treeINSt7__cxx1112basic_stringIcSt11char_traitsIcESaIcEEESt4pairIKS5_S5_ESt10_Select1stIS8_ESt4lessIS5_ESaIS8_EE21_M_get_Node_allocatorEv>
  407d03:	4c 89 e2             	mov    %r12,%rdx
  407d06:	48 89 de             	mov    %rbx,%rsi
  407d09:	48 89 c7             	mov    %rax,%rdi
  407d0c:	e8 62 01 00 00       	callq  407e73 <_ZNSt16allocator_traitsISaISt13_Rb_tree_nodeISt4pairIKNSt7__cxx1112basic_stringIcSt11char_traitsIcESaIcEEES7_EEEE9constructIS9_JS1_IPKcS7_EEEEvRSB_PT_DpOT0_>
  407d11:	eb 33                	jmp    407d46 <_ZNSt8_Rb_treeINSt7__cxx1112basic_stringIcSt11char_traitsIcESaIcEEESt4pairIKS5_S5_ESt10_Select1stIS8_ESt4lessIS5_ESaIS8_EE17_M_construct_nodeIJS6_IPKcS5_EEEEvPSt13_Rb_tree_nodeIS8_EDpOT_+0xa2>
  407d13:	48 89 c7             	mov    %rax,%rdi
  407d16:	e8 75 af ff ff       	callq  402c90 <__cxa_begin_catch@plt>
  407d1b:	48 8b 55 e0          	mov    -0x20(%rbp),%rdx
  407d1f:	48 8b 45 e8          	mov    -0x18(%rbp),%rax
  407d23:	48 89 d6             	mov    %rdx,%rsi
  407d26:	48 89 c7             	mov    %rax,%rdi
  407d29:	e8 1c f3 ff ff       	callq  40704a <_ZNSt8_Rb_treeINSt7__cxx1112basic_stringIcSt11char_traitsIcESaIcEEESt4pairIKS5_S5_ESt10_Select1stIS8_ESt4lessIS5_ESaIS8_EE11_M_put_nodeEPSt13_Rb_tree_nodeIS8_E>
  407d2e:	e8 ad b2 ff ff       	callq  402fe0 <__cxa_rethrow@plt>
  407d33:	48 89 c3             	mov    %rax,%rbx
  407d36:	e8 35 b3 ff ff       	callq  403070 <__cxa_end_catch@plt>
  407d3b:	48 89 d8             	mov    %rbx,%rax
  407d3e:	48 89 c7             	mov    %rax,%rdi
  407d41:	e8 aa b3 ff ff       	callq  4030f0 <_Unwind_Resume@plt>
  407d46:	48 83 c4 20          	add    $0x20,%rsp
  407d4a:	5b                   	pop    %rbx
  407d4b:	41 5c                	pop    %r12
  407d4d:	5d                   	pop    %rbp
  407d4e:	c3                   	retq   
  407d4f:	90                   	nop

0000000000407d50 <_ZNK9__gnu_cxx13new_allocatorISt13_Rb_tree_nodeISt4pairIKNSt7__cxx1112basic_stringIcSt11char_traitsIcESaIcEEES8_EEE8max_sizeEv>:
  407d50:	55                   	push   %rbp
  407d51:	48 89 e5             	mov    %rsp,%rbp
  407d54:	48 89 7d f8          	mov    %rdi,-0x8(%rbp)
  407d58:	48 b8 aa aa aa aa aa 	movabs $0x2aaaaaaaaaaaaaa,%rax
  407d5f:	aa aa 02 
  407d62:	5d                   	pop    %rbp
  407d63:	c3                   	retq   

0000000000407d64 <_ZNSt4pairIKNSt7__cxx1112basic_stringIcSt11char_traitsIcESaIcEEES5_EC1IJOS5_EJEEESt21piecewise_construct_tSt5tupleIJDpT_EESB_IJDpT0_EE>:
  407d64:	55                   	push   %rbp
  407d65:	48 89 e5             	mov    %rsp,%rbp
  407d68:	48 83 ec 20          	sub    $0x20,%rsp
  407d6c:	48 89 7d e8          	mov    %rdi,-0x18(%rbp)
  407d70:	48 89 75 e0          	mov    %rsi,-0x20(%rbp)
  407d74:	64 48 8b 04 25 28 00 	mov    %fs:0x28,%rax
  407d7b:	00 00 
  407d7d:	48 89 45 f8          	mov    %rax,-0x8(%rbp)
  407d81:	31 c0                	xor    %eax,%eax
  407d83:	48 8d 55 18          	lea    0x18(%rbp),%rdx
  407d87:	48 8b 4d e0          	mov    -0x20(%rbp),%rcx
  407d8b:	48 8b 45 e8          	mov    -0x18(%rbp),%rax
  407d8f:	41 51                	push   %r9
  407d91:	41 50                	push   %r8
  407d93:	48 89 ce             	mov    %rcx,%rsi
  407d96:	48 89 c7             	mov    %rax,%rdi
  407d99:	e8 42 01 00 00       	callq  407ee0 <_ZNSt4pairIKNSt7__cxx1112basic_stringIcSt11char_traitsIcESaIcEEES5_EC1IJOS5_EJLm0EEJEJEEERSt5tupleIJDpT_EERSA_IJDpT1_EESt12_Index_tupleIJXspT0_EEESJ_IJXspT2_EEE>
  407d9e:	48 83 c4 10          	add    $0x10,%rsp
  407da2:	90                   	nop
  407da3:	48 8b 45 f8          	mov    -0x8(%rbp),%rax
  407da7:	64 48 33 04 25 28 00 	xor    %fs:0x28,%rax
  407dae:	00 00 
  407db0:	74 05                	je     407db7 <_ZNSt4pairIKNSt7__cxx1112basic_stringIcSt11char_traitsIcESaIcEEES5_EC1IJOS5_EJEEESt21piecewise_construct_tSt5tupleIJDpT_EESB_IJDpT0_EE+0x53>
  407db2:	e8 89 b1 ff ff       	callq  402f40 <__stack_chk_fail@plt>
  407db7:	c9                   	leaveq 
  407db8:	c3                   	retq   
  407db9:	90                   	nop

0000000000407dba <_ZNK9__gnu_cxx16__aligned_membufISt4pairIKNSt7__cxx1112basic_stringIcSt11char_traitsIcESaIcEEES7_EE7_M_addrEv>:
  407dba:	55                   	push   %rbp
  407dbb:	48 89 e5             	mov    %rsp,%rbp
  407dbe:	48 89 7d f8          	mov    %rdi,-0x8(%rbp)
  407dc2:	48 8b 45 f8          	mov    -0x8(%rbp),%rax
  407dc6:	5d                   	pop    %rbp
  407dc7:	c3                   	retq   

0000000000407dc8 <_ZNSt8_Rb_treeINSt7__cxx1112basic_stringIcSt11char_traitsIcESaIcEEESt4pairIKS5_S5_ESt10_Select1stIS8_ESt4lessIS5_ESaIS8_EE17_M_construct_nodeIJRKS8_EEEvPSt13_Rb_tree_nodeIS8_EDpOT_>:
  407dc8:	55                   	push   %rbp
  407dc9:	48 89 e5             	mov    %rsp,%rbp
  407dcc:	41 54                	push   %r12
  407dce:	53                   	push   %rbx
  407dcf:	48 83 ec 20          	sub    $0x20,%rsp
  407dd3:	48 89 7d e8          	mov    %rdi,-0x18(%rbp)
  407dd7:	48 89 75 e0          	mov    %rsi,-0x20(%rbp)
  407ddb:	48 89 55 d8          	mov    %rdx,-0x28(%rbp)
  407ddf:	48 8b 45 e0          	mov    -0x20(%rbp),%rax
  407de3:	48 89 c6             	mov    %rax,%rsi
  407de6:	bf 60 00 00 00       	mov    $0x60,%edi
  407deb:	e8 43 ca ff ff       	callq  404833 <_ZnwmPv>
  407df0:	48 85 c0             	test   %rax,%rax
  407df3:	74 08                	je     407dfd <_ZNSt8_Rb_treeINSt7__cxx1112basic_stringIcSt11char_traitsIcESaIcEEESt4pairIKS5_S5_ESt10_Select1stIS8_ESt4lessIS5_ESaIS8_EE17_M_construct_nodeIJRKS8_EEEvPSt13_Rb_tree_nodeIS8_EDpOT_+0x35>
  407df5:	48 89 c7             	mov    %rax,%rdi
  407df8:	e8 27 f3 ff ff       	callq  407124 <_ZNSt13_Rb_tree_nodeISt4pairIKNSt7__cxx1112basic_stringIcSt11char_traitsIcESaIcEEES6_EEC1Ev>
  407dfd:	48 8b 45 d8          	mov    -0x28(%rbp),%rax
  407e01:	48 89 c7             	mov    %rax,%rdi
  407e04:	e8 83 ea ff ff       	callq  40688c <_ZSt7forwardIRKSt4pairIKNSt7__cxx1112basic_stringIcSt11char_traitsIcESaIcEEES6_EEOT_RNSt16remove_referenceISB_E4typeE>
  407e09:	49 89 c4             	mov    %rax,%r12
  407e0c:	48 8b 45 e0          	mov    -0x20(%rbp),%rax
  407e10:	48 89 c7             	mov    %rax,%rdi
  407e13:	e8 b0 dd ff ff       	callq  405bc8 <_ZNSt13_Rb_tree_nodeISt4pairIKNSt7__cxx1112basic_stringIcSt11char_traitsIcESaIcEEES6_EE9_M_valptrEv>
  407e18:	48 89 c3             	mov    %rax,%rbx
  407e1b:	48 8b 45 e8          	mov    -0x18(%rbp),%rax
  407e1f:	48 89 c7             	mov    %rax,%rdi
  407e22:	e8 bd f9 ff ff       	callq  4077e4 <_ZNSt8_Rb_treeINSt7__cxx1112basic_stringIcSt11char_traitsIcESaIcEEESt4pairIKS5_S5_ESt10_Select1stIS8_ESt4lessIS5_ESaIS8_EE21_M_get_Node_allocatorEv>
  407e27:	4c 89 e2             	mov    %r12,%rdx
  407e2a:	48 89 de             	mov    %rbx,%rsi
  407e2d:	48 89 c7             	mov    %rax,%rdi
  407e30:	e8 f8 00 00 00       	callq  407f2d <_ZNSt16allocator_traitsISaISt13_Rb_tree_nodeISt4pairIKNSt7__cxx1112basic_stringIcSt11char_traitsIcESaIcEEES7_EEEE9constructIS9_JRKS9_EEEvRSB_PT_DpOT0_>
  407e35:	eb 33                	jmp    407e6a <_ZNSt8_Rb_treeINSt7__cxx1112basic_stringIcSt11char_traitsIcESaIcEEESt4pairIKS5_S5_ESt10_Select1stIS8_ESt4lessIS5_ESaIS8_EE17_M_construct_nodeIJRKS8_EEEvPSt13_Rb_tree_nodeIS8_EDpOT_+0xa2>
  407e37:	48 89 c7             	mov    %rax,%rdi
  407e3a:	e8 51 ae ff ff       	callq  402c90 <__cxa_begin_catch@plt>
  407e3f:	48 8b 55 e0          	mov    -0x20(%rbp),%rdx
  407e43:	48 8b 45 e8          	mov    -0x18(%rbp),%rax
  407e47:	48 89 d6             	mov    %rdx,%rsi
  407e4a:	48 89 c7             	mov    %rax,%rdi
  407e4d:	e8 f8 f1 ff ff       	callq  40704a <_ZNSt8_Rb_treeINSt7__cxx1112basic_stringIcSt11char_traitsIcESaIcEEESt4pairIKS5_S5_ESt10_Select1stIS8_ESt4lessIS5_ESaIS8_EE11_M_put_nodeEPSt13_Rb_tree_nodeIS8_E>
  407e52:	e8 89 b1 ff ff       	callq  402fe0 <__cxa_rethrow@plt>
  407e57:	48 89 c3             	mov    %rax,%rbx
  407e5a:	e8 11 b2 ff ff       	callq  403070 <__cxa_end_catch@plt>
  407e5f:	48 89 d8             	mov    %rbx,%rax
  407e62:	48 89 c7             	mov    %rax,%rdi
  407e65:	e8 86 b2 ff ff       	callq  4030f0 <_Unwind_Resume@plt>
  407e6a:	48 83 c4 20          	add    $0x20,%rsp
  407e6e:	5b                   	pop    %rbx
  407e6f:	41 5c                	pop    %r12
  407e71:	5d                   	pop    %rbp
  407e72:	c3                   	retq   

0000000000407e73 <_ZNSt16allocator_traitsISaISt13_Rb_tree_nodeISt4pairIKNSt7__cxx1112basic_stringIcSt11char_traitsIcESaIcEEES7_EEEE9constructIS9_JS1_IPKcS7_EEEEvRSB_PT_DpOT0_>:
  407e73:	55                   	push   %rbp
  407e74:	48 89 e5             	mov    %rsp,%rbp
  407e77:	48 83 ec 20          	sub    $0x20,%rsp
  407e7b:	48 89 7d f8          	mov    %rdi,-0x8(%rbp)
  407e7f:	48 89 75 f0          	mov    %rsi,-0x10(%rbp)
  407e83:	48 89 55 e8          	mov    %rdx,-0x18(%rbp)
  407e87:	48 8b 45 e8          	mov    -0x18(%rbp),%rax
  407e8b:	48 89 c7             	mov    %rax,%rdi
  407e8e:	e8 e6 d5 ff ff       	callq  405479 <_ZSt7forwardISt4pairIPKcNSt7__cxx1112basic_stringIcSt11char_traitsIcESaIcEEEEEOT_RNSt16remove_referenceISA_E4typeE>
  407e93:	48 89 c2             	mov    %rax,%rdx
  407e96:	48 8b 4d f0          	mov    -0x10(%rbp),%rcx
  407e9a:	48 8b 45 f8          	mov    -0x8(%rbp),%rax
  407e9e:	48 89 ce             	mov    %rcx,%rsi
  407ea1:	48 89 c7             	mov    %rax,%rdi
  407ea4:	e8 83 01 00 00       	callq  40802c <_ZN9__gnu_cxx13new_allocatorISt13_Rb_tree_nodeISt4pairIKNSt7__cxx1112basic_stringIcSt11char_traitsIcESaIcEEES8_EEE9constructISA_JS2_IPKcS8_EEEEvPT_DpOT0_>
  407ea9:	90                   	nop
  407eaa:	c9                   	leaveq 
  407eab:	c3                   	retq   

0000000000407eac <_ZSt12__get_helperILm0EONSt7__cxx1112basic_stringIcSt11char_traitsIcESaIcEEEJEERT0_RSt11_Tuple_implIXT_EJS7_DpT1_EE>:
  407eac:	55                   	push   %rbp
  407ead:	48 89 e5             	mov    %rsp,%rbp
  407eb0:	48 83 ec 10          	sub    $0x10,%rsp
  407eb4:	48 89 7d f8          	mov    %rdi,-0x8(%rbp)
  407eb8:	48 8b 45 f8          	mov    -0x8(%rbp),%rax
  407ebc:	48 89 c7             	mov    %rax,%rdi
  407ebf:	e8 5c d1 ff ff       	callq  405020 <_ZNSt11_Tuple_implILm0EJONSt7__cxx1112basic_stringIcSt11char_traitsIcESaIcEEEEE7_M_headERS7_>
  407ec4:	c9                   	leaveq 
  407ec5:	c3                   	retq   

0000000000407ec6 <_ZSt3getILm0EJONSt7__cxx1112basic_stringIcSt11char_traitsIcESaIcEEEEERNSt13tuple_elementIXT_ESt5tupleIJDpT0_EEE4typeERSB_>:
  407ec6:	55                   	push   %rbp
  407ec7:	48 89 e5             	mov    %rsp,%rbp
  407eca:	48 83 ec 10          	sub    $0x10,%rsp
  407ece:	48 89 7d f8          	mov    %rdi,-0x8(%rbp)
  407ed2:	48 8b 45 f8          	mov    -0x8(%rbp),%rax
  407ed6:	48 89 c7             	mov    %rax,%rdi
  407ed9:	e8 ce ff ff ff       	callq  407eac <_ZSt12__get_helperILm0EONSt7__cxx1112basic_stringIcSt11char_traitsIcESaIcEEEJEERT0_RSt11_Tuple_implIXT_EJS7_DpT1_EE>
  407ede:	c9                   	leaveq 
  407edf:	c3                   	retq   

0000000000407ee0 <_ZNSt4pairIKNSt7__cxx1112basic_stringIcSt11char_traitsIcESaIcEEES5_EC1IJOS5_EJLm0EEJEJEEERSt5tupleIJDpT_EERSA_IJDpT1_EESt12_Index_tupleIJXspT0_EEESJ_IJXspT2_EEE>:
  407ee0:	55                   	push   %rbp
  407ee1:	48 89 e5             	mov    %rsp,%rbp
  407ee4:	48 83 ec 20          	sub    $0x20,%rsp
  407ee8:	48 89 7d f8          	mov    %rdi,-0x8(%rbp)
  407eec:	48 89 75 f0          	mov    %rsi,-0x10(%rbp)
  407ef0:	48 89 55 e8          	mov    %rdx,-0x18(%rbp)
  407ef4:	48 8b 45 f0          	mov    -0x10(%rbp),%rax
  407ef8:	48 89 c7             	mov    %rax,%rdi
  407efb:	e8 c6 ff ff ff       	callq  407ec6 <_ZSt3getILm0EJONSt7__cxx1112basic_stringIcSt11char_traitsIcESaIcEEEEERNSt13tuple_elementIXT_ESt5tupleIJDpT0_EEE4typeERSB_>
  407f00:	48 89 c7             	mov    %rax,%rdi
  407f03:	e8 32 d1 ff ff       	callq  40503a <_ZSt7forwardIONSt7__cxx1112basic_stringIcSt11char_traitsIcESaIcEEEEOT_RNSt16remove_referenceIS7_E4typeE>
  407f08:	48 89 c2             	mov    %rax,%rdx
  407f0b:	48 8b 45 f8          	mov    -0x8(%rbp),%rax
  407f0f:	48 89 d6             	mov    %rdx,%rsi
  407f12:	48 89 c7             	mov    %rax,%rdi
  407f15:	e8 06 ae ff ff       	callq  402d20 <_ZNSt7__cxx1112basic_stringIcSt11char_traitsIcESaIcEEC1EOS4_@plt>
  407f1a:	48 8b 45 f8          	mov    -0x8(%rbp),%rax
  407f1e:	48 83 c0 20          	add    $0x20,%rax
  407f22:	48 89 c7             	mov    %rax,%rdi
  407f25:	e8 a6 b0 ff ff       	callq  402fd0 <_ZNSt7__cxx1112basic_stringIcSt11char_traitsIcESaIcEEC1Ev@plt>
  407f2a:	90                   	nop
  407f2b:	c9                   	leaveq 
  407f2c:	c3                   	retq   

0000000000407f2d <_ZNSt16allocator_traitsISaISt13_Rb_tree_nodeISt4pairIKNSt7__cxx1112basic_stringIcSt11char_traitsIcESaIcEEES7_EEEE9constructIS9_JRKS9_EEEvRSB_PT_DpOT0_>:
  407f2d:	55                   	push   %rbp
  407f2e:	48 89 e5             	mov    %rsp,%rbp
  407f31:	48 83 ec 20          	sub    $0x20,%rsp
  407f35:	48 89 7d f8          	mov    %rdi,-0x8(%rbp)
  407f39:	48 89 75 f0          	mov    %rsi,-0x10(%rbp)
  407f3d:	48 89 55 e8          	mov    %rdx,-0x18(%rbp)
  407f41:	48 8b 45 e8          	mov    -0x18(%rbp),%rax
  407f45:	48 89 c7             	mov    %rax,%rdi
  407f48:	e8 3f e9 ff ff       	callq  40688c <_ZSt7forwardIRKSt4pairIKNSt7__cxx1112basic_stringIcSt11char_traitsIcESaIcEEES6_EEOT_RNSt16remove_referenceISB_E4typeE>
  407f4d:	48 89 c2             	mov    %rax,%rdx
  407f50:	48 8b 4d f0          	mov    -0x10(%rbp),%rcx
  407f54:	48 8b 45 f8          	mov    -0x8(%rbp),%rax
  407f58:	48 89 ce             	mov    %rcx,%rsi
  407f5b:	48 89 c7             	mov    %rax,%rdi
  407f5e:	e8 9f 01 00 00       	callq  408102 <_ZN9__gnu_cxx13new_allocatorISt13_Rb_tree_nodeISt4pairIKNSt7__cxx1112basic_stringIcSt11char_traitsIcESaIcEEES8_EEE9constructISA_JRKSA_EEEvPT_DpOT0_>
  407f63:	90                   	nop
  407f64:	c9                   	leaveq 
  407f65:	c3                   	retq   

0000000000407f66 <_ZSt7forwardIPKcEOT_RNSt16remove_referenceIS2_E4typeE>:
  407f66:	55                   	push   %rbp
  407f67:	48 89 e5             	mov    %rsp,%rbp
  407f6a:	48 89 7d f8          	mov    %rdi,-0x8(%rbp)
  407f6e:	48 8b 45 f8          	mov    -0x8(%rbp),%rax
  407f72:	5d                   	pop    %rbp
  407f73:	c3                   	retq   

0000000000407f74 <_ZNSt4pairIKNSt7__cxx1112basic_stringIcSt11char_traitsIcESaIcEEES5_EC1IPKcS5_Lb1EEEOS_IT_T0_E>:
  407f74:	55                   	push   %rbp
  407f75:	48 89 e5             	mov    %rsp,%rbp
  407f78:	53                   	push   %rbx
  407f79:	48 83 ec 28          	sub    $0x28,%rsp
  407f7d:	48 89 7d d8          	mov    %rdi,-0x28(%rbp)
  407f81:	48 89 75 d0          	mov    %rsi,-0x30(%rbp)
  407f85:	64 48 8b 04 25 28 00 	mov    %fs:0x28,%rax
  407f8c:	00 00 
  407f8e:	48 89 45 e8          	mov    %rax,-0x18(%rbp)
  407f92:	31 c0                	xor    %eax,%eax
  407f94:	48 8d 45 e7          	lea    -0x19(%rbp),%rax
  407f98:	48 89 c7             	mov    %rax,%rdi
  407f9b:	e8 60 b1 ff ff       	callq  403100 <_ZNSaIcEC1Ev@plt>
  407fa0:	48 8b 45 d0          	mov    -0x30(%rbp),%rax
  407fa4:	48 89 c7             	mov    %rax,%rdi
  407fa7:	e8 ba ff ff ff       	callq  407f66 <_ZSt7forwardIPKcEOT_RNSt16remove_referenceIS2_E4typeE>
  407fac:	48 8b 08             	mov    (%rax),%rcx
  407faf:	48 8b 45 d8          	mov    -0x28(%rbp),%rax
  407fb3:	48 8d 55 e7          	lea    -0x19(%rbp),%rdx
  407fb7:	48 89 ce             	mov    %rcx,%rsi
  407fba:	48 89 c7             	mov    %rax,%rdi
  407fbd:	e8 fe af ff ff       	callq  402fc0 <_ZNSt7__cxx1112basic_stringIcSt11char_traitsIcESaIcEEC1EPKcRKS3_@plt>
  407fc2:	48 8d 45 e7          	lea    -0x19(%rbp),%rax
  407fc6:	48 89 c7             	mov    %rax,%rdi
  407fc9:	e8 52 af ff ff       	callq  402f20 <_ZNSaIcED1Ev@plt>
  407fce:	48 8b 45 d0          	mov    -0x30(%rbp),%rax
  407fd2:	48 83 c0 08          	add    $0x8,%rax
  407fd6:	48 89 c7             	mov    %rax,%rdi
  407fd9:	e8 95 cf ff ff       	callq  404f73 <_ZSt7forwardINSt7__cxx1112basic_stringIcSt11char_traitsIcESaIcEEEEOT_RNSt16remove_referenceIS6_E4typeE>
  407fde:	48 89 c2             	mov    %rax,%rdx
  407fe1:	48 8b 45 d8          	mov    -0x28(%rbp),%rax
  407fe5:	48 83 c0 20          	add    $0x20,%rax
  407fe9:	48 89 d6             	mov    %rdx,%rsi
  407fec:	48 89 c7             	mov    %rax,%rdi
  407fef:	e8 2c ad ff ff       	callq  402d20 <_ZNSt7__cxx1112basic_stringIcSt11char_traitsIcESaIcEEC1EOS4_@plt>
  407ff4:	90                   	nop
  407ff5:	48 8b 45 e8          	mov    -0x18(%rbp),%rax
  407ff9:	64 48 33 04 25 28 00 	xor    %fs:0x28,%rax
  408000:	00 00 
  408002:	74 21                	je     408025 <_ZNSt4pairIKNSt7__cxx1112basic_stringIcSt11char_traitsIcESaIcEEES5_EC1IPKcS5_Lb1EEEOS_IT_T0_E+0xb1>
  408004:	eb 1a                	jmp    408020 <_ZNSt4pairIKNSt7__cxx1112basic_stringIcSt11char_traitsIcESaIcEEES5_EC1IPKcS5_Lb1EEEOS_IT_T0_E+0xac>
  408006:	48 89 c3             	mov    %rax,%rbx
  408009:	48 8d 45 e7          	lea    -0x19(%rbp),%rax
  40800d:	48 89 c7             	mov    %rax,%rdi
  408010:	e8 0b af ff ff       	callq  402f20 <_ZNSaIcED1Ev@plt>
  408015:	48 89 d8             	mov    %rbx,%rax
  408018:	48 89 c7             	mov    %rax,%rdi
  40801b:	e8 d0 b0 ff ff       	callq  4030f0 <_Unwind_Resume@plt>
  408020:	e8 1b af ff ff       	callq  402f40 <__stack_chk_fail@plt>
  408025:	48 83 c4 28          	add    $0x28,%rsp
  408029:	5b                   	pop    %rbx
  40802a:	5d                   	pop    %rbp
  40802b:	c3                   	retq   

000000000040802c <_ZN9__gnu_cxx13new_allocatorISt13_Rb_tree_nodeISt4pairIKNSt7__cxx1112basic_stringIcSt11char_traitsIcESaIcEEES8_EEE9constructISA_JS2_IPKcS8_EEEEvPT_DpOT0_>:
  40802c:	55                   	push   %rbp
  40802d:	48 89 e5             	mov    %rsp,%rbp
  408030:	41 55                	push   %r13
  408032:	41 54                	push   %r12
  408034:	53                   	push   %rbx
  408035:	48 83 ec 28          	sub    $0x28,%rsp
  408039:	48 89 7d d8          	mov    %rdi,-0x28(%rbp)
  40803d:	48 89 75 d0          	mov    %rsi,-0x30(%rbp)
  408041:	48 89 55 c8          	mov    %rdx,-0x38(%rbp)
  408045:	48 8b 45 c8          	mov    -0x38(%rbp),%rax
  408049:	48 89 c7             	mov    %rax,%rdi
  40804c:	e8 28 d4 ff ff       	callq  405479 <_ZSt7forwardISt4pairIPKcNSt7__cxx1112basic_stringIcSt11char_traitsIcESaIcEEEEEOT_RNSt16remove_referenceISA_E4typeE>
  408051:	49 89 c5             	mov    %rax,%r13
  408054:	4c 8b 65 d0          	mov    -0x30(%rbp),%r12
  408058:	4c 89 e6             	mov    %r12,%rsi
  40805b:	bf 40 00 00 00       	mov    $0x40,%edi
  408060:	e8 ce c7 ff ff       	callq  404833 <_ZnwmPv>
  408065:	48 89 c3             	mov    %rax,%rbx
  408068:	48 85 db             	test   %rbx,%rbx
  40806b:	74 26                	je     408093 <_ZN9__gnu_cxx13new_allocatorISt13_Rb_tree_nodeISt4pairIKNSt7__cxx1112basic_stringIcSt11char_traitsIcESaIcEEES8_EEE9constructISA_JS2_IPKcS8_EEEEvPT_DpOT0_+0x67>
  40806d:	4c 89 ee             	mov    %r13,%rsi
  408070:	48 89 df             	mov    %rbx,%rdi
  408073:	e8 fc fe ff ff       	callq  407f74 <_ZNSt4pairIKNSt7__cxx1112basic_stringIcSt11char_traitsIcESaIcEEES5_EC1IPKcS5_Lb1EEEOS_IT_T0_E>
  408078:	eb 19                	jmp    408093 <_ZN9__gnu_cxx13new_allocatorISt13_Rb_tree_nodeISt4pairIKNSt7__cxx1112basic_stringIcSt11char_traitsIcESaIcEEES8_EEE9constructISA_JS2_IPKcS8_EEEEvPT_DpOT0_+0x67>
  40807a:	49 89 c5             	mov    %rax,%r13
  40807d:	4c 89 e6             	mov    %r12,%rsi
  408080:	48 89 df             	mov    %rbx,%rdi
  408083:	e8 bd c7 ff ff       	callq  404845 <_ZdlPvS_>
  408088:	4c 89 e8             	mov    %r13,%rax
  40808b:	48 89 c7             	mov    %rax,%rdi
  40808e:	e8 5d b0 ff ff       	callq  4030f0 <_Unwind_Resume@plt>
  408093:	90                   	nop
  408094:	48 83 c4 28          	add    $0x28,%rsp
  408098:	5b                   	pop    %rbx
  408099:	41 5c                	pop    %r12
  40809b:	41 5d                	pop    %r13
  40809d:	5d                   	pop    %rbp
  40809e:	c3                   	retq   
  40809f:	90                   	nop

00000000004080a0 <_ZNSt4pairIKNSt7__cxx1112basic_stringIcSt11char_traitsIcESaIcEEES5_EC1ERKS7_>:
  4080a0:	55                   	push   %rbp
  4080a1:	48 89 e5             	mov    %rsp,%rbp
  4080a4:	53                   	push   %rbx
  4080a5:	48 83 ec 18          	sub    $0x18,%rsp
  4080a9:	48 89 7d e8          	mov    %rdi,-0x18(%rbp)
  4080ad:	48 89 75 e0          	mov    %rsi,-0x20(%rbp)
  4080b1:	48 8b 55 e0          	mov    -0x20(%rbp),%rdx
  4080b5:	48 8b 45 e8          	mov    -0x18(%rbp),%rax
  4080b9:	48 89 d6             	mov    %rdx,%rsi
  4080bc:	48 89 c7             	mov    %rax,%rdi
  4080bf:	e8 fc ab ff ff       	callq  402cc0 <_ZNSt7__cxx1112basic_stringIcSt11char_traitsIcESaIcEEC1ERKS4_@plt>
  4080c4:	48 8b 45 e0          	mov    -0x20(%rbp),%rax
  4080c8:	48 8d 50 20          	lea    0x20(%rax),%rdx
  4080cc:	48 8b 45 e8          	mov    -0x18(%rbp),%rax
  4080d0:	48 83 c0 20          	add    $0x20,%rax
  4080d4:	48 89 d6             	mov    %rdx,%rsi
  4080d7:	48 89 c7             	mov    %rax,%rdi
  4080da:	e8 e1 ab ff ff       	callq  402cc0 <_ZNSt7__cxx1112basic_stringIcSt11char_traitsIcESaIcEEC1ERKS4_@plt>
  4080df:	eb 1a                	jmp    4080fb <_ZNSt4pairIKNSt7__cxx1112basic_stringIcSt11char_traitsIcESaIcEEES5_EC1ERKS7_+0x5b>
  4080e1:	48 89 c3             	mov    %rax,%rbx
  4080e4:	48 8b 45 e8          	mov    -0x18(%rbp),%rax
  4080e8:	48 89 c7             	mov    %rax,%rdi
  4080eb:	e8 40 ac ff ff       	callq  402d30 <_ZNSt7__cxx1112basic_stringIcSt11char_traitsIcESaIcEED1Ev@plt>
  4080f0:	48 89 d8             	mov    %rbx,%rax
  4080f3:	48 89 c7             	mov    %rax,%rdi
  4080f6:	e8 f5 af ff ff       	callq  4030f0 <_Unwind_Resume@plt>
  4080fb:	48 83 c4 18          	add    $0x18,%rsp
  4080ff:	5b                   	pop    %rbx
  408100:	5d                   	pop    %rbp
  408101:	c3                   	retq   

0000000000408102 <_ZN9__gnu_cxx13new_allocatorISt13_Rb_tree_nodeISt4pairIKNSt7__cxx1112basic_stringIcSt11char_traitsIcESaIcEEES8_EEE9constructISA_JRKSA_EEEvPT_DpOT0_>:
  408102:	55                   	push   %rbp
  408103:	48 89 e5             	mov    %rsp,%rbp
  408106:	41 55                	push   %r13
  408108:	41 54                	push   %r12
  40810a:	53                   	push   %rbx
  40810b:	48 83 ec 28          	sub    $0x28,%rsp
  40810f:	48 89 7d d8          	mov    %rdi,-0x28(%rbp)
  408113:	48 89 75 d0          	mov    %rsi,-0x30(%rbp)
  408117:	48 89 55 c8          	mov    %rdx,-0x38(%rbp)
  40811b:	48 8b 45 c8          	mov    -0x38(%rbp),%rax
  40811f:	48 89 c7             	mov    %rax,%rdi
  408122:	e8 65 e7 ff ff       	callq  40688c <_ZSt7forwardIRKSt4pairIKNSt7__cxx1112basic_stringIcSt11char_traitsIcESaIcEEES6_EEOT_RNSt16remove_referenceISB_E4typeE>
  408127:	49 89 c5             	mov    %rax,%r13
  40812a:	4c 8b 65 d0          	mov    -0x30(%rbp),%r12
  40812e:	4c 89 e6             	mov    %r12,%rsi
  408131:	bf 40 00 00 00       	mov    $0x40,%edi
  408136:	e8 f8 c6 ff ff       	callq  404833 <_ZnwmPv>
  40813b:	48 89 c3             	mov    %rax,%rbx
  40813e:	48 85 db             	test   %rbx,%rbx
  408141:	74 26                	je     408169 <_ZN9__gnu_cxx13new_allocatorISt13_Rb_tree_nodeISt4pairIKNSt7__cxx1112basic_stringIcSt11char_traitsIcESaIcEEES8_EEE9constructISA_JRKSA_EEEvPT_DpOT0_+0x67>
  408143:	4c 89 ee             	mov    %r13,%rsi
  408146:	48 89 df             	mov    %rbx,%rdi
  408149:	e8 52 ff ff ff       	callq  4080a0 <_ZNSt4pairIKNSt7__cxx1112basic_stringIcSt11char_traitsIcESaIcEEES5_EC1ERKS7_>
  40814e:	eb 19                	jmp    408169 <_ZN9__gnu_cxx13new_allocatorISt13_Rb_tree_nodeISt4pairIKNSt7__cxx1112basic_stringIcSt11char_traitsIcESaIcEEES8_EEE9constructISA_JRKSA_EEEvPT_DpOT0_+0x67>
  408150:	49 89 c5             	mov    %rax,%r13
  408153:	4c 89 e6             	mov    %r12,%rsi
  408156:	48 89 df             	mov    %rbx,%rdi
  408159:	e8 e7 c6 ff ff       	callq  404845 <_ZdlPvS_>
  40815e:	4c 89 e8             	mov    %r13,%rax
  408161:	48 89 c7             	mov    %rax,%rdi
  408164:	e8 87 af ff ff       	callq  4030f0 <_Unwind_Resume@plt>
  408169:	90                   	nop
  40816a:	48 83 c4 28          	add    $0x28,%rsp
  40816e:	5b                   	pop    %rbx
  40816f:	41 5c                	pop    %r12
  408171:	41 5d                	pop    %r13
  408173:	5d                   	pop    %rbp
  408174:	c3                   	retq   
  408175:	90                   	nop

0000000000408176 <_ZL18__gthread_active_pv>:
  408176:	55                   	push   %rbp
  408177:	48 89 e5             	mov    %rsp,%rbp
  40817a:	b8 01 00 00 00       	mov    $0x1,%eax
  40817f:	ba 90 30 40 00       	mov    $0x403090,%edx
  408184:	48 85 d2             	test   %rdx,%rdx
  408187:	75 05                	jne    40818e <_ZL18__gthread_active_pv+0x18>
  408189:	b8 00 00 00 00       	mov    $0x0,%eax
  40818e:	0f b6 c0             	movzbl %al,%eax
  408191:	5d                   	pop    %rbp
  408192:	c3                   	retq   

0000000000408193 <_ZL14__gthread_selfv>:
  408193:	55                   	push   %rbp
  408194:	48 89 e5             	mov    %rsp,%rbp
  408197:	e8 b4 ac ff ff       	callq  402e50 <pthread_self@plt>
  40819c:	5d                   	pop    %rbp
  40819d:	c3                   	retq   

000000000040819e <_ZL20__gthread_mutex_lockP15pthread_mutex_t>:
  40819e:	55                   	push   %rbp
  40819f:	48 89 e5             	mov    %rsp,%rbp
  4081a2:	48 83 ec 10          	sub    $0x10,%rsp
  4081a6:	48 89 7d f8          	mov    %rdi,-0x8(%rbp)
  4081aa:	e8 c7 ff ff ff       	callq  408176 <_ZL18__gthread_active_pv>
  4081af:	85 c0                	test   %eax,%eax
  4081b1:	0f 95 c0             	setne  %al
  4081b4:	84 c0                	test   %al,%al
  4081b6:	74 0e                	je     4081c6 <_ZL20__gthread_mutex_lockP15pthread_mutex_t+0x28>
  4081b8:	48 8b 45 f8          	mov    -0x8(%rbp),%rax
  4081bc:	48 89 c7             	mov    %rax,%rdi
  4081bf:	e8 2c ae ff ff       	callq  402ff0 <pthread_mutex_lock@plt>
  4081c4:	eb 05                	jmp    4081cb <_ZL20__gthread_mutex_lockP15pthread_mutex_t+0x2d>
  4081c6:	b8 00 00 00 00       	mov    $0x0,%eax
  4081cb:	c9                   	leaveq 
  4081cc:	c3                   	retq   

00000000004081cd <_ZL22__gthread_mutex_unlockP15pthread_mutex_t>:
  4081cd:	55                   	push   %rbp
  4081ce:	48 89 e5             	mov    %rsp,%rbp
  4081d1:	48 83 ec 10          	sub    $0x10,%rsp
  4081d5:	48 89 7d f8          	mov    %rdi,-0x8(%rbp)
  4081d9:	e8 98 ff ff ff       	callq  408176 <_ZL18__gthread_active_pv>
  4081de:	85 c0                	test   %eax,%eax
  4081e0:	0f 95 c0             	setne  %al
  4081e3:	84 c0                	test   %al,%al
  4081e5:	74 0e                	je     4081f5 <_ZL22__gthread_mutex_unlockP15pthread_mutex_t+0x28>
  4081e7:	48 8b 45 f8          	mov    -0x8(%rbp),%rax
  4081eb:	48 89 c7             	mov    %rax,%rdi
  4081ee:	e8 dd ab ff ff       	callq  402dd0 <pthread_mutex_unlock@plt>
  4081f3:	eb 05                	jmp    4081fa <_ZL22__gthread_mutex_unlockP15pthread_mutex_t+0x2d>
  4081f5:	b8 00 00 00 00       	mov    $0x0,%eax
  4081fa:	c9                   	leaveq 
  4081fb:	c3                   	retq   

00000000004081fc <_Z8net_initv>:
  4081fc:	55                   	push   %rbp
  4081fd:	48 89 e5             	mov    %rsp,%rbp
  408200:	90                   	nop
  408201:	5d                   	pop    %rbp
  408202:	c3                   	retq   

0000000000408203 <_Z5errorPKc>:
  408203:	55                   	push   %rbp
  408204:	48 89 e5             	mov    %rsp,%rbp
  408207:	41 54                	push   %r12
  408209:	53                   	push   %rbx
  40820a:	48 83 ec 70          	sub    $0x70,%rsp
  40820e:	48 89 7d 88          	mov    %rdi,-0x78(%rbp)
  408212:	64 48 8b 04 25 28 00 	mov    %fs:0x28,%rax
  408219:	00 00 
  40821b:	48 89 45 e8          	mov    %rax,-0x18(%rbp)
  40821f:	31 c0                	xor    %eax,%eax
  408221:	bf 10 00 00 00       	mov    $0x10,%edi
  408226:	e8 b5 aa ff ff       	callq  402ce0 <__cxa_allocate_exception@plt>
  40822b:	48 89 c3             	mov    %rax,%rbx
  40822e:	e8 4d a9 ff ff       	callq  402b80 <__errno_location@plt>
  408233:	8b 00                	mov    (%rax),%eax
  408235:	89 c7                	mov    %eax,%edi
  408237:	e8 24 aa ff ff       	callq  402c60 <strerror@plt>
  40823c:	49 89 c4             	mov    %rax,%r12
  40823f:	48 8d 45 9f          	lea    -0x61(%rbp),%rax
  408243:	48 89 c7             	mov    %rax,%rdi
  408246:	e8 b5 ae ff ff       	callq  403100 <_ZNSaIcEC1Ev@plt>
  40824b:	48 8d 55 9f          	lea    -0x61(%rbp),%rdx
  40824f:	48 8b 4d 88          	mov    -0x78(%rbp),%rcx
  408253:	48 8d 45 a0          	lea    -0x60(%rbp),%rax
  408257:	48 89 ce             	mov    %rcx,%rsi
  40825a:	48 89 c7             	mov    %rax,%rdi
  40825d:	e8 5e ad ff ff       	callq  402fc0 <_ZNSt7__cxx1112basic_stringIcSt11char_traitsIcESaIcEEC1EPKcRKS3_@plt>
  408262:	48 8d 45 c0          	lea    -0x40(%rbp),%rax
  408266:	48 8d 4d a0          	lea    -0x60(%rbp),%rcx
  40826a:	4c 89 e2             	mov    %r12,%rdx
  40826d:	48 89 ce             	mov    %rcx,%rsi
  408270:	48 89 c7             	mov    %rax,%rdi
  408273:	e8 fb 22 00 00       	callq  40a573 <_ZStplIcSt11char_traitsIcESaIcEENSt7__cxx1112basic_stringIT_T0_T1_EEOS8_PKS5_>
  408278:	48 8d 45 c0          	lea    -0x40(%rbp),%rax
  40827c:	48 89 c6             	mov    %rax,%rsi
  40827f:	48 89 df             	mov    %rbx,%rdi
  408282:	e8 c9 ad ff ff       	callq  403050 <_ZNSt13runtime_errorC1ERKNSt7__cxx1112basic_stringIcSt11char_traitsIcESaIcEEE@plt>
  408287:	48 8d 45 c0          	lea    -0x40(%rbp),%rax
  40828b:	48 89 c7             	mov    %rax,%rdi
  40828e:	e8 9d aa ff ff       	callq  402d30 <_ZNSt7__cxx1112basic_stringIcSt11char_traitsIcESaIcEED1Ev@plt>
  408293:	48 8d 45 a0          	lea    -0x60(%rbp),%rax
  408297:	48 89 c7             	mov    %rax,%rdi
  40829a:	e8 91 aa ff ff       	callq  402d30 <_ZNSt7__cxx1112basic_stringIcSt11char_traitsIcESaIcEED1Ev@plt>
  40829f:	48 8d 45 9f          	lea    -0x61(%rbp),%rax
  4082a3:	48 89 c7             	mov    %rax,%rdi
  4082a6:	e8 75 ac ff ff       	callq  402f20 <_ZNSaIcED1Ev@plt>
  4082ab:	ba e0 2e 40 00       	mov    $0x402ee0,%edx
  4082b0:	be f0 43 61 00       	mov    $0x6143f0,%esi
  4082b5:	48 89 df             	mov    %rbx,%rdi
  4082b8:	e8 13 ae ff ff       	callq  4030d0 <__cxa_throw@plt>
  4082bd:	49 89 c4             	mov    %rax,%r12
  4082c0:	48 8d 45 c0          	lea    -0x40(%rbp),%rax
  4082c4:	48 89 c7             	mov    %rax,%rdi
  4082c7:	e8 64 aa ff ff       	callq  402d30 <_ZNSt7__cxx1112basic_stringIcSt11char_traitsIcESaIcEED1Ev@plt>
  4082cc:	eb 03                	jmp    4082d1 <_Z5errorPKc+0xce>
  4082ce:	49 89 c4             	mov    %rax,%r12
  4082d1:	48 8d 45 a0          	lea    -0x60(%rbp),%rax
  4082d5:	48 89 c7             	mov    %rax,%rdi
  4082d8:	e8 53 aa ff ff       	callq  402d30 <_ZNSt7__cxx1112basic_stringIcSt11char_traitsIcESaIcEED1Ev@plt>
  4082dd:	eb 03                	jmp    4082e2 <_Z5errorPKc+0xdf>
  4082df:	49 89 c4             	mov    %rax,%r12
  4082e2:	48 8d 45 9f          	lea    -0x61(%rbp),%rax
  4082e6:	48 89 c7             	mov    %rax,%rdi
  4082e9:	e8 32 ac ff ff       	callq  402f20 <_ZNSaIcED1Ev@plt>
  4082ee:	48 89 df             	mov    %rbx,%rdi
  4082f1:	e8 ba aa ff ff       	callq  402db0 <__cxa_free_exception@plt>
  4082f6:	4c 89 e0             	mov    %r12,%rax
  4082f9:	48 89 c7             	mov    %rax,%rdi
  4082fc:	e8 ef ad ff ff       	callq  4030f0 <_Unwind_Resume@plt>

0000000000408301 <_Z17create_connectionPKci>:
  408301:	55                   	push   %rbp
  408302:	48 89 e5             	mov    %rsp,%rbp
  408305:	48 83 ec 40          	sub    $0x40,%rsp
  408309:	48 89 7d c8          	mov    %rdi,-0x38(%rbp)
  40830d:	89 75 c4             	mov    %esi,-0x3c(%rbp)
  408310:	64 48 8b 04 25 28 00 	mov    %fs:0x28,%rax
  408317:	00 00 
  408319:	48 89 45 f8          	mov    %rax,-0x8(%rbp)
  40831d:	31 c0                	xor    %eax,%eax
  40831f:	ba 00 00 00 00       	mov    $0x0,%edx
  408324:	be 01 00 00 00       	mov    $0x1,%esi
  408329:	bf 02 00 00 00       	mov    $0x2,%edi
  40832e:	e8 bd a8 ff ff       	callq  402bf0 <socket@plt>
  408333:	89 45 dc             	mov    %eax,-0x24(%rbp)
  408336:	83 7d dc ff          	cmpl   $0xffffffff,-0x24(%rbp)
  40833a:	75 0a                	jne    408346 <_Z17create_connectionPKci+0x45>
  40833c:	bf fc db 40 00       	mov    $0x40dbfc,%edi
  408341:	e8 bd fe ff ff       	callq  408203 <_Z5errorPKc>
  408346:	66 c7 45 e0 02 00    	movw   $0x2,-0x20(%rbp)
  40834c:	48 8b 45 c8          	mov    -0x38(%rbp),%rax
  408350:	48 89 c7             	mov    %rax,%rdi
  408353:	e8 68 ab ff ff       	callq  402ec0 <inet_addr@plt>
  408358:	89 45 e4             	mov    %eax,-0x1c(%rbp)
  40835b:	8b 45 c4             	mov    -0x3c(%rbp),%eax
  40835e:	0f b7 c0             	movzwl %ax,%eax
  408361:	89 c7                	mov    %eax,%edi
  408363:	e8 28 a8 ff ff       	callq  402b90 <htons@plt>
  408368:	66 89 45 e2          	mov    %ax,-0x1e(%rbp)
  40836c:	48 8d 4d e0          	lea    -0x20(%rbp),%rcx
  408370:	8b 45 dc             	mov    -0x24(%rbp),%eax
  408373:	ba 10 00 00 00       	mov    $0x10,%edx
  408378:	48 89 ce             	mov    %rcx,%rsi
  40837b:	89 c7                	mov    %eax,%edi
  40837d:	e8 7e aa ff ff       	callq  402e00 <connect@plt>
  408382:	85 c0                	test   %eax,%eax
  408384:	0f 95 c0             	setne  %al
  408387:	84 c0                	test   %al,%al
  408389:	74 0a                	je     408395 <_Z17create_connectionPKci+0x94>
  40838b:	bf fc db 40 00       	mov    $0x40dbfc,%edi
  408390:	e8 6e fe ff ff       	callq  408203 <_Z5errorPKc>
  408395:	8b 45 dc             	mov    -0x24(%rbp),%eax
  408398:	48 8b 55 f8          	mov    -0x8(%rbp),%rdx
  40839c:	64 48 33 14 25 28 00 	xor    %fs:0x28,%rdx
  4083a3:	00 00 
  4083a5:	74 05                	je     4083ac <_Z17create_connectionPKci+0xab>
  4083a7:	e8 94 ab ff ff       	callq  402f40 <__stack_chk_fail@plt>
  4083ac:	c9                   	leaveq 
  4083ad:	c3                   	retq   

00000000004083ae <_ZL10send_bytesiPKvi>:
  4083ae:	55                   	push   %rbp
  4083af:	48 89 e5             	mov    %rsp,%rbp
  4083b2:	48 83 ec 20          	sub    $0x20,%rsp
  4083b6:	89 7d ec             	mov    %edi,-0x14(%rbp)
  4083b9:	48 89 75 e0          	mov    %rsi,-0x20(%rbp)
  4083bd:	89 55 e8             	mov    %edx,-0x18(%rbp)
  4083c0:	48 8b 45 e0          	mov    -0x20(%rbp),%rax
  4083c4:	48 89 45 f8          	mov    %rax,-0x8(%rbp)
  4083c8:	83 7d e8 00          	cmpl   $0x0,-0x18(%rbp)
  4083cc:	7e 3d                	jle    40840b <_ZL10send_bytesiPKvi+0x5d>
  4083ce:	8b 45 e8             	mov    -0x18(%rbp),%eax
  4083d1:	48 63 d0             	movslq %eax,%rdx
  4083d4:	48 8b 75 f8          	mov    -0x8(%rbp),%rsi
  4083d8:	8b 45 ec             	mov    -0x14(%rbp),%eax
  4083db:	b9 00 00 00 00       	mov    $0x0,%ecx
  4083e0:	89 c7                	mov    %eax,%edi
  4083e2:	e8 09 a9 ff ff       	callq  402cf0 <send@plt>
  4083e7:	89 45 f4             	mov    %eax,-0xc(%rbp)
  4083ea:	83 7d f4 ff          	cmpl   $0xffffffff,-0xc(%rbp)
  4083ee:	75 0a                	jne    4083fa <_ZL10send_bytesiPKvi+0x4c>
  4083f0:	bf fc db 40 00       	mov    $0x40dbfc,%edi
  4083f5:	e8 09 fe ff ff       	callq  408203 <_Z5errorPKc>
  4083fa:	8b 45 f4             	mov    -0xc(%rbp),%eax
  4083fd:	29 45 e8             	sub    %eax,-0x18(%rbp)
  408400:	8b 45 f4             	mov    -0xc(%rbp),%eax
  408403:	48 98                	cltq   
  408405:	48 01 45 f8          	add    %rax,-0x8(%rbp)
  408409:	eb bd                	jmp    4083c8 <_ZL10send_bytesiPKvi+0x1a>
  40840b:	90                   	nop
  40840c:	c9                   	leaveq 
  40840d:	c3                   	retq   

000000000040840e <_Z13write_requestiPKcSt3mapINSt7__cxx1112basic_stringIcSt11char_traitsIcESaIcEEES7_St4lessIS7_ESaISt4pairIKS7_S7_EEEPKvi>:
  40840e:	55                   	push   %rbp
  40840f:	48 89 e5             	mov    %rsp,%rbp
  408412:	53                   	push   %rbx
  408413:	48 81 ec a8 10 00 00 	sub    $0x10a8,%rsp
  40841a:	89 bd 6c ef ff ff    	mov    %edi,-0x1094(%rbp)
  408420:	48 89 b5 60 ef ff ff 	mov    %rsi,-0x10a0(%rbp)
  408427:	48 89 95 58 ef ff ff 	mov    %rdx,-0x10a8(%rbp)
  40842e:	48 89 8d 50 ef ff ff 	mov    %rcx,-0x10b0(%rbp)
  408435:	44 89 85 68 ef ff ff 	mov    %r8d,-0x1098(%rbp)
  40843c:	64 48 8b 04 25 28 00 	mov    %fs:0x28,%rax
  408443:	00 00 
  408445:	48 89 45 e8          	mov    %rax,-0x18(%rbp)
  408449:	31 c0                	xor    %eax,%eax
  40844b:	48 8d 85 c0 ef ff ff 	lea    -0x1040(%rbp),%rax
  408452:	8b 95 68 ef ff ff    	mov    -0x1098(%rbp),%edx
  408458:	89 d6                	mov    %edx,%esi
  40845a:	48 89 c7             	mov    %rax,%rdi
  40845d:	e8 f2 c3 ff ff       	callq  404854 <_ZNSt7__cxx119to_stringEi>
  408462:	48 8d 85 80 ef ff ff 	lea    -0x1080(%rbp),%rax
  408469:	48 89 c7             	mov    %rax,%rdi
  40846c:	e8 8f ac ff ff       	callq  403100 <_ZNSaIcEC1Ev@plt>
  408471:	48 8d 95 80 ef ff ff 	lea    -0x1080(%rbp),%rdx
  408478:	48 8d 85 a0 ef ff ff 	lea    -0x1060(%rbp),%rax
  40847f:	be fd db 40 00       	mov    $0x40dbfd,%esi
  408484:	48 89 c7             	mov    %rax,%rdi
  408487:	e8 34 ab ff ff       	callq  402fc0 <_ZNSt7__cxx1112basic_stringIcSt11char_traitsIcESaIcEEC1EPKcRKS3_@plt>
  40848c:	48 8d 95 a0 ef ff ff 	lea    -0x1060(%rbp),%rdx
  408493:	48 8b 85 58 ef ff ff 	mov    -0x10a8(%rbp),%rax
  40849a:	48 89 d6             	mov    %rdx,%rsi
  40849d:	48 89 c7             	mov    %rax,%rdi
  4084a0:	e8 37 cc ff ff       	callq  4050dc <_ZNSt3mapINSt7__cxx1112basic_stringIcSt11char_traitsIcESaIcEEES5_St4lessIS5_ESaISt4pairIKS5_S5_EEEixEOS5_>
  4084a5:	48 89 c2             	mov    %rax,%rdx
  4084a8:	48 8d 85 c0 ef ff ff 	lea    -0x1040(%rbp),%rax
  4084af:	48 89 c6             	mov    %rax,%rsi
  4084b2:	48 89 d7             	mov    %rdx,%rdi
  4084b5:	e8 a6 aa ff ff       	callq  402f60 <_ZNSt7__cxx1112basic_stringIcSt11char_traitsIcESaIcEEaSEOS4_@plt>
  4084ba:	48 8d 85 a0 ef ff ff 	lea    -0x1060(%rbp),%rax
  4084c1:	48 89 c7             	mov    %rax,%rdi
  4084c4:	e8 67 a8 ff ff       	callq  402d30 <_ZNSt7__cxx1112basic_stringIcSt11char_traitsIcESaIcEED1Ev@plt>
  4084c9:	48 8d 85 80 ef ff ff 	lea    -0x1080(%rbp),%rax
  4084d0:	48 89 c7             	mov    %rax,%rdi
  4084d3:	e8 48 aa ff ff       	callq  402f20 <_ZNSaIcED1Ev@plt>
  4084d8:	48 8d 85 c0 ef ff ff 	lea    -0x1040(%rbp),%rax
  4084df:	48 89 c7             	mov    %rax,%rdi
  4084e2:	e8 49 a8 ff ff       	callq  402d30 <_ZNSt7__cxx1112basic_stringIcSt11char_traitsIcESaIcEED1Ev@plt>
  4084e7:	48 8d 85 e0 ef ff ff 	lea    -0x1020(%rbp),%rax
  4084ee:	48 89 85 88 ef ff ff 	mov    %rax,-0x1078(%rbp)
  4084f5:	48 8b 95 60 ef ff ff 	mov    -0x10a0(%rbp),%rdx
  4084fc:	48 8b 85 88 ef ff ff 	mov    -0x1078(%rbp),%rax
  408503:	be 0c dc 40 00       	mov    $0x40dc0c,%esi
  408508:	48 89 c7             	mov    %rax,%rdi
  40850b:	b8 00 00 00 00       	mov    $0x0,%eax
  408510:	e8 bb a6 ff ff       	callq  402bd0 <sprintf@plt>
  408515:	48 98                	cltq   
  408517:	48 01 85 88 ef ff ff 	add    %rax,-0x1078(%rbp)
  40851e:	48 8b 85 58 ef ff ff 	mov    -0x10a8(%rbp),%rax
  408525:	48 89 85 90 ef ff ff 	mov    %rax,-0x1070(%rbp)
  40852c:	48 8b 85 90 ef ff ff 	mov    -0x1070(%rbp),%rax
  408533:	48 89 c7             	mov    %rax,%rdi
  408536:	e8 7f 20 00 00       	callq  40a5ba <_ZNSt3mapINSt7__cxx1112basic_stringIcSt11char_traitsIcESaIcEEES5_St4lessIS5_ESaISt4pairIKS5_S5_EEE5beginEv>
  40853b:	48 89 85 78 ef ff ff 	mov    %rax,-0x1088(%rbp)
  408542:	48 8b 85 90 ef ff ff 	mov    -0x1070(%rbp),%rax
  408549:	48 89 c7             	mov    %rax,%rdi
  40854c:	e8 ad ce ff ff       	callq  4053fe <_ZNSt3mapINSt7__cxx1112basic_stringIcSt11char_traitsIcESaIcEEES5_St4lessIS5_ESaISt4pairIKS5_S5_EEE3endEv>
  408551:	48 89 85 80 ef ff ff 	mov    %rax,-0x1080(%rbp)
  408558:	48 8d 95 80 ef ff ff 	lea    -0x1080(%rbp),%rdx
  40855f:	48 8d 85 78 ef ff ff 	lea    -0x1088(%rbp),%rax
  408566:	48 89 d6             	mov    %rdx,%rsi
  408569:	48 89 c7             	mov    %rax,%rdi
  40856c:	e8 c9 ce ff ff       	callq  40543a <_ZNKSt17_Rb_tree_iteratorISt4pairIKNSt7__cxx1112basic_stringIcSt11char_traitsIcESaIcEEES6_EEneERKS9_>
  408571:	84 c0                	test   %al,%al
  408573:	74 77                	je     4085ec <_Z13write_requestiPKcSt3mapINSt7__cxx1112basic_stringIcSt11char_traitsIcESaIcEEES7_St4lessIS7_ESaISt4pairIKS7_S7_EEEPKvi+0x1de>
  408575:	48 8d 85 78 ef ff ff 	lea    -0x1088(%rbp),%rax
  40857c:	48 89 c7             	mov    %rax,%rdi
  40857f:	e8 84 d1 ff ff       	callq  405708 <_ZNKSt17_Rb_tree_iteratorISt4pairIKNSt7__cxx1112basic_stringIcSt11char_traitsIcESaIcEEES6_EEdeEv>
  408584:	48 89 85 98 ef ff ff 	mov    %rax,-0x1068(%rbp)
  40858b:	48 8b 85 98 ef ff ff 	mov    -0x1068(%rbp),%rax
  408592:	48 83 c0 20          	add    $0x20,%rax
  408596:	48 89 c7             	mov    %rax,%rdi
  408599:	e8 02 a7 ff ff       	callq  402ca0 <_ZNKSt7__cxx1112basic_stringIcSt11char_traitsIcESaIcEE5c_strEv@plt>
  40859e:	48 89 c3             	mov    %rax,%rbx
  4085a1:	48 8b 85 98 ef ff ff 	mov    -0x1068(%rbp),%rax
  4085a8:	48 89 c7             	mov    %rax,%rdi
  4085ab:	e8 f0 a6 ff ff       	callq  402ca0 <_ZNKSt7__cxx1112basic_stringIcSt11char_traitsIcESaIcEE5c_strEv@plt>
  4085b0:	48 89 c2             	mov    %rax,%rdx
  4085b3:	48 8b 85 88 ef ff ff 	mov    -0x1078(%rbp),%rax
  4085ba:	48 89 d9             	mov    %rbx,%rcx
  4085bd:	be 1e dc 40 00       	mov    $0x40dc1e,%esi
  4085c2:	48 89 c7             	mov    %rax,%rdi
  4085c5:	b8 00 00 00 00       	mov    $0x0,%eax
  4085ca:	e8 01 a6 ff ff       	callq  402bd0 <sprintf@plt>
  4085cf:	48 98                	cltq   
  4085d1:	48 01 85 88 ef ff ff 	add    %rax,-0x1078(%rbp)
  4085d8:	48 8d 85 78 ef ff ff 	lea    -0x1088(%rbp),%rax
  4085df:	48 89 c7             	mov    %rax,%rdi
  4085e2:	e8 d3 ec ff ff       	callq  4072ba <_ZNSt17_Rb_tree_iteratorISt4pairIKNSt7__cxx1112basic_stringIcSt11char_traitsIcESaIcEEES6_EEppEv>
  4085e7:	e9 6c ff ff ff       	jmpq   408558 <_Z13write_requestiPKcSt3mapINSt7__cxx1112basic_stringIcSt11char_traitsIcESaIcEEES7_St4lessIS7_ESaISt4pairIKS7_S7_EEEPKvi+0x14a>
  4085ec:	48 8b 85 88 ef ff ff 	mov    -0x1078(%rbp),%rax
  4085f3:	66 c7 00 0d 0a       	movw   $0xa0d,(%rax)
  4085f8:	c6 40 02 00          	movb   $0x0,0x2(%rax)
  4085fc:	b8 02 00 00 00       	mov    $0x2,%eax
  408601:	48 98                	cltq   
  408603:	48 01 85 88 ef ff ff 	add    %rax,-0x1078(%rbp)
  40860a:	48 8b 95 88 ef ff ff 	mov    -0x1078(%rbp),%rdx
  408611:	48 8d 85 e0 ef ff ff 	lea    -0x1020(%rbp),%rax
  408618:	48 29 c2             	sub    %rax,%rdx
  40861b:	48 89 d0             	mov    %rdx,%rax
  40861e:	89 c2                	mov    %eax,%edx
  408620:	48 8d 8d e0 ef ff ff 	lea    -0x1020(%rbp),%rcx
  408627:	8b 85 6c ef ff ff    	mov    -0x1094(%rbp),%eax
  40862d:	48 89 ce             	mov    %rcx,%rsi
  408630:	89 c7                	mov    %eax,%edi
  408632:	e8 77 fd ff ff       	callq  4083ae <_ZL10send_bytesiPKvi>
  408637:	8b 95 68 ef ff ff    	mov    -0x1098(%rbp),%edx
  40863d:	48 8b 8d 50 ef ff ff 	mov    -0x10b0(%rbp),%rcx
  408644:	8b 85 6c ef ff ff    	mov    -0x1094(%rbp),%eax
  40864a:	48 89 ce             	mov    %rcx,%rsi
  40864d:	89 c7                	mov    %eax,%edi
  40864f:	e8 5a fd ff ff       	callq  4083ae <_ZL10send_bytesiPKvi>
  408654:	90                   	nop
  408655:	48 8b 45 e8          	mov    -0x18(%rbp),%rax
  408659:	64 48 33 04 25 28 00 	xor    %fs:0x28,%rax
  408660:	00 00 
  408662:	74 47                	je     4086ab <_Z13write_requestiPKcSt3mapINSt7__cxx1112basic_stringIcSt11char_traitsIcESaIcEEES7_St4lessIS7_ESaISt4pairIKS7_S7_EEEPKvi+0x29d>
  408664:	eb 40                	jmp    4086a6 <_Z13write_requestiPKcSt3mapINSt7__cxx1112basic_stringIcSt11char_traitsIcESaIcEEES7_St4lessIS7_ESaISt4pairIKS7_S7_EEEPKvi+0x298>
  408666:	48 89 c3             	mov    %rax,%rbx
  408669:	48 8d 85 a0 ef ff ff 	lea    -0x1060(%rbp),%rax
  408670:	48 89 c7             	mov    %rax,%rdi
  408673:	e8 b8 a6 ff ff       	callq  402d30 <_ZNSt7__cxx1112basic_stringIcSt11char_traitsIcESaIcEED1Ev@plt>
  408678:	eb 03                	jmp    40867d <_Z13write_requestiPKcSt3mapINSt7__cxx1112basic_stringIcSt11char_traitsIcESaIcEEES7_St4lessIS7_ESaISt4pairIKS7_S7_EEEPKvi+0x26f>
  40867a:	48 89 c3             	mov    %rax,%rbx
  40867d:	48 8d 85 80 ef ff ff 	lea    -0x1080(%rbp),%rax
  408684:	48 89 c7             	mov    %rax,%rdi
  408687:	e8 94 a8 ff ff       	callq  402f20 <_ZNSaIcED1Ev@plt>
  40868c:	48 8d 85 c0 ef ff ff 	lea    -0x1040(%rbp),%rax
  408693:	48 89 c7             	mov    %rax,%rdi
  408696:	e8 95 a6 ff ff       	callq  402d30 <_ZNSt7__cxx1112basic_stringIcSt11char_traitsIcESaIcEED1Ev@plt>
  40869b:	48 89 d8             	mov    %rbx,%rax
  40869e:	48 89 c7             	mov    %rax,%rdi
  4086a1:	e8 4a aa ff ff       	callq  4030f0 <_Unwind_Resume@plt>
  4086a6:	e8 95 a8 ff ff       	callq  402f40 <__stack_chk_fail@plt>
  4086ab:	48 81 c4 a8 10 00 00 	add    $0x10a8,%rsp
  4086b2:	5b                   	pop    %rbx
  4086b3:	5d                   	pop    %rbp
  4086b4:	c3                   	retq   

00000000004086b5 <_Z14write_responseiiSt3mapINSt7__cxx1112basic_stringIcSt11char_traitsIcESaIcEEES5_St4lessIS5_ESaISt4pairIKS5_S5_EEEPKvi>:
  4086b5:	55                   	push   %rbp
  4086b6:	48 89 e5             	mov    %rsp,%rbp
  4086b9:	53                   	push   %rbx
  4086ba:	48 81 ec a8 10 00 00 	sub    $0x10a8,%rsp
  4086c1:	89 bd 6c ef ff ff    	mov    %edi,-0x1094(%rbp)
  4086c7:	89 b5 68 ef ff ff    	mov    %esi,-0x1098(%rbp)
  4086cd:	48 89 95 60 ef ff ff 	mov    %rdx,-0x10a0(%rbp)
  4086d4:	48 89 8d 58 ef ff ff 	mov    %rcx,-0x10a8(%rbp)
  4086db:	44 89 85 54 ef ff ff 	mov    %r8d,-0x10ac(%rbp)
  4086e2:	64 48 8b 04 25 28 00 	mov    %fs:0x28,%rax
  4086e9:	00 00 
  4086eb:	48 89 45 e8          	mov    %rax,-0x18(%rbp)
  4086ef:	31 c0                	xor    %eax,%eax
  4086f1:	48 8d 85 c0 ef ff ff 	lea    -0x1040(%rbp),%rax
  4086f8:	8b 95 54 ef ff ff    	mov    -0x10ac(%rbp),%edx
  4086fe:	89 d6                	mov    %edx,%esi
  408700:	48 89 c7             	mov    %rax,%rdi
  408703:	e8 4c c1 ff ff       	callq  404854 <_ZNSt7__cxx119to_stringEi>
  408708:	48 8d 85 80 ef ff ff 	lea    -0x1080(%rbp),%rax
  40870f:	48 89 c7             	mov    %rax,%rdi
  408712:	e8 e9 a9 ff ff       	callq  403100 <_ZNSaIcEC1Ev@plt>
  408717:	48 8d 95 80 ef ff ff 	lea    -0x1080(%rbp),%rdx
  40871e:	48 8d 85 a0 ef ff ff 	lea    -0x1060(%rbp),%rax
  408725:	be fd db 40 00       	mov    $0x40dbfd,%esi
  40872a:	48 89 c7             	mov    %rax,%rdi
  40872d:	e8 8e a8 ff ff       	callq  402fc0 <_ZNSt7__cxx1112basic_stringIcSt11char_traitsIcESaIcEEC1EPKcRKS3_@plt>
  408732:	48 8d 95 a0 ef ff ff 	lea    -0x1060(%rbp),%rdx
  408739:	48 8b 85 60 ef ff ff 	mov    -0x10a0(%rbp),%rax
  408740:	48 89 d6             	mov    %rdx,%rsi
  408743:	48 89 c7             	mov    %rax,%rdi
  408746:	e8 91 c9 ff ff       	callq  4050dc <_ZNSt3mapINSt7__cxx1112basic_stringIcSt11char_traitsIcESaIcEEES5_St4lessIS5_ESaISt4pairIKS5_S5_EEEixEOS5_>
  40874b:	48 89 c2             	mov    %rax,%rdx
  40874e:	48 8d 85 c0 ef ff ff 	lea    -0x1040(%rbp),%rax
  408755:	48 89 c6             	mov    %rax,%rsi
  408758:	48 89 d7             	mov    %rdx,%rdi
  40875b:	e8 00 a8 ff ff       	callq  402f60 <_ZNSt7__cxx1112basic_stringIcSt11char_traitsIcESaIcEEaSEOS4_@plt>
  408760:	48 8d 85 a0 ef ff ff 	lea    -0x1060(%rbp),%rax
  408767:	48 89 c7             	mov    %rax,%rdi
  40876a:	e8 c1 a5 ff ff       	callq  402d30 <_ZNSt7__cxx1112basic_stringIcSt11char_traitsIcESaIcEED1Ev@plt>
  40876f:	48 8d 85 80 ef ff ff 	lea    -0x1080(%rbp),%rax
  408776:	48 89 c7             	mov    %rax,%rdi
  408779:	e8 a2 a7 ff ff       	callq  402f20 <_ZNSaIcED1Ev@plt>
  40877e:	48 8d 85 c0 ef ff ff 	lea    -0x1040(%rbp),%rax
  408785:	48 89 c7             	mov    %rax,%rdi
  408788:	e8 a3 a5 ff ff       	callq  402d30 <_ZNSt7__cxx1112basic_stringIcSt11char_traitsIcESaIcEED1Ev@plt>
  40878d:	48 8d 85 e0 ef ff ff 	lea    -0x1020(%rbp),%rax
  408794:	48 89 85 88 ef ff ff 	mov    %rax,-0x1078(%rbp)
  40879b:	8b 95 68 ef ff ff    	mov    -0x1098(%rbp),%edx
  4087a1:	48 8b 85 88 ef ff ff 	mov    -0x1078(%rbp),%rax
  4087a8:	be 27 dc 40 00       	mov    $0x40dc27,%esi
  4087ad:	48 89 c7             	mov    %rax,%rdi
  4087b0:	b8 00 00 00 00       	mov    $0x0,%eax
  4087b5:	e8 16 a4 ff ff       	callq  402bd0 <sprintf@plt>
  4087ba:	48 98                	cltq   
  4087bc:	48 01 85 88 ef ff ff 	add    %rax,-0x1078(%rbp)
  4087c3:	48 8b 85 60 ef ff ff 	mov    -0x10a0(%rbp),%rax
  4087ca:	48 89 85 90 ef ff ff 	mov    %rax,-0x1070(%rbp)
  4087d1:	48 8b 85 90 ef ff ff 	mov    -0x1070(%rbp),%rax
  4087d8:	48 89 c7             	mov    %rax,%rdi
  4087db:	e8 da 1d 00 00       	callq  40a5ba <_ZNSt3mapINSt7__cxx1112basic_stringIcSt11char_traitsIcESaIcEEES5_St4lessIS5_ESaISt4pairIKS5_S5_EEE5beginEv>
  4087e0:	48 89 85 78 ef ff ff 	mov    %rax,-0x1088(%rbp)
  4087e7:	48 8b 85 90 ef ff ff 	mov    -0x1070(%rbp),%rax
  4087ee:	48 89 c7             	mov    %rax,%rdi
  4087f1:	e8 08 cc ff ff       	callq  4053fe <_ZNSt3mapINSt7__cxx1112basic_stringIcSt11char_traitsIcESaIcEEES5_St4lessIS5_ESaISt4pairIKS5_S5_EEE3endEv>
  4087f6:	48 89 85 80 ef ff ff 	mov    %rax,-0x1080(%rbp)
  4087fd:	48 8d 95 80 ef ff ff 	lea    -0x1080(%rbp),%rdx
  408804:	48 8d 85 78 ef ff ff 	lea    -0x1088(%rbp),%rax
  40880b:	48 89 d6             	mov    %rdx,%rsi
  40880e:	48 89 c7             	mov    %rax,%rdi
  408811:	e8 24 cc ff ff       	callq  40543a <_ZNKSt17_Rb_tree_iteratorISt4pairIKNSt7__cxx1112basic_stringIcSt11char_traitsIcESaIcEEES6_EEneERKS9_>
  408816:	84 c0                	test   %al,%al
  408818:	74 77                	je     408891 <_Z14write_responseiiSt3mapINSt7__cxx1112basic_stringIcSt11char_traitsIcESaIcEEES5_St4lessIS5_ESaISt4pairIKS5_S5_EEEPKvi+0x1dc>
  40881a:	48 8d 85 78 ef ff ff 	lea    -0x1088(%rbp),%rax
  408821:	48 89 c7             	mov    %rax,%rdi
  408824:	e8 df ce ff ff       	callq  405708 <_ZNKSt17_Rb_tree_iteratorISt4pairIKNSt7__cxx1112basic_stringIcSt11char_traitsIcESaIcEEES6_EEdeEv>
  408829:	48 89 85 98 ef ff ff 	mov    %rax,-0x1068(%rbp)
  408830:	48 8b 85 98 ef ff ff 	mov    -0x1068(%rbp),%rax
  408837:	48 83 c0 20          	add    $0x20,%rax
  40883b:	48 89 c7             	mov    %rax,%rdi
  40883e:	e8 5d a4 ff ff       	callq  402ca0 <_ZNKSt7__cxx1112basic_stringIcSt11char_traitsIcESaIcEE5c_strEv@plt>
  408843:	48 89 c3             	mov    %rax,%rbx
  408846:	48 8b 85 98 ef ff ff 	mov    -0x1068(%rbp),%rax
  40884d:	48 89 c7             	mov    %rax,%rdi
  408850:	e8 4b a4 ff ff       	callq  402ca0 <_ZNKSt7__cxx1112basic_stringIcSt11char_traitsIcESaIcEE5c_strEv@plt>
  408855:	48 89 c2             	mov    %rax,%rdx
  408858:	48 8b 85 88 ef ff ff 	mov    -0x1078(%rbp),%rax
  40885f:	48 89 d9             	mov    %rbx,%rcx
  408862:	be 35 dc 40 00       	mov    $0x40dc35,%esi
  408867:	48 89 c7             	mov    %rax,%rdi
  40886a:	b8 00 00 00 00       	mov    $0x0,%eax
  40886f:	e8 5c a3 ff ff       	callq  402bd0 <sprintf@plt>
  408874:	48 98                	cltq   
  408876:	48 01 85 88 ef ff ff 	add    %rax,-0x1078(%rbp)
  40887d:	48 8d 85 78 ef ff ff 	lea    -0x1088(%rbp),%rax
  408884:	48 89 c7             	mov    %rax,%rdi
  408887:	e8 2e ea ff ff       	callq  4072ba <_ZNSt17_Rb_tree_iteratorISt4pairIKNSt7__cxx1112basic_stringIcSt11char_traitsIcESaIcEEES6_EEppEv>
  40888c:	e9 6c ff ff ff       	jmpq   4087fd <_Z14write_responseiiSt3mapINSt7__cxx1112basic_stringIcSt11char_traitsIcESaIcEEES5_St4lessIS5_ESaISt4pairIKS5_S5_EEEPKvi+0x148>
  408891:	48 8b 85 88 ef ff ff 	mov    -0x1078(%rbp),%rax
  408898:	66 c7 00 0d 0a       	movw   $0xa0d,(%rax)
  40889d:	c6 40 02 00          	movb   $0x0,0x2(%rax)
  4088a1:	b8 02 00 00 00       	mov    $0x2,%eax
  4088a6:	48 98                	cltq   
  4088a8:	48 01 85 88 ef ff ff 	add    %rax,-0x1078(%rbp)
  4088af:	48 8b 95 88 ef ff ff 	mov    -0x1078(%rbp),%rdx
  4088b6:	48 8d 85 e0 ef ff ff 	lea    -0x1020(%rbp),%rax
  4088bd:	48 29 c2             	sub    %rax,%rdx
  4088c0:	48 89 d0             	mov    %rdx,%rax
  4088c3:	89 c2                	mov    %eax,%edx
  4088c5:	48 8d 8d e0 ef ff ff 	lea    -0x1020(%rbp),%rcx
  4088cc:	8b 85 6c ef ff ff    	mov    -0x1094(%rbp),%eax
  4088d2:	48 89 ce             	mov    %rcx,%rsi
  4088d5:	89 c7                	mov    %eax,%edi
  4088d7:	e8 d2 fa ff ff       	callq  4083ae <_ZL10send_bytesiPKvi>
  4088dc:	8b 95 54 ef ff ff    	mov    -0x10ac(%rbp),%edx
  4088e2:	48 8b 8d 58 ef ff ff 	mov    -0x10a8(%rbp),%rcx
  4088e9:	8b 85 6c ef ff ff    	mov    -0x1094(%rbp),%eax
  4088ef:	48 89 ce             	mov    %rcx,%rsi
  4088f2:	89 c7                	mov    %eax,%edi
  4088f4:	e8 b5 fa ff ff       	callq  4083ae <_ZL10send_bytesiPKvi>
  4088f9:	90                   	nop
  4088fa:	48 8b 45 e8          	mov    -0x18(%rbp),%rax
  4088fe:	64 48 33 04 25 28 00 	xor    %fs:0x28,%rax
  408905:	00 00 
  408907:	74 47                	je     408950 <_Z14write_responseiiSt3mapINSt7__cxx1112basic_stringIcSt11char_traitsIcESaIcEEES5_St4lessIS5_ESaISt4pairIKS5_S5_EEEPKvi+0x29b>
  408909:	eb 40                	jmp    40894b <_Z14write_responseiiSt3mapINSt7__cxx1112basic_stringIcSt11char_traitsIcESaIcEEES5_St4lessIS5_ESaISt4pairIKS5_S5_EEEPKvi+0x296>
  40890b:	48 89 c3             	mov    %rax,%rbx
  40890e:	48 8d 85 a0 ef ff ff 	lea    -0x1060(%rbp),%rax
  408915:	48 89 c7             	mov    %rax,%rdi
  408918:	e8 13 a4 ff ff       	callq  402d30 <_ZNSt7__cxx1112basic_stringIcSt11char_traitsIcESaIcEED1Ev@plt>
  40891d:	eb 03                	jmp    408922 <_Z14write_responseiiSt3mapINSt7__cxx1112basic_stringIcSt11char_traitsIcESaIcEEES5_St4lessIS5_ESaISt4pairIKS5_S5_EEEPKvi+0x26d>
  40891f:	48 89 c3             	mov    %rax,%rbx
  408922:	48 8d 85 80 ef ff ff 	lea    -0x1080(%rbp),%rax
  408929:	48 89 c7             	mov    %rax,%rdi
  40892c:	e8 ef a5 ff ff       	callq  402f20 <_ZNSaIcED1Ev@plt>
  408931:	48 8d 85 c0 ef ff ff 	lea    -0x1040(%rbp),%rax
  408938:	48 89 c7             	mov    %rax,%rdi
  40893b:	e8 f0 a3 ff ff       	callq  402d30 <_ZNSt7__cxx1112basic_stringIcSt11char_traitsIcESaIcEED1Ev@plt>
  408940:	48 89 d8             	mov    %rbx,%rax
  408943:	48 89 c7             	mov    %rax,%rdi
  408946:	e8 a5 a7 ff ff       	callq  4030f0 <_Unwind_Resume@plt>
  40894b:	e8 f0 a5 ff ff       	callq  402f40 <__stack_chk_fail@plt>
  408950:	48 81 c4 a8 10 00 00 	add    $0x10a8,%rsp
  408957:	5b                   	pop    %rbx
  408958:	5d                   	pop    %rbp
  408959:	c3                   	retq   

000000000040895a <_Z12read_messageiRSt3mapINSt7__cxx1112basic_stringIcSt11char_traitsIcESaIcEEES5_St4lessIS5_ESaISt4pairIKS5_S5_EEERSt6vectorIhSaIhEE>:
  40895a:	55                   	push   %rbp
  40895b:	48 89 e5             	mov    %rsp,%rbp
  40895e:	41 54                	push   %r12
  408960:	53                   	push   %rbx
  408961:	48 81 ec 50 12 00 00 	sub    $0x1250,%rsp
  408968:	48 89 bd b8 ed ff ff 	mov    %rdi,-0x1248(%rbp)
  40896f:	89 b5 b4 ed ff ff    	mov    %esi,-0x124c(%rbp)
  408975:	48 89 95 a8 ed ff ff 	mov    %rdx,-0x1258(%rbp)
  40897c:	48 89 8d a0 ed ff ff 	mov    %rcx,-0x1260(%rbp)
  408983:	64 48 8b 04 25 28 00 	mov    %fs:0x28,%rax
  40898a:	00 00 
  40898c:	48 89 45 e8          	mov    %rax,-0x18(%rbp)
  408990:	31 c0                	xor    %eax,%eax
  408992:	48 8b 85 a8 ed ff ff 	mov    -0x1258(%rbp),%rax
  408999:	48 89 c7             	mov    %rax,%rdi
  40899c:	e8 33 1c 00 00       	callq  40a5d4 <_ZNSt3mapINSt7__cxx1112basic_stringIcSt11char_traitsIcESaIcEEES5_St4lessIS5_ESaISt4pairIKS5_S5_EEE5clearEv>
  4089a1:	48 8b 85 a0 ed ff ff 	mov    -0x1260(%rbp),%rax
  4089a8:	48 89 c7             	mov    %rax,%rdi
  4089ab:	e8 40 1c 00 00       	callq  40a5f0 <_ZNSt6vectorIhSaIhEE5clearEv>
  4089b0:	be 08 00 00 00       	mov    $0x8,%esi
  4089b5:	bf 10 00 00 00       	mov    $0x10,%edi
  4089ba:	e8 f7 18 00 00       	callq  40a2b6 <_ZStorSt13_Ios_OpenmodeS_>
  4089bf:	89 c2                	mov    %eax,%edx
  4089c1:	48 8d 85 50 ee ff ff 	lea    -0x11b0(%rbp),%rax
  4089c8:	89 d6                	mov    %edx,%esi
  4089ca:	48 89 c7             	mov    %rax,%rdi
  4089cd:	e8 0e a4 ff ff       	callq  402de0 <_ZNSt7__cxx1118basic_stringstreamIcSt11char_traitsIcESaIcEEC1ESt13_Ios_Openmode@plt>
  4089d2:	48 8b 85 b8 ed ff ff 	mov    -0x1248(%rbp),%rax
  4089d9:	48 89 c7             	mov    %rax,%rdi
  4089dc:	e8 ef a5 ff ff       	callq  402fd0 <_ZNSt7__cxx1112basic_stringIcSt11char_traitsIcESaIcEEC1Ev@plt>
  4089e1:	48 8d 85 f0 ed ff ff 	lea    -0x1210(%rbp),%rax
  4089e8:	48 89 c7             	mov    %rax,%rdi
  4089eb:	e8 e0 a5 ff ff       	callq  402fd0 <_ZNSt7__cxx1112basic_stringIcSt11char_traitsIcESaIcEEC1Ev@plt>
  4089f0:	48 8d 95 f0 ed ff ff 	lea    -0x1210(%rbp),%rdx
  4089f7:	48 8d 85 50 ee ff ff 	lea    -0x11b0(%rbp),%rax
  4089fe:	48 89 d6             	mov    %rdx,%rsi
  408a01:	48 89 c7             	mov    %rax,%rdi
  408a04:	e8 d7 a1 ff ff       	callq  402be0 <_ZSt7getlineIcSt11char_traitsIcESaIcEERSt13basic_istreamIT_T0_ES7_RNSt7__cxx1112basic_stringIS4_S5_T1_EE@plt>
  408a09:	48 8d 85 50 ee ff ff 	lea    -0x11b0(%rbp),%rax
  408a10:	48 83 e8 80          	sub    $0xffffffffffffff80,%rax
  408a14:	48 89 c7             	mov    %rax,%rdi
  408a17:	e8 14 a7 ff ff       	callq  403130 <_ZNKSt9basic_iosIcSt11char_traitsIcEE3eofEv@plt>
  408a1c:	84 c0                	test   %al,%al
  408a1e:	0f 84 92 00 00 00    	je     408ab6 <_Z12read_messageiRSt3mapINSt7__cxx1112basic_stringIcSt11char_traitsIcESaIcEEES5_St4lessIS5_ESaISt4pairIKS5_S5_EEERSt6vectorIhSaIhEE+0x15c>
  408a24:	48 8d 85 50 ee ff ff 	lea    -0x11b0(%rbp),%rax
  408a2b:	48 83 e8 80          	sub    $0xffffffffffffff80,%rax
  408a2f:	be 00 00 00 00       	mov    $0x0,%esi
  408a34:	48 89 c7             	mov    %rax,%rdi
  408a37:	e8 74 a6 ff ff       	callq  4030b0 <_ZNSt9basic_iosIcSt11char_traitsIcEE5clearESt12_Ios_Iostate@plt>
  408a3c:	48 8d 85 f0 ed ff ff 	lea    -0x1210(%rbp),%rax
  408a43:	48 8d 95 50 ee ff ff 	lea    -0x11b0(%rbp),%rdx
  408a4a:	48 83 c2 10          	add    $0x10,%rdx
  408a4e:	48 89 c6             	mov    %rax,%rsi
  408a51:	48 89 d7             	mov    %rdx,%rdi
  408a54:	e8 e7 a3 ff ff       	callq  402e40 <_ZStlsIcSt11char_traitsIcESaIcEERSt13basic_ostreamIT_T0_ES7_RKNSt7__cxx1112basic_stringIS4_S5_T1_EE@plt>
  408a59:	48 8d b5 e0 ef ff ff 	lea    -0x1020(%rbp),%rsi
  408a60:	8b 85 b4 ed ff ff    	mov    -0x124c(%rbp),%eax
  408a66:	b9 00 00 00 00       	mov    $0x0,%ecx
  408a6b:	ba 00 10 00 00       	mov    $0x1000,%edx
  408a70:	89 c7                	mov    %eax,%edi
  408a72:	e8 d9 a1 ff ff       	callq  402c50 <recv@plt>
  408a77:	89 85 cc ed ff ff    	mov    %eax,-0x1234(%rbp)
  408a7d:	83 bd cc ed ff ff ff 	cmpl   $0xffffffff,-0x1234(%rbp)
  408a84:	75 0a                	jne    408a90 <_Z12read_messageiRSt3mapINSt7__cxx1112basic_stringIcSt11char_traitsIcESaIcEEES5_St4lessIS5_ESaISt4pairIKS5_S5_EEERSt6vectorIhSaIhEE+0x136>
  408a86:	bf fc db 40 00       	mov    $0x40dbfc,%edi
  408a8b:	e8 73 f7 ff ff       	callq  408203 <_Z5errorPKc>
  408a90:	8b 85 cc ed ff ff    	mov    -0x1234(%rbp),%eax
  408a96:	48 63 d0             	movslq %eax,%rdx
  408a99:	48 8d 85 e0 ef ff ff 	lea    -0x1020(%rbp),%rax
  408aa0:	48 8d 8d 50 ee ff ff 	lea    -0x11b0(%rbp),%rcx
  408aa7:	48 83 c1 10          	add    $0x10,%rcx
  408aab:	48 89 c6             	mov    %rax,%rsi
  408aae:	48 89 cf             	mov    %rcx,%rdi
  408ab1:	e8 fa a4 ff ff       	callq  402fb0 <_ZNSo5writeEPKcl@plt>
  408ab6:	48 8b 85 b8 ed ff ff 	mov    -0x1248(%rbp),%rax
  408abd:	48 89 c7             	mov    %rax,%rdi
  408ac0:	e8 db a5 ff ff       	callq  4030a0 <_ZNKSt7__cxx1112basic_stringIcSt11char_traitsIcESaIcEE5emptyEv@plt>
  408ac5:	84 c0                	test   %al,%al
  408ac7:	74 23                	je     408aec <_Z12read_messageiRSt3mapINSt7__cxx1112basic_stringIcSt11char_traitsIcESaIcEEES5_St4lessIS5_ESaISt4pairIKS5_S5_EEERSt6vectorIhSaIhEE+0x192>
  408ac9:	48 8d 95 f0 ed ff ff 	lea    -0x1210(%rbp),%rdx
  408ad0:	48 8b 85 b8 ed ff ff 	mov    -0x1248(%rbp),%rax
  408ad7:	48 89 d6             	mov    %rdx,%rsi
  408ada:	48 89 c7             	mov    %rax,%rdi
  408add:	e8 8e a0 ff ff       	callq  402b70 <_ZNSt7__cxx1112basic_stringIcSt11char_traitsIcESaIcEEaSERKS4_@plt>
  408ae2:	bb 00 00 00 00       	mov    $0x0,%ebx
  408ae7:	e9 f3 00 00 00       	jmpq   408bdf <_Z12read_messageiRSt3mapINSt7__cxx1112basic_stringIcSt11char_traitsIcESaIcEEES5_St4lessIS5_ESaISt4pairIKS5_S5_EEERSt6vectorIhSaIhEE+0x285>
  408aec:	48 8d 85 f0 ed ff ff 	lea    -0x1210(%rbp),%rax
  408af3:	be 3d dc 40 00       	mov    $0x40dc3d,%esi
  408af8:	48 89 c7             	mov    %rax,%rdi
  408afb:	e8 2f c7 ff ff       	callq  40522f <_ZSteqIcSt11char_traitsIcESaIcEEbRKNSt7__cxx1112basic_stringIT_T0_T1_EEPKS5_>
  408b00:	84 c0                	test   %al,%al
  408b02:	74 0a                	je     408b0e <_Z12read_messageiRSt3mapINSt7__cxx1112basic_stringIcSt11char_traitsIcESaIcEEES5_St4lessIS5_ESaISt4pairIKS5_S5_EEERSt6vectorIhSaIhEE+0x1b4>
  408b04:	bb 01 00 00 00       	mov    $0x1,%ebx
  408b09:	e9 d1 00 00 00       	jmpq   408bdf <_Z12read_messageiRSt3mapINSt7__cxx1112basic_stringIcSt11char_traitsIcESaIcEEES5_St4lessIS5_ESaISt4pairIKS5_S5_EEERSt6vectorIhSaIhEE+0x285>
  408b0e:	48 8d 85 f0 ed ff ff 	lea    -0x1210(%rbp),%rax
  408b15:	ba 00 00 00 00       	mov    $0x0,%edx
  408b1a:	be 3a 00 00 00       	mov    $0x3a,%esi
  408b1f:	48 89 c7             	mov    %rax,%rdi
  408b22:	e8 69 a4 ff ff       	callq  402f90 <_ZNKSt7__cxx1112basic_stringIcSt11char_traitsIcESaIcEE4findEcm@plt>
  408b27:	48 89 85 e8 ed ff ff 	mov    %rax,-0x1218(%rbp)
  408b2e:	48 8d 85 10 ee ff ff 	lea    -0x11f0(%rbp),%rax
  408b35:	48 8b 95 e8 ed ff ff 	mov    -0x1218(%rbp),%rdx
  408b3c:	48 8d b5 f0 ed ff ff 	lea    -0x1210(%rbp),%rsi
  408b43:	48 89 d1             	mov    %rdx,%rcx
  408b46:	ba 00 00 00 00       	mov    $0x0,%edx
  408b4b:	48 89 c7             	mov    %rax,%rdi
  408b4e:	e8 9d a3 ff ff       	callq  402ef0 <_ZNKSt7__cxx1112basic_stringIcSt11char_traitsIcESaIcEE6substrEmm@plt>
  408b53:	48 8d 85 f0 ed ff ff 	lea    -0x1210(%rbp),%rax
  408b5a:	48 89 c7             	mov    %rax,%rdi
  408b5d:	e8 9e a4 ff ff       	callq  403000 <_ZNKSt7__cxx1112basic_stringIcSt11char_traitsIcESaIcEE6lengthEv@plt>
  408b62:	48 2b 85 e8 ed ff ff 	sub    -0x1218(%rbp),%rax
  408b69:	48 8d 48 fe          	lea    -0x2(%rax),%rcx
  408b6d:	48 8b 85 e8 ed ff ff 	mov    -0x1218(%rbp),%rax
  408b74:	48 8d 50 01          	lea    0x1(%rax),%rdx
  408b78:	48 8d 85 30 ee ff ff 	lea    -0x11d0(%rbp),%rax
  408b7f:	48 8d b5 f0 ed ff ff 	lea    -0x1210(%rbp),%rsi
  408b86:	48 89 c7             	mov    %rax,%rdi
  408b89:	e8 62 a3 ff ff       	callq  402ef0 <_ZNKSt7__cxx1112basic_stringIcSt11char_traitsIcESaIcEE6substrEmm@plt>
  408b8e:	48 8d 95 10 ee ff ff 	lea    -0x11f0(%rbp),%rdx
  408b95:	48 8b 85 a8 ed ff ff 	mov    -0x1258(%rbp),%rax
  408b9c:	48 89 d6             	mov    %rdx,%rsi
  408b9f:	48 89 c7             	mov    %rax,%rdi
  408ba2:	e8 d5 1a 00 00       	callq  40a67c <_ZNSt3mapINSt7__cxx1112basic_stringIcSt11char_traitsIcESaIcEEES5_St4lessIS5_ESaISt4pairIKS5_S5_EEEixERS9_>
  408ba7:	48 89 c2             	mov    %rax,%rdx
  408baa:	48 8d 85 30 ee ff ff 	lea    -0x11d0(%rbp),%rax
  408bb1:	48 89 c6             	mov    %rax,%rsi
  408bb4:	48 89 d7             	mov    %rdx,%rdi
  408bb7:	e8 b4 9f ff ff       	callq  402b70 <_ZNSt7__cxx1112basic_stringIcSt11char_traitsIcESaIcEEaSERKS4_@plt>
  408bbc:	48 8d 85 30 ee ff ff 	lea    -0x11d0(%rbp),%rax
  408bc3:	48 89 c7             	mov    %rax,%rdi
  408bc6:	e8 65 a1 ff ff       	callq  402d30 <_ZNSt7__cxx1112basic_stringIcSt11char_traitsIcESaIcEED1Ev@plt>
  408bcb:	48 8d 85 10 ee ff ff 	lea    -0x11f0(%rbp),%rax
  408bd2:	48 89 c7             	mov    %rax,%rdi
  408bd5:	e8 56 a1 ff ff       	callq  402d30 <_ZNSt7__cxx1112basic_stringIcSt11char_traitsIcESaIcEED1Ev@plt>
  408bda:	bb 02 00 00 00       	mov    $0x2,%ebx
  408bdf:	48 8d 85 f0 ed ff ff 	lea    -0x1210(%rbp),%rax
  408be6:	48 89 c7             	mov    %rax,%rdi
  408be9:	e8 42 a1 ff ff       	callq  402d30 <_ZNSt7__cxx1112basic_stringIcSt11char_traitsIcESaIcEED1Ev@plt>
  408bee:	85 db                	test   %ebx,%ebx
  408bf0:	0f 84 eb fd ff ff    	je     4089e1 <_Z12read_messageiRSt3mapINSt7__cxx1112basic_stringIcSt11char_traitsIcESaIcEEES5_St4lessIS5_ESaISt4pairIKS5_S5_EEERSt6vectorIhSaIhEE+0x87>
  408bf6:	83 fb 02             	cmp    $0x2,%ebx
  408bf9:	74 42                	je     408c3d <_Z12read_messageiRSt3mapINSt7__cxx1112basic_stringIcSt11char_traitsIcESaIcEEES5_St4lessIS5_ESaISt4pairIKS5_S5_EEERSt6vectorIhSaIhEE+0x2e3>
  408bfb:	48 8b 85 a8 ed ff ff 	mov    -0x1258(%rbp),%rax
  408c02:	48 89 c7             	mov    %rax,%rdi
  408c05:	e8 f4 c7 ff ff       	callq  4053fe <_ZNSt3mapINSt7__cxx1112basic_stringIcSt11char_traitsIcESaIcEEES5_St4lessIS5_ESaISt4pairIKS5_S5_EEE3endEv>
  408c0a:	48 89 85 e0 ed ff ff 	mov    %rax,-0x1220(%rbp)
  408c11:	48 8d 85 cb ed ff ff 	lea    -0x1235(%rbp),%rax
  408c18:	48 89 c7             	mov    %rax,%rdi
  408c1b:	e8 e0 a4 ff ff       	callq  403100 <_ZNSaIcEC1Ev@plt>
  408c20:	48 8d 95 cb ed ff ff 	lea    -0x1235(%rbp),%rdx
  408c27:	48 8d 85 f0 ed ff ff 	lea    -0x1210(%rbp),%rax
  408c2e:	be fd db 40 00       	mov    $0x40dbfd,%esi
  408c33:	48 89 c7             	mov    %rax,%rdi
  408c36:	e8 85 a3 ff ff       	callq  402fc0 <_ZNSt7__cxx1112basic_stringIcSt11char_traitsIcESaIcEEC1EPKcRKS3_@plt>
  408c3b:	eb 06                	jmp    408c43 <_Z12read_messageiRSt3mapINSt7__cxx1112basic_stringIcSt11char_traitsIcESaIcEEES5_St4lessIS5_ESaISt4pairIKS5_S5_EEERSt6vectorIhSaIhEE+0x2e9>
  408c3d:	90                   	nop
  408c3e:	e9 9e fd ff ff       	jmpq   4089e1 <_Z12read_messageiRSt3mapINSt7__cxx1112basic_stringIcSt11char_traitsIcESaIcEEES5_St4lessIS5_ESaISt4pairIKS5_S5_EEERSt6vectorIhSaIhEE+0x87>
  408c43:	48 8d 95 f0 ed ff ff 	lea    -0x1210(%rbp),%rdx
  408c4a:	48 8b 85 a8 ed ff ff 	mov    -0x1258(%rbp),%rax
  408c51:	48 89 d6             	mov    %rdx,%rsi
  408c54:	48 89 c7             	mov    %rax,%rdi
  408c57:	e8 7c c7 ff ff       	callq  4053d8 <_ZNSt3mapINSt7__cxx1112basic_stringIcSt11char_traitsIcESaIcEEES5_St4lessIS5_ESaISt4pairIKS5_S5_EEE4findERS9_>
  408c5c:	48 89 85 d8 ed ff ff 	mov    %rax,-0x1228(%rbp)
  408c63:	48 8d 95 e0 ed ff ff 	lea    -0x1220(%rbp),%rdx
  408c6a:	48 8d 85 d8 ed ff ff 	lea    -0x1228(%rbp),%rax
  408c71:	48 89 d6             	mov    %rdx,%rsi
  408c74:	48 89 c7             	mov    %rax,%rdi
  408c77:	e8 be c7 ff ff       	callq  40543a <_ZNKSt17_Rb_tree_iteratorISt4pairIKNSt7__cxx1112basic_stringIcSt11char_traitsIcESaIcEEES6_EEneERKS9_>
  408c7c:	89 c3                	mov    %eax,%ebx
  408c7e:	48 8d 85 f0 ed ff ff 	lea    -0x1210(%rbp),%rax
  408c85:	48 89 c7             	mov    %rax,%rdi
  408c88:	e8 a3 a0 ff ff       	callq  402d30 <_ZNSt7__cxx1112basic_stringIcSt11char_traitsIcESaIcEED1Ev@plt>
  408c8d:	48 8d 85 cb ed ff ff 	lea    -0x1235(%rbp),%rax
  408c94:	48 89 c7             	mov    %rax,%rdi
  408c97:	e8 84 a2 ff ff       	callq  402f20 <_ZNSaIcED1Ev@plt>
  408c9c:	84 db                	test   %bl,%bl
  408c9e:	0f 84 3c 02 00 00    	je     408ee0 <_Z12read_messageiRSt3mapINSt7__cxx1112basic_stringIcSt11char_traitsIcESaIcEEES5_St4lessIS5_ESaISt4pairIKS5_S5_EEERSt6vectorIhSaIhEE+0x586>
  408ca4:	48 8d 85 e0 ed ff ff 	lea    -0x1220(%rbp),%rax
  408cab:	48 89 c7             	mov    %rax,%rdi
  408cae:	e8 4d a4 ff ff       	callq  403100 <_ZNSaIcEC1Ev@plt>
  408cb3:	48 8d 95 e0 ed ff ff 	lea    -0x1220(%rbp),%rdx
  408cba:	48 8d 85 10 ee ff ff 	lea    -0x11f0(%rbp),%rax
  408cc1:	be fd db 40 00       	mov    $0x40dbfd,%esi
  408cc6:	48 89 c7             	mov    %rax,%rdi
  408cc9:	e8 f2 a2 ff ff       	callq  402fc0 <_ZNSt7__cxx1112basic_stringIcSt11char_traitsIcESaIcEEC1EPKcRKS3_@plt>
  408cce:	48 8d 95 10 ee ff ff 	lea    -0x11f0(%rbp),%rdx
  408cd5:	48 8b 85 a8 ed ff ff 	mov    -0x1258(%rbp),%rax
  408cdc:	48 89 d6             	mov    %rdx,%rsi
  408cdf:	48 89 c7             	mov    %rax,%rdi
  408ce2:	e8 f5 c3 ff ff       	callq  4050dc <_ZNSt3mapINSt7__cxx1112basic_stringIcSt11char_traitsIcESaIcEEES5_St4lessIS5_ESaISt4pairIKS5_S5_EEEixEOS5_>
  408ce7:	48 89 c7             	mov    %rax,%rdi
  408cea:	e8 b1 9f ff ff       	callq  402ca0 <_ZNKSt7__cxx1112basic_stringIcSt11char_traitsIcESaIcEE5c_strEv@plt>
  408cef:	48 89 c7             	mov    %rax,%rdi
  408cf2:	e8 39 a3 ff ff       	callq  403030 <atoi@plt>
  408cf7:	89 85 d0 ed ff ff    	mov    %eax,-0x1230(%rbp)
  408cfd:	48 8d 85 10 ee ff ff 	lea    -0x11f0(%rbp),%rax
  408d04:	48 89 c7             	mov    %rax,%rdi
  408d07:	e8 24 a0 ff ff       	callq  402d30 <_ZNSt7__cxx1112basic_stringIcSt11char_traitsIcESaIcEED1Ev@plt>
  408d0c:	48 8d 85 e0 ed ff ff 	lea    -0x1220(%rbp),%rax
  408d13:	48 89 c7             	mov    %rax,%rdi
  408d16:	e8 05 a2 ff ff       	callq  402f20 <_ZNSaIcED1Ev@plt>
  408d1b:	48 8d 85 50 ee ff ff 	lea    -0x11b0(%rbp),%rax
  408d22:	48 89 c7             	mov    %rax,%rdi
  408d25:	e8 b6 a3 ff ff       	callq  4030e0 <_ZNSi5tellgEv@plt>
  408d2a:	48 89 85 f0 ed ff ff 	mov    %rax,-0x1210(%rbp)
  408d31:	48 89 95 f8 ed ff ff 	mov    %rdx,-0x1208(%rbp)
  408d38:	48 8d 85 f0 ed ff ff 	lea    -0x1210(%rbp),%rax
  408d3f:	48 89 c7             	mov    %rax,%rdi
  408d42:	e8 7d 1a 00 00       	callq  40a7c4 <_ZNKSt4fposI11__mbstate_tEcvlEv>
  408d47:	48 89 c3             	mov    %rax,%rbx
  408d4a:	48 8d 85 30 ee ff ff 	lea    -0x11d0(%rbp),%rax
  408d51:	48 8d 95 50 ee ff ff 	lea    -0x11b0(%rbp),%rdx
  408d58:	48 89 d6             	mov    %rdx,%rsi
  408d5b:	48 89 c7             	mov    %rax,%rdi
  408d5e:	e8 3d a1 ff ff       	callq  402ea0 <_ZNKSt7__cxx1118basic_stringstreamIcSt11char_traitsIcESaIcEE3strEv@plt>
  408d63:	48 8d 85 10 ee ff ff 	lea    -0x11f0(%rbp),%rax
  408d6a:	48 8d b5 30 ee ff ff 	lea    -0x11d0(%rbp),%rsi
  408d71:	48 c7 c1 ff ff ff ff 	mov    $0xffffffffffffffff,%rcx
  408d78:	48 89 da             	mov    %rbx,%rdx
  408d7b:	48 89 c7             	mov    %rax,%rdi
  408d7e:	e8 6d a1 ff ff       	callq  402ef0 <_ZNKSt7__cxx1112basic_stringIcSt11char_traitsIcESaIcEE6substrEmm@plt>
  408d83:	48 8d 85 30 ee ff ff 	lea    -0x11d0(%rbp),%rax
  408d8a:	48 89 c7             	mov    %rax,%rdi
  408d8d:	e8 9e 9f ff ff       	callq  402d30 <_ZNSt7__cxx1112basic_stringIcSt11char_traitsIcESaIcEED1Ev@plt>
  408d92:	48 8d 85 10 ee ff ff 	lea    -0x11f0(%rbp),%rax
  408d99:	48 89 c7             	mov    %rax,%rdi
  408d9c:	e8 ff 9e ff ff       	callq  402ca0 <_ZNKSt7__cxx1112basic_stringIcSt11char_traitsIcESaIcEE5c_strEv@plt>
  408da1:	48 89 c3             	mov    %rax,%rbx
  408da4:	48 8d 85 10 ee ff ff 	lea    -0x11f0(%rbp),%rax
  408dab:	48 89 c7             	mov    %rax,%rdi
  408dae:	e8 4d a2 ff ff       	callq  403000 <_ZNKSt7__cxx1112basic_stringIcSt11char_traitsIcESaIcEE6lengthEv@plt>
  408db3:	48 01 c3             	add    %rax,%rbx
  408db6:	48 8d 85 10 ee ff ff 	lea    -0x11f0(%rbp),%rax
  408dbd:	48 89 c7             	mov    %rax,%rdi
  408dc0:	e8 db 9e ff ff       	callq  402ca0 <_ZNKSt7__cxx1112basic_stringIcSt11char_traitsIcESaIcEE5c_strEv@plt>
  408dc5:	49 89 c4             	mov    %rax,%r12
  408dc8:	48 8b 85 a0 ed ff ff 	mov    -0x1260(%rbp),%rax
  408dcf:	48 89 c7             	mov    %rax,%rdi
  408dd2:	e8 ff 19 00 00       	callq  40a7d6 <_ZNSt6vectorIhSaIhEE3endEv>
  408dd7:	48 89 85 d8 ed ff ff 	mov    %rax,-0x1228(%rbp)
  408dde:	48 8d 95 d8 ed ff ff 	lea    -0x1228(%rbp),%rdx
  408de5:	48 8d 85 e0 ed ff ff 	lea    -0x1220(%rbp),%rax
  408dec:	48 89 d6             	mov    %rdx,%rsi
  408def:	48 89 c7             	mov    %rax,%rdi
  408df2:	e8 2b 1a 00 00       	callq  40a822 <_ZN9__gnu_cxx17__normal_iteratorIPKhSt6vectorIhSaIhEEEC1IPhEERKNS0_IT_NS_11__enable_ifIXsrSt10__are_sameIS9_S8_E7__valueES5_E6__typeEEE>
  408df7:	48 8b b5 e0 ed ff ff 	mov    -0x1220(%rbp),%rsi
  408dfe:	48 8b 85 a0 ed ff ff 	mov    -0x1260(%rbp),%rax
  408e05:	48 89 d9             	mov    %rbx,%rcx
  408e08:	4c 89 e2             	mov    %r12,%rdx
  408e0b:	48 89 c7             	mov    %rax,%rdi
  408e0e:	e8 39 1a 00 00       	callq  40a84c <_ZNSt6vectorIhSaIhEE6insertIPKcvEEN9__gnu_cxx17__normal_iteratorIPhS1_EENS6_IPKhS1_EET_SC_>
  408e13:	48 8b 85 a0 ed ff ff 	mov    -0x1260(%rbp),%rax
  408e1a:	48 89 c7             	mov    %rax,%rdi
  408e1d:	e8 fa 1a 00 00       	callq  40a91c <_ZNKSt6vectorIhSaIhEE4sizeEv>
  408e22:	3b 85 d0 ed ff ff    	cmp    -0x1230(%rbp),%eax
  408e28:	0f 9c c0             	setl   %al
  408e2b:	84 c0                	test   %al,%al
  408e2d:	0f 84 9e 00 00 00    	je     408ed1 <_Z12read_messageiRSt3mapINSt7__cxx1112basic_stringIcSt11char_traitsIcESaIcEEES5_St4lessIS5_ESaISt4pairIKS5_S5_EEERSt6vectorIhSaIhEE+0x577>
  408e33:	48 8d b5 e0 ef ff ff 	lea    -0x1020(%rbp),%rsi
  408e3a:	8b 85 b4 ed ff ff    	mov    -0x124c(%rbp),%eax
  408e40:	b9 00 00 00 00       	mov    $0x0,%ecx
  408e45:	ba 00 10 00 00       	mov    $0x1000,%edx
  408e4a:	89 c7                	mov    %eax,%edi
  408e4c:	e8 ff 9d ff ff       	callq  402c50 <recv@plt>
  408e51:	89 85 d4 ed ff ff    	mov    %eax,-0x122c(%rbp)
  408e57:	83 bd d4 ed ff ff ff 	cmpl   $0xffffffff,-0x122c(%rbp)
  408e5e:	75 0a                	jne    408e6a <_Z12read_messageiRSt3mapINSt7__cxx1112basic_stringIcSt11char_traitsIcESaIcEEES5_St4lessIS5_ESaISt4pairIKS5_S5_EEERSt6vectorIhSaIhEE+0x510>
  408e60:	bf fc db 40 00       	mov    $0x40dbfc,%edi
  408e65:	e8 99 f3 ff ff       	callq  408203 <_Z5errorPKc>
  408e6a:	8b 85 d4 ed ff ff    	mov    -0x122c(%rbp),%eax
  408e70:	48 98                	cltq   
  408e72:	48 8d 95 e0 ef ff ff 	lea    -0x1020(%rbp),%rdx
  408e79:	48 8d 1c 02          	lea    (%rdx,%rax,1),%rbx
  408e7d:	48 8b 85 a0 ed ff ff 	mov    -0x1260(%rbp),%rax
  408e84:	48 89 c7             	mov    %rax,%rdi
  408e87:	e8 4a 19 00 00       	callq  40a7d6 <_ZNSt6vectorIhSaIhEE3endEv>
  408e8c:	48 89 85 d8 ed ff ff 	mov    %rax,-0x1228(%rbp)
  408e93:	48 8d 95 d8 ed ff ff 	lea    -0x1228(%rbp),%rdx
  408e9a:	48 8d 85 e0 ed ff ff 	lea    -0x1220(%rbp),%rax
  408ea1:	48 89 d6             	mov    %rdx,%rsi
  408ea4:	48 89 c7             	mov    %rax,%rdi
  408ea7:	e8 76 19 00 00       	callq  40a822 <_ZN9__gnu_cxx17__normal_iteratorIPKhSt6vectorIhSaIhEEEC1IPhEERKNS0_IT_NS_11__enable_ifIXsrSt10__are_sameIS9_S8_E7__valueES5_E6__typeEEE>
  408eac:	48 8d 95 e0 ef ff ff 	lea    -0x1020(%rbp),%rdx
  408eb3:	48 8b b5 e0 ed ff ff 	mov    -0x1220(%rbp),%rsi
  408eba:	48 8b 85 a0 ed ff ff 	mov    -0x1260(%rbp),%rax
  408ec1:	48 89 d9             	mov    %rbx,%rcx
  408ec4:	48 89 c7             	mov    %rax,%rdi
  408ec7:	e8 72 1a 00 00       	callq  40a93e <_ZNSt6vectorIhSaIhEE6insertIPcvEEN9__gnu_cxx17__normal_iteratorIPhS1_EENS5_IPKhS1_EET_SB_>
  408ecc:	e9 42 ff ff ff       	jmpq   408e13 <_Z12read_messageiRSt3mapINSt7__cxx1112basic_stringIcSt11char_traitsIcESaIcEEES5_St4lessIS5_ESaISt4pairIKS5_S5_EEERSt6vectorIhSaIhEE+0x4b9>
  408ed1:	48 8d 85 10 ee ff ff 	lea    -0x11f0(%rbp),%rax
  408ed8:	48 89 c7             	mov    %rax,%rdi
  408edb:	e8 50 9e ff ff       	callq  402d30 <_ZNSt7__cxx1112basic_stringIcSt11char_traitsIcESaIcEED1Ev@plt>
  408ee0:	90                   	nop
  408ee1:	48 8d 85 50 ee ff ff 	lea    -0x11b0(%rbp),%rax
  408ee8:	48 89 c7             	mov    %rax,%rdi
  408eeb:	e8 d0 9e ff ff       	callq  402dc0 <_ZNSt7__cxx1118basic_stringstreamIcSt11char_traitsIcESaIcEED1Ev@plt>
  408ef0:	90                   	nop
  408ef1:	48 8b 85 b8 ed ff ff 	mov    -0x1248(%rbp),%rax
  408ef8:	48 8b 4d e8          	mov    -0x18(%rbp),%rcx
  408efc:	64 48 33 0c 25 28 00 	xor    %fs:0x28,%rcx
  408f03:	00 00 
  408f05:	0f 84 ea 00 00 00    	je     408ff5 <_Z12read_messageiRSt3mapINSt7__cxx1112basic_stringIcSt11char_traitsIcESaIcEEES5_St4lessIS5_ESaISt4pairIKS5_S5_EEERSt6vectorIhSaIhEE+0x69b>
  408f0b:	e9 e0 00 00 00       	jmpq   408ff0 <_Z12read_messageiRSt3mapINSt7__cxx1112basic_stringIcSt11char_traitsIcESaIcEEES5_St4lessIS5_ESaISt4pairIKS5_S5_EEERSt6vectorIhSaIhEE+0x696>
  408f10:	48 89 c3             	mov    %rax,%rbx
  408f13:	48 8d 85 30 ee ff ff 	lea    -0x11d0(%rbp),%rax
  408f1a:	48 89 c7             	mov    %rax,%rdi
  408f1d:	e8 0e 9e ff ff       	callq  402d30 <_ZNSt7__cxx1112basic_stringIcSt11char_traitsIcESaIcEED1Ev@plt>
  408f22:	eb 03                	jmp    408f27 <_Z12read_messageiRSt3mapINSt7__cxx1112basic_stringIcSt11char_traitsIcESaIcEEES5_St4lessIS5_ESaISt4pairIKS5_S5_EEERSt6vectorIhSaIhEE+0x5cd>
  408f24:	48 89 c3             	mov    %rax,%rbx
  408f27:	48 8d 85 10 ee ff ff 	lea    -0x11f0(%rbp),%rax
  408f2e:	48 89 c7             	mov    %rax,%rdi
  408f31:	e8 fa 9d ff ff       	callq  402d30 <_ZNSt7__cxx1112basic_stringIcSt11char_traitsIcESaIcEED1Ev@plt>
  408f36:	eb 03                	jmp    408f3b <_Z12read_messageiRSt3mapINSt7__cxx1112basic_stringIcSt11char_traitsIcESaIcEEES5_St4lessIS5_ESaISt4pairIKS5_S5_EEERSt6vectorIhSaIhEE+0x5e1>
  408f38:	48 89 c3             	mov    %rax,%rbx
  408f3b:	48 8d 85 f0 ed ff ff 	lea    -0x1210(%rbp),%rax
  408f42:	48 89 c7             	mov    %rax,%rdi
  408f45:	e8 e6 9d ff ff       	callq  402d30 <_ZNSt7__cxx1112basic_stringIcSt11char_traitsIcESaIcEED1Ev@plt>
  408f4a:	eb 7b                	jmp    408fc7 <_Z12read_messageiRSt3mapINSt7__cxx1112basic_stringIcSt11char_traitsIcESaIcEEES5_St4lessIS5_ESaISt4pairIKS5_S5_EEERSt6vectorIhSaIhEE+0x66d>
  408f4c:	48 89 c3             	mov    %rax,%rbx
  408f4f:	48 8d 85 f0 ed ff ff 	lea    -0x1210(%rbp),%rax
  408f56:	48 89 c7             	mov    %rax,%rdi
  408f59:	e8 d2 9d ff ff       	callq  402d30 <_ZNSt7__cxx1112basic_stringIcSt11char_traitsIcESaIcEED1Ev@plt>
  408f5e:	eb 03                	jmp    408f63 <_Z12read_messageiRSt3mapINSt7__cxx1112basic_stringIcSt11char_traitsIcESaIcEEES5_St4lessIS5_ESaISt4pairIKS5_S5_EEERSt6vectorIhSaIhEE+0x609>
  408f60:	48 89 c3             	mov    %rax,%rbx
  408f63:	48 8d 85 cb ed ff ff 	lea    -0x1235(%rbp),%rax
  408f6a:	48 89 c7             	mov    %rax,%rdi
  408f6d:	e8 ae 9f ff ff       	callq  402f20 <_ZNSaIcED1Ev@plt>
  408f72:	eb 53                	jmp    408fc7 <_Z12read_messageiRSt3mapINSt7__cxx1112basic_stringIcSt11char_traitsIcESaIcEEES5_St4lessIS5_ESaISt4pairIKS5_S5_EEERSt6vectorIhSaIhEE+0x66d>
  408f74:	48 89 c3             	mov    %rax,%rbx
  408f77:	48 8d 85 10 ee ff ff 	lea    -0x11f0(%rbp),%rax
  408f7e:	48 89 c7             	mov    %rax,%rdi
  408f81:	e8 aa 9d ff ff       	callq  402d30 <_ZNSt7__cxx1112basic_stringIcSt11char_traitsIcESaIcEED1Ev@plt>
  408f86:	eb 03                	jmp    408f8b <_Z12read_messageiRSt3mapINSt7__cxx1112basic_stringIcSt11char_traitsIcESaIcEEES5_St4lessIS5_ESaISt4pairIKS5_S5_EEERSt6vectorIhSaIhEE+0x631>
  408f88:	48 89 c3             	mov    %rax,%rbx
  408f8b:	48 8d 85 e0 ed ff ff 	lea    -0x1220(%rbp),%rax
  408f92:	48 89 c7             	mov    %rax,%rdi
  408f95:	e8 86 9f ff ff       	callq  402f20 <_ZNSaIcED1Ev@plt>
  408f9a:	eb 2b                	jmp    408fc7 <_Z12read_messageiRSt3mapINSt7__cxx1112basic_stringIcSt11char_traitsIcESaIcEEES5_St4lessIS5_ESaISt4pairIKS5_S5_EEERSt6vectorIhSaIhEE+0x66d>
  408f9c:	48 89 c3             	mov    %rax,%rbx
  408f9f:	48 8d 85 30 ee ff ff 	lea    -0x11d0(%rbp),%rax
  408fa6:	48 89 c7             	mov    %rax,%rdi
  408fa9:	e8 82 9d ff ff       	callq  402d30 <_ZNSt7__cxx1112basic_stringIcSt11char_traitsIcESaIcEED1Ev@plt>
  408fae:	eb 17                	jmp    408fc7 <_Z12read_messageiRSt3mapINSt7__cxx1112basic_stringIcSt11char_traitsIcESaIcEEES5_St4lessIS5_ESaISt4pairIKS5_S5_EEERSt6vectorIhSaIhEE+0x66d>
  408fb0:	48 89 c3             	mov    %rax,%rbx
  408fb3:	48 8d 85 10 ee ff ff 	lea    -0x11f0(%rbp),%rax
  408fba:	48 89 c7             	mov    %rax,%rdi
  408fbd:	e8 6e 9d ff ff       	callq  402d30 <_ZNSt7__cxx1112basic_stringIcSt11char_traitsIcESaIcEED1Ev@plt>
  408fc2:	eb 03                	jmp    408fc7 <_Z12read_messageiRSt3mapINSt7__cxx1112basic_stringIcSt11char_traitsIcESaIcEEES5_St4lessIS5_ESaISt4pairIKS5_S5_EEERSt6vectorIhSaIhEE+0x66d>
  408fc4:	48 89 c3             	mov    %rax,%rbx
  408fc7:	48 8b 85 b8 ed ff ff 	mov    -0x1248(%rbp),%rax
  408fce:	48 89 c7             	mov    %rax,%rdi
  408fd1:	e8 5a 9d ff ff       	callq  402d30 <_ZNSt7__cxx1112basic_stringIcSt11char_traitsIcESaIcEED1Ev@plt>
  408fd6:	48 8d 85 50 ee ff ff 	lea    -0x11b0(%rbp),%rax
  408fdd:	48 89 c7             	mov    %rax,%rdi
  408fe0:	e8 db 9d ff ff       	callq  402dc0 <_ZNSt7__cxx1118basic_stringstreamIcSt11char_traitsIcESaIcEED1Ev@plt>
  408fe5:	48 89 d8             	mov    %rbx,%rax
  408fe8:	48 89 c7             	mov    %rax,%rdi
  408feb:	e8 00 a1 ff ff       	callq  4030f0 <_Unwind_Resume@plt>
  408ff0:	e8 4b 9f ff ff       	callq  402f40 <__stack_chk_fail@plt>
  408ff5:	48 81 c4 50 12 00 00 	add    $0x1250,%rsp
  408ffc:	5b                   	pop    %rbx
  408ffd:	41 5c                	pop    %r12
  408fff:	5d                   	pop    %rbp
  409000:	c3                   	retq   

0000000000409001 <_Z12read_requestiRSt3mapINSt7__cxx1112basic_stringIcSt11char_traitsIcESaIcEEES5_St4lessIS5_ESaISt4pairIKS5_S5_EEERSt6vectorIhSaIhEE>:
  409001:	55                   	push   %rbp
  409002:	48 89 e5             	mov    %rsp,%rbp
  409005:	53                   	push   %rbx
  409006:	48 83 ec 68          	sub    $0x68,%rsp
  40900a:	48 89 7d a8          	mov    %rdi,-0x58(%rbp)
  40900e:	89 75 a4             	mov    %esi,-0x5c(%rbp)
  409011:	48 89 55 98          	mov    %rdx,-0x68(%rbp)
  409015:	48 89 4d 90          	mov    %rcx,-0x70(%rbp)
  409019:	64 48 8b 04 25 28 00 	mov    %fs:0x28,%rax
  409020:	00 00 
  409022:	48 89 45 e8          	mov    %rax,-0x18(%rbp)
  409026:	31 c0                	xor    %eax,%eax
  409028:	48 8d 45 c0          	lea    -0x40(%rbp),%rax
  40902c:	48 8b 4d 90          	mov    -0x70(%rbp),%rcx
  409030:	48 8b 55 98          	mov    -0x68(%rbp),%rdx
  409034:	8b 75 a4             	mov    -0x5c(%rbp),%esi
  409037:	48 89 c7             	mov    %rax,%rdi
  40903a:	e8 1b f9 ff ff       	callq  40895a <_Z12read_messageiRSt3mapINSt7__cxx1112basic_stringIcSt11char_traitsIcESaIcEEES5_St4lessIS5_ESaISt4pairIKS5_S5_EEERSt6vectorIhSaIhEE>
  40903f:	48 8d 45 c0          	lea    -0x40(%rbp),%rax
  409043:	ba 00 00 00 00       	mov    $0x0,%edx
  409048:	be 20 00 00 00       	mov    $0x20,%esi
  40904d:	48 89 c7             	mov    %rax,%rdi
  409050:	e8 3b 9f ff ff       	callq  402f90 <_ZNKSt7__cxx1112basic_stringIcSt11char_traitsIcESaIcEE4findEcm@plt>
  409055:	48 89 45 b0          	mov    %rax,-0x50(%rbp)
  409059:	48 8d 45 c0          	lea    -0x40(%rbp),%rax
  40905d:	48 c7 c2 ff ff ff ff 	mov    $0xffffffffffffffff,%rdx
  409064:	be 20 00 00 00       	mov    $0x20,%esi
  409069:	48 89 c7             	mov    %rax,%rdi
  40906c:	e8 0f a1 ff ff       	callq  403180 <_ZNKSt7__cxx1112basic_stringIcSt11char_traitsIcESaIcEE5rfindEcm@plt>
  409071:	48 89 45 b8          	mov    %rax,-0x48(%rbp)
  409075:	48 8b 45 b8          	mov    -0x48(%rbp),%rax
  409079:	48 2b 45 b0          	sub    -0x50(%rbp),%rax
  40907d:	48 8d 48 ff          	lea    -0x1(%rax),%rcx
  409081:	48 8b 45 b0          	mov    -0x50(%rbp),%rax
  409085:	48 8d 50 01          	lea    0x1(%rax),%rdx
  409089:	48 8b 45 a8          	mov    -0x58(%rbp),%rax
  40908d:	48 8d 75 c0          	lea    -0x40(%rbp),%rsi
  409091:	48 89 c7             	mov    %rax,%rdi
  409094:	e8 57 9e ff ff       	callq  402ef0 <_ZNKSt7__cxx1112basic_stringIcSt11char_traitsIcESaIcEE6substrEmm@plt>
  409099:	90                   	nop
  40909a:	48 8d 45 c0          	lea    -0x40(%rbp),%rax
  40909e:	48 89 c7             	mov    %rax,%rdi
  4090a1:	e8 8a 9c ff ff       	callq  402d30 <_ZNSt7__cxx1112basic_stringIcSt11char_traitsIcESaIcEED1Ev@plt>
  4090a6:	90                   	nop
  4090a7:	48 8b 45 a8          	mov    -0x58(%rbp),%rax
  4090ab:	48 8b 5d e8          	mov    -0x18(%rbp),%rbx
  4090af:	64 48 33 1c 25 28 00 	xor    %fs:0x28,%rbx
  4090b6:	00 00 
  4090b8:	74 21                	je     4090db <_Z12read_requestiRSt3mapINSt7__cxx1112basic_stringIcSt11char_traitsIcESaIcEEES5_St4lessIS5_ESaISt4pairIKS5_S5_EEERSt6vectorIhSaIhEE+0xda>
  4090ba:	eb 1a                	jmp    4090d6 <_Z12read_requestiRSt3mapINSt7__cxx1112basic_stringIcSt11char_traitsIcESaIcEEES5_St4lessIS5_ESaISt4pairIKS5_S5_EEERSt6vectorIhSaIhEE+0xd5>
  4090bc:	48 89 c3             	mov    %rax,%rbx
  4090bf:	48 8d 45 c0          	lea    -0x40(%rbp),%rax
  4090c3:	48 89 c7             	mov    %rax,%rdi
  4090c6:	e8 65 9c ff ff       	callq  402d30 <_ZNSt7__cxx1112basic_stringIcSt11char_traitsIcESaIcEED1Ev@plt>
  4090cb:	48 89 d8             	mov    %rbx,%rax
  4090ce:	48 89 c7             	mov    %rax,%rdi
  4090d1:	e8 1a a0 ff ff       	callq  4030f0 <_Unwind_Resume@plt>
  4090d6:	e8 65 9e ff ff       	callq  402f40 <__stack_chk_fail@plt>
  4090db:	48 83 c4 68          	add    $0x68,%rsp
  4090df:	5b                   	pop    %rbx
  4090e0:	5d                   	pop    %rbp
  4090e1:	c3                   	retq   

00000000004090e2 <_Z13read_responseiRSt3mapINSt7__cxx1112basic_stringIcSt11char_traitsIcESaIcEEES5_St4lessIS5_ESaISt4pairIKS5_S5_EEERSt6vectorIhSaIhEE>:
  4090e2:	55                   	push   %rbp
  4090e3:	48 89 e5             	mov    %rsp,%rbp
  4090e6:	53                   	push   %rbx
  4090e7:	48 83 ec 68          	sub    $0x68,%rsp
  4090eb:	89 7d ac             	mov    %edi,-0x54(%rbp)
  4090ee:	48 89 75 a0          	mov    %rsi,-0x60(%rbp)
  4090f2:	48 89 55 98          	mov    %rdx,-0x68(%rbp)
  4090f6:	64 48 8b 04 25 28 00 	mov    %fs:0x28,%rax
  4090fd:	00 00 
  4090ff:	48 89 45 e8          	mov    %rax,-0x18(%rbp)
  409103:	31 c0                	xor    %eax,%eax
  409105:	48 8d 45 c0          	lea    -0x40(%rbp),%rax
  409109:	48 8b 4d 98          	mov    -0x68(%rbp),%rcx
  40910d:	48 8b 55 a0          	mov    -0x60(%rbp),%rdx
  409111:	8b 75 ac             	mov    -0x54(%rbp),%esi
  409114:	48 89 c7             	mov    %rax,%rdi
  409117:	e8 3e f8 ff ff       	callq  40895a <_Z12read_messageiRSt3mapINSt7__cxx1112basic_stringIcSt11char_traitsIcESaIcEEES5_St4lessIS5_ESaISt4pairIKS5_S5_EEERSt6vectorIhSaIhEE>
  40911c:	48 8d 45 c0          	lea    -0x40(%rbp),%rax
  409120:	48 89 c7             	mov    %rax,%rdi
  409123:	e8 78 9b ff ff       	callq  402ca0 <_ZNKSt7__cxx1112basic_stringIcSt11char_traitsIcESaIcEE5c_strEv@plt>
  409128:	48 89 c1             	mov    %rax,%rcx
  40912b:	48 8d 45 bc          	lea    -0x44(%rbp),%rax
  40912f:	48 89 c2             	mov    %rax,%rdx
  409132:	be 3f dc 40 00       	mov    $0x40dc3f,%esi
  409137:	48 89 cf             	mov    %rcx,%rdi
  40913a:	b8 00 00 00 00       	mov    $0x0,%eax
  40913f:	e8 5c 9c ff ff       	callq  402da0 <sscanf@plt>
  409144:	8b 5d bc             	mov    -0x44(%rbp),%ebx
  409147:	48 8d 45 c0          	lea    -0x40(%rbp),%rax
  40914b:	48 89 c7             	mov    %rax,%rdi
  40914e:	e8 dd 9b ff ff       	callq  402d30 <_ZNSt7__cxx1112basic_stringIcSt11char_traitsIcESaIcEED1Ev@plt>
  409153:	89 d8                	mov    %ebx,%eax
  409155:	48 8b 5d e8          	mov    -0x18(%rbp),%rbx
  409159:	64 48 33 1c 25 28 00 	xor    %fs:0x28,%rbx
  409160:	00 00 
  409162:	74 05                	je     409169 <_Z13read_responseiRSt3mapINSt7__cxx1112basic_stringIcSt11char_traitsIcESaIcEEES5_St4lessIS5_ESaISt4pairIKS5_S5_EEERSt6vectorIhSaIhEE+0x87>
  409164:	e8 d7 9d ff ff       	callq  402f40 <__stack_chk_fail@plt>
  409169:	48 83 c4 68          	add    $0x68,%rsp
  40916d:	5b                   	pop    %rbx
  40916e:	5d                   	pop    %rbp
  40916f:	c3                   	retq   

0000000000409170 <_ZZ10run_serveriSt8functionIFviEEENKUlvE_clEv>:
  409170:	55                   	push   %rbp
  409171:	48 89 e5             	mov    %rsp,%rbp
  409174:	53                   	push   %rbx
  409175:	48 83 ec 68          	sub    $0x68,%rsp
  409179:	48 89 7d 98          	mov    %rdi,-0x68(%rbp)
  40917d:	64 48 8b 04 25 28 00 	mov    %fs:0x28,%rax
  409184:	00 00 
  409186:	48 89 45 e8          	mov    %rax,-0x18(%rbp)
  40918a:	31 c0                	xor    %eax,%eax
  40918c:	48 8b 45 98          	mov    -0x68(%rbp),%rax
  409190:	8b 10                	mov    (%rax),%edx
  409192:	48 8b 45 98          	mov    -0x68(%rbp),%rax
  409196:	48 8b 40 10          	mov    0x10(%rax),%rax
  40919a:	89 d6                	mov    %edx,%esi
  40919c:	48 89 c7             	mov    %rax,%rdi
  40919f:	e8 24 19 00 00       	callq  40aac8 <_ZNKSt8functionIFviEEclEi>
  4091a4:	48 8b 45 98          	mov    -0x68(%rbp),%rax
  4091a8:	8b 00                	mov    (%rax),%eax
  4091aa:	89 c7                	mov    %eax,%edi
  4091ac:	e8 bf 9f ff ff       	callq  403170 <close@plt>
  4091b1:	48 8b 45 98          	mov    -0x68(%rbp),%rax
  4091b5:	48 8b 50 18          	mov    0x18(%rax),%rdx
  4091b9:	48 8d 45 a8          	lea    -0x58(%rbp),%rax
  4091bd:	48 89 d6             	mov    %rdx,%rsi
  4091c0:	48 89 c7             	mov    %rax,%rdi
  4091c3:	e8 a6 18 00 00       	callq  40aa6e <_ZNSt10lock_guardISt5mutexEC1ERS0_>
  4091c8:	48 8b 45 98          	mov    -0x68(%rbp),%rax
  4091cc:	48 8b 40 08          	mov    0x8(%rax),%rax
  4091d0:	48 89 45 c0          	mov    %rax,-0x40(%rbp)
  4091d4:	48 8b 45 c0          	mov    -0x40(%rbp),%rax
  4091d8:	48 89 c7             	mov    %rax,%rdi
  4091db:	e8 38 19 00 00       	callq  40ab18 <_ZNSt6vectorISt4pairISt6threadbESaIS2_EE5beginEv>
  4091e0:	48 89 45 b0          	mov    %rax,-0x50(%rbp)
  4091e4:	48 8b 45 c0          	mov    -0x40(%rbp),%rax
  4091e8:	48 89 c7             	mov    %rax,%rdi
  4091eb:	e8 70 19 00 00       	callq  40ab60 <_ZNSt6vectorISt4pairISt6threadbESaIS2_EE3endEv>
  4091f0:	48 89 45 b8          	mov    %rax,-0x48(%rbp)
  4091f4:	48 8d 55 b8          	lea    -0x48(%rbp),%rdx
  4091f8:	48 8d 45 b0          	lea    -0x50(%rbp),%rax
  4091fc:	48 89 d6             	mov    %rdx,%rsi
  4091ff:	48 89 c7             	mov    %rax,%rdi
  409202:	e8 a5 19 00 00       	callq  40abac <_ZN9__gnu_cxxneIPSt4pairISt6threadbESt6vectorIS3_SaIS3_EEEEbRKNS_17__normal_iteratorIT_T0_EESD_>
  409207:	84 c0                	test   %al,%al
  409209:	74 49                	je     409254 <_ZZ10run_serveriSt8functionIFviEEENKUlvE_clEv+0xe4>
  40920b:	48 8d 45 b0          	lea    -0x50(%rbp),%rax
  40920f:	48 89 c7             	mov    %rax,%rdi
  409212:	e8 f1 19 00 00       	callq  40ac08 <_ZNK9__gnu_cxx17__normal_iteratorIPSt4pairISt6threadbESt6vectorIS3_SaIS3_EEEdeEv>
  409217:	48 89 45 c8          	mov    %rax,-0x38(%rbp)
  40921b:	e8 5d 12 00 00       	callq  40a47d <_ZNSt11this_thread6get_idEv>
  409220:	48 89 c3             	mov    %rax,%rbx
  409223:	48 8b 45 c8          	mov    -0x38(%rbp),%rax
  409227:	48 89 c7             	mov    %rax,%rdi
  40922a:	e8 3d 12 00 00       	callq  40a46c <_ZNKSt6thread6get_idEv>
  40922f:	48 89 de             	mov    %rbx,%rsi
  409232:	48 89 c7             	mov    %rax,%rdi
  409235:	e8 08 11 00 00       	callq  40a342 <_ZSteqNSt6thread2idES0_>
  40923a:	84 c0                	test   %al,%al
  40923c:	74 08                	je     409246 <_ZZ10run_serveriSt8functionIFviEEENKUlvE_clEv+0xd6>
  40923e:	48 8b 45 c8          	mov    -0x38(%rbp),%rax
  409242:	c6 40 08 01          	movb   $0x1,0x8(%rax)
  409246:	48 8d 45 b0          	lea    -0x50(%rbp),%rax
  40924a:	48 89 c7             	mov    %rax,%rdi
  40924d:	e8 96 19 00 00       	callq  40abe8 <_ZN9__gnu_cxx17__normal_iteratorIPSt4pairISt6threadbESt6vectorIS3_SaIS3_EEEppEv>
  409252:	eb a0                	jmp    4091f4 <_ZZ10run_serveriSt8functionIFviEEENKUlvE_clEv+0x84>
  409254:	48 8d 45 a8          	lea    -0x58(%rbp),%rax
  409258:	48 89 c7             	mov    %rax,%rdi
  40925b:	e8 3c 18 00 00       	callq  40aa9c <_ZNSt10lock_guardISt5mutexED1Ev>
  409260:	90                   	nop
  409261:	48 8b 45 e8          	mov    -0x18(%rbp),%rax
  409265:	64 48 33 04 25 28 00 	xor    %fs:0x28,%rax
  40926c:	00 00 
  40926e:	74 5c                	je     4092cc <_ZZ10run_serveriSt8functionIFviEEENKUlvE_clEv+0x15c>
  409270:	eb 55                	jmp    4092c7 <_ZZ10run_serveriSt8functionIFviEEENKUlvE_clEv+0x157>
  409272:	48 89 c3             	mov    %rax,%rbx
  409275:	48 89 d0             	mov    %rdx,%rax
  409278:	48 83 f8 01          	cmp    $0x1,%rax
  40927c:	74 0b                	je     409289 <_ZZ10run_serveriSt8functionIFviEEENKUlvE_clEv+0x119>
  40927e:	48 89 d8             	mov    %rbx,%rax
  409281:	48 89 c7             	mov    %rax,%rdi
  409284:	e8 67 9e ff ff       	callq  4030f0 <_Unwind_Resume@plt>
  409289:	48 89 d8             	mov    %rbx,%rax
  40928c:	48 89 c7             	mov    %rax,%rdi
  40928f:	e8 ec 9c ff ff       	callq  402f80 <__cxa_get_exception_ptr@plt>
  409294:	48 89 c2             	mov    %rax,%rdx
  409297:	48 8d 45 d0          	lea    -0x30(%rbp),%rax
  40929b:	48 89 d6             	mov    %rdx,%rsi
  40929e:	48 89 c7             	mov    %rax,%rdi
  4092a1:	e8 0a 9a ff ff       	callq  402cb0 <_ZNSt13runtime_errorC1ERKS_@plt>
  4092a6:	48 89 d8             	mov    %rbx,%rax
  4092a9:	48 89 c7             	mov    %rax,%rdi
  4092ac:	e8 df 99 ff ff       	callq  402c90 <__cxa_begin_catch@plt>
  4092b1:	48 8d 45 d0          	lea    -0x30(%rbp),%rax
  4092b5:	48 89 c7             	mov    %rax,%rdi
  4092b8:	e8 23 9c ff ff       	callq  402ee0 <_ZNSt13runtime_errorD1Ev@plt>
  4092bd:	e8 ae 9d ff ff       	callq  403070 <__cxa_end_catch@plt>
  4092c2:	e9 dd fe ff ff       	jmpq   4091a4 <_ZZ10run_serveriSt8functionIFviEEENKUlvE_clEv+0x34>
  4092c7:	e8 74 9c ff ff       	callq  402f40 <__stack_chk_fail@plt>
  4092cc:	48 83 c4 68          	add    $0x68,%rsp
  4092d0:	5b                   	pop    %rbx
  4092d1:	5d                   	pop    %rbp
  4092d2:	c3                   	retq   

00000000004092d3 <_Z10run_serveriSt8functionIFviEE>:
  4092d3:	55                   	push   %rbp
  4092d4:	48 89 e5             	mov    %rsp,%rbp
  4092d7:	41 54                	push   %r12
  4092d9:	53                   	push   %rbx
  4092da:	48 81 ec e0 00 00 00 	sub    $0xe0,%rsp
  4092e1:	89 bd 1c ff ff ff    	mov    %edi,-0xe4(%rbp)
  4092e7:	48 89 b5 10 ff ff ff 	mov    %rsi,-0xf0(%rbp)
  4092ee:	64 48 8b 04 25 28 00 	mov    %fs:0x28,%rax
  4092f5:	00 00 
  4092f7:	48 89 45 e8          	mov    %rax,-0x18(%rbp)
  4092fb:	31 c0                	xor    %eax,%eax
  4092fd:	ba 00 00 00 00       	mov    $0x0,%edx
  409302:	be 01 00 00 00       	mov    $0x1,%esi
  409307:	bf 02 00 00 00       	mov    $0x2,%edi
  40930c:	e8 df 98 ff ff       	callq  402bf0 <socket@plt>
  409311:	89 85 28 ff ff ff    	mov    %eax,-0xd8(%rbp)
  409317:	83 bd 28 ff ff ff ff 	cmpl   $0xffffffff,-0xd8(%rbp)
  40931e:	75 0a                	jne    40932a <_Z10run_serveriSt8functionIFviEE+0x57>
  409320:	bf fc db 40 00       	mov    $0x40dbfc,%edi
  409325:	e8 d9 ee ff ff       	callq  408203 <_Z5errorPKc>
  40932a:	c7 85 20 ff ff ff 01 	movl   $0x1,-0xe0(%rbp)
  409331:	00 00 00 
  409334:	48 8d 95 20 ff ff ff 	lea    -0xe0(%rbp),%rdx
  40933b:	8b 85 28 ff ff ff    	mov    -0xd8(%rbp),%eax
  409341:	41 b8 04 00 00 00    	mov    $0x4,%r8d
  409347:	48 89 d1             	mov    %rdx,%rcx
  40934a:	ba 02 00 00 00       	mov    $0x2,%edx
  40934f:	be 01 00 00 00       	mov    $0x1,%esi
  409354:	89 c7                	mov    %eax,%edi
  409356:	e8 b5 9d ff ff       	callq  403110 <setsockopt@plt>
  40935b:	c1 e8 1f             	shr    $0x1f,%eax
  40935e:	84 c0                	test   %al,%al
  409360:	74 0a                	je     40936c <_Z10run_serveriSt8functionIFviEE+0x99>
  409362:	bf fc db 40 00       	mov    $0x40dbfc,%edi
  409367:	e8 97 ee ff ff       	callq  408203 <_Z5errorPKc>
  40936c:	66 c7 45 a0 02 00    	movw   $0x2,-0x60(%rbp)
  409372:	bf 4b dc 40 00       	mov    $0x40dc4b,%edi
  409377:	e8 44 9b ff ff       	callq  402ec0 <inet_addr@plt>
  40937c:	89 45 a4             	mov    %eax,-0x5c(%rbp)
  40937f:	8b 85 1c ff ff ff    	mov    -0xe4(%rbp),%eax
  409385:	0f b7 c0             	movzwl %ax,%eax
  409388:	89 c7                	mov    %eax,%edi
  40938a:	e8 01 98 ff ff       	callq  402b90 <htons@plt>
  40938f:	66 89 45 a2          	mov    %ax,-0x5e(%rbp)
  409393:	48 8d 4d a0          	lea    -0x60(%rbp),%rcx
  409397:	8b 85 28 ff ff ff    	mov    -0xd8(%rbp),%eax
  40939d:	ba 10 00 00 00       	mov    $0x10,%edx
  4093a2:	48 89 ce             	mov    %rcx,%rsi
  4093a5:	89 c7                	mov    %eax,%edi
  4093a7:	e8 f4 97 ff ff       	callq  402ba0 <bind@plt>
  4093ac:	85 c0                	test   %eax,%eax
  4093ae:	0f 95 c0             	setne  %al
  4093b1:	84 c0                	test   %al,%al
  4093b3:	74 0a                	je     4093bf <_Z10run_serveriSt8functionIFviEE+0xec>
  4093b5:	bf fc db 40 00       	mov    $0x40dbfc,%edi
  4093ba:	e8 44 ee ff ff       	callq  408203 <_Z5errorPKc>
  4093bf:	8b 85 28 ff ff ff    	mov    -0xd8(%rbp),%eax
  4093c5:	be 0a 00 00 00       	mov    $0xa,%esi
  4093ca:	89 c7                	mov    %eax,%edi
  4093cc:	e8 7f 9b ff ff       	callq  402f50 <listen@plt>
  4093d1:	85 c0                	test   %eax,%eax
  4093d3:	0f 95 c0             	setne  %al
  4093d6:	84 c0                	test   %al,%al
  4093d8:	74 0a                	je     4093e4 <_Z10run_serveriSt8functionIFviEE+0x111>
  4093da:	bf fc db 40 00       	mov    $0x40dbfc,%edi
  4093df:	e8 1f ee ff ff       	callq  408203 <_Z5errorPKc>
  4093e4:	48 8d 85 60 ff ff ff 	lea    -0xa0(%rbp),%rax
  4093eb:	48 89 c7             	mov    %rax,%rdi
  4093ee:	e8 1b 16 00 00       	callq  40aa0e <_ZNSt6vectorISt4pairISt6threadbESaIS2_EEC1Ev>
  4093f3:	48 c7 45 c0 00 00 00 	movq   $0x0,-0x40(%rbp)
  4093fa:	00 
  4093fb:	48 c7 45 c8 00 00 00 	movq   $0x0,-0x38(%rbp)
  409402:	00 
  409403:	48 c7 45 d0 00 00 00 	movq   $0x0,-0x30(%rbp)
  40940a:	00 
  40940b:	48 c7 45 d8 00 00 00 	movq   $0x0,-0x28(%rbp)
  409412:	00 
  409413:	48 c7 45 e0 00 00 00 	movq   $0x0,-0x20(%rbp)
  40941a:	00 
  40941b:	c7 85 24 ff ff ff 10 	movl   $0x10,-0xdc(%rbp)
  409422:	00 00 00 
  409425:	48 8d 95 24 ff ff ff 	lea    -0xdc(%rbp),%rdx
  40942c:	48 8d 4d b0          	lea    -0x50(%rbp),%rcx
  409430:	8b 85 28 ff ff ff    	mov    -0xd8(%rbp),%eax
  409436:	48 89 ce             	mov    %rcx,%rsi
  409439:	89 c7                	mov    %eax,%edi
  40943b:	e8 00 98 ff ff       	callq  402c40 <accept@plt>
  409440:	89 85 2c ff ff ff    	mov    %eax,-0xd4(%rbp)
  409446:	83 bd 2c ff ff ff 00 	cmpl   $0x0,-0xd4(%rbp)
  40944d:	79 0a                	jns    409459 <_Z10run_serveriSt8functionIFviEE+0x186>
  40944f:	bf fc db 40 00       	mov    $0x40dbfc,%edi
  409454:	e8 aa ed ff ff       	callq  408203 <_Z5errorPKc>
  409459:	48 8d 55 c0          	lea    -0x40(%rbp),%rdx
  40945d:	48 8d 85 30 ff ff ff 	lea    -0xd0(%rbp),%rax
  409464:	48 89 d6             	mov    %rdx,%rsi
  409467:	48 89 c7             	mov    %rax,%rdi
  40946a:	e8 ff 15 00 00       	callq  40aa6e <_ZNSt10lock_guardISt5mutexEC1ERS0_>
  40946f:	c6 85 48 ff ff ff 00 	movb   $0x0,-0xb8(%rbp)
  409476:	8b 85 2c ff ff ff    	mov    -0xd4(%rbp),%eax
  40947c:	89 45 80             	mov    %eax,-0x80(%rbp)
  40947f:	48 8d 85 60 ff ff ff 	lea    -0xa0(%rbp),%rax
  409486:	48 89 45 88          	mov    %rax,-0x78(%rbp)
  40948a:	48 8b 85 10 ff ff ff 	mov    -0xf0(%rbp),%rax
  409491:	48 89 45 90          	mov    %rax,-0x70(%rbp)
  409495:	48 8d 45 c0          	lea    -0x40(%rbp),%rax
  409499:	48 89 45 98          	mov    %rax,-0x68(%rbp)
  40949d:	48 8d 95 48 ff ff ff 	lea    -0xb8(%rbp),%rdx
  4094a4:	48 8d 4d 80          	lea    -0x80(%rbp),%rcx
  4094a8:	48 8d 85 60 ff ff ff 	lea    -0xa0(%rbp),%rax
  4094af:	48 89 ce             	mov    %rcx,%rsi
  4094b2:	48 89 c7             	mov    %rax,%rdi
  4094b5:	e8 8e 01 00 00       	callq  409648 <_ZNSt6vectorISt4pairISt6threadbESaIS2_EE12emplace_backIJZ10run_serveriSt8functionIFviEEEUlvE_bEEEvDpOT_>
  4094ba:	48 8d 85 60 ff ff ff 	lea    -0xa0(%rbp),%rax
  4094c1:	48 89 85 50 ff ff ff 	mov    %rax,-0xb0(%rbp)
  4094c8:	48 8b 85 50 ff ff ff 	mov    -0xb0(%rbp),%rax
  4094cf:	48 89 c7             	mov    %rax,%rdi
  4094d2:	e8 41 16 00 00       	callq  40ab18 <_ZNSt6vectorISt4pairISt6threadbESaIS2_EE5beginEv>
  4094d7:	48 89 85 48 ff ff ff 	mov    %rax,-0xb8(%rbp)
  4094de:	48 8b 85 50 ff ff ff 	mov    -0xb0(%rbp),%rax
  4094e5:	48 89 c7             	mov    %rax,%rdi
  4094e8:	e8 73 16 00 00       	callq  40ab60 <_ZNSt6vectorISt4pairISt6threadbESaIS2_EE3endEv>
  4094ed:	48 89 45 80          	mov    %rax,-0x80(%rbp)
  4094f1:	48 8d 55 80          	lea    -0x80(%rbp),%rdx
  4094f5:	48 8d 85 48 ff ff ff 	lea    -0xb8(%rbp),%rax
  4094fc:	48 89 d6             	mov    %rdx,%rsi
  4094ff:	48 89 c7             	mov    %rax,%rdi
  409502:	e8 a5 16 00 00       	callq  40abac <_ZN9__gnu_cxxneIPSt4pairISt6threadbESt6vectorIS3_SaIS3_EEEEbRKNS_17__normal_iteratorIT_T0_EESD_>
  409507:	84 c0                	test   %al,%al
  409509:	74 45                	je     409550 <_Z10run_serveriSt8functionIFviEE+0x27d>
  40950b:	48 8d 85 48 ff ff ff 	lea    -0xb8(%rbp),%rax
  409512:	48 89 c7             	mov    %rax,%rdi
  409515:	e8 ee 16 00 00       	callq  40ac08 <_ZNK9__gnu_cxx17__normal_iteratorIPSt4pairISt6threadbESt6vectorIS3_SaIS3_EEEdeEv>
  40951a:	48 89 85 58 ff ff ff 	mov    %rax,-0xa8(%rbp)
  409521:	48 8b 85 58 ff ff ff 	mov    -0xa8(%rbp),%rax
  409528:	0f b6 40 08          	movzbl 0x8(%rax),%eax
  40952c:	84 c0                	test   %al,%al
  40952e:	74 0f                	je     40953f <_Z10run_serveriSt8functionIFviEE+0x26c>
  409530:	48 8b 85 58 ff ff ff 	mov    -0xa8(%rbp),%rax
  409537:	48 89 c7             	mov    %rax,%rdi
  40953a:	e8 81 9b ff ff       	callq  4030c0 <_ZNSt6thread4joinEv@plt>
  40953f:	48 8d 85 48 ff ff ff 	lea    -0xb8(%rbp),%rax
  409546:	48 89 c7             	mov    %rax,%rdi
  409549:	e8 9a 16 00 00       	callq  40abe8 <_ZN9__gnu_cxx17__normal_iteratorIPSt4pairISt6threadbESt6vectorIS3_SaIS3_EEEppEv>
  40954e:	eb a1                	jmp    4094f1 <_Z10run_serveriSt8functionIFviEE+0x21e>
  409550:	48 8d 85 60 ff ff ff 	lea    -0xa0(%rbp),%rax
  409557:	48 89 c7             	mov    %rax,%rdi
  40955a:	e8 01 16 00 00       	callq  40ab60 <_ZNSt6vectorISt4pairISt6threadbESaIS2_EE3endEv>
  40955f:	48 89 85 40 ff ff ff 	mov    %rax,-0xc0(%rbp)
  409566:	48 8d 95 40 ff ff ff 	lea    -0xc0(%rbp),%rdx
  40956d:	48 8d 45 80          	lea    -0x80(%rbp),%rax
  409571:	48 89 d6             	mov    %rdx,%rsi
  409574:	48 89 c7             	mov    %rax,%rdi
  409577:	e8 9e 16 00 00       	callq  40ac1a <_ZN9__gnu_cxx17__normal_iteratorIPKSt4pairISt6threadbESt6vectorIS3_SaIS3_EEEC1IPS3_EERKNS0_IT_NS_11__enable_ifIXsrSt10__are_sameISC_SB_E7__valueES8_E6__typeEEE>
  40957c:	48 8d 85 60 ff ff ff 	lea    -0xa0(%rbp),%rax
  409583:	48 89 c7             	mov    %rax,%rdi
  409586:	e8 d5 15 00 00       	callq  40ab60 <_ZNSt6vectorISt4pairISt6threadbESaIS2_EE3endEv>
  40958b:	48 89 c3             	mov    %rax,%rbx
  40958e:	48 8d 85 60 ff ff ff 	lea    -0xa0(%rbp),%rax
  409595:	48 89 c7             	mov    %rax,%rdi
  409598:	e8 7b 15 00 00       	callq  40ab18 <_ZNSt6vectorISt4pairISt6threadbESaIS2_EE5beginEv>
  40959d:	48 83 ec 08          	sub    $0x8,%rsp
  4095a1:	41 54                	push   %r12
  4095a3:	48 89 de             	mov    %rbx,%rsi
  4095a6:	48 89 c7             	mov    %rax,%rdi
  4095a9:	e8 47 01 00 00       	callq  4096f5 <_ZSt9remove_ifIN9__gnu_cxx17__normal_iteratorIPSt4pairISt6threadbESt6vectorIS4_SaIS4_EEEEZ10run_serveriSt8functionIFviEEEUlRKT_E0_ESD_SD_SD_T0_>
  4095ae:	48 83 c4 10          	add    $0x10,%rsp
  4095b2:	48 89 85 38 ff ff ff 	mov    %rax,-0xc8(%rbp)
  4095b9:	48 8d 95 38 ff ff ff 	lea    -0xc8(%rbp),%rdx
  4095c0:	48 8d 85 48 ff ff ff 	lea    -0xb8(%rbp),%rax
  4095c7:	48 89 d6             	mov    %rdx,%rsi
  4095ca:	48 89 c7             	mov    %rax,%rdi
  4095cd:	e8 48 16 00 00       	callq  40ac1a <_ZN9__gnu_cxx17__normal_iteratorIPKSt4pairISt6threadbESt6vectorIS3_SaIS3_EEEC1IPS3_EERKNS0_IT_NS_11__enable_ifIXsrSt10__are_sameISC_SB_E7__valueES8_E6__typeEEE>
  4095d2:	48 8b 55 80          	mov    -0x80(%rbp),%rdx
  4095d6:	48 8b 8d 48 ff ff ff 	mov    -0xb8(%rbp),%rcx
  4095dd:	48 8d 85 60 ff ff ff 	lea    -0xa0(%rbp),%rax
  4095e4:	48 89 ce             	mov    %rcx,%rsi
  4095e7:	48 89 c7             	mov    %rax,%rdi
  4095ea:	e8 55 16 00 00       	callq  40ac44 <_ZNSt6vectorISt4pairISt6threadbESaIS2_EE5eraseEN9__gnu_cxx17__normal_iteratorIPKS2_S4_EES9_>
  4095ef:	48 8d 85 30 ff ff ff 	lea    -0xd0(%rbp),%rax
  4095f6:	48 89 c7             	mov    %rax,%rdi
  4095f9:	e8 9e 14 00 00       	callq  40aa9c <_ZNSt10lock_guardISt5mutexED1Ev>
  4095fe:	e9 18 fe ff ff       	jmpq   40941b <_Z10run_serveriSt8functionIFviEE+0x148>
  409603:	48 89 c3             	mov    %rax,%rbx
  409606:	eb 03                	jmp    40960b <_Z10run_serveriSt8functionIFviEE+0x338>
  409608:	48 89 c3             	mov    %rax,%rbx
  40960b:	48 8d 85 30 ff ff ff 	lea    -0xd0(%rbp),%rax
  409612:	48 89 c7             	mov    %rax,%rdi
  409615:	e8 82 14 00 00       	callq  40aa9c <_ZNSt10lock_guardISt5mutexED1Ev>
  40961a:	eb 03                	jmp    40961f <_Z10run_serveriSt8functionIFviEE+0x34c>
  40961c:	48 89 c3             	mov    %rax,%rbx
  40961f:	48 8d 85 60 ff ff ff 	lea    -0xa0(%rbp),%rax
  409626:	48 89 c7             	mov    %rax,%rdi
  409629:	e8 fc 13 00 00       	callq  40aa2a <_ZNSt6vectorISt4pairISt6threadbESaIS2_EED1Ev>
  40962e:	48 89 d8             	mov    %rbx,%rax
  409631:	48 89 c7             	mov    %rax,%rdi
  409634:	e8 b7 9a ff ff       	callq  4030f0 <_Unwind_Resume@plt>

0000000000409639 <_ZSt7forwardIZ10run_serveriSt8functionIFviEEEUlvE_EOT_RNSt16remove_referenceIS4_E4typeE>:
  409639:	55                   	push   %rbp
  40963a:	48 89 e5             	mov    %rsp,%rbp
  40963d:	48 89 7d f8          	mov    %rdi,-0x8(%rbp)
  409641:	48 8b 45 f8          	mov    -0x8(%rbp),%rax
  409645:	5d                   	pop    %rbp
  409646:	c3                   	retq   
  409647:	90                   	nop

0000000000409648 <_ZNSt6vectorISt4pairISt6threadbESaIS2_EE12emplace_backIJZ10run_serveriSt8functionIFviEEEUlvE_bEEEvDpOT_>:
  409648:	55                   	push   %rbp
  409649:	48 89 e5             	mov    %rsp,%rbp
  40964c:	53                   	push   %rbx
  40964d:	48 83 ec 28          	sub    $0x28,%rsp
  409651:	48 89 7d e8          	mov    %rdi,-0x18(%rbp)
  409655:	48 89 75 e0          	mov    %rsi,-0x20(%rbp)
  409659:	48 89 55 d8          	mov    %rdx,-0x28(%rbp)
  40965d:	48 8b 45 e8          	mov    -0x18(%rbp),%rax
  409661:	48 8b 50 08          	mov    0x8(%rax),%rdx
  409665:	48 8b 45 e8          	mov    -0x18(%rbp),%rax
  409669:	48 8b 40 10          	mov    0x10(%rax),%rax
  40966d:	48 39 c2             	cmp    %rax,%rdx
  409670:	74 4b                	je     4096bd <_ZNSt6vectorISt4pairISt6threadbESaIS2_EE12emplace_backIJZ10run_serveriSt8functionIFviEEEUlvE_bEEEvDpOT_+0x75>
  409672:	48 8b 45 d8          	mov    -0x28(%rbp),%rax
  409676:	48 89 c7             	mov    %rax,%rdi
  409679:	e8 76 c5 ff ff       	callq  405bf4 <_ZSt7forwardIbEOT_RNSt16remove_referenceIS0_E4typeE>
  40967e:	48 89 c3             	mov    %rax,%rbx
  409681:	48 8b 45 e0          	mov    -0x20(%rbp),%rax
  409685:	48 89 c7             	mov    %rax,%rdi
  409688:	e8 ac ff ff ff       	callq  409639 <_ZSt7forwardIZ10run_serveriSt8functionIFviEEEUlvE_EOT_RNSt16remove_referenceIS4_E4typeE>
  40968d:	48 89 c2             	mov    %rax,%rdx
  409690:	48 8b 45 e8          	mov    -0x18(%rbp),%rax
  409694:	48 8b 70 08          	mov    0x8(%rax),%rsi
  409698:	48 8b 45 e8          	mov    -0x18(%rbp),%rax
  40969c:	48 89 d9             	mov    %rbx,%rcx
  40969f:	48 89 c7             	mov    %rax,%rdi
  4096a2:	e8 8f 00 00 00       	callq  409736 <_ZNSt16allocator_traitsISaISt4pairISt6threadbEEE9constructIS2_JZ10run_serveriSt8functionIFviEEEUlvE_bEEEvRS3_PT_DpOT0_>
  4096a7:	48 8b 45 e8          	mov    -0x18(%rbp),%rax
  4096ab:	48 8b 40 08          	mov    0x8(%rax),%rax
  4096af:	48 8d 50 10          	lea    0x10(%rax),%rdx
  4096b3:	48 8b 45 e8          	mov    -0x18(%rbp),%rax
  4096b7:	48 89 50 08          	mov    %rdx,0x8(%rax)
  4096bb:	eb 30                	jmp    4096ed <_ZNSt6vectorISt4pairISt6threadbESaIS2_EE12emplace_backIJZ10run_serveriSt8functionIFviEEEUlvE_bEEEvDpOT_+0xa5>
  4096bd:	48 8b 45 d8          	mov    -0x28(%rbp),%rax
  4096c1:	48 89 c7             	mov    %rax,%rdi
  4096c4:	e8 2b c5 ff ff       	callq  405bf4 <_ZSt7forwardIbEOT_RNSt16remove_referenceIS0_E4typeE>
  4096c9:	48 89 c3             	mov    %rax,%rbx
  4096cc:	48 8b 45 e0          	mov    -0x20(%rbp),%rax
  4096d0:	48 89 c7             	mov    %rax,%rdi
  4096d3:	e8 61 ff ff ff       	callq  409639 <_ZSt7forwardIZ10run_serveriSt8functionIFviEEEUlvE_EOT_RNSt16remove_referenceIS4_E4typeE>
  4096d8:	48 89 c1             	mov    %rax,%rcx
  4096db:	48 8b 45 e8          	mov    -0x18(%rbp),%rax
  4096df:	48 89 da             	mov    %rbx,%rdx
  4096e2:	48 89 ce             	mov    %rcx,%rsi
  4096e5:	48 89 c7             	mov    %rax,%rdi
  4096e8:	e8 9b 00 00 00       	callq  409788 <_ZNSt6vectorISt4pairISt6threadbESaIS2_EE19_M_emplace_back_auxIJZ10run_serveriSt8functionIFviEEEUlvE_bEEEvDpOT_>
  4096ed:	90                   	nop
  4096ee:	48 83 c4 28          	add    $0x28,%rsp
  4096f2:	5b                   	pop    %rbx
  4096f3:	5d                   	pop    %rbp
  4096f4:	c3                   	retq   

00000000004096f5 <_ZSt9remove_ifIN9__gnu_cxx17__normal_iteratorIPSt4pairISt6threadbESt6vectorIS4_SaIS4_EEEEZ10run_serveriSt8functionIFviEEEUlRKT_E0_ESD_SD_SD_T0_>:
  4096f5:	55                   	push   %rbp
  4096f6:	48 89 e5             	mov    %rsp,%rbp
  4096f9:	53                   	push   %rbx
  4096fa:	48 83 ec 18          	sub    $0x18,%rsp
  4096fe:	48 89 7d e8          	mov    %rdi,-0x18(%rbp)
  409702:	48 89 75 e0          	mov    %rsi,-0x20(%rbp)
  409706:	48 83 ec 08          	sub    $0x8,%rsp
  40970a:	50                   	push   %rax
  40970b:	e8 76 02 00 00       	callq  409986 <_ZN9__gnu_cxx5__ops11__pred_iterIZ10run_serveriSt8functionIFviEEEUlRKT_E0_EENS0_10_Iter_predIS5_EES5_>
  409710:	48 83 c4 10          	add    $0x10,%rsp
  409714:	48 8b 55 e0          	mov    -0x20(%rbp),%rdx
  409718:	48 8b 45 e8          	mov    -0x18(%rbp),%rax
  40971c:	48 83 ec 08          	sub    $0x8,%rsp
  409720:	53                   	push   %rbx
  409721:	48 89 d6             	mov    %rdx,%rsi
  409724:	48 89 c7             	mov    %rax,%rdi
  409727:	e8 a3 02 00 00       	callq  4099cf <_ZSt11__remove_ifIN9__gnu_cxx17__normal_iteratorIPSt4pairISt6threadbESt6vectorIS4_SaIS4_EEEENS0_5__ops10_Iter_predIZ10run_serveriSt8functionIFviEEEUlRKT_E0_EEESF_SF_SF_T0_>
  40972c:	48 83 c4 10          	add    $0x10,%rsp
  409730:	48 8b 5d f8          	mov    -0x8(%rbp),%rbx
  409734:	c9                   	leaveq 
  409735:	c3                   	retq   

0000000000409736 <_ZNSt16allocator_traitsISaISt4pairISt6threadbEEE9constructIS2_JZ10run_serveriSt8functionIFviEEEUlvE_bEEEvRS3_PT_DpOT0_>:
  409736:	55                   	push   %rbp
  409737:	48 89 e5             	mov    %rsp,%rbp
  40973a:	53                   	push   %rbx
  40973b:	48 83 ec 28          	sub    $0x28,%rsp
  40973f:	48 89 7d e8          	mov    %rdi,-0x18(%rbp)
  409743:	48 89 75 e0          	mov    %rsi,-0x20(%rbp)
  409747:	48 89 55 d8          	mov    %rdx,-0x28(%rbp)
  40974b:	48 89 4d d0          	mov    %rcx,-0x30(%rbp)
  40974f:	48 8b 45 d0          	mov    -0x30(%rbp),%rax
  409753:	48 89 c7             	mov    %rax,%rdi
  409756:	e8 99 c4 ff ff       	callq  405bf4 <_ZSt7forwardIbEOT_RNSt16remove_referenceIS0_E4typeE>
  40975b:	48 89 c3             	mov    %rax,%rbx
  40975e:	48 8b 45 d8          	mov    -0x28(%rbp),%rax
  409762:	48 89 c7             	mov    %rax,%rdi
  409765:	e8 cf fe ff ff       	callq  409639 <_ZSt7forwardIZ10run_serveriSt8functionIFviEEEUlvE_EOT_RNSt16remove_referenceIS4_E4typeE>
  40976a:	48 89 c2             	mov    %rax,%rdx
  40976d:	48 8b 75 e0          	mov    -0x20(%rbp),%rsi
  409771:	48 8b 45 e8          	mov    -0x18(%rbp),%rax
  409775:	48 89 d9             	mov    %rbx,%rcx
  409778:	48 89 c7             	mov    %rax,%rdi
  40977b:	e8 a8 03 00 00       	callq  409b28 <_ZN9__gnu_cxx13new_allocatorISt4pairISt6threadbEE9constructIS3_JZ10run_serveriSt8functionIFviEEEUlvE_bEEEvPT_DpOT0_>
  409780:	90                   	nop
  409781:	48 83 c4 28          	add    $0x28,%rsp
  409785:	5b                   	pop    %rbx
  409786:	5d                   	pop    %rbp
  409787:	c3                   	retq   

0000000000409788 <_ZNSt6vectorISt4pairISt6threadbESaIS2_EE19_M_emplace_back_auxIJZ10run_serveriSt8functionIFviEEEUlvE_bEEEvDpOT_>:
  409788:	55                   	push   %rbp
  409789:	48 89 e5             	mov    %rsp,%rbp
  40978c:	41 54                	push   %r12
  40978e:	53                   	push   %rbx
  40978f:	48 83 ec 40          	sub    $0x40,%rsp
  409793:	48 89 7d c8          	mov    %rdi,-0x38(%rbp)
  409797:	48 89 75 c0          	mov    %rsi,-0x40(%rbp)
  40979b:	48 89 55 b8          	mov    %rdx,-0x48(%rbp)
  40979f:	48 8b 45 c8          	mov    -0x38(%rbp),%rax
  4097a3:	ba 53 dc 40 00       	mov    $0x40dc53,%edx
  4097a8:	be 01 00 00 00       	mov    $0x1,%esi
  4097ad:	48 89 c7             	mov    %rax,%rdi
  4097b0:	e8 c7 25 00 00       	callq  40bd7c <_ZNKSt6vectorISt4pairISt6threadbESaIS2_EE12_M_check_lenEmPKc>
  4097b5:	48 89 45 e0          	mov    %rax,-0x20(%rbp)
  4097b9:	48 8b 45 c8          	mov    -0x38(%rbp),%rax
  4097bd:	48 8b 55 e0          	mov    -0x20(%rbp),%rdx
  4097c1:	48 89 d6             	mov    %rdx,%rsi
  4097c4:	48 89 c7             	mov    %rax,%rdi
  4097c7:	e8 9c 26 00 00       	callq  40be68 <_ZNSt12_Vector_baseISt4pairISt6threadbESaIS2_EE11_M_allocateEm>
  4097cc:	48 89 45 e8          	mov    %rax,-0x18(%rbp)
  4097d0:	48 8b 45 e8          	mov    -0x18(%rbp),%rax
  4097d4:	48 89 45 d8          	mov    %rax,-0x28(%rbp)
  4097d8:	48 8b 45 b8          	mov    -0x48(%rbp),%rax
  4097dc:	48 89 c7             	mov    %rax,%rdi
  4097df:	e8 10 c4 ff ff       	callq  405bf4 <_ZSt7forwardIbEOT_RNSt16remove_referenceIS0_E4typeE>
  4097e4:	49 89 c4             	mov    %rax,%r12
  4097e7:	48 8b 45 c0          	mov    -0x40(%rbp),%rax
  4097eb:	48 89 c7             	mov    %rax,%rdi
  4097ee:	e8 46 fe ff ff       	callq  409639 <_ZSt7forwardIZ10run_serveriSt8functionIFviEEEUlvE_EOT_RNSt16remove_referenceIS4_E4typeE>
  4097f3:	48 89 c3             	mov    %rax,%rbx
  4097f6:	48 8b 45 c8          	mov    -0x38(%rbp),%rax
  4097fa:	48 89 c7             	mov    %rax,%rdi
  4097fd:	e8 9a 26 00 00       	callq  40be9c <_ZNKSt6vectorISt4pairISt6threadbESaIS2_EE4sizeEv>
  409802:	48 c1 e0 04          	shl    $0x4,%rax
  409806:	48 89 c2             	mov    %rax,%rdx
  409809:	48 8b 45 e8          	mov    -0x18(%rbp),%rax
  40980d:	48 8d 34 02          	lea    (%rdx,%rax,1),%rsi
  409811:	48 8b 45 c8          	mov    -0x38(%rbp),%rax
  409815:	4c 89 e1             	mov    %r12,%rcx
  409818:	48 89 da             	mov    %rbx,%rdx
  40981b:	48 89 c7             	mov    %rax,%rdi
  40981e:	e8 13 ff ff ff       	callq  409736 <_ZNSt16allocator_traitsISaISt4pairISt6threadbEEE9constructIS2_JZ10run_serveriSt8functionIFviEEEUlvE_bEEEvRS3_PT_DpOT0_>
  409823:	48 c7 45 d8 00 00 00 	movq   $0x0,-0x28(%rbp)
  40982a:	00 
  40982b:	48 8b 45 c8          	mov    -0x38(%rbp),%rax
  40982f:	48 89 c7             	mov    %rax,%rdi
  409832:	e8 43 19 00 00       	callq  40b17a <_ZNSt12_Vector_baseISt4pairISt6threadbESaIS2_EE19_M_get_Tp_allocatorEv>
  409837:	48 89 c1             	mov    %rax,%rcx
  40983a:	48 8b 45 c8          	mov    -0x38(%rbp),%rax
  40983e:	48 8b 70 08          	mov    0x8(%rax),%rsi
  409842:	48 8b 45 c8          	mov    -0x38(%rbp),%rax
  409846:	48 8b 00             	mov    (%rax),%rax
  409849:	48 8b 55 e8          	mov    -0x18(%rbp),%rdx
  40984d:	48 89 c7             	mov    %rax,%rdi
  409850:	e8 6d 26 00 00       	callq  40bec2 <_ZSt34__uninitialized_move_if_noexcept_aIPSt4pairISt6threadbES3_SaIS2_EET0_T_S6_S5_RT1_>
  409855:	48 89 45 d8          	mov    %rax,-0x28(%rbp)
  409859:	48 83 45 d8 10       	addq   $0x10,-0x28(%rbp)
  40985e:	48 8b 45 c8          	mov    -0x38(%rbp),%rax
  409862:	48 89 c7             	mov    %rax,%rdi
  409865:	e8 10 19 00 00       	callq  40b17a <_ZNSt12_Vector_baseISt4pairISt6threadbESaIS2_EE19_M_get_Tp_allocatorEv>
  40986a:	48 89 c2             	mov    %rax,%rdx
  40986d:	48 8b 45 c8          	mov    -0x38(%rbp),%rax
  409871:	48 8b 48 08          	mov    0x8(%rax),%rcx
  409875:	48 8b 45 c8          	mov    -0x38(%rbp),%rax
  409879:	48 8b 00             	mov    (%rax),%rax
  40987c:	48 89 ce             	mov    %rcx,%rsi
  40987f:	48 89 c7             	mov    %rax,%rdi
  409882:	e8 01 19 00 00       	callq  40b188 <_ZSt8_DestroyIPSt4pairISt6threadbES2_EvT_S4_RSaIT0_E>
  409887:	48 8b 45 c8          	mov    -0x38(%rbp),%rax
  40988b:	48 8b 40 10          	mov    0x10(%rax),%rax
  40988f:	48 89 c2             	mov    %rax,%rdx
  409892:	48 8b 45 c8          	mov    -0x38(%rbp),%rax
  409896:	48 8b 00             	mov    (%rax),%rax
  409899:	48 29 c2             	sub    %rax,%rdx
  40989c:	48 89 d0             	mov    %rdx,%rax
  40989f:	48 c1 f8 04          	sar    $0x4,%rax
  4098a3:	48 89 c2             	mov    %rax,%rdx
  4098a6:	48 8b 45 c8          	mov    -0x38(%rbp),%rax
  4098aa:	48 8b 08             	mov    (%rax),%rcx
  4098ad:	48 8b 45 c8          	mov    -0x38(%rbp),%rax
  4098b1:	48 89 ce             	mov    %rcx,%rsi
  4098b4:	48 89 c7             	mov    %rax,%rdi
  4098b7:	e8 3a 24 00 00       	callq  40bcf6 <_ZNSt12_Vector_baseISt4pairISt6threadbESaIS2_EE13_M_deallocateEPS2_m>
  4098bc:	48 8b 45 c8          	mov    -0x38(%rbp),%rax
  4098c0:	48 8b 55 e8          	mov    -0x18(%rbp),%rdx
  4098c4:	48 89 10             	mov    %rdx,(%rax)
  4098c7:	48 8b 45 c8          	mov    -0x38(%rbp),%rax
  4098cb:	48 8b 55 d8          	mov    -0x28(%rbp),%rdx
  4098cf:	48 89 50 08          	mov    %rdx,0x8(%rax)
  4098d3:	48 8b 45 e0          	mov    -0x20(%rbp),%rax
  4098d7:	48 c1 e0 04          	shl    $0x4,%rax
  4098db:	48 89 c2             	mov    %rax,%rdx
  4098de:	48 8b 45 e8          	mov    -0x18(%rbp),%rax
  4098e2:	48 01 c2             	add    %rax,%rdx
  4098e5:	48 8b 45 c8          	mov    -0x38(%rbp),%rax
  4098e9:	48 89 50 10          	mov    %rdx,0x10(%rax)
  4098ed:	e9 8b 00 00 00       	jmpq   40997d <_ZNSt6vectorISt4pairISt6threadbESaIS2_EE19_M_emplace_back_auxIJZ10run_serveriSt8functionIFviEEEUlvE_bEEEvDpOT_+0x1f5>
  4098f2:	48 89 c7             	mov    %rax,%rdi
  4098f5:	e8 96 93 ff ff       	callq  402c90 <__cxa_begin_catch@plt>
  4098fa:	48 83 7d d8 00       	cmpq   $0x0,-0x28(%rbp)
  4098ff:	75 2b                	jne    40992c <_ZNSt6vectorISt4pairISt6threadbESaIS2_EE19_M_emplace_back_auxIJZ10run_serveriSt8functionIFviEEEUlvE_bEEEvDpOT_+0x1a4>
  409901:	48 8b 45 c8          	mov    -0x38(%rbp),%rax
  409905:	48 89 c7             	mov    %rax,%rdi
  409908:	e8 8f 25 00 00       	callq  40be9c <_ZNKSt6vectorISt4pairISt6threadbESaIS2_EE4sizeEv>
  40990d:	48 c1 e0 04          	shl    $0x4,%rax
  409911:	48 89 c2             	mov    %rax,%rdx
  409914:	48 8b 45 e8          	mov    -0x18(%rbp),%rax
  409918:	48 01 c2             	add    %rax,%rdx
  40991b:	48 8b 45 c8          	mov    -0x38(%rbp),%rax
  40991f:	48 89 d6             	mov    %rdx,%rsi
  409922:	48 89 c7             	mov    %rax,%rdi
  409925:	e8 ec 25 00 00       	callq  40bf16 <_ZNSt16allocator_traitsISaISt4pairISt6threadbEEE7destroyIS2_EEvRS3_PT_>
  40992a:	eb 22                	jmp    40994e <_ZNSt6vectorISt4pairISt6threadbESaIS2_EE19_M_emplace_back_auxIJZ10run_serveriSt8functionIFviEEEUlvE_bEEEvDpOT_+0x1c6>
  40992c:	48 8b 45 c8          	mov    -0x38(%rbp),%rax
  409930:	48 89 c7             	mov    %rax,%rdi
  409933:	e8 42 18 00 00       	callq  40b17a <_ZNSt12_Vector_baseISt4pairISt6threadbESaIS2_EE19_M_get_Tp_allocatorEv>
  409938:	48 89 c2             	mov    %rax,%rdx
  40993b:	48 8b 4d d8          	mov    -0x28(%rbp),%rcx
  40993f:	48 8b 45 e8          	mov    -0x18(%rbp),%rax
  409943:	48 89 ce             	mov    %rcx,%rsi
  409946:	48 89 c7             	mov    %rax,%rdi
  409949:	e8 3a 18 00 00       	callq  40b188 <_ZSt8_DestroyIPSt4pairISt6threadbES2_EvT_S4_RSaIT0_E>
  40994e:	48 8b 45 c8          	mov    -0x38(%rbp),%rax
  409952:	48 8b 55 e0          	mov    -0x20(%rbp),%rdx
  409956:	48 8b 4d e8          	mov    -0x18(%rbp),%rcx
  40995a:	48 89 ce             	mov    %rcx,%rsi
  40995d:	48 89 c7             	mov    %rax,%rdi
  409960:	e8 91 23 00 00       	callq  40bcf6 <_ZNSt12_Vector_baseISt4pairISt6threadbESaIS2_EE13_M_deallocateEPS2_m>
  409965:	e8 76 96 ff ff       	callq  402fe0 <__cxa_rethrow@plt>
  40996a:	48 89 c3             	mov    %rax,%rbx
  40996d:	e8 fe 96 ff ff       	callq  403070 <__cxa_end_catch@plt>
  409972:	48 89 d8             	mov    %rbx,%rax
  409975:	48 89 c7             	mov    %rax,%rdi
  409978:	e8 73 97 ff ff       	callq  4030f0 <_Unwind_Resume@plt>
  40997d:	48 83 c4 40          	add    $0x40,%rsp
  409981:	5b                   	pop    %rbx
  409982:	41 5c                	pop    %r12
  409984:	5d                   	pop    %rbp
  409985:	c3                   	retq   

0000000000409986 <_ZN9__gnu_cxx5__ops11__pred_iterIZ10run_serveriSt8functionIFviEEEUlRKT_E0_EENS0_10_Iter_predIS5_EES5_>:
  409986:	55                   	push   %rbp
  409987:	48 89 e5             	mov    %rsp,%rbp
  40998a:	53                   	push   %rbx
  40998b:	48 83 ec 18          	sub    $0x18,%rsp
  40998f:	64 48 8b 04 25 28 00 	mov    %fs:0x28,%rax
  409996:	00 00 
  409998:	48 89 45 e8          	mov    %rax,-0x18(%rbp)
  40999c:	31 c0                	xor    %eax,%eax
  40999e:	48 8d 45 e7          	lea    -0x19(%rbp),%rax
  4099a2:	48 83 ec 08          	sub    $0x8,%rsp
  4099a6:	52                   	push   %rdx
  4099a7:	48 89 c7             	mov    %rax,%rdi
  4099aa:	e8 07 02 00 00       	callq  409bb6 <_ZN9__gnu_cxx5__ops10_Iter_predIZ10run_serveriSt8functionIFviEEEUlRKT_E0_EC1ES8_>
  4099af:	48 83 c4 10          	add    $0x10,%rsp
  4099b3:	89 d8                	mov    %ebx,%eax
  4099b5:	48 8b 4d e8          	mov    -0x18(%rbp),%rcx
  4099b9:	64 48 33 0c 25 28 00 	xor    %fs:0x28,%rcx
  4099c0:	00 00 
  4099c2:	74 05                	je     4099c9 <_ZN9__gnu_cxx5__ops11__pred_iterIZ10run_serveriSt8functionIFviEEEUlRKT_E0_EENS0_10_Iter_predIS5_EES5_+0x43>
  4099c4:	e8 77 95 ff ff       	callq  402f40 <__stack_chk_fail@plt>
  4099c9:	48 8b 5d f8          	mov    -0x8(%rbp),%rbx
  4099cd:	c9                   	leaveq 
  4099ce:	c3                   	retq   

00000000004099cf <_ZSt11__remove_ifIN9__gnu_cxx17__normal_iteratorIPSt4pairISt6threadbESt6vectorIS4_SaIS4_EEEENS0_5__ops10_Iter_predIZ10run_serveriSt8functionIFviEEEUlRKT_E0_EEESF_SF_SF_T0_>:
  4099cf:	55                   	push   %rbp
  4099d0:	48 89 e5             	mov    %rsp,%rbp
  4099d3:	53                   	push   %rbx
  4099d4:	48 83 ec 28          	sub    $0x28,%rsp
  4099d8:	48 89 7d d8          	mov    %rdi,-0x28(%rbp)
  4099dc:	48 89 75 d0          	mov    %rsi,-0x30(%rbp)
  4099e0:	64 48 8b 04 25 28 00 	mov    %fs:0x28,%rax
  4099e7:	00 00 
  4099e9:	48 89 45 e8          	mov    %rax,-0x18(%rbp)
  4099ed:	31 c0                	xor    %eax,%eax
  4099ef:	48 8b 55 d0          	mov    -0x30(%rbp),%rdx
  4099f3:	48 8b 45 d8          	mov    -0x28(%rbp),%rax
  4099f7:	48 83 ec 08          	sub    $0x8,%rsp
  4099fb:	0f b6 4d 10          	movzbl 0x10(%rbp),%ecx
  4099ff:	51                   	push   %rcx
  409a00:	48 89 d6             	mov    %rdx,%rsi
  409a03:	48 89 c7             	mov    %rax,%rdi
  409a06:	e8 b6 01 00 00       	callq  409bc1 <_ZSt9__find_ifIN9__gnu_cxx17__normal_iteratorIPSt4pairISt6threadbESt6vectorIS4_SaIS4_EEEENS0_5__ops10_Iter_predIZ10run_serveriSt8functionIFviEEEUlRKT_E0_EEESF_SF_SF_T0_>
  409a0b:	48 83 c4 10          	add    $0x10,%rsp
  409a0f:	48 89 45 d8          	mov    %rax,-0x28(%rbp)
  409a13:	48 8d 55 d0          	lea    -0x30(%rbp),%rdx
  409a17:	48 8d 45 d8          	lea    -0x28(%rbp),%rax
  409a1b:	48 89 d6             	mov    %rdx,%rsi
  409a1e:	48 89 c7             	mov    %rax,%rdi
  409a21:	e8 16 25 00 00       	callq  40bf3c <_ZN9__gnu_cxxeqIPSt4pairISt6threadbESt6vectorIS3_SaIS3_EEEEbRKNS_17__normal_iteratorIT_T0_EESD_>
  409a26:	84 c0                	test   %al,%al
  409a28:	74 09                	je     409a33 <_ZSt11__remove_ifIN9__gnu_cxx17__normal_iteratorIPSt4pairISt6threadbESt6vectorIS4_SaIS4_EEEENS0_5__ops10_Iter_predIZ10run_serveriSt8functionIFviEEEUlRKT_E0_EEESF_SF_SF_T0_+0x64>
  409a2a:	48 8b 45 d8          	mov    -0x28(%rbp),%rax
  409a2e:	e9 8e 00 00 00       	jmpq   409ac1 <_ZSt11__remove_ifIN9__gnu_cxx17__normal_iteratorIPSt4pairISt6threadbESt6vectorIS4_SaIS4_EEEENS0_5__ops10_Iter_predIZ10run_serveriSt8functionIFviEEEUlRKT_E0_EEESF_SF_SF_T0_+0xf2>
  409a33:	48 8b 45 d8          	mov    -0x28(%rbp),%rax
  409a37:	48 89 45 e0          	mov    %rax,-0x20(%rbp)
  409a3b:	48 8d 45 d8          	lea    -0x28(%rbp),%rax
  409a3f:	48 89 c7             	mov    %rax,%rdi
  409a42:	e8 a1 11 00 00       	callq  40abe8 <_ZN9__gnu_cxx17__normal_iteratorIPSt4pairISt6threadbESt6vectorIS3_SaIS3_EEEppEv>
  409a47:	48 8d 55 d0          	lea    -0x30(%rbp),%rdx
  409a4b:	48 8d 45 d8          	lea    -0x28(%rbp),%rax
  409a4f:	48 89 d6             	mov    %rdx,%rsi
  409a52:	48 89 c7             	mov    %rax,%rdi
  409a55:	e8 52 11 00 00       	callq  40abac <_ZN9__gnu_cxxneIPSt4pairISt6threadbESt6vectorIS3_SaIS3_EEEEbRKNS_17__normal_iteratorIT_T0_EESD_>
  409a5a:	84 c0                	test   %al,%al
  409a5c:	74 5f                	je     409abd <_ZSt11__remove_ifIN9__gnu_cxx17__normal_iteratorIPSt4pairISt6threadbESt6vectorIS4_SaIS4_EEEENS0_5__ops10_Iter_predIZ10run_serveriSt8functionIFviEEEUlRKT_E0_EEESF_SF_SF_T0_+0xee>
  409a5e:	48 8b 45 d8          	mov    -0x28(%rbp),%rax
  409a62:	48 89 c6             	mov    %rax,%rsi
  409a65:	48 8d 7d 10          	lea    0x10(%rbp),%rdi
  409a69:	e8 cc 01 00 00       	callq  409c3a <_ZN9__gnu_cxx5__ops10_Iter_predIZ10run_serveriSt8functionIFviEEEUlRKT_E0_EclINS_17__normal_iteratorIPSt4pairISt6threadbESt6vectorISE_SaISE_EEEEEEbS5_>
  409a6e:	83 f0 01             	xor    $0x1,%eax
  409a71:	84 c0                	test   %al,%al
  409a73:	74 3a                	je     409aaf <_ZSt11__remove_ifIN9__gnu_cxx17__normal_iteratorIPSt4pairISt6threadbESt6vectorIS4_SaIS4_EEEENS0_5__ops10_Iter_predIZ10run_serveriSt8functionIFviEEEUlRKT_E0_EEESF_SF_SF_T0_+0xe0>
  409a75:	48 8d 45 d8          	lea    -0x28(%rbp),%rax
  409a79:	48 89 c7             	mov    %rax,%rdi
  409a7c:	e8 87 11 00 00       	callq  40ac08 <_ZNK9__gnu_cxx17__normal_iteratorIPSt4pairISt6threadbESt6vectorIS3_SaIS3_EEEdeEv>
  409a81:	48 89 c7             	mov    %rax,%rdi
  409a84:	e8 55 17 00 00       	callq  40b1de <_ZSt4moveIRSt4pairISt6threadbEEONSt16remove_referenceIT_E4typeEOS5_>
  409a89:	48 89 c3             	mov    %rax,%rbx
  409a8c:	48 8d 45 e0          	lea    -0x20(%rbp),%rax
  409a90:	48 89 c7             	mov    %rax,%rdi
  409a93:	e8 70 11 00 00       	callq  40ac08 <_ZNK9__gnu_cxx17__normal_iteratorIPSt4pairISt6threadbESt6vectorIS3_SaIS3_EEEdeEv>
  409a98:	48 89 de             	mov    %rbx,%rsi
  409a9b:	48 89 c7             	mov    %rax,%rdi
  409a9e:	e8 e3 24 00 00       	callq  40bf86 <_ZNSt4pairISt6threadbEaSEOS1_>
  409aa3:	48 8d 45 e0          	lea    -0x20(%rbp),%rax
  409aa7:	48 89 c7             	mov    %rax,%rdi
  409aaa:	e8 39 11 00 00       	callq  40abe8 <_ZN9__gnu_cxx17__normal_iteratorIPSt4pairISt6threadbESt6vectorIS3_SaIS3_EEEppEv>
  409aaf:	48 8d 45 d8          	lea    -0x28(%rbp),%rax
  409ab3:	48 89 c7             	mov    %rax,%rdi
  409ab6:	e8 2d 11 00 00       	callq  40abe8 <_ZN9__gnu_cxx17__normal_iteratorIPSt4pairISt6threadbESt6vectorIS3_SaIS3_EEEppEv>
  409abb:	eb 8a                	jmp    409a47 <_ZSt11__remove_ifIN9__gnu_cxx17__normal_iteratorIPSt4pairISt6threadbESt6vectorIS4_SaIS4_EEEENS0_5__ops10_Iter_predIZ10run_serveriSt8functionIFviEEEUlRKT_E0_EEESF_SF_SF_T0_+0x78>
  409abd:	48 8b 45 e0          	mov    -0x20(%rbp),%rax
  409ac1:	48 8b 4d e8          	mov    -0x18(%rbp),%rcx
  409ac5:	64 48 33 0c 25 28 00 	xor    %fs:0x28,%rcx
  409acc:	00 00 
  409ace:	74 05                	je     409ad5 <_ZSt11__remove_ifIN9__gnu_cxx17__normal_iteratorIPSt4pairISt6threadbESt6vectorIS4_SaIS4_EEEENS0_5__ops10_Iter_predIZ10run_serveriSt8functionIFviEEEUlRKT_E0_EEESF_SF_SF_T0_+0x106>
  409ad0:	e8 6b 94 ff ff       	callq  402f40 <__stack_chk_fail@plt>
  409ad5:	48 8b 5d f8          	mov    -0x8(%rbp),%rbx
  409ad9:	c9                   	leaveq 
  409ada:	c3                   	retq   
  409adb:	90                   	nop

0000000000409adc <_ZNSt4pairISt6threadbEC1IZ10run_serveriSt8functionIFviEEEUlvE_bLb0EEEOT_OT0_>:
  409adc:	55                   	push   %rbp
  409add:	48 89 e5             	mov    %rsp,%rbp
  409ae0:	48 83 ec 20          	sub    $0x20,%rsp
  409ae4:	48 89 7d f8          	mov    %rdi,-0x8(%rbp)
  409ae8:	48 89 75 f0          	mov    %rsi,-0x10(%rbp)
  409aec:	48 89 55 e8          	mov    %rdx,-0x18(%rbp)
  409af0:	48 8b 45 f0          	mov    -0x10(%rbp),%rax
  409af4:	48 89 c7             	mov    %rax,%rdi
  409af7:	e8 3d fb ff ff       	callq  409639 <_ZSt7forwardIZ10run_serveriSt8functionIFviEEEUlvE_EOT_RNSt16remove_referenceIS4_E4typeE>
  409afc:	48 89 c2             	mov    %rax,%rdx
  409aff:	48 8b 45 f8          	mov    -0x8(%rbp),%rax
  409b03:	48 89 d6             	mov    %rdx,%rsi
  409b06:	48 89 c7             	mov    %rax,%rdi
  409b09:	e8 5c 01 00 00       	callq  409c6a <_ZNSt6threadC1IZ10run_serveriSt8functionIFviEEEUlvE_JEEEOT_DpOT0_>
  409b0e:	48 8b 45 e8          	mov    -0x18(%rbp),%rax
  409b12:	48 89 c7             	mov    %rax,%rdi
  409b15:	e8 da c0 ff ff       	callq  405bf4 <_ZSt7forwardIbEOT_RNSt16remove_referenceIS0_E4typeE>
  409b1a:	0f b6 10             	movzbl (%rax),%edx
  409b1d:	48 8b 45 f8          	mov    -0x8(%rbp),%rax
  409b21:	88 50 08             	mov    %dl,0x8(%rax)
  409b24:	90                   	nop
  409b25:	c9                   	leaveq 
  409b26:	c3                   	retq   
  409b27:	90                   	nop

0000000000409b28 <_ZN9__gnu_cxx13new_allocatorISt4pairISt6threadbEE9constructIS3_JZ10run_serveriSt8functionIFviEEEUlvE_bEEEvPT_DpOT0_>:
  409b28:	55                   	push   %rbp
  409b29:	48 89 e5             	mov    %rsp,%rbp
  409b2c:	41 56                	push   %r14
  409b2e:	41 55                	push   %r13
  409b30:	41 54                	push   %r12
  409b32:	53                   	push   %rbx
  409b33:	48 83 ec 20          	sub    $0x20,%rsp
  409b37:	48 89 7d d8          	mov    %rdi,-0x28(%rbp)
  409b3b:	48 89 75 d0          	mov    %rsi,-0x30(%rbp)
  409b3f:	48 89 55 c8          	mov    %rdx,-0x38(%rbp)
  409b43:	48 89 4d c0          	mov    %rcx,-0x40(%rbp)
  409b47:	48 8b 45 c8          	mov    -0x38(%rbp),%rax
  409b4b:	48 89 c7             	mov    %rax,%rdi
  409b4e:	e8 e6 fa ff ff       	callq  409639 <_ZSt7forwardIZ10run_serveriSt8functionIFviEEEUlvE_EOT_RNSt16remove_referenceIS4_E4typeE>
  409b53:	49 89 c5             	mov    %rax,%r13
  409b56:	48 8b 45 c0          	mov    -0x40(%rbp),%rax
  409b5a:	48 89 c7             	mov    %rax,%rdi
  409b5d:	e8 92 c0 ff ff       	callq  405bf4 <_ZSt7forwardIbEOT_RNSt16remove_referenceIS0_E4typeE>
  409b62:	49 89 c6             	mov    %rax,%r14
  409b65:	4c 8b 65 d0          	mov    -0x30(%rbp),%r12
  409b69:	4c 89 e6             	mov    %r12,%rsi
  409b6c:	bf 10 00 00 00       	mov    $0x10,%edi
  409b71:	e8 bd ac ff ff       	callq  404833 <_ZnwmPv>
  409b76:	48 89 c3             	mov    %rax,%rbx
  409b79:	48 85 db             	test   %rbx,%rbx
  409b7c:	74 29                	je     409ba7 <_ZN9__gnu_cxx13new_allocatorISt4pairISt6threadbEE9constructIS3_JZ10run_serveriSt8functionIFviEEEUlvE_bEEEvPT_DpOT0_+0x7f>
  409b7e:	4c 89 f2             	mov    %r14,%rdx
  409b81:	4c 89 ee             	mov    %r13,%rsi
  409b84:	48 89 df             	mov    %rbx,%rdi
  409b87:	e8 50 ff ff ff       	callq  409adc <_ZNSt4pairISt6threadbEC1IZ10run_serveriSt8functionIFviEEEUlvE_bLb0EEEOT_OT0_>
  409b8c:	eb 19                	jmp    409ba7 <_ZN9__gnu_cxx13new_allocatorISt4pairISt6threadbEE9constructIS3_JZ10run_serveriSt8functionIFviEEEUlvE_bEEEvPT_DpOT0_+0x7f>
  409b8e:	49 89 c5             	mov    %rax,%r13
  409b91:	4c 89 e6             	mov    %r12,%rsi
  409b94:	48 89 df             	mov    %rbx,%rdi
  409b97:	e8 a9 ac ff ff       	callq  404845 <_ZdlPvS_>
  409b9c:	4c 89 e8             	mov    %r13,%rax
  409b9f:	48 89 c7             	mov    %rax,%rdi
  409ba2:	e8 49 95 ff ff       	callq  4030f0 <_Unwind_Resume@plt>
  409ba7:	90                   	nop
  409ba8:	48 83 c4 20          	add    $0x20,%rsp
  409bac:	5b                   	pop    %rbx
  409bad:	41 5c                	pop    %r12
  409baf:	41 5d                	pop    %r13
  409bb1:	41 5e                	pop    %r14
  409bb3:	5d                   	pop    %rbp
  409bb4:	c3                   	retq   
  409bb5:	90                   	nop

0000000000409bb6 <_ZN9__gnu_cxx5__ops10_Iter_predIZ10run_serveriSt8functionIFviEEEUlRKT_E0_EC1ES8_>:
  409bb6:	55                   	push   %rbp
  409bb7:	48 89 e5             	mov    %rsp,%rbp
  409bba:	48 89 7d f8          	mov    %rdi,-0x8(%rbp)
  409bbe:	90                   	nop
  409bbf:	5d                   	pop    %rbp
  409bc0:	c3                   	retq   

0000000000409bc1 <_ZSt9__find_ifIN9__gnu_cxx17__normal_iteratorIPSt4pairISt6threadbESt6vectorIS4_SaIS4_EEEENS0_5__ops10_Iter_predIZ10run_serveriSt8functionIFviEEEUlRKT_E0_EEESF_SF_SF_T0_>:
  409bc1:	55                   	push   %rbp
  409bc2:	48 89 e5             	mov    %rsp,%rbp
  409bc5:	53                   	push   %rbx
  409bc6:	48 83 ec 28          	sub    $0x28,%rsp
  409bca:	48 89 7d d8          	mov    %rdi,-0x28(%rbp)
  409bce:	48 89 75 d0          	mov    %rsi,-0x30(%rbp)
  409bd2:	64 48 8b 04 25 28 00 	mov    %fs:0x28,%rax
  409bd9:	00 00 
  409bdb:	48 89 45 e8          	mov    %rax,-0x18(%rbp)
  409bdf:	31 c0                	xor    %eax,%eax
  409be1:	48 8d 45 d8          	lea    -0x28(%rbp),%rax
  409be5:	48 89 c7             	mov    %rax,%rdi
  409be8:	e8 da 2b 00 00       	callq  40c7c7 <_ZSt19__iterator_categoryIN9__gnu_cxx17__normal_iteratorIPSt4pairISt6threadbESt6vectorIS4_SaIS4_EEEEENSt15iterator_traitsIT_E17iterator_categoryERKSB_>
  409bed:	48 8b 55 d0          	mov    -0x30(%rbp),%rdx
  409bf1:	48 8b 45 d8          	mov    -0x28(%rbp),%rax
  409bf5:	53                   	push   %rbx
  409bf6:	0f b6 4d 10          	movzbl 0x10(%rbp),%ecx
  409bfa:	51                   	push   %rcx
  409bfb:	48 89 d6             	mov    %rdx,%rsi
  409bfe:	48 89 c7             	mov    %rax,%rdi
  409c01:	e8 24 01 00 00       	callq  409d2a <_ZSt9__find_ifIN9__gnu_cxx17__normal_iteratorIPSt4pairISt6threadbESt6vectorIS4_SaIS4_EEEENS0_5__ops10_Iter_predIZ10run_serveriSt8functionIFviEEEUlRKT_E0_EEESF_SF_SF_T0_St26random_access_iterator_tag>
  409c06:	48 83 c4 10          	add    $0x10,%rsp
  409c0a:	48 8b 5d e8          	mov    -0x18(%rbp),%rbx
  409c0e:	64 48 33 1c 25 28 00 	xor    %fs:0x28,%rbx
  409c15:	00 00 
  409c17:	74 05                	je     409c1e <_ZSt9__find_ifIN9__gnu_cxx17__normal_iteratorIPSt4pairISt6threadbESt6vectorIS4_SaIS4_EEEENS0_5__ops10_Iter_predIZ10run_serveriSt8functionIFviEEEUlRKT_E0_EEESF_SF_SF_T0_+0x5d>
  409c19:	e8 22 93 ff ff       	callq  402f40 <__stack_chk_fail@plt>
  409c1e:	48 8b 5d f8          	mov    -0x8(%rbp),%rbx
  409c22:	c9                   	leaveq 
  409c23:	c3                   	retq   

0000000000409c24 <_ZZ10run_serveriSt8functionIFviEEENKUlRKT_E0_clISt4pairISt6threadbEEEDaS4_>:
  409c24:	55                   	push   %rbp
  409c25:	48 89 e5             	mov    %rsp,%rbp
  409c28:	48 89 7d f8          	mov    %rdi,-0x8(%rbp)
  409c2c:	48 89 75 f0          	mov    %rsi,-0x10(%rbp)
  409c30:	48 8b 45 f0          	mov    -0x10(%rbp),%rax
  409c34:	0f b6 40 08          	movzbl 0x8(%rax),%eax
  409c38:	5d                   	pop    %rbp
  409c39:	c3                   	retq   

0000000000409c3a <_ZN9__gnu_cxx5__ops10_Iter_predIZ10run_serveriSt8functionIFviEEEUlRKT_E0_EclINS_17__normal_iteratorIPSt4pairISt6threadbESt6vectorISE_SaISE_EEEEEEbS5_>:
  409c3a:	55                   	push   %rbp
  409c3b:	48 89 e5             	mov    %rsp,%rbp
  409c3e:	48 83 ec 10          	sub    $0x10,%rsp
  409c42:	48 89 7d f8          	mov    %rdi,-0x8(%rbp)
  409c46:	48 89 75 f0          	mov    %rsi,-0x10(%rbp)
  409c4a:	48 8d 45 f0          	lea    -0x10(%rbp),%rax
  409c4e:	48 89 c7             	mov    %rax,%rdi
  409c51:	e8 b2 0f 00 00       	callq  40ac08 <_ZNK9__gnu_cxx17__normal_iteratorIPSt4pairISt6threadbESt6vectorIS3_SaIS3_EEEdeEv>
  409c56:	48 89 c2             	mov    %rax,%rdx
  409c59:	48 8b 45 f8          	mov    -0x8(%rbp),%rax
  409c5d:	48 89 d6             	mov    %rdx,%rsi
  409c60:	48 89 c7             	mov    %rax,%rdi
  409c63:	e8 bc ff ff ff       	callq  409c24 <_ZZ10run_serveriSt8functionIFviEEENKUlRKT_E0_clISt4pairISt6threadbEEEDaS4_>
  409c68:	c9                   	leaveq 
  409c69:	c3                   	retq   

0000000000409c6a <_ZNSt6threadC1IZ10run_serveriSt8functionIFviEEEUlvE_JEEEOT_DpOT0_>:
  409c6a:	55                   	push   %rbp
  409c6b:	48 89 e5             	mov    %rsp,%rbp
  409c6e:	53                   	push   %rbx
  409c6f:	48 83 ec 58          	sub    $0x58,%rsp
  409c73:	48 89 7d a8          	mov    %rdi,-0x58(%rbp)
  409c77:	48 89 75 a0          	mov    %rsi,-0x60(%rbp)
  409c7b:	64 48 8b 04 25 28 00 	mov    %fs:0x28,%rax
  409c82:	00 00 
  409c84:	48 89 45 e8          	mov    %rax,-0x18(%rbp)
  409c88:	31 c0                	xor    %eax,%eax
  409c8a:	48 8b 45 a8          	mov    -0x58(%rbp),%rax
  409c8e:	48 89 c7             	mov    %rax,%rdi
  409c91:	e8 7c 06 00 00       	callq  40a312 <_ZNSt6thread2idC1Ev>
  409c96:	48 c7 45 b8 10 2d 40 	movq   $0x402d10,-0x48(%rbp)
  409c9d:	00 
  409c9e:	48 8b 45 a0          	mov    -0x60(%rbp),%rax
  409ca2:	48 89 c7             	mov    %rax,%rdi
  409ca5:	e8 8f f9 ff ff       	callq  409639 <_ZSt7forwardIZ10run_serveriSt8functionIFviEEEUlvE_EOT_RNSt16remove_referenceIS4_E4typeE>
  409caa:	48 89 c2             	mov    %rax,%rdx
  409cad:	48 8d 45 c0          	lea    -0x40(%rbp),%rax
  409cb1:	48 89 d6             	mov    %rdx,%rsi
  409cb4:	48 89 c7             	mov    %rax,%rdi
  409cb7:	e8 f2 02 00 00       	callq  409fae <_ZSt13__bind_simpleIZ10run_serveriSt8functionIFviEEEUlvE_JEENSt19_Bind_simple_helperIT_JDpT0_EE6__typeEOS5_DpOS6_>
  409cbc:	48 8d 45 b0          	lea    -0x50(%rbp),%rax
  409cc0:	48 8d 55 c0          	lea    -0x40(%rbp),%rdx
  409cc4:	48 89 d6             	mov    %rdx,%rsi
  409cc7:	48 89 c7             	mov    %rax,%rdi
  409cca:	e8 29 03 00 00       	callq  409ff8 <_ZNSt6thread13_S_make_stateISt12_Bind_simpleIFZ10run_serveriSt8functionIFviEEEUlvE_vEEEESt10unique_ptrINS_6_StateESt14default_deleteIS9_EEOT_>
  409ccf:	48 8b 55 b8          	mov    -0x48(%rbp),%rdx
  409cd3:	48 8d 4d b0          	lea    -0x50(%rbp),%rcx
  409cd7:	48 8b 45 a8          	mov    -0x58(%rbp),%rax
  409cdb:	48 89 ce             	mov    %rcx,%rsi
  409cde:	48 89 c7             	mov    %rax,%rdi
  409ce1:	e8 7a 91 ff ff       	callq  402e60 <_ZNSt6thread15_M_start_threadESt10unique_ptrINS_6_StateESt14default_deleteIS1_EEPFvvE@plt>
  409ce6:	48 8d 45 b0          	lea    -0x50(%rbp),%rax
  409cea:	48 89 c7             	mov    %rax,%rdi
  409ced:	e8 30 30 00 00       	callq  40cd22 <_ZNSt10unique_ptrINSt6thread6_StateESt14default_deleteIS1_EED1Ev>
  409cf2:	90                   	nop
  409cf3:	48 8b 45 e8          	mov    -0x18(%rbp),%rax
  409cf7:	64 48 33 04 25 28 00 	xor    %fs:0x28,%rax
  409cfe:	00 00 
  409d00:	74 21                	je     409d23 <_ZNSt6threadC1IZ10run_serveriSt8functionIFviEEEUlvE_JEEEOT_DpOT0_+0xb9>
  409d02:	eb 1a                	jmp    409d1e <_ZNSt6threadC1IZ10run_serveriSt8functionIFviEEEUlvE_JEEEOT_DpOT0_+0xb4>
  409d04:	48 89 c3             	mov    %rax,%rbx
  409d07:	48 8d 45 b0          	lea    -0x50(%rbp),%rax
  409d0b:	48 89 c7             	mov    %rax,%rdi
  409d0e:	e8 0f 30 00 00       	callq  40cd22 <_ZNSt10unique_ptrINSt6thread6_StateESt14default_deleteIS1_EED1Ev>
  409d13:	48 89 d8             	mov    %rbx,%rax
  409d16:	48 89 c7             	mov    %rax,%rdi
  409d19:	e8 d2 93 ff ff       	callq  4030f0 <_Unwind_Resume@plt>
  409d1e:	e8 1d 92 ff ff       	callq  402f40 <__stack_chk_fail@plt>
  409d23:	48 83 c4 58          	add    $0x58,%rsp
  409d27:	5b                   	pop    %rbx
  409d28:	5d                   	pop    %rbp
  409d29:	c3                   	retq   

0000000000409d2a <_ZSt9__find_ifIN9__gnu_cxx17__normal_iteratorIPSt4pairISt6threadbESt6vectorIS4_SaIS4_EEEENS0_5__ops10_Iter_predIZ10run_serveriSt8functionIFviEEEUlRKT_E0_EEESF_SF_SF_T0_St26random_access_iterator_tag>:
  409d2a:	55                   	push   %rbp
  409d2b:	48 89 e5             	mov    %rsp,%rbp
  409d2e:	48 83 ec 20          	sub    $0x20,%rsp
  409d32:	48 89 7d e8          	mov    %rdi,-0x18(%rbp)
  409d36:	48 89 75 e0          	mov    %rsi,-0x20(%rbp)
  409d3a:	48 8d 55 e8          	lea    -0x18(%rbp),%rdx
  409d3e:	48 8d 45 e0          	lea    -0x20(%rbp),%rax
  409d42:	48 89 d6             	mov    %rdx,%rsi
  409d45:	48 89 c7             	mov    %rax,%rdi
  409d48:	e8 44 23 00 00       	callq  40c091 <_ZN9__gnu_cxxmiIPSt4pairISt6threadbESt6vectorIS3_SaIS3_EEEENS_17__normal_iteratorIT_T0_E15difference_typeERKSB_SE_>
  409d4d:	48 c1 f8 02          	sar    $0x2,%rax
  409d51:	48 89 45 f8          	mov    %rax,-0x8(%rbp)
  409d55:	48 83 7d f8 00       	cmpq   $0x0,-0x8(%rbp)
  409d5a:	0f 8e ae 00 00 00    	jle    409e0e <_ZSt9__find_ifIN9__gnu_cxx17__normal_iteratorIPSt4pairISt6threadbESt6vectorIS4_SaIS4_EEEENS0_5__ops10_Iter_predIZ10run_serveriSt8functionIFviEEEUlRKT_E0_EEESF_SF_SF_T0_St26random_access_iterator_tag+0xe4>
  409d60:	48 8b 45 e8          	mov    -0x18(%rbp),%rax
  409d64:	48 89 c6             	mov    %rax,%rsi
  409d67:	48 8d 7d 10          	lea    0x10(%rbp),%rdi
  409d6b:	e8 ca fe ff ff       	callq  409c3a <_ZN9__gnu_cxx5__ops10_Iter_predIZ10run_serveriSt8functionIFviEEEUlRKT_E0_EclINS_17__normal_iteratorIPSt4pairISt6threadbESt6vectorISE_SaISE_EEEEEEbS5_>
  409d70:	84 c0                	test   %al,%al
  409d72:	74 09                	je     409d7d <_ZSt9__find_ifIN9__gnu_cxx17__normal_iteratorIPSt4pairISt6threadbESt6vectorIS4_SaIS4_EEEENS0_5__ops10_Iter_predIZ10run_serveriSt8functionIFviEEEUlRKT_E0_EEESF_SF_SF_T0_St26random_access_iterator_tag+0x53>
  409d74:	48 8b 45 e8          	mov    -0x18(%rbp),%rax
  409d78:	e9 2e 01 00 00       	jmpq   409eab <_ZSt9__find_ifIN9__gnu_cxx17__normal_iteratorIPSt4pairISt6threadbESt6vectorIS4_SaIS4_EEEENS0_5__ops10_Iter_predIZ10run_serveriSt8functionIFviEEEUlRKT_E0_EEESF_SF_SF_T0_St26random_access_iterator_tag+0x181>
  409d7d:	48 8d 45 e8          	lea    -0x18(%rbp),%rax
  409d81:	48 89 c7             	mov    %rax,%rdi
  409d84:	e8 5f 0e 00 00       	callq  40abe8 <_ZN9__gnu_cxx17__normal_iteratorIPSt4pairISt6threadbESt6vectorIS3_SaIS3_EEEppEv>
  409d89:	48 8b 45 e8          	mov    -0x18(%rbp),%rax
  409d8d:	48 89 c6             	mov    %rax,%rsi
  409d90:	48 8d 7d 10          	lea    0x10(%rbp),%rdi
  409d94:	e8 a1 fe ff ff       	callq  409c3a <_ZN9__gnu_cxx5__ops10_Iter_predIZ10run_serveriSt8functionIFviEEEUlRKT_E0_EclINS_17__normal_iteratorIPSt4pairISt6threadbESt6vectorISE_SaISE_EEEEEEbS5_>
  409d99:	84 c0                	test   %al,%al
  409d9b:	74 09                	je     409da6 <_ZSt9__find_ifIN9__gnu_cxx17__normal_iteratorIPSt4pairISt6threadbESt6vectorIS4_SaIS4_EEEENS0_5__ops10_Iter_predIZ10run_serveriSt8functionIFviEEEUlRKT_E0_EEESF_SF_SF_T0_St26random_access_iterator_tag+0x7c>
  409d9d:	48 8b 45 e8          	mov    -0x18(%rbp),%rax
  409da1:	e9 05 01 00 00       	jmpq   409eab <_ZSt9__find_ifIN9__gnu_cxx17__normal_iteratorIPSt4pairISt6threadbESt6vectorIS4_SaIS4_EEEENS0_5__ops10_Iter_predIZ10run_serveriSt8functionIFviEEEUlRKT_E0_EEESF_SF_SF_T0_St26random_access_iterator_tag+0x181>
  409da6:	48 8d 45 e8          	lea    -0x18(%rbp),%rax
  409daa:	48 89 c7             	mov    %rax,%rdi
  409dad:	e8 36 0e 00 00       	callq  40abe8 <_ZN9__gnu_cxx17__normal_iteratorIPSt4pairISt6threadbESt6vectorIS3_SaIS3_EEEppEv>
  409db2:	48 8b 45 e8          	mov    -0x18(%rbp),%rax
  409db6:	48 89 c6             	mov    %rax,%rsi
  409db9:	48 8d 7d 10          	lea    0x10(%rbp),%rdi
  409dbd:	e8 78 fe ff ff       	callq  409c3a <_ZN9__gnu_cxx5__ops10_Iter_predIZ10run_serveriSt8functionIFviEEEUlRKT_E0_EclINS_17__normal_iteratorIPSt4pairISt6threadbESt6vectorISE_SaISE_EEEEEEbS5_>
  409dc2:	84 c0                	test   %al,%al
  409dc4:	74 09                	je     409dcf <_ZSt9__find_ifIN9__gnu_cxx17__normal_iteratorIPSt4pairISt6threadbESt6vectorIS4_SaIS4_EEEENS0_5__ops10_Iter_predIZ10run_serveriSt8functionIFviEEEUlRKT_E0_EEESF_SF_SF_T0_St26random_access_iterator_tag+0xa5>
  409dc6:	48 8b 45 e8          	mov    -0x18(%rbp),%rax
  409dca:	e9 dc 00 00 00       	jmpq   409eab <_ZSt9__find_ifIN9__gnu_cxx17__normal_iteratorIPSt4pairISt6threadbESt6vectorIS4_SaIS4_EEEENS0_5__ops10_Iter_predIZ10run_serveriSt8functionIFviEEEUlRKT_E0_EEESF_SF_SF_T0_St26random_access_iterator_tag+0x181>
  409dcf:	48 8d 45 e8          	lea    -0x18(%rbp),%rax
  409dd3:	48 89 c7             	mov    %rax,%rdi
  409dd6:	e8 0d 0e 00 00       	callq  40abe8 <_ZN9__gnu_cxx17__normal_iteratorIPSt4pairISt6threadbESt6vectorIS3_SaIS3_EEEppEv>
  409ddb:	48 8b 45 e8          	mov    -0x18(%rbp),%rax
  409ddf:	48 89 c6             	mov    %rax,%rsi
  409de2:	48 8d 7d 10          	lea    0x10(%rbp),%rdi
  409de6:	e8 4f fe ff ff       	callq  409c3a <_ZN9__gnu_cxx5__ops10_Iter_predIZ10run_serveriSt8functionIFviEEEUlRKT_E0_EclINS_17__normal_iteratorIPSt4pairISt6threadbESt6vectorISE_SaISE_EEEEEEbS5_>
  409deb:	84 c0                	test   %al,%al
  409ded:	74 09                	je     409df8 <_ZSt9__find_ifIN9__gnu_cxx17__normal_iteratorIPSt4pairISt6threadbESt6vectorIS4_SaIS4_EEEENS0_5__ops10_Iter_predIZ10run_serveriSt8functionIFviEEEUlRKT_E0_EEESF_SF_SF_T0_St26random_access_iterator_tag+0xce>
  409def:	48 8b 45 e8          	mov    -0x18(%rbp),%rax
  409df3:	e9 b3 00 00 00       	jmpq   409eab <_ZSt9__find_ifIN9__gnu_cxx17__normal_iteratorIPSt4pairISt6threadbESt6vectorIS4_SaIS4_EEEENS0_5__ops10_Iter_predIZ10run_serveriSt8functionIFviEEEUlRKT_E0_EEESF_SF_SF_T0_St26random_access_iterator_tag+0x181>
  409df8:	48 8d 45 e8          	lea    -0x18(%rbp),%rax
  409dfc:	48 89 c7             	mov    %rax,%rdi
  409dff:	e8 e4 0d 00 00       	callq  40abe8 <_ZN9__gnu_cxx17__normal_iteratorIPSt4pairISt6threadbESt6vectorIS3_SaIS3_EEEppEv>
  409e04:	48 83 6d f8 01       	subq   $0x1,-0x8(%rbp)
  409e09:	e9 47 ff ff ff       	jmpq   409d55 <_ZSt9__find_ifIN9__gnu_cxx17__normal_iteratorIPSt4pairISt6threadbESt6vectorIS4_SaIS4_EEEENS0_5__ops10_Iter_predIZ10run_serveriSt8functionIFviEEEUlRKT_E0_EEESF_SF_SF_T0_St26random_access_iterator_tag+0x2b>
  409e0e:	48 8d 55 e8          	lea    -0x18(%rbp),%rdx
  409e12:	48 8d 45 e0          	lea    -0x20(%rbp),%rax
  409e16:	48 89 d6             	mov    %rdx,%rsi
  409e19:	48 89 c7             	mov    %rax,%rdi
  409e1c:	e8 70 22 00 00       	callq  40c091 <_ZN9__gnu_cxxmiIPSt4pairISt6threadbESt6vectorIS3_SaIS3_EEEENS_17__normal_iteratorIT_T0_E15difference_typeERKSB_SE_>
  409e21:	48 83 f8 02          	cmp    $0x2,%rax
  409e25:	74 34                	je     409e5b <_ZSt9__find_ifIN9__gnu_cxx17__normal_iteratorIPSt4pairISt6threadbESt6vectorIS4_SaIS4_EEEENS0_5__ops10_Iter_predIZ10run_serveriSt8functionIFviEEEUlRKT_E0_EEESF_SF_SF_T0_St26random_access_iterator_tag+0x131>
  409e27:	48 83 f8 03          	cmp    $0x3,%rax
  409e2b:	74 08                	je     409e35 <_ZSt9__find_ifIN9__gnu_cxx17__normal_iteratorIPSt4pairISt6threadbESt6vectorIS4_SaIS4_EEEENS0_5__ops10_Iter_predIZ10run_serveriSt8functionIFviEEEUlRKT_E0_EEESF_SF_SF_T0_St26random_access_iterator_tag+0x10b>
  409e2d:	48 83 f8 01          	cmp    $0x1,%rax
  409e31:	74 4e                	je     409e81 <_ZSt9__find_ifIN9__gnu_cxx17__normal_iteratorIPSt4pairISt6threadbESt6vectorIS4_SaIS4_EEEENS0_5__ops10_Iter_predIZ10run_serveriSt8functionIFviEEEUlRKT_E0_EEESF_SF_SF_T0_St26random_access_iterator_tag+0x157>
  409e33:	eb 72                	jmp    409ea7 <_ZSt9__find_ifIN9__gnu_cxx17__normal_iteratorIPSt4pairISt6threadbESt6vectorIS4_SaIS4_EEEENS0_5__ops10_Iter_predIZ10run_serveriSt8functionIFviEEEUlRKT_E0_EEESF_SF_SF_T0_St26random_access_iterator_tag+0x17d>
  409e35:	48 8b 45 e8          	mov    -0x18(%rbp),%rax
  409e39:	48 89 c6             	mov    %rax,%rsi
  409e3c:	48 8d 7d 10          	lea    0x10(%rbp),%rdi
  409e40:	e8 f5 fd ff ff       	callq  409c3a <_ZN9__gnu_cxx5__ops10_Iter_predIZ10run_serveriSt8functionIFviEEEUlRKT_E0_EclINS_17__normal_iteratorIPSt4pairISt6threadbESt6vectorISE_SaISE_EEEEEEbS5_>
  409e45:	84 c0                	test   %al,%al
  409e47:	74 06                	je     409e4f <_ZSt9__find_ifIN9__gnu_cxx17__normal_iteratorIPSt4pairISt6threadbESt6vectorIS4_SaIS4_EEEENS0_5__ops10_Iter_predIZ10run_serveriSt8functionIFviEEEUlRKT_E0_EEESF_SF_SF_T0_St26random_access_iterator_tag+0x125>
  409e49:	48 8b 45 e8          	mov    -0x18(%rbp),%rax
  409e4d:	eb 5c                	jmp    409eab <_ZSt9__find_ifIN9__gnu_cxx17__normal_iteratorIPSt4pairISt6threadbESt6vectorIS4_SaIS4_EEEENS0_5__ops10_Iter_predIZ10run_serveriSt8functionIFviEEEUlRKT_E0_EEESF_SF_SF_T0_St26random_access_iterator_tag+0x181>
  409e4f:	48 8d 45 e8          	lea    -0x18(%rbp),%rax
  409e53:	48 89 c7             	mov    %rax,%rdi
  409e56:	e8 8d 0d 00 00       	callq  40abe8 <_ZN9__gnu_cxx17__normal_iteratorIPSt4pairISt6threadbESt6vectorIS3_SaIS3_EEEppEv>
  409e5b:	48 8b 45 e8          	mov    -0x18(%rbp),%rax
  409e5f:	48 89 c6             	mov    %rax,%rsi
  409e62:	48 8d 7d 10          	lea    0x10(%rbp),%rdi
  409e66:	e8 cf fd ff ff       	callq  409c3a <_ZN9__gnu_cxx5__ops10_Iter_predIZ10run_serveriSt8functionIFviEEEUlRKT_E0_EclINS_17__normal_iteratorIPSt4pairISt6threadbESt6vectorISE_SaISE_EEEEEEbS5_>
  409e6b:	84 c0                	test   %al,%al
  409e6d:	74 06                	je     409e75 <_ZSt9__find_ifIN9__gnu_cxx17__normal_iteratorIPSt4pairISt6threadbESt6vectorIS4_SaIS4_EEEENS0_5__ops10_Iter_predIZ10run_serveriSt8functionIFviEEEUlRKT_E0_EEESF_SF_SF_T0_St26random_access_iterator_tag+0x14b>
  409e6f:	48 8b 45 e8          	mov    -0x18(%rbp),%rax
  409e73:	eb 36                	jmp    409eab <_ZSt9__find_ifIN9__gnu_cxx17__normal_iteratorIPSt4pairISt6threadbESt6vectorIS4_SaIS4_EEEENS0_5__ops10_Iter_predIZ10run_serveriSt8functionIFviEEEUlRKT_E0_EEESF_SF_SF_T0_St26random_access_iterator_tag+0x181>
  409e75:	48 8d 45 e8          	lea    -0x18(%rbp),%rax
  409e79:	48 89 c7             	mov    %rax,%rdi
  409e7c:	e8 67 0d 00 00       	callq  40abe8 <_ZN9__gnu_cxx17__normal_iteratorIPSt4pairISt6threadbESt6vectorIS3_SaIS3_EEEppEv>
  409e81:	48 8b 45 e8          	mov    -0x18(%rbp),%rax
  409e85:	48 89 c6             	mov    %rax,%rsi
  409e88:	48 8d 7d 10          	lea    0x10(%rbp),%rdi
  409e8c:	e8 a9 fd ff ff       	callq  409c3a <_ZN9__gnu_cxx5__ops10_Iter_predIZ10run_serveriSt8functionIFviEEEUlRKT_E0_EclINS_17__normal_iteratorIPSt4pairISt6threadbESt6vectorISE_SaISE_EEEEEEbS5_>
  409e91:	84 c0                	test   %al,%al
  409e93:	74 06                	je     409e9b <_ZSt9__find_ifIN9__gnu_cxx17__normal_iteratorIPSt4pairISt6threadbESt6vectorIS4_SaIS4_EEEENS0_5__ops10_Iter_predIZ10run_serveriSt8functionIFviEEEUlRKT_E0_EEESF_SF_SF_T0_St26random_access_iterator_tag+0x171>
  409e95:	48 8b 45 e8          	mov    -0x18(%rbp),%rax
  409e99:	eb 10                	jmp    409eab <_ZSt9__find_ifIN9__gnu_cxx17__normal_iteratorIPSt4pairISt6threadbESt6vectorIS4_SaIS4_EEEENS0_5__ops10_Iter_predIZ10run_serveriSt8functionIFviEEEUlRKT_E0_EEESF_SF_SF_T0_St26random_access_iterator_tag+0x181>
  409e9b:	48 8d 45 e8          	lea    -0x18(%rbp),%rax
  409e9f:	48 89 c7             	mov    %rax,%rdi
  409ea2:	e8 41 0d 00 00       	callq  40abe8 <_ZN9__gnu_cxx17__normal_iteratorIPSt4pairISt6threadbESt6vectorIS3_SaIS3_EEEppEv>
  409ea7:	48 8b 45 e0          	mov    -0x20(%rbp),%rax
  409eab:	c9                   	leaveq 
  409eac:	c3                   	retq   

0000000000409ead <_ZNSt26_Maybe_wrap_member_pointerIZ10run_serveriSt8functionIFviEEEUlvE_E9__do_wrapEOS3_>:
  409ead:	55                   	push   %rbp
  409eae:	48 89 e5             	mov    %rsp,%rbp
  409eb1:	48 89 7d f8          	mov    %rdi,-0x8(%rbp)
  409eb5:	48 8b 45 f8          	mov    -0x8(%rbp),%rax
  409eb9:	5d                   	pop    %rbp
  409eba:	c3                   	retq   

0000000000409ebb <_ZNSt10_Head_baseILm0EZ10run_serveriSt8functionIFviEEEUlvE_Lb0EE7_M_headERS4_>:
  409ebb:	55                   	push   %rbp
  409ebc:	48 89 e5             	mov    %rsp,%rbp
  409ebf:	48 89 7d f8          	mov    %rdi,-0x8(%rbp)
  409ec3:	48 8b 45 f8          	mov    -0x8(%rbp),%rax
  409ec7:	5d                   	pop    %rbp
  409ec8:	c3                   	retq   

0000000000409ec9 <_ZNSt11_Tuple_implILm0EJZ10run_serveriSt8functionIFviEEEUlvE_EE7_M_headERS4_>:
  409ec9:	55                   	push   %rbp
  409eca:	48 89 e5             	mov    %rsp,%rbp
  409ecd:	48 83 ec 08          	sub    $0x8,%rsp
  409ed1:	48 89 7d f8          	mov    %rdi,-0x8(%rbp)
  409ed5:	48 8b 45 f8          	mov    -0x8(%rbp),%rax
  409ed9:	48 89 c7             	mov    %rax,%rdi
  409edc:	e8 da ff ff ff       	callq  409ebb <_ZNSt10_Head_baseILm0EZ10run_serveriSt8functionIFviEEEUlvE_Lb0EE7_M_headERS4_>
  409ee1:	c9                   	leaveq 
  409ee2:	c3                   	retq   
  409ee3:	90                   	nop

0000000000409ee4 <_ZNSt10_Head_baseILm0EZ10run_serveriSt8functionIFviEEEUlvE_Lb0EEC2IS3_EEOT_>:
  409ee4:	55                   	push   %rbp
  409ee5:	48 89 e5             	mov    %rsp,%rbp
  409ee8:	48 83 ec 10          	sub    $0x10,%rsp
  409eec:	48 89 7d f8          	mov    %rdi,-0x8(%rbp)
  409ef0:	48 89 75 f0          	mov    %rsi,-0x10(%rbp)
  409ef4:	48 8b 45 f0          	mov    -0x10(%rbp),%rax
  409ef8:	48 89 c7             	mov    %rax,%rdi
  409efb:	e8 39 f7 ff ff       	callq  409639 <_ZSt7forwardIZ10run_serveriSt8functionIFviEEEUlvE_EOT_RNSt16remove_referenceIS4_E4typeE>
  409f00:	48 89 c2             	mov    %rax,%rdx
  409f03:	48 8b 45 f8          	mov    -0x8(%rbp),%rax
  409f07:	48 8b 0a             	mov    (%rdx),%rcx
  409f0a:	48 89 08             	mov    %rcx,(%rax)
  409f0d:	48 8b 4a 08          	mov    0x8(%rdx),%rcx
  409f11:	48 89 48 08          	mov    %rcx,0x8(%rax)
  409f15:	48 8b 4a 10          	mov    0x10(%rdx),%rcx
  409f19:	48 89 48 10          	mov    %rcx,0x10(%rax)
  409f1d:	48 8b 52 18          	mov    0x18(%rdx),%rdx
  409f21:	48 89 50 18          	mov    %rdx,0x18(%rax)
  409f25:	90                   	nop
  409f26:	c9                   	leaveq 
  409f27:	c3                   	retq   

0000000000409f28 <_ZNSt11_Tuple_implILm0EJZ10run_serveriSt8functionIFviEEEUlvE_EEC2EOS4_>:
  409f28:	55                   	push   %rbp
  409f29:	48 89 e5             	mov    %rsp,%rbp
  409f2c:	48 83 ec 10          	sub    $0x10,%rsp
  409f30:	48 89 7d f8          	mov    %rdi,-0x8(%rbp)
  409f34:	48 89 75 f0          	mov    %rsi,-0x10(%rbp)
  409f38:	48 8b 45 f0          	mov    -0x10(%rbp),%rax
  409f3c:	48 89 c7             	mov    %rax,%rdi
  409f3f:	e8 85 ff ff ff       	callq  409ec9 <_ZNSt11_Tuple_implILm0EJZ10run_serveriSt8functionIFviEEEUlvE_EE7_M_headERS4_>
  409f44:	48 89 c7             	mov    %rax,%rdi
  409f47:	e8 ed f6 ff ff       	callq  409639 <_ZSt7forwardIZ10run_serveriSt8functionIFviEEEUlvE_EOT_RNSt16remove_referenceIS4_E4typeE>
  409f4c:	48 89 c2             	mov    %rax,%rdx
  409f4f:	48 8b 45 f8          	mov    -0x8(%rbp),%rax
  409f53:	48 89 d6             	mov    %rdx,%rsi
  409f56:	48 89 c7             	mov    %rax,%rdi
  409f59:	e8 86 ff ff ff       	callq  409ee4 <_ZNSt10_Head_baseILm0EZ10run_serveriSt8functionIFviEEEUlvE_Lb0EEC2IS3_EEOT_>
  409f5e:	90                   	nop
  409f5f:	c9                   	leaveq 
  409f60:	c3                   	retq   
  409f61:	90                   	nop

0000000000409f62 <_ZNSt5tupleIJZ10run_serveriSt8functionIFviEEEUlvE_EEC1EOS4_>:
  409f62:	55                   	push   %rbp
  409f63:	48 89 e5             	mov    %rsp,%rbp
  409f66:	48 83 ec 10          	sub    $0x10,%rsp
  409f6a:	48 89 7d f8          	mov    %rdi,-0x8(%rbp)
  409f6e:	48 89 75 f0          	mov    %rsi,-0x10(%rbp)
  409f72:	48 8b 55 f0          	mov    -0x10(%rbp),%rdx
  409f76:	48 8b 45 f8          	mov    -0x8(%rbp),%rax
  409f7a:	48 89 d6             	mov    %rdx,%rsi
  409f7d:	48 89 c7             	mov    %rax,%rdi
  409f80:	e8 a3 ff ff ff       	callq  409f28 <_ZNSt11_Tuple_implILm0EJZ10run_serveriSt8functionIFviEEEUlvE_EEC2EOS4_>
  409f85:	90                   	nop
  409f86:	c9                   	leaveq 
  409f87:	c3                   	retq   

0000000000409f88 <_ZNSt12_Bind_simpleIFZ10run_serveriSt8functionIFviEEEUlvE_vEEC1EOS5_>:
  409f88:	55                   	push   %rbp
  409f89:	48 89 e5             	mov    %rsp,%rbp
  409f8c:	48 83 ec 10          	sub    $0x10,%rsp
  409f90:	48 89 7d f8          	mov    %rdi,-0x8(%rbp)
  409f94:	48 89 75 f0          	mov    %rsi,-0x10(%rbp)
  409f98:	48 8b 55 f0          	mov    -0x10(%rbp),%rdx
  409f9c:	48 8b 45 f8          	mov    -0x8(%rbp),%rax
  409fa0:	48 89 d6             	mov    %rdx,%rsi
  409fa3:	48 89 c7             	mov    %rax,%rdi
  409fa6:	e8 b7 ff ff ff       	callq  409f62 <_ZNSt5tupleIJZ10run_serveriSt8functionIFviEEEUlvE_EEC1EOS4_>
  409fab:	90                   	nop
  409fac:	c9                   	leaveq 
  409fad:	c3                   	retq   

0000000000409fae <_ZSt13__bind_simpleIZ10run_serveriSt8functionIFviEEEUlvE_JEENSt19_Bind_simple_helperIT_JDpT0_EE6__typeEOS5_DpOS6_>:
  409fae:	55                   	push   %rbp
  409faf:	48 89 e5             	mov    %rsp,%rbp
  409fb2:	48 83 ec 10          	sub    $0x10,%rsp
  409fb6:	48 89 7d f8          	mov    %rdi,-0x8(%rbp)
  409fba:	48 89 75 f0          	mov    %rsi,-0x10(%rbp)
  409fbe:	48 8b 45 f0          	mov    -0x10(%rbp),%rax
  409fc2:	48 89 c7             	mov    %rax,%rdi
  409fc5:	e8 6f f6 ff ff       	callq  409639 <_ZSt7forwardIZ10run_serveriSt8functionIFviEEEUlvE_EOT_RNSt16remove_referenceIS4_E4typeE>
  409fca:	48 89 c7             	mov    %rax,%rdi
  409fcd:	e8 db fe ff ff       	callq  409ead <_ZNSt26_Maybe_wrap_member_pointerIZ10run_serveriSt8functionIFviEEEUlvE_E9__do_wrapEOS3_>
  409fd2:	48 89 c2             	mov    %rax,%rdx
  409fd5:	48 8b 45 f8          	mov    -0x8(%rbp),%rax
  409fd9:	48 89 d6             	mov    %rdx,%rsi
  409fdc:	48 89 c7             	mov    %rax,%rdi
  409fdf:	e8 ce 00 00 00       	callq  40a0b2 <_ZNSt12_Bind_simpleIFZ10run_serveriSt8functionIFviEEEUlvE_vEEC1IS3_JEEEOT_DpOT0_>
  409fe4:	48 8b 45 f8          	mov    -0x8(%rbp),%rax
  409fe8:	c9                   	leaveq 
  409fe9:	c3                   	retq   

0000000000409fea <_ZSt7forwardISt12_Bind_simpleIFZ10run_serveriSt8functionIFviEEEUlvE_vEEEOT_RNSt16remove_referenceIS7_E4typeE>:
  409fea:	55                   	push   %rbp
  409feb:	48 89 e5             	mov    %rsp,%rbp
  409fee:	48 89 7d f8          	mov    %rdi,-0x8(%rbp)
  409ff2:	48 8b 45 f8          	mov    -0x8(%rbp),%rax
  409ff6:	5d                   	pop    %rbp
  409ff7:	c3                   	retq   

0000000000409ff8 <_ZNSt6thread13_S_make_stateISt12_Bind_simpleIFZ10run_serveriSt8functionIFviEEEUlvE_vEEEESt10unique_ptrINS_6_StateESt14default_deleteIS9_EEOT_>:
  409ff8:	55                   	push   %rbp
  409ff9:	48 89 e5             	mov    %rsp,%rbp
  409ffc:	41 54                	push   %r12
  409ffe:	53                   	push   %rbx
  409fff:	48 83 ec 10          	sub    $0x10,%rsp
  40a003:	48 89 7d e8          	mov    %rdi,-0x18(%rbp)
  40a007:	48 89 75 e0          	mov    %rsi,-0x20(%rbp)
  40a00b:	48 8b 45 e0          	mov    -0x20(%rbp),%rax
  40a00f:	48 89 c7             	mov    %rax,%rdi
  40a012:	e8 d3 ff ff ff       	callq  409fea <_ZSt7forwardISt12_Bind_simpleIFZ10run_serveriSt8functionIFviEEEUlvE_vEEEOT_RNSt16remove_referenceIS7_E4typeE>
  40a017:	49 89 c4             	mov    %rax,%r12
  40a01a:	bf 28 00 00 00       	mov    $0x28,%edi
  40a01f:	e8 8c 8e ff ff       	callq  402eb0 <_Znwm@plt>
  40a024:	48 89 c3             	mov    %rax,%rbx
  40a027:	4c 89 e6             	mov    %r12,%rsi
  40a02a:	48 89 df             	mov    %rbx,%rdi
  40a02d:	e8 b2 00 00 00       	callq  40a0e4 <_ZNSt6thread11_State_implISt12_Bind_simpleIFZ10run_serveriSt8functionIFviEEEUlvE_vEEEC1EOS7_>
  40a032:	48 8b 45 e8          	mov    -0x18(%rbp),%rax
  40a036:	48 89 de             	mov    %rbx,%rsi
  40a039:	48 89 c7             	mov    %rax,%rdi
  40a03c:	e8 51 32 00 00       	callq  40d292 <_ZNSt10unique_ptrINSt6thread6_StateESt14default_deleteIS1_EEC1EPS1_>
  40a041:	48 8b 45 e8          	mov    -0x18(%rbp),%rax
  40a045:	48 83 c4 10          	add    $0x10,%rsp
  40a049:	5b                   	pop    %rbx
  40a04a:	41 5c                	pop    %r12
  40a04c:	5d                   	pop    %rbp
  40a04d:	c3                   	retq   

000000000040a04e <_ZNSt11_Tuple_implILm0EJZ10run_serveriSt8functionIFviEEEUlvE_EEC2IS3_EEOT_>:
  40a04e:	55                   	push   %rbp
  40a04f:	48 89 e5             	mov    %rsp,%rbp
  40a052:	48 83 ec 10          	sub    $0x10,%rsp
  40a056:	48 89 7d f8          	mov    %rdi,-0x8(%rbp)
  40a05a:	48 89 75 f0          	mov    %rsi,-0x10(%rbp)
  40a05e:	48 8b 45 f0          	mov    -0x10(%rbp),%rax
  40a062:	48 89 c7             	mov    %rax,%rdi
  40a065:	e8 cf f5 ff ff       	callq  409639 <_ZSt7forwardIZ10run_serveriSt8functionIFviEEEUlvE_EOT_RNSt16remove_referenceIS4_E4typeE>
  40a06a:	48 89 c2             	mov    %rax,%rdx
  40a06d:	48 8b 45 f8          	mov    -0x8(%rbp),%rax
  40a071:	48 89 d6             	mov    %rdx,%rsi
  40a074:	48 89 c7             	mov    %rax,%rdi
  40a077:	e8 68 fe ff ff       	callq  409ee4 <_ZNSt10_Head_baseILm0EZ10run_serveriSt8functionIFviEEEUlvE_Lb0EEC2IS3_EEOT_>
  40a07c:	90                   	nop
  40a07d:	c9                   	leaveq 
  40a07e:	c3                   	retq   
  40a07f:	90                   	nop

000000000040a080 <_ZNSt5tupleIJZ10run_serveriSt8functionIFviEEEUlvE_EEC1IJS3_ELb1EEEDpOT_>:
  40a080:	55                   	push   %rbp
  40a081:	48 89 e5             	mov    %rsp,%rbp
  40a084:	48 83 ec 10          	sub    $0x10,%rsp
  40a088:	48 89 7d f8          	mov    %rdi,-0x8(%rbp)
  40a08c:	48 89 75 f0          	mov    %rsi,-0x10(%rbp)
  40a090:	48 8b 45 f0          	mov    -0x10(%rbp),%rax
  40a094:	48 89 c7             	mov    %rax,%rdi
  40a097:	e8 9d f5 ff ff       	callq  409639 <_ZSt7forwardIZ10run_serveriSt8functionIFviEEEUlvE_EOT_RNSt16remove_referenceIS4_E4typeE>
  40a09c:	48 89 c2             	mov    %rax,%rdx
  40a09f:	48 8b 45 f8          	mov    -0x8(%rbp),%rax
  40a0a3:	48 89 d6             	mov    %rdx,%rsi
  40a0a6:	48 89 c7             	mov    %rax,%rdi
  40a0a9:	e8 a0 ff ff ff       	callq  40a04e <_ZNSt11_Tuple_implILm0EJZ10run_serveriSt8functionIFviEEEUlvE_EEC2IS3_EEOT_>
  40a0ae:	90                   	nop
  40a0af:	c9                   	leaveq 
  40a0b0:	c3                   	retq   
  40a0b1:	90                   	nop

000000000040a0b2 <_ZNSt12_Bind_simpleIFZ10run_serveriSt8functionIFviEEEUlvE_vEEC1IS3_JEEEOT_DpOT0_>:
  40a0b2:	55                   	push   %rbp
  40a0b3:	48 89 e5             	mov    %rsp,%rbp
  40a0b6:	48 83 ec 10          	sub    $0x10,%rsp
  40a0ba:	48 89 7d f8          	mov    %rdi,-0x8(%rbp)
  40a0be:	48 89 75 f0          	mov    %rsi,-0x10(%rbp)
  40a0c2:	48 8b 45 f0          	mov    -0x10(%rbp),%rax
  40a0c6:	48 89 c7             	mov    %rax,%rdi
  40a0c9:	e8 6b f5 ff ff       	callq  409639 <_ZSt7forwardIZ10run_serveriSt8functionIFviEEEUlvE_EOT_RNSt16remove_referenceIS4_E4typeE>
  40a0ce:	48 89 c2             	mov    %rax,%rdx
  40a0d1:	48 8b 45 f8          	mov    -0x8(%rbp),%rax
  40a0d5:	48 89 d6             	mov    %rdx,%rsi
  40a0d8:	48 89 c7             	mov    %rax,%rdi
  40a0db:	e8 a0 ff ff ff       	callq  40a080 <_ZNSt5tupleIJZ10run_serveriSt8functionIFviEEEUlvE_EEC1IJS3_ELb1EEEDpOT_>
  40a0e0:	90                   	nop
  40a0e1:	c9                   	leaveq 
  40a0e2:	c3                   	retq   
  40a0e3:	90                   	nop

000000000040a0e4 <_ZNSt6thread11_State_implISt12_Bind_simpleIFZ10run_serveriSt8functionIFviEEEUlvE_vEEEC1EOS7_>:
  40a0e4:	55                   	push   %rbp
  40a0e5:	48 89 e5             	mov    %rsp,%rbp
  40a0e8:	48 83 ec 10          	sub    $0x10,%rsp
  40a0ec:	48 89 7d f8          	mov    %rdi,-0x8(%rbp)
  40a0f0:	48 89 75 f0          	mov    %rsi,-0x10(%rbp)
  40a0f4:	48 8b 45 f8          	mov    -0x8(%rbp),%rax
  40a0f8:	48 89 c7             	mov    %rax,%rdi
  40a0fb:	e8 dc 30 00 00       	callq  40d1dc <_ZNSt6thread6_StateC1Ev>
  40a100:	ba c8 dc 40 00       	mov    $0x40dcc8,%edx
  40a105:	48 8b 45 f8          	mov    -0x8(%rbp),%rax
  40a109:	48 89 10             	mov    %rdx,(%rax)
  40a10c:	48 8b 45 f0          	mov    -0x10(%rbp),%rax
  40a110:	48 89 c7             	mov    %rax,%rdi
  40a113:	e8 d2 fe ff ff       	callq  409fea <_ZSt7forwardISt12_Bind_simpleIFZ10run_serveriSt8functionIFviEEEUlvE_vEEEOT_RNSt16remove_referenceIS7_E4typeE>
  40a118:	48 89 c2             	mov    %rax,%rdx
  40a11b:	48 8b 45 f8          	mov    -0x8(%rbp),%rax
  40a11f:	48 83 c0 08          	add    $0x8,%rax
  40a123:	48 89 d6             	mov    %rdx,%rsi
  40a126:	48 89 c7             	mov    %rax,%rdi
  40a129:	e8 5a fe ff ff       	callq  409f88 <_ZNSt12_Bind_simpleIFZ10run_serveriSt8functionIFviEEEUlvE_vEEC1EOS5_>
  40a12e:	90                   	nop
  40a12f:	c9                   	leaveq 
  40a130:	c3                   	retq   
  40a131:	90                   	nop

000000000040a132 <_ZNSt6thread11_State_implISt12_Bind_simpleIFZ10run_serveriSt8functionIFviEEEUlvE_vEEED1Ev>:
  40a132:	55                   	push   %rbp
  40a133:	48 89 e5             	mov    %rsp,%rbp
  40a136:	48 83 ec 10          	sub    $0x10,%rsp
  40a13a:	48 89 7d f8          	mov    %rdi,-0x8(%rbp)
  40a13e:	ba c8 dc 40 00       	mov    $0x40dcc8,%edx
  40a143:	48 8b 45 f8          	mov    -0x8(%rbp),%rax
  40a147:	48 89 10             	mov    %rdx,(%rax)
  40a14a:	48 8b 45 f8          	mov    -0x8(%rbp),%rax
  40a14e:	48 89 c7             	mov    %rax,%rdi
  40a151:	e8 7a 8b ff ff       	callq  402cd0 <_ZNSt6thread6_StateD2Ev@plt>
  40a156:	90                   	nop
  40a157:	c9                   	leaveq 
  40a158:	c3                   	retq   
  40a159:	90                   	nop

000000000040a15a <_ZNSt6thread11_State_implISt12_Bind_simpleIFZ10run_serveriSt8functionIFviEEEUlvE_vEEED0Ev>:
  40a15a:	55                   	push   %rbp
  40a15b:	48 89 e5             	mov    %rsp,%rbp
  40a15e:	48 83 ec 10          	sub    $0x10,%rsp
  40a162:	48 89 7d f8          	mov    %rdi,-0x8(%rbp)
  40a166:	48 8b 45 f8          	mov    -0x8(%rbp),%rax
  40a16a:	48 89 c7             	mov    %rax,%rdi
  40a16d:	e8 c0 ff ff ff       	callq  40a132 <_ZNSt6thread11_State_implISt12_Bind_simpleIFZ10run_serveriSt8functionIFviEEEUlvE_vEEED1Ev>
  40a172:	48 8b 45 f8          	mov    -0x8(%rbp),%rax
  40a176:	be 28 00 00 00       	mov    $0x28,%esi
  40a17b:	48 89 c7             	mov    %rax,%rdi
  40a17e:	e8 4d 8d ff ff       	callq  402ed0 <_ZdlPvm@plt>
  40a183:	c9                   	leaveq 
  40a184:	c3                   	retq   

000000000040a185 <_Z41__static_initialization_and_destruction_0ii>:
  40a185:	55                   	push   %rbp
  40a186:	48 89 e5             	mov    %rsp,%rbp
  40a189:	48 83 ec 10          	sub    $0x10,%rsp
  40a18d:	89 7d fc             	mov    %edi,-0x4(%rbp)
  40a190:	89 75 f8             	mov    %esi,-0x8(%rbp)
  40a193:	83 7d fc 01          	cmpl   $0x1,-0x4(%rbp)
  40a197:	75 27                	jne    40a1c0 <_Z41__static_initialization_and_destruction_0ii+0x3b>
  40a199:	81 7d f8 ff ff 00 00 	cmpl   $0xffff,-0x8(%rbp)
  40a1a0:	75 1e                	jne    40a1c0 <_Z41__static_initialization_and_destruction_0ii+0x3b>
  40a1a2:	bf 0a 44 61 00       	mov    $0x61440a,%edi
  40a1a7:	e8 64 8e ff ff       	callq  403010 <_ZNSt8ios_base4InitC1Ev@plt>
  40a1ac:	ba 58 43 61 00       	mov    $0x614358,%edx
  40a1b1:	be 0a 44 61 00       	mov    $0x61440a,%esi
  40a1b6:	bf b0 31 40 00       	mov    $0x4031b0,%edi
  40a1bb:	e8 70 8c ff ff       	callq  402e30 <__cxa_atexit@plt>
  40a1c0:	90                   	nop
  40a1c1:	c9                   	leaveq 
  40a1c2:	c3                   	retq   
  40a1c3:	90                   	nop

000000000040a1c4 <_ZNSt6thread11_State_implISt12_Bind_simpleIFZ10run_serveriSt8functionIFviEEEUlvE_vEEE6_M_runEv>:
  40a1c4:	55                   	push   %rbp
  40a1c5:	48 89 e5             	mov    %rsp,%rbp
  40a1c8:	48 83 ec 10          	sub    $0x10,%rsp
  40a1cc:	48 89 7d f8          	mov    %rdi,-0x8(%rbp)
  40a1d0:	48 8b 45 f8          	mov    -0x8(%rbp),%rax
  40a1d4:	48 83 c0 08          	add    $0x8,%rax
  40a1d8:	48 89 c7             	mov    %rax,%rdi
  40a1db:	e8 04 00 00 00       	callq  40a1e4 <_ZNSt12_Bind_simpleIFZ10run_serveriSt8functionIFviEEEUlvE_vEEclEv>
  40a1e0:	90                   	nop
  40a1e1:	c9                   	leaveq 
  40a1e2:	c3                   	retq   
  40a1e3:	90                   	nop

000000000040a1e4 <_ZNSt12_Bind_simpleIFZ10run_serveriSt8functionIFviEEEUlvE_vEEclEv>:
  40a1e4:	55                   	push   %rbp
  40a1e5:	48 89 e5             	mov    %rsp,%rbp
  40a1e8:	48 83 ec 20          	sub    $0x20,%rsp
  40a1ec:	48 89 7d e8          	mov    %rdi,-0x18(%rbp)
  40a1f0:	64 48 8b 04 25 28 00 	mov    %fs:0x28,%rax
  40a1f7:	00 00 
  40a1f9:	48 89 45 f8          	mov    %rax,-0x8(%rbp)
  40a1fd:	31 c0                	xor    %eax,%eax
  40a1ff:	48 8b 45 e8          	mov    -0x18(%rbp),%rax
  40a203:	48 83 ec 08          	sub    $0x8,%rsp
  40a207:	52                   	push   %rdx
  40a208:	48 89 c7             	mov    %rax,%rdi
  40a20b:	e8 4e 00 00 00       	callq  40a25e <_ZNSt12_Bind_simpleIFZ10run_serveriSt8functionIFviEEEUlvE_vEE9_M_invokeIJEEEvSt12_Index_tupleIJXspT_EEE>
  40a210:	48 83 c4 10          	add    $0x10,%rsp
  40a214:	48 8b 45 f8          	mov    -0x8(%rbp),%rax
  40a218:	64 48 33 04 25 28 00 	xor    %fs:0x28,%rax
  40a21f:	00 00 
  40a221:	74 05                	je     40a228 <_ZNSt12_Bind_simpleIFZ10run_serveriSt8functionIFviEEEUlvE_vEEclEv+0x44>
  40a223:	e8 18 8d ff ff       	callq  402f40 <__stack_chk_fail@plt>
  40a228:	c9                   	leaveq 
  40a229:	c3                   	retq   

000000000040a22a <_ZSt12__get_helperILm0EZ10run_serveriSt8functionIFviEEEUlvE_JEERT0_RSt11_Tuple_implIXT_EJS4_DpT1_EE>:
  40a22a:	55                   	push   %rbp
  40a22b:	48 89 e5             	mov    %rsp,%rbp
  40a22e:	48 83 ec 08          	sub    $0x8,%rsp
  40a232:	48 89 7d f8          	mov    %rdi,-0x8(%rbp)
  40a236:	48 8b 45 f8          	mov    -0x8(%rbp),%rax
  40a23a:	48 89 c7             	mov    %rax,%rdi
  40a23d:	e8 87 fc ff ff       	callq  409ec9 <_ZNSt11_Tuple_implILm0EJZ10run_serveriSt8functionIFviEEEUlvE_EE7_M_headERS4_>
  40a242:	c9                   	leaveq 
  40a243:	c3                   	retq   

000000000040a244 <_ZSt3getILm0EJZ10run_serveriSt8functionIFviEEEUlvE_EERNSt13tuple_elementIXT_ESt5tupleIJDpT0_EEE4typeERS8_>:
  40a244:	55                   	push   %rbp
  40a245:	48 89 e5             	mov    %rsp,%rbp
  40a248:	48 83 ec 08          	sub    $0x8,%rsp
  40a24c:	48 89 7d f8          	mov    %rdi,-0x8(%rbp)
  40a250:	48 8b 45 f8          	mov    -0x8(%rbp),%rax
  40a254:	48 89 c7             	mov    %rax,%rdi
  40a257:	e8 ce ff ff ff       	callq  40a22a <_ZSt12__get_helperILm0EZ10run_serveriSt8functionIFviEEEUlvE_JEERT0_RSt11_Tuple_implIXT_EJS4_DpT1_EE>
  40a25c:	c9                   	leaveq 
  40a25d:	c3                   	retq   

000000000040a25e <_ZNSt12_Bind_simpleIFZ10run_serveriSt8functionIFviEEEUlvE_vEE9_M_invokeIJEEEvSt12_Index_tupleIJXspT_EEE>:
  40a25e:	55                   	push   %rbp
  40a25f:	48 89 e5             	mov    %rsp,%rbp
  40a262:	48 83 ec 10          	sub    $0x10,%rsp
  40a266:	48 89 7d f8          	mov    %rdi,-0x8(%rbp)
  40a26a:	48 8b 45 f8          	mov    -0x8(%rbp),%rax
  40a26e:	48 89 c7             	mov    %rax,%rdi
  40a271:	e8 ce ff ff ff       	callq  40a244 <_ZSt3getILm0EJZ10run_serveriSt8functionIFviEEEUlvE_EERNSt13tuple_elementIXT_ESt5tupleIJDpT0_EEE4typeERS8_>
  40a276:	48 89 c7             	mov    %rax,%rdi
  40a279:	e8 bb f3 ff ff       	callq  409639 <_ZSt7forwardIZ10run_serveriSt8functionIFviEEEUlvE_EOT_RNSt16remove_referenceIS4_E4typeE>
  40a27e:	48 89 c7             	mov    %rax,%rdi
  40a281:	e8 ea ee ff ff       	callq  409170 <_ZZ10run_serveriSt8functionIFviEEENKUlvE_clEv>
  40a286:	c9                   	leaveq 
  40a287:	c3                   	retq   

000000000040a288 <_GLOBAL__sub_I__Z8net_initv>:
  40a288:	55                   	push   %rbp
  40a289:	48 89 e5             	mov    %rsp,%rbp
  40a28c:	be ff ff 00 00       	mov    $0xffff,%esi
  40a291:	bf 01 00 00 00       	mov    $0x1,%edi
  40a296:	e8 ea fe ff ff       	callq  40a185 <_Z41__static_initialization_and_destruction_0ii>
  40a29b:	5d                   	pop    %rbp
  40a29c:	c3                   	retq   
  40a29d:	90                   	nop

000000000040a29e <_ZNKSt14_Function_base8_M_emptyEv>:
  40a29e:	55                   	push   %rbp
  40a29f:	48 89 e5             	mov    %rsp,%rbp
  40a2a2:	48 89 7d f8          	mov    %rdi,-0x8(%rbp)
  40a2a6:	48 8b 45 f8          	mov    -0x8(%rbp),%rax
  40a2aa:	48 8b 40 10          	mov    0x10(%rax),%rax
  40a2ae:	48 85 c0             	test   %rax,%rax
  40a2b1:	0f 94 c0             	sete   %al
  40a2b4:	5d                   	pop    %rbp
  40a2b5:	c3                   	retq   

000000000040a2b6 <_ZStorSt13_Ios_OpenmodeS_>:
  40a2b6:	55                   	push   %rbp
  40a2b7:	48 89 e5             	mov    %rsp,%rbp
  40a2ba:	89 7d fc             	mov    %edi,-0x4(%rbp)
  40a2bd:	89 75 f8             	mov    %esi,-0x8(%rbp)
  40a2c0:	8b 45 fc             	mov    -0x4(%rbp),%eax
  40a2c3:	0b 45 f8             	or     -0x8(%rbp),%eax
  40a2c6:	5d                   	pop    %rbp
  40a2c7:	c3                   	retq   

000000000040a2c8 <_ZNSt5mutex4lockEv>:
  40a2c8:	55                   	push   %rbp
  40a2c9:	48 89 e5             	mov    %rsp,%rbp
  40a2cc:	48 83 ec 20          	sub    $0x20,%rsp
  40a2d0:	48 89 7d e8          	mov    %rdi,-0x18(%rbp)
  40a2d4:	48 8b 45 e8          	mov    -0x18(%rbp),%rax
  40a2d8:	48 89 c7             	mov    %rax,%rdi
  40a2db:	e8 be de ff ff       	callq  40819e <_ZL20__gthread_mutex_lockP15pthread_mutex_t>
  40a2e0:	89 45 fc             	mov    %eax,-0x4(%rbp)
  40a2e3:	83 7d fc 00          	cmpl   $0x0,-0x4(%rbp)
  40a2e7:	74 0a                	je     40a2f3 <_ZNSt5mutex4lockEv+0x2b>
  40a2e9:	8b 45 fc             	mov    -0x4(%rbp),%eax
  40a2ec:	89 c7                	mov    %eax,%edi
  40a2ee:	e8 5d 8a ff ff       	callq  402d50 <_ZSt20__throw_system_errori@plt>
  40a2f3:	90                   	nop
  40a2f4:	c9                   	leaveq 
  40a2f5:	c3                   	retq   

000000000040a2f6 <_ZNSt5mutex6unlockEv>:
  40a2f6:	55                   	push   %rbp
  40a2f7:	48 89 e5             	mov    %rsp,%rbp
  40a2fa:	48 83 ec 10          	sub    $0x10,%rsp
  40a2fe:	48 89 7d f8          	mov    %rdi,-0x8(%rbp)
  40a302:	48 8b 45 f8          	mov    -0x8(%rbp),%rax
  40a306:	48 89 c7             	mov    %rax,%rdi
  40a309:	e8 bf de ff ff       	callq  4081cd <_ZL22__gthread_mutex_unlockP15pthread_mutex_t>
  40a30e:	90                   	nop
  40a30f:	c9                   	leaveq 
  40a310:	c3                   	retq   
  40a311:	90                   	nop

000000000040a312 <_ZNSt6thread2idC1Ev>:
  40a312:	55                   	push   %rbp
  40a313:	48 89 e5             	mov    %rsp,%rbp
  40a316:	48 89 7d f8          	mov    %rdi,-0x8(%rbp)
  40a31a:	48 8b 45 f8          	mov    -0x8(%rbp),%rax
  40a31e:	48 c7 00 00 00 00 00 	movq   $0x0,(%rax)
  40a325:	90                   	nop
  40a326:	5d                   	pop    %rbp
  40a327:	c3                   	retq   

000000000040a328 <_ZNSt6thread2idC1Em>:
  40a328:	55                   	push   %rbp
  40a329:	48 89 e5             	mov    %rsp,%rbp
  40a32c:	48 89 7d f8          	mov    %rdi,-0x8(%rbp)
  40a330:	48 89 75 f0          	mov    %rsi,-0x10(%rbp)
  40a334:	48 8b 45 f8          	mov    -0x8(%rbp),%rax
  40a338:	48 8b 55 f0          	mov    -0x10(%rbp),%rdx
  40a33c:	48 89 10             	mov    %rdx,(%rax)
  40a33f:	90                   	nop
  40a340:	5d                   	pop    %rbp
  40a341:	c3                   	retq   

000000000040a342 <_ZSteqNSt6thread2idES0_>:
  40a342:	55                   	push   %rbp
  40a343:	48 89 e5             	mov    %rsp,%rbp
  40a346:	48 89 7d f8          	mov    %rdi,-0x8(%rbp)
  40a34a:	48 89 75 f0          	mov    %rsi,-0x10(%rbp)
  40a34e:	48 8b 55 f8          	mov    -0x8(%rbp),%rdx
  40a352:	48 8b 45 f0          	mov    -0x10(%rbp),%rax
  40a356:	48 39 c2             	cmp    %rax,%rdx
  40a359:	0f 94 c0             	sete   %al
  40a35c:	5d                   	pop    %rbp
  40a35d:	c3                   	retq   

000000000040a35e <_ZNSt6threadC1EOS_>:
  40a35e:	55                   	push   %rbp
  40a35f:	48 89 e5             	mov    %rsp,%rbp
  40a362:	48 83 ec 10          	sub    $0x10,%rsp
  40a366:	48 89 7d f8          	mov    %rdi,-0x8(%rbp)
  40a36a:	48 89 75 f0          	mov    %rsi,-0x10(%rbp)
  40a36e:	48 8b 45 f8          	mov    -0x8(%rbp),%rax
  40a372:	48 89 c7             	mov    %rax,%rdi
  40a375:	e8 98 ff ff ff       	callq  40a312 <_ZNSt6thread2idC1Ev>
  40a37a:	48 8b 55 f0          	mov    -0x10(%rbp),%rdx
  40a37e:	48 8b 45 f8          	mov    -0x8(%rbp),%rax
  40a382:	48 89 d6             	mov    %rdx,%rsi
  40a385:	48 89 c7             	mov    %rax,%rdi
  40a388:	e8 65 00 00 00       	callq  40a3f2 <_ZNSt6thread4swapERS_>
  40a38d:	90                   	nop
  40a38e:	c9                   	leaveq 
  40a38f:	c3                   	retq   

000000000040a390 <_ZNSt6threadD1Ev>:
  40a390:	55                   	push   %rbp
  40a391:	48 89 e5             	mov    %rsp,%rbp
  40a394:	48 83 ec 10          	sub    $0x10,%rsp
  40a398:	48 89 7d f8          	mov    %rdi,-0x8(%rbp)
  40a39c:	48 8b 45 f8          	mov    -0x8(%rbp),%rax
  40a3a0:	48 89 c7             	mov    %rax,%rdi
  40a3a3:	e8 70 00 00 00       	callq  40a418 <_ZNKSt6thread8joinableEv>
  40a3a8:	84 c0                	test   %al,%al
  40a3aa:	74 05                	je     40a3b1 <_ZNSt6threadD1Ev+0x21>
  40a3ac:	e8 5f 88 ff ff       	callq  402c10 <_ZSt9terminatev@plt>
  40a3b1:	90                   	nop
  40a3b2:	c9                   	leaveq 
  40a3b3:	c3                   	retq   

000000000040a3b4 <_ZNSt6threadaSEOS_>:
  40a3b4:	55                   	push   %rbp
  40a3b5:	48 89 e5             	mov    %rsp,%rbp
  40a3b8:	48 83 ec 10          	sub    $0x10,%rsp
  40a3bc:	48 89 7d f8          	mov    %rdi,-0x8(%rbp)
  40a3c0:	48 89 75 f0          	mov    %rsi,-0x10(%rbp)
  40a3c4:	48 8b 45 f8          	mov    -0x8(%rbp),%rax
  40a3c8:	48 89 c7             	mov    %rax,%rdi
  40a3cb:	e8 48 00 00 00       	callq  40a418 <_ZNKSt6thread8joinableEv>
  40a3d0:	84 c0                	test   %al,%al
  40a3d2:	74 05                	je     40a3d9 <_ZNSt6threadaSEOS_+0x25>
  40a3d4:	e8 37 88 ff ff       	callq  402c10 <_ZSt9terminatev@plt>
  40a3d9:	48 8b 55 f0          	mov    -0x10(%rbp),%rdx
  40a3dd:	48 8b 45 f8          	mov    -0x8(%rbp),%rax
  40a3e1:	48 89 d6             	mov    %rdx,%rsi
  40a3e4:	48 89 c7             	mov    %rax,%rdi
  40a3e7:	e8 06 00 00 00       	callq  40a3f2 <_ZNSt6thread4swapERS_>
  40a3ec:	48 8b 45 f8          	mov    -0x8(%rbp),%rax
  40a3f0:	c9                   	leaveq 
  40a3f1:	c3                   	retq   

000000000040a3f2 <_ZNSt6thread4swapERS_>:
  40a3f2:	55                   	push   %rbp
  40a3f3:	48 89 e5             	mov    %rsp,%rbp
  40a3f6:	48 83 ec 10          	sub    $0x10,%rsp
  40a3fa:	48 89 7d f8          	mov    %rdi,-0x8(%rbp)
  40a3fe:	48 89 75 f0          	mov    %rsi,-0x10(%rbp)
  40a402:	48 8b 55 f0          	mov    -0x10(%rbp),%rdx
  40a406:	48 8b 45 f8          	mov    -0x8(%rbp),%rax
  40a40a:	48 89 d6             	mov    %rdx,%rsi
  40a40d:	48 89 c7             	mov    %rax,%rdi
  40a410:	e8 e3 00 00 00       	callq  40a4f8 <_ZSt4swapINSt6thread2idEENSt9enable_ifIXsrSt6__and_IJSt21is_move_constructibleIT_ESt18is_move_assignableIS5_EEE5valueEvE4typeERS5_SC_>
  40a415:	90                   	nop
  40a416:	c9                   	leaveq 
  40a417:	c3                   	retq   

000000000040a418 <_ZNKSt6thread8joinableEv>:
  40a418:	55                   	push   %rbp
  40a419:	48 89 e5             	mov    %rsp,%rbp
  40a41c:	48 83 ec 20          	sub    $0x20,%rsp
  40a420:	48 89 7d e8          	mov    %rdi,-0x18(%rbp)
  40a424:	64 48 8b 04 25 28 00 	mov    %fs:0x28,%rax
  40a42b:	00 00 
  40a42d:	48 89 45 f8          	mov    %rax,-0x8(%rbp)
  40a431:	31 c0                	xor    %eax,%eax
  40a433:	48 8d 45 f0          	lea    -0x10(%rbp),%rax
  40a437:	48 89 c7             	mov    %rax,%rdi
  40a43a:	e8 d3 fe ff ff       	callq  40a312 <_ZNSt6thread2idC1Ev>
  40a43f:	48 8b 55 f0          	mov    -0x10(%rbp),%rdx
  40a443:	48 8b 45 e8          	mov    -0x18(%rbp),%rax
  40a447:	48 89 d6             	mov    %rdx,%rsi
  40a44a:	48 8b 38             	mov    (%rax),%rdi
  40a44d:	e8 f0 fe ff ff       	callq  40a342 <_ZSteqNSt6thread2idES0_>
  40a452:	83 f0 01             	xor    $0x1,%eax
  40a455:	48 8b 4d f8          	mov    -0x8(%rbp),%rcx
  40a459:	64 48 33 0c 25 28 00 	xor    %fs:0x28,%rcx
  40a460:	00 00 
  40a462:	74 05                	je     40a469 <_ZNKSt6thread8joinableEv+0x51>
  40a464:	e8 d7 8a ff ff       	callq  402f40 <__stack_chk_fail@plt>
  40a469:	c9                   	leaveq 
  40a46a:	c3                   	retq   
  40a46b:	90                   	nop

000000000040a46c <_ZNKSt6thread6get_idEv>:
  40a46c:	55                   	push   %rbp
  40a46d:	48 89 e5             	mov    %rsp,%rbp
  40a470:	48 89 7d f8          	mov    %rdi,-0x8(%rbp)
  40a474:	48 8b 45 f8          	mov    -0x8(%rbp),%rax
  40a478:	48 8b 00             	mov    (%rax),%rax
  40a47b:	5d                   	pop    %rbp
  40a47c:	c3                   	retq   

000000000040a47d <_ZNSt11this_thread6get_idEv>:
  40a47d:	55                   	push   %rbp
  40a47e:	48 89 e5             	mov    %rsp,%rbp
  40a481:	48 83 ec 10          	sub    $0x10,%rsp
  40a485:	64 48 8b 04 25 28 00 	mov    %fs:0x28,%rax
  40a48c:	00 00 
  40a48e:	48 89 45 f8          	mov    %rax,-0x8(%rbp)
  40a492:	31 c0                	xor    %eax,%eax
  40a494:	e8 dd dc ff ff       	callq  408176 <_ZL18__gthread_active_pv>
  40a499:	85 c0                	test   %eax,%eax
  40a49b:	0f 94 c0             	sete   %al
  40a49e:	84 c0                	test   %al,%al
  40a4a0:	74 17                	je     40a4b9 <_ZNSt11this_thread6get_idEv+0x3c>
  40a4a2:	48 8d 45 f0          	lea    -0x10(%rbp),%rax
  40a4a6:	be 01 00 00 00       	mov    $0x1,%esi
  40a4ab:	48 89 c7             	mov    %rax,%rdi
  40a4ae:	e8 75 fe ff ff       	callq  40a328 <_ZNSt6thread2idC1Em>
  40a4b3:	48 8b 45 f0          	mov    -0x10(%rbp),%rax
  40a4b7:	eb 1b                	jmp    40a4d4 <_ZNSt11this_thread6get_idEv+0x57>
  40a4b9:	e8 d5 dc ff ff       	callq  408193 <_ZL14__gthread_selfv>
  40a4be:	48 89 c2             	mov    %rax,%rdx
  40a4c1:	48 8d 45 f0          	lea    -0x10(%rbp),%rax
  40a4c5:	48 89 d6             	mov    %rdx,%rsi
  40a4c8:	48 89 c7             	mov    %rax,%rdi
  40a4cb:	e8 58 fe ff ff       	callq  40a328 <_ZNSt6thread2idC1Em>
  40a4d0:	48 8b 45 f0          	mov    -0x10(%rbp),%rax
  40a4d4:	48 8b 4d f8          	mov    -0x8(%rbp),%rcx
  40a4d8:	64 48 33 0c 25 28 00 	xor    %fs:0x28,%rcx
  40a4df:	00 00 
  40a4e1:	74 05                	je     40a4e8 <_ZNSt11this_thread6get_idEv+0x6b>
  40a4e3:	e8 58 8a ff ff       	callq  402f40 <__stack_chk_fail@plt>
  40a4e8:	c9                   	leaveq 
  40a4e9:	c3                   	retq   

000000000040a4ea <_ZSt4moveIRNSt6thread2idEEONSt16remove_referenceIT_E4typeEOS4_>:
  40a4ea:	55                   	push   %rbp
  40a4eb:	48 89 e5             	mov    %rsp,%rbp
  40a4ee:	48 89 7d f8          	mov    %rdi,-0x8(%rbp)
  40a4f2:	48 8b 45 f8          	mov    -0x8(%rbp),%rax
  40a4f6:	5d                   	pop    %rbp
  40a4f7:	c3                   	retq   

000000000040a4f8 <_ZSt4swapINSt6thread2idEENSt9enable_ifIXsrSt6__and_IJSt21is_move_constructibleIT_ESt18is_move_assignableIS5_EEE5valueEvE4typeERS5_SC_>:
  40a4f8:	55                   	push   %rbp
  40a4f9:	48 89 e5             	mov    %rsp,%rbp
  40a4fc:	48 83 ec 20          	sub    $0x20,%rsp
  40a500:	48 89 7d e8          	mov    %rdi,-0x18(%rbp)
  40a504:	48 89 75 e0          	mov    %rsi,-0x20(%rbp)
  40a508:	64 48 8b 04 25 28 00 	mov    %fs:0x28,%rax
  40a50f:	00 00 
  40a511:	48 89 45 f8          	mov    %rax,-0x8(%rbp)
  40a515:	31 c0                	xor    %eax,%eax
  40a517:	48 8b 45 e8          	mov    -0x18(%rbp),%rax
  40a51b:	48 89 c7             	mov    %rax,%rdi
  40a51e:	e8 c7 ff ff ff       	callq  40a4ea <_ZSt4moveIRNSt6thread2idEEONSt16remove_referenceIT_E4typeEOS4_>
  40a523:	48 8b 00             	mov    (%rax),%rax
  40a526:	48 89 45 f0          	mov    %rax,-0x10(%rbp)
  40a52a:	48 8b 45 e0          	mov    -0x20(%rbp),%rax
  40a52e:	48 89 c7             	mov    %rax,%rdi
  40a531:	e8 b4 ff ff ff       	callq  40a4ea <_ZSt4moveIRNSt6thread2idEEONSt16remove_referenceIT_E4typeEOS4_>
  40a536:	48 89 c2             	mov    %rax,%rdx
  40a539:	48 8b 45 e8          	mov    -0x18(%rbp),%rax
  40a53d:	48 8b 12             	mov    (%rdx),%rdx
  40a540:	48 89 10             	mov    %rdx,(%rax)
  40a543:	48 8d 45 f0          	lea    -0x10(%rbp),%rax
  40a547:	48 89 c7             	mov    %rax,%rdi
  40a54a:	e8 9b ff ff ff       	callq  40a4ea <_ZSt4moveIRNSt6thread2idEEONSt16remove_referenceIT_E4typeEOS4_>
  40a54f:	48 89 c2             	mov    %rax,%rdx
  40a552:	48 8b 45 e0          	mov    -0x20(%rbp),%rax
  40a556:	48 8b 12             	mov    (%rdx),%rdx
  40a559:	48 89 10             	mov    %rdx,(%rax)
  40a55c:	90                   	nop
  40a55d:	48 8b 45 f8          	mov    -0x8(%rbp),%rax
  40a561:	64 48 33 04 25 28 00 	xor    %fs:0x28,%rax
  40a568:	00 00 
  40a56a:	74 05                	je     40a571 <_ZSt4swapINSt6thread2idEENSt9enable_ifIXsrSt6__and_IJSt21is_move_constructibleIT_ESt18is_move_assignableIS5_EEE5valueEvE4typeERS5_SC_+0x79>
  40a56c:	e8 cf 89 ff ff       	callq  402f40 <__stack_chk_fail@plt>
  40a571:	c9                   	leaveq 
  40a572:	c3                   	retq   

000000000040a573 <_ZStplIcSt11char_traitsIcESaIcEENSt7__cxx1112basic_stringIT_T0_T1_EEOS8_PKS5_>:
  40a573:	55                   	push   %rbp
  40a574:	48 89 e5             	mov    %rsp,%rbp
  40a577:	48 83 ec 20          	sub    $0x20,%rsp
  40a57b:	48 89 7d f8          	mov    %rdi,-0x8(%rbp)
  40a57f:	48 89 75 f0          	mov    %rsi,-0x10(%rbp)
  40a583:	48 89 55 e8          	mov    %rdx,-0x18(%rbp)
  40a587:	48 8b 55 e8          	mov    -0x18(%rbp),%rdx
  40a58b:	48 8b 45 f0          	mov    -0x10(%rbp),%rax
  40a58f:	48 89 d6             	mov    %rdx,%rsi
  40a592:	48 89 c7             	mov    %rax,%rdi
  40a595:	e8 b6 8b ff ff       	callq  403150 <_ZNSt7__cxx1112basic_stringIcSt11char_traitsIcESaIcEE6appendEPKc@plt>
  40a59a:	48 89 c7             	mov    %rax,%rdi
  40a59d:	e8 fd a7 ff ff       	callq  404d9f <_ZSt4moveIRNSt7__cxx1112basic_stringIcSt11char_traitsIcESaIcEEEEONSt16remove_referenceIT_E4typeEOS8_>
  40a5a2:	48 89 c2             	mov    %rax,%rdx
  40a5a5:	48 8b 45 f8          	mov    -0x8(%rbp),%rax
  40a5a9:	48 89 d6             	mov    %rdx,%rsi
  40a5ac:	48 89 c7             	mov    %rax,%rdi
  40a5af:	e8 6c 87 ff ff       	callq  402d20 <_ZNSt7__cxx1112basic_stringIcSt11char_traitsIcESaIcEEC1EOS4_@plt>
  40a5b4:	48 8b 45 f8          	mov    -0x8(%rbp),%rax
  40a5b8:	c9                   	leaveq 
  40a5b9:	c3                   	retq   

000000000040a5ba <_ZNSt3mapINSt7__cxx1112basic_stringIcSt11char_traitsIcESaIcEEES5_St4lessIS5_ESaISt4pairIKS5_S5_EEE5beginEv>:
  40a5ba:	55                   	push   %rbp
  40a5bb:	48 89 e5             	mov    %rsp,%rbp
  40a5be:	48 83 ec 10          	sub    $0x10,%rsp
  40a5c2:	48 89 7d f8          	mov    %rdi,-0x8(%rbp)
  40a5c6:	48 8b 45 f8          	mov    -0x8(%rbp),%rax
  40a5ca:	48 89 c7             	mov    %rax,%rdi
  40a5cd:	e8 00 d0 ff ff       	callq  4075d2 <_ZNSt8_Rb_treeINSt7__cxx1112basic_stringIcSt11char_traitsIcESaIcEEESt4pairIKS5_S5_ESt10_Select1stIS8_ESt4lessIS5_ESaIS8_EE5beginEv>
  40a5d2:	c9                   	leaveq 
  40a5d3:	c3                   	retq   

000000000040a5d4 <_ZNSt3mapINSt7__cxx1112basic_stringIcSt11char_traitsIcESaIcEEES5_St4lessIS5_ESaISt4pairIKS5_S5_EEE5clearEv>:
  40a5d4:	55                   	push   %rbp
  40a5d5:	48 89 e5             	mov    %rsp,%rbp
  40a5d8:	48 83 ec 10          	sub    $0x10,%rsp
  40a5dc:	48 89 7d f8          	mov    %rdi,-0x8(%rbp)
  40a5e0:	48 8b 45 f8          	mov    -0x8(%rbp),%rax
  40a5e4:	48 89 c7             	mov    %rax,%rdi
  40a5e7:	e8 1a 07 00 00       	callq  40ad06 <_ZNSt8_Rb_treeINSt7__cxx1112basic_stringIcSt11char_traitsIcESaIcEEESt4pairIKS5_S5_ESt10_Select1stIS8_ESt4lessIS5_ESaIS8_EE5clearEv>
  40a5ec:	90                   	nop
  40a5ed:	c9                   	leaveq 
  40a5ee:	c3                   	retq   
  40a5ef:	90                   	nop

000000000040a5f0 <_ZNSt6vectorIhSaIhEE5clearEv>:
  40a5f0:	55                   	push   %rbp
  40a5f1:	48 89 e5             	mov    %rsp,%rbp
  40a5f4:	48 83 ec 10          	sub    $0x10,%rsp
  40a5f8:	48 89 7d f8          	mov    %rdi,-0x8(%rbp)
  40a5fc:	48 8b 45 f8          	mov    -0x8(%rbp),%rax
  40a600:	48 8b 10             	mov    (%rax),%rdx
  40a603:	48 8b 45 f8          	mov    -0x8(%rbp),%rax
  40a607:	48 89 d6             	mov    %rdx,%rsi
  40a60a:	48 89 c7             	mov    %rax,%rdi
  40a60d:	e8 2e 07 00 00       	callq  40ad40 <_ZNSt6vectorIhSaIhEE15_M_erase_at_endEPh>
  40a612:	90                   	nop
  40a613:	c9                   	leaveq 
  40a614:	c3                   	retq   
  40a615:	90                   	nop

000000000040a616 <_ZNSt10_Head_baseILm0ERKNSt7__cxx1112basic_stringIcSt11char_traitsIcESaIcEEELb0EEC1ES7_>:
  40a616:	55                   	push   %rbp
  40a617:	48 89 e5             	mov    %rsp,%rbp
  40a61a:	48 89 7d f8          	mov    %rdi,-0x8(%rbp)
  40a61e:	48 89 75 f0          	mov    %rsi,-0x10(%rbp)
  40a622:	48 8b 45 f8          	mov    -0x8(%rbp),%rax
  40a626:	48 8b 55 f0          	mov    -0x10(%rbp),%rdx
  40a62a:	48 89 10             	mov    %rdx,(%rax)
  40a62d:	90                   	nop
  40a62e:	5d                   	pop    %rbp
  40a62f:	c3                   	retq   

000000000040a630 <_ZNSt11_Tuple_implILm0EJRKNSt7__cxx1112basic_stringIcSt11char_traitsIcESaIcEEEEEC1ES7_>:
  40a630:	55                   	push   %rbp
  40a631:	48 89 e5             	mov    %rsp,%rbp
  40a634:	48 83 ec 10          	sub    $0x10,%rsp
  40a638:	48 89 7d f8          	mov    %rdi,-0x8(%rbp)
  40a63c:	48 89 75 f0          	mov    %rsi,-0x10(%rbp)
  40a640:	48 8b 45 f8          	mov    -0x8(%rbp),%rax
  40a644:	48 8b 55 f0          	mov    -0x10(%rbp),%rdx
  40a648:	48 89 d6             	mov    %rdx,%rsi
  40a64b:	48 89 c7             	mov    %rax,%rdi
  40a64e:	e8 c3 ff ff ff       	callq  40a616 <_ZNSt10_Head_baseILm0ERKNSt7__cxx1112basic_stringIcSt11char_traitsIcESaIcEEELb0EEC1ES7_>
  40a653:	90                   	nop
  40a654:	c9                   	leaveq 
  40a655:	c3                   	retq   

000000000040a656 <_ZNSt5tupleIJRKNSt7__cxx1112basic_stringIcSt11char_traitsIcESaIcEEEEEC1IvLb1EEES7_>:
  40a656:	55                   	push   %rbp
  40a657:	48 89 e5             	mov    %rsp,%rbp
  40a65a:	48 83 ec 10          	sub    $0x10,%rsp
  40a65e:	48 89 7d f8          	mov    %rdi,-0x8(%rbp)
  40a662:	48 89 75 f0          	mov    %rsi,-0x10(%rbp)
  40a666:	48 8b 45 f8          	mov    -0x8(%rbp),%rax
  40a66a:	48 8b 55 f0          	mov    -0x10(%rbp),%rdx
  40a66e:	48 89 d6             	mov    %rdx,%rsi
  40a671:	48 89 c7             	mov    %rax,%rdi
  40a674:	e8 b7 ff ff ff       	callq  40a630 <_ZNSt11_Tuple_implILm0EJRKNSt7__cxx1112basic_stringIcSt11char_traitsIcESaIcEEEEEC1ES7_>
  40a679:	90                   	nop
  40a67a:	c9                   	leaveq 
  40a67b:	c3                   	retq   

000000000040a67c <_ZNSt3mapINSt7__cxx1112basic_stringIcSt11char_traitsIcESaIcEEES5_St4lessIS5_ESaISt4pairIKS5_S5_EEEixERS9_>:
  40a67c:	55                   	push   %rbp
  40a67d:	48 89 e5             	mov    %rsp,%rbp
  40a680:	41 55                	push   %r13
  40a682:	41 54                	push   %r12
  40a684:	53                   	push   %rbx
  40a685:	48 83 ec 48          	sub    $0x48,%rsp
  40a689:	48 89 7d a8          	mov    %rdi,-0x58(%rbp)
  40a68d:	48 89 75 a0          	mov    %rsi,-0x60(%rbp)
  40a691:	64 48 8b 04 25 28 00 	mov    %fs:0x28,%rax
  40a698:	00 00 
  40a69a:	48 89 45 d8          	mov    %rax,-0x28(%rbp)
  40a69e:	31 c0                	xor    %eax,%eax
  40a6a0:	48 8b 55 a0          	mov    -0x60(%rbp),%rdx
  40a6a4:	48 8b 45 a8          	mov    -0x58(%rbp),%rax
  40a6a8:	48 89 d6             	mov    %rdx,%rsi
  40a6ab:	48 89 c7             	mov    %rax,%rdi
  40a6ae:	e8 0d b0 ff ff       	callq  4056c0 <_ZNSt3mapINSt7__cxx1112basic_stringIcSt11char_traitsIcESaIcEEES5_St4lessIS5_ESaISt4pairIKS5_S5_EEE11lower_boundERS9_>
  40a6b3:	48 89 45 b8          	mov    %rax,-0x48(%rbp)
  40a6b7:	bb 00 00 00 00       	mov    $0x0,%ebx
  40a6bc:	48 8b 45 a8          	mov    -0x58(%rbp),%rax
  40a6c0:	48 89 c7             	mov    %rax,%rdi
  40a6c3:	e8 36 ad ff ff       	callq  4053fe <_ZNSt3mapINSt7__cxx1112basic_stringIcSt11char_traitsIcESaIcEEES5_St4lessIS5_ESaISt4pairIKS5_S5_EEE3endEv>
  40a6c8:	48 89 45 c0          	mov    %rax,-0x40(%rbp)
  40a6cc:	41 bc 01 00 00 00    	mov    $0x1,%r12d
  40a6d2:	48 8d 55 c0          	lea    -0x40(%rbp),%rdx
  40a6d6:	48 8d 45 b8          	lea    -0x48(%rbp),%rax
  40a6da:	48 89 d6             	mov    %rdx,%rsi
  40a6dd:	48 89 c7             	mov    %rax,%rdi
  40a6e0:	e8 33 ad ff ff       	callq  405418 <_ZNKSt17_Rb_tree_iteratorISt4pairIKNSt7__cxx1112basic_stringIcSt11char_traitsIcESaIcEEES6_EEeqERKS9_>
  40a6e5:	84 c0                	test   %al,%al
  40a6e7:	75 3a                	jne    40a723 <_ZNSt3mapINSt7__cxx1112basic_stringIcSt11char_traitsIcESaIcEEES5_St4lessIS5_ESaISt4pairIKS5_S5_EEEixERS9_+0xa7>
  40a6e9:	48 8d 45 b8          	lea    -0x48(%rbp),%rax
  40a6ed:	48 89 c7             	mov    %rax,%rdi
  40a6f0:	e8 13 b0 ff ff       	callq  405708 <_ZNKSt17_Rb_tree_iteratorISt4pairIKNSt7__cxx1112basic_stringIcSt11char_traitsIcESaIcEEES6_EEdeEv>
  40a6f5:	49 89 c5             	mov    %rax,%r13
  40a6f8:	48 8b 45 a8          	mov    -0x58(%rbp),%rax
  40a6fc:	48 89 c7             	mov    %rax,%rdi
  40a6ff:	e8 e2 af ff ff       	callq  4056e6 <_ZNKSt3mapINSt7__cxx1112basic_stringIcSt11char_traitsIcESaIcEEES5_St4lessIS5_ESaISt4pairIKS5_S5_EEE8key_compEv>
  40a704:	bb 01 00 00 00       	mov    $0x1,%ebx
  40a709:	48 8b 4d a0          	mov    -0x60(%rbp),%rcx
  40a70d:	48 8d 45 b6          	lea    -0x4a(%rbp),%rax
  40a711:	4c 89 ea             	mov    %r13,%rdx
  40a714:	48 89 ce             	mov    %rcx,%rsi
  40a717:	48 89 c7             	mov    %rax,%rdi
  40a71a:	e8 2b a8 ff ff       	callq  404f4a <_ZNKSt4lessINSt7__cxx1112basic_stringIcSt11char_traitsIcESaIcEEEEclERKS5_S8_>
  40a71f:	84 c0                	test   %al,%al
  40a721:	74 07                	je     40a72a <_ZNSt3mapINSt7__cxx1112basic_stringIcSt11char_traitsIcESaIcEEES5_St4lessIS5_ESaISt4pairIKS5_S5_EEEixERS9_+0xae>
  40a723:	b8 01 00 00 00       	mov    $0x1,%eax
  40a728:	eb 05                	jmp    40a72f <_ZNSt3mapINSt7__cxx1112basic_stringIcSt11char_traitsIcESaIcEEES5_St4lessIS5_ESaISt4pairIKS5_S5_EEEixERS9_+0xb3>
  40a72a:	b8 00 00 00 00       	mov    $0x0,%eax
  40a72f:	84 db                	test   %bl,%bl
  40a731:	45 84 e4             	test   %r12b,%r12b
  40a734:	84 c0                	test   %al,%al
  40a736:	74 4d                	je     40a785 <_ZNSt3mapINSt7__cxx1112basic_stringIcSt11char_traitsIcESaIcEEES5_St4lessIS5_ESaISt4pairIKS5_S5_EEEixERS9_+0x109>
  40a738:	48 8b 55 a0          	mov    -0x60(%rbp),%rdx
  40a73c:	48 8d 45 c8          	lea    -0x38(%rbp),%rax
  40a740:	48 89 d6             	mov    %rdx,%rsi
  40a743:	48 89 c7             	mov    %rax,%rdi
  40a746:	e8 0b ff ff ff       	callq  40a656 <_ZNSt5tupleIJRKNSt7__cxx1112basic_stringIcSt11char_traitsIcESaIcEEEEEC1IvLb1EEES7_>
  40a74b:	48 8d 55 b8          	lea    -0x48(%rbp),%rdx
  40a74f:	48 8d 45 d0          	lea    -0x30(%rbp),%rax
  40a753:	48 89 d6             	mov    %rdx,%rsi
  40a756:	48 89 c7             	mov    %rax,%rdi
  40a759:	e8 f0 af ff ff       	callq  40574e <_ZNSt23_Rb_tree_const_iteratorISt4pairIKNSt7__cxx1112basic_stringIcSt11char_traitsIcESaIcEEES6_EEC1ERKSt17_Rb_tree_iteratorIS8_E>
  40a75e:	48 8b 45 a8          	mov    -0x58(%rbp),%rax
  40a762:	48 8d 4d b7          	lea    -0x49(%rbp),%rcx
  40a766:	48 8d 55 c8          	lea    -0x38(%rbp),%rdx
  40a76a:	48 8b 75 d0          	mov    -0x30(%rbp),%rsi
  40a76e:	49 89 c8             	mov    %rcx,%r8
  40a771:	48 89 d1             	mov    %rdx,%rcx
  40a774:	ba e0 db 40 00       	mov    $0x40dbe0,%edx
  40a779:	48 89 c7             	mov    %rax,%rdi
  40a77c:	e8 13 06 00 00       	callq  40ad94 <_ZNSt8_Rb_treeINSt7__cxx1112basic_stringIcSt11char_traitsIcESaIcEEESt4pairIKS5_S5_ESt10_Select1stIS8_ESt4lessIS5_ESaIS8_EE22_M_emplace_hint_uniqueIJRKSt21piecewise_construct_tSt5tupleIJRS7_EESJ_IJEEEEESt17_Rb_tree_iteratorIS8_ESt23_Rb_tree_const_iteratorIS8_EDpOT_>
  40a781:	48 89 45 b8          	mov    %rax,-0x48(%rbp)
  40a785:	48 8d 45 b8          	lea    -0x48(%rbp),%rax
  40a789:	48 89 c7             	mov    %rax,%rdi
  40a78c:	e8 77 af ff ff       	callq  405708 <_ZNKSt17_Rb_tree_iteratorISt4pairIKNSt7__cxx1112basic_stringIcSt11char_traitsIcESaIcEEES6_EEdeEv>
  40a791:	48 83 c0 20          	add    $0x20,%rax
  40a795:	48 8b 5d d8          	mov    -0x28(%rbp),%rbx
  40a799:	64 48 33 1c 25 28 00 	xor    %fs:0x28,%rbx
  40a7a0:	00 00 
  40a7a2:	74 15                	je     40a7b9 <_ZNSt3mapINSt7__cxx1112basic_stringIcSt11char_traitsIcESaIcEEES5_St4lessIS5_ESaISt4pairIKS5_S5_EEEixERS9_+0x13d>
  40a7a4:	eb 0e                	jmp    40a7b4 <_ZNSt3mapINSt7__cxx1112basic_stringIcSt11char_traitsIcESaIcEEES5_St4lessIS5_ESaISt4pairIKS5_S5_EEEixERS9_+0x138>
  40a7a6:	84 db                	test   %bl,%bl
  40a7a8:	45 84 e4             	test   %r12b,%r12b
  40a7ab:	90                   	nop
  40a7ac:	48 89 c7             	mov    %rax,%rdi
  40a7af:	e8 3c 89 ff ff       	callq  4030f0 <_Unwind_Resume@plt>
  40a7b4:	e8 87 87 ff ff       	callq  402f40 <__stack_chk_fail@plt>
  40a7b9:	48 83 c4 48          	add    $0x48,%rsp
  40a7bd:	5b                   	pop    %rbx
  40a7be:	41 5c                	pop    %r12
  40a7c0:	41 5d                	pop    %r13
  40a7c2:	5d                   	pop    %rbp
  40a7c3:	c3                   	retq   

000000000040a7c4 <_ZNKSt4fposI11__mbstate_tEcvlEv>:
  40a7c4:	55                   	push   %rbp
  40a7c5:	48 89 e5             	mov    %rsp,%rbp
  40a7c8:	48 89 7d f8          	mov    %rdi,-0x8(%rbp)
  40a7cc:	48 8b 45 f8          	mov    -0x8(%rbp),%rax
  40a7d0:	48 8b 00             	mov    (%rax),%rax
  40a7d3:	5d                   	pop    %rbp
  40a7d4:	c3                   	retq   
  40a7d5:	90                   	nop

000000000040a7d6 <_ZNSt6vectorIhSaIhEE3endEv>:
  40a7d6:	55                   	push   %rbp
  40a7d7:	48 89 e5             	mov    %rsp,%rbp
  40a7da:	48 83 ec 20          	sub    $0x20,%rsp
  40a7de:	48 89 7d e8          	mov    %rdi,-0x18(%rbp)
  40a7e2:	64 48 8b 04 25 28 00 	mov    %fs:0x28,%rax
  40a7e9:	00 00 
  40a7eb:	48 89 45 f8          	mov    %rax,-0x8(%rbp)
  40a7ef:	31 c0                	xor    %eax,%eax
  40a7f1:	48 8b 45 e8          	mov    -0x18(%rbp),%rax
  40a7f5:	48 8d 50 08          	lea    0x8(%rax),%rdx
  40a7f9:	48 8d 45 f0          	lea    -0x10(%rbp),%rax
  40a7fd:	48 89 d6             	mov    %rdx,%rsi
  40a800:	48 89 c7             	mov    %rax,%rdi
  40a803:	e8 c6 06 00 00       	callq  40aece <_ZN9__gnu_cxx17__normal_iteratorIPhSt6vectorIhSaIhEEEC1ERKS1_>
  40a808:	48 8b 45 f0          	mov    -0x10(%rbp),%rax
  40a80c:	48 8b 4d f8          	mov    -0x8(%rbp),%rcx
  40a810:	64 48 33 0c 25 28 00 	xor    %fs:0x28,%rcx
  40a817:	00 00 
  40a819:	74 05                	je     40a820 <_ZNSt6vectorIhSaIhEE3endEv+0x4a>
  40a81b:	e8 20 87 ff ff       	callq  402f40 <__stack_chk_fail@plt>
  40a820:	c9                   	leaveq 
  40a821:	c3                   	retq   

000000000040a822 <_ZN9__gnu_cxx17__normal_iteratorIPKhSt6vectorIhSaIhEEEC1IPhEERKNS0_IT_NS_11__enable_ifIXsrSt10__are_sameIS9_S8_E7__valueES5_E6__typeEEE>:
  40a822:	55                   	push   %rbp
  40a823:	48 89 e5             	mov    %rsp,%rbp
  40a826:	48 83 ec 10          	sub    $0x10,%rsp
  40a82a:	48 89 7d f8          	mov    %rdi,-0x8(%rbp)
  40a82e:	48 89 75 f0          	mov    %rsi,-0x10(%rbp)
  40a832:	48 8b 45 f0          	mov    -0x10(%rbp),%rax
  40a836:	48 89 c7             	mov    %rax,%rdi
  40a839:	e8 ae 06 00 00       	callq  40aeec <_ZNK9__gnu_cxx17__normal_iteratorIPhSt6vectorIhSaIhEEE4baseEv>
  40a83e:	48 8b 10             	mov    (%rax),%rdx
  40a841:	48 8b 45 f8          	mov    -0x8(%rbp),%rax
  40a845:	48 89 10             	mov    %rdx,(%rax)
  40a848:	90                   	nop
  40a849:	c9                   	leaveq 
  40a84a:	c3                   	retq   
  40a84b:	90                   	nop

000000000040a84c <_ZNSt6vectorIhSaIhEE6insertIPKcvEEN9__gnu_cxx17__normal_iteratorIPhS1_EENS6_IPKhS1_EET_SC_>:
  40a84c:	55                   	push   %rbp
  40a84d:	48 89 e5             	mov    %rsp,%rbp
  40a850:	53                   	push   %rbx
  40a851:	48 83 ec 48          	sub    $0x48,%rsp
  40a855:	48 89 7d c8          	mov    %rdi,-0x38(%rbp)
  40a859:	48 89 75 c0          	mov    %rsi,-0x40(%rbp)
  40a85d:	48 89 55 b8          	mov    %rdx,-0x48(%rbp)
  40a861:	48 89 4d b0          	mov    %rcx,-0x50(%rbp)
  40a865:	64 48 8b 04 25 28 00 	mov    %fs:0x28,%rax
  40a86c:	00 00 
  40a86e:	48 89 45 e8          	mov    %rax,-0x18(%rbp)
  40a872:	31 c0                	xor    %eax,%eax
  40a874:	48 8b 45 c8          	mov    -0x38(%rbp),%rax
  40a878:	48 89 c7             	mov    %rax,%rdi
  40a87b:	e8 7a 06 00 00       	callq  40aefa <_ZNKSt6vectorIhSaIhEE6cbeginEv>
  40a880:	48 89 45 d8          	mov    %rax,-0x28(%rbp)
  40a884:	48 8d 55 d8          	lea    -0x28(%rbp),%rdx
  40a888:	48 8d 45 c0          	lea    -0x40(%rbp),%rax
  40a88c:	48 89 d6             	mov    %rdx,%rsi
  40a88f:	48 89 c7             	mov    %rax,%rdi
  40a892:	e8 b6 06 00 00       	callq  40af4d <_ZN9__gnu_cxxmiIPKhSt6vectorIhSaIhEEEENS_17__normal_iteratorIT_T0_E15difference_typeERKS9_SC_>
  40a897:	48 89 45 e0          	mov    %rax,-0x20(%rbp)
  40a89b:	48 8b 45 c8          	mov    -0x38(%rbp),%rax
  40a89f:	48 89 c7             	mov    %rax,%rdi
  40a8a2:	e8 e5 06 00 00       	callq  40af8c <_ZNSt6vectorIhSaIhEE5beginEv>
  40a8a7:	48 89 45 d8          	mov    %rax,-0x28(%rbp)
  40a8ab:	48 8b 55 e0          	mov    -0x20(%rbp),%rdx
  40a8af:	48 8d 45 d8          	lea    -0x28(%rbp),%rax
  40a8b3:	48 89 d6             	mov    %rdx,%rsi
  40a8b6:	48 89 c7             	mov    %rax,%rdi
  40a8b9:	e8 16 07 00 00       	callq  40afd4 <_ZNK9__gnu_cxx17__normal_iteratorIPhSt6vectorIhSaIhEEEplEl>
  40a8be:	48 89 c6             	mov    %rax,%rsi
  40a8c1:	48 8b 4d b0          	mov    -0x50(%rbp),%rcx
  40a8c5:	48 8b 55 b8          	mov    -0x48(%rbp),%rdx
  40a8c9:	48 8b 45 c8          	mov    -0x38(%rbp),%rax
  40a8cd:	48 83 ec 08          	sub    $0x8,%rsp
  40a8d1:	53                   	push   %rbx
  40a8d2:	48 89 c7             	mov    %rax,%rdi
  40a8d5:	e8 58 07 00 00       	callq  40b032 <_ZNSt6vectorIhSaIhEE18_M_insert_dispatchIPKcEEvN9__gnu_cxx17__normal_iteratorIPhS1_EET_S9_St12__false_type>
  40a8da:	48 83 c4 10          	add    $0x10,%rsp
  40a8de:	48 8b 45 c8          	mov    -0x38(%rbp),%rax
  40a8e2:	48 89 c7             	mov    %rax,%rdi
  40a8e5:	e8 a2 06 00 00       	callq  40af8c <_ZNSt6vectorIhSaIhEE5beginEv>
  40a8ea:	48 89 45 d8          	mov    %rax,-0x28(%rbp)
  40a8ee:	48 8b 55 e0          	mov    -0x20(%rbp),%rdx
  40a8f2:	48 8d 45 d8          	lea    -0x28(%rbp),%rax
  40a8f6:	48 89 d6             	mov    %rdx,%rsi
  40a8f9:	48 89 c7             	mov    %rax,%rdi
  40a8fc:	e8 d3 06 00 00       	callq  40afd4 <_ZNK9__gnu_cxx17__normal_iteratorIPhSt6vectorIhSaIhEEEplEl>
  40a901:	48 8b 5d e8          	mov    -0x18(%rbp),%rbx
  40a905:	64 48 33 1c 25 28 00 	xor    %fs:0x28,%rbx
  40a90c:	00 00 
  40a90e:	74 05                	je     40a915 <_ZNSt6vectorIhSaIhEE6insertIPKcvEEN9__gnu_cxx17__normal_iteratorIPhS1_EENS6_IPKhS1_EET_SC_+0xc9>
  40a910:	e8 2b 86 ff ff       	callq  402f40 <__stack_chk_fail@plt>
  40a915:	48 8b 5d f8          	mov    -0x8(%rbp),%rbx
  40a919:	c9                   	leaveq 
  40a91a:	c3                   	retq   
  40a91b:	90                   	nop

000000000040a91c <_ZNKSt6vectorIhSaIhEE4sizeEv>:
  40a91c:	55                   	push   %rbp
  40a91d:	48 89 e5             	mov    %rsp,%rbp
  40a920:	48 89 7d f8          	mov    %rdi,-0x8(%rbp)
  40a924:	48 8b 45 f8          	mov    -0x8(%rbp),%rax
  40a928:	48 8b 40 08          	mov    0x8(%rax),%rax
  40a92c:	48 89 c2             	mov    %rax,%rdx
  40a92f:	48 8b 45 f8          	mov    -0x8(%rbp),%rax
  40a933:	48 8b 00             	mov    (%rax),%rax
  40a936:	48 29 c2             	sub    %rax,%rdx
  40a939:	48 89 d0             	mov    %rdx,%rax
  40a93c:	5d                   	pop    %rbp
  40a93d:	c3                   	retq   

000000000040a93e <_ZNSt6vectorIhSaIhEE6insertIPcvEEN9__gnu_cxx17__normal_iteratorIPhS1_EENS5_IPKhS1_EET_SB_>:
  40a93e:	55                   	push   %rbp
  40a93f:	48 89 e5             	mov    %rsp,%rbp
  40a942:	53                   	push   %rbx
  40a943:	48 83 ec 48          	sub    $0x48,%rsp
  40a947:	48 89 7d c8          	mov    %rdi,-0x38(%rbp)
  40a94b:	48 89 75 c0          	mov    %rsi,-0x40(%rbp)
  40a94f:	48 89 55 b8          	mov    %rdx,-0x48(%rbp)
  40a953:	48 89 4d b0          	mov    %rcx,-0x50(%rbp)
  40a957:	64 48 8b 04 25 28 00 	mov    %fs:0x28,%rax
  40a95e:	00 00 
  40a960:	48 89 45 e8          	mov    %rax,-0x18(%rbp)
  40a964:	31 c0                	xor    %eax,%eax
  40a966:	48 8b 45 c8          	mov    -0x38(%rbp),%rax
  40a96a:	48 89 c7             	mov    %rax,%rdi
  40a96d:	e8 88 05 00 00       	callq  40aefa <_ZNKSt6vectorIhSaIhEE6cbeginEv>
  40a972:	48 89 45 d8          	mov    %rax,-0x28(%rbp)
  40a976:	48 8d 55 d8          	lea    -0x28(%rbp),%rdx
  40a97a:	48 8d 45 c0          	lea    -0x40(%rbp),%rax
  40a97e:	48 89 d6             	mov    %rdx,%rsi
  40a981:	48 89 c7             	mov    %rax,%rdi
  40a984:	e8 c4 05 00 00       	callq  40af4d <_ZN9__gnu_cxxmiIPKhSt6vectorIhSaIhEEEENS_17__normal_iteratorIT_T0_E15difference_typeERKS9_SC_>
  40a989:	48 89 45 e0          	mov    %rax,-0x20(%rbp)
  40a98d:	48 8b 45 c8          	mov    -0x38(%rbp),%rax
  40a991:	48 89 c7             	mov    %rax,%rdi
  40a994:	e8 f3 05 00 00       	callq  40af8c <_ZNSt6vectorIhSaIhEE5beginEv>
  40a999:	48 89 45 d8          	mov    %rax,-0x28(%rbp)
  40a99d:	48 8b 55 e0          	mov    -0x20(%rbp),%rdx
  40a9a1:	48 8d 45 d8          	lea    -0x28(%rbp),%rax
  40a9a5:	48 89 d6             	mov    %rdx,%rsi
  40a9a8:	48 89 c7             	mov    %rax,%rdi
  40a9ab:	e8 24 06 00 00       	callq  40afd4 <_ZNK9__gnu_cxx17__normal_iteratorIPhSt6vectorIhSaIhEEEplEl>
  40a9b0:	48 89 c6             	mov    %rax,%rsi
  40a9b3:	48 8b 4d b0          	mov    -0x50(%rbp),%rcx
  40a9b7:	48 8b 55 b8          	mov    -0x48(%rbp),%rdx
  40a9bb:	48 8b 45 c8          	mov    -0x38(%rbp),%rax
  40a9bf:	48 83 ec 08          	sub    $0x8,%rsp
  40a9c3:	53                   	push   %rbx
  40a9c4:	48 89 c7             	mov    %rax,%rdi
  40a9c7:	e8 c6 06 00 00       	callq  40b092 <_ZNSt6vectorIhSaIhEE18_M_insert_dispatchIPcEEvN9__gnu_cxx17__normal_iteratorIPhS1_EET_S8_St12__false_type>
  40a9cc:	48 83 c4 10          	add    $0x10,%rsp
  40a9d0:	48 8b 45 c8          	mov    -0x38(%rbp),%rax
  40a9d4:	48 89 c7             	mov    %rax,%rdi
  40a9d7:	e8 b0 05 00 00       	callq  40af8c <_ZNSt6vectorIhSaIhEE5beginEv>
  40a9dc:	48 89 45 d8          	mov    %rax,-0x28(%rbp)
  40a9e0:	48 8b 55 e0          	mov    -0x20(%rbp),%rdx
  40a9e4:	48 8d 45 d8          	lea    -0x28(%rbp),%rax
  40a9e8:	48 89 d6             	mov    %rdx,%rsi
  40a9eb:	48 89 c7             	mov    %rax,%rdi
  40a9ee:	e8 e1 05 00 00       	callq  40afd4 <_ZNK9__gnu_cxx17__normal_iteratorIPhSt6vectorIhSaIhEEEplEl>
  40a9f3:	48 8b 5d e8          	mov    -0x18(%rbp),%rbx
  40a9f7:	64 48 33 1c 25 28 00 	xor    %fs:0x28,%rbx
  40a9fe:	00 00 
  40aa00:	74 05                	je     40aa07 <_ZNSt6vectorIhSaIhEE6insertIPcvEEN9__gnu_cxx17__normal_iteratorIPhS1_EENS5_IPKhS1_EET_SB_+0xc9>
  40aa02:	e8 39 85 ff ff       	callq  402f40 <__stack_chk_fail@plt>
  40aa07:	48 8b 5d f8          	mov    -0x8(%rbp),%rbx
  40aa0b:	c9                   	leaveq 
  40aa0c:	c3                   	retq   
  40aa0d:	90                   	nop

000000000040aa0e <_ZNSt6vectorISt4pairISt6threadbESaIS2_EEC1Ev>:
  40aa0e:	55                   	push   %rbp
  40aa0f:	48 89 e5             	mov    %rsp,%rbp
  40aa12:	48 83 ec 10          	sub    $0x10,%rsp
  40aa16:	48 89 7d f8          	mov    %rdi,-0x8(%rbp)
  40aa1a:	48 8b 45 f8          	mov    -0x8(%rbp),%rax
  40aa1e:	48 89 c7             	mov    %rax,%rdi
  40aa21:	e8 e8 06 00 00       	callq  40b10e <_ZNSt12_Vector_baseISt4pairISt6threadbESaIS2_EEC1Ev>
  40aa26:	90                   	nop
  40aa27:	c9                   	leaveq 
  40aa28:	c3                   	retq   
  40aa29:	90                   	nop

000000000040aa2a <_ZNSt6vectorISt4pairISt6threadbESaIS2_EED1Ev>:
  40aa2a:	55                   	push   %rbp
  40aa2b:	48 89 e5             	mov    %rsp,%rbp
  40aa2e:	48 83 ec 10          	sub    $0x10,%rsp
  40aa32:	48 89 7d f8          	mov    %rdi,-0x8(%rbp)
  40aa36:	48 8b 45 f8          	mov    -0x8(%rbp),%rax
  40aa3a:	48 89 c7             	mov    %rax,%rdi
  40aa3d:	e8 38 07 00 00       	callq  40b17a <_ZNSt12_Vector_baseISt4pairISt6threadbESaIS2_EE19_M_get_Tp_allocatorEv>
  40aa42:	48 89 c2             	mov    %rax,%rdx
  40aa45:	48 8b 45 f8          	mov    -0x8(%rbp),%rax
  40aa49:	48 8b 48 08          	mov    0x8(%rax),%rcx
  40aa4d:	48 8b 45 f8          	mov    -0x8(%rbp),%rax
  40aa51:	48 8b 00             	mov    (%rax),%rax
  40aa54:	48 89 ce             	mov    %rcx,%rsi
  40aa57:	48 89 c7             	mov    %rax,%rdi
  40aa5a:	e8 29 07 00 00       	callq  40b188 <_ZSt8_DestroyIPSt4pairISt6threadbES2_EvT_S4_RSaIT0_E>
  40aa5f:	48 8b 45 f8          	mov    -0x8(%rbp),%rax
  40aa63:	48 89 c7             	mov    %rax,%rdi
  40aa66:	e8 bf 06 00 00       	callq  40b12a <_ZNSt12_Vector_baseISt4pairISt6threadbESaIS2_EED1Ev>
  40aa6b:	90                   	nop
  40aa6c:	c9                   	leaveq 
  40aa6d:	c3                   	retq   

000000000040aa6e <_ZNSt10lock_guardISt5mutexEC1ERS0_>:
  40aa6e:	55                   	push   %rbp
  40aa6f:	48 89 e5             	mov    %rsp,%rbp
  40aa72:	48 83 ec 10          	sub    $0x10,%rsp
  40aa76:	48 89 7d f8          	mov    %rdi,-0x8(%rbp)
  40aa7a:	48 89 75 f0          	mov    %rsi,-0x10(%rbp)
  40aa7e:	48 8b 45 f8          	mov    -0x8(%rbp),%rax
  40aa82:	48 8b 55 f0          	mov    -0x10(%rbp),%rdx
  40aa86:	48 89 10             	mov    %rdx,(%rax)
  40aa89:	48 8b 45 f8          	mov    -0x8(%rbp),%rax
  40aa8d:	48 8b 00             	mov    (%rax),%rax
  40aa90:	48 89 c7             	mov    %rax,%rdi
  40aa93:	e8 30 f8 ff ff       	callq  40a2c8 <_ZNSt5mutex4lockEv>
  40aa98:	90                   	nop
  40aa99:	c9                   	leaveq 
  40aa9a:	c3                   	retq   
  40aa9b:	90                   	nop

000000000040aa9c <_ZNSt10lock_guardISt5mutexED1Ev>:
  40aa9c:	55                   	push   %rbp
  40aa9d:	48 89 e5             	mov    %rsp,%rbp
  40aaa0:	48 83 ec 10          	sub    $0x10,%rsp
  40aaa4:	48 89 7d f8          	mov    %rdi,-0x8(%rbp)
  40aaa8:	48 8b 45 f8          	mov    -0x8(%rbp),%rax
  40aaac:	48 8b 00             	mov    (%rax),%rax
  40aaaf:	48 89 c7             	mov    %rax,%rdi
  40aab2:	e8 3f f8 ff ff       	callq  40a2f6 <_ZNSt5mutex6unlockEv>
  40aab7:	90                   	nop
  40aab8:	c9                   	leaveq 
  40aab9:	c3                   	retq   

000000000040aaba <_ZSt7forwardIiEOT_RNSt16remove_referenceIS0_E4typeE>:
  40aaba:	55                   	push   %rbp
  40aabb:	48 89 e5             	mov    %rsp,%rbp
  40aabe:	48 89 7d f8          	mov    %rdi,-0x8(%rbp)
  40aac2:	48 8b 45 f8          	mov    -0x8(%rbp),%rax
  40aac6:	5d                   	pop    %rbp
  40aac7:	c3                   	retq   

000000000040aac8 <_ZNKSt8functionIFviEEclEi>:
  40aac8:	55                   	push   %rbp
  40aac9:	48 89 e5             	mov    %rsp,%rbp
  40aacc:	53                   	push   %rbx
  40aacd:	48 83 ec 18          	sub    $0x18,%rsp
  40aad1:	48 89 7d e8          	mov    %rdi,-0x18(%rbp)
  40aad5:	89 75 e4             	mov    %esi,-0x1c(%rbp)
  40aad8:	48 8b 45 e8          	mov    -0x18(%rbp),%rax
  40aadc:	48 89 c7             	mov    %rax,%rdi
  40aadf:	e8 ba f7 ff ff       	callq  40a29e <_ZNKSt14_Function_base8_M_emptyEv>
  40aae4:	84 c0                	test   %al,%al
  40aae6:	74 05                	je     40aaed <_ZNKSt8functionIFviEEclEi+0x25>
  40aae8:	e8 93 81 ff ff       	callq  402c80 <_ZSt25__throw_bad_function_callv@plt>
  40aaed:	48 8b 45 e8          	mov    -0x18(%rbp),%rax
  40aaf1:	48 8b 58 18          	mov    0x18(%rax),%rbx
  40aaf5:	48 8d 45 e4          	lea    -0x1c(%rbp),%rax
  40aaf9:	48 89 c7             	mov    %rax,%rdi
  40aafc:	e8 b9 ff ff ff       	callq  40aaba <_ZSt7forwardIiEOT_RNSt16remove_referenceIS0_E4typeE>
  40ab01:	48 89 c2             	mov    %rax,%rdx
  40ab04:	48 8b 45 e8          	mov    -0x18(%rbp),%rax
  40ab08:	48 89 d6             	mov    %rdx,%rsi
  40ab0b:	48 89 c7             	mov    %rax,%rdi
  40ab0e:	ff d3                	callq  *%rbx
  40ab10:	48 83 c4 18          	add    $0x18,%rsp
  40ab14:	5b                   	pop    %rbx
  40ab15:	5d                   	pop    %rbp
  40ab16:	c3                   	retq   
  40ab17:	90                   	nop

000000000040ab18 <_ZNSt6vectorISt4pairISt6threadbESaIS2_EE5beginEv>:
  40ab18:	55                   	push   %rbp
  40ab19:	48 89 e5             	mov    %rsp,%rbp
  40ab1c:	48 83 ec 20          	sub    $0x20,%rsp
  40ab20:	48 89 7d e8          	mov    %rdi,-0x18(%rbp)
  40ab24:	64 48 8b 04 25 28 00 	mov    %fs:0x28,%rax
  40ab2b:	00 00 
  40ab2d:	48 89 45 f8          	mov    %rax,-0x8(%rbp)
  40ab31:	31 c0                	xor    %eax,%eax
  40ab33:	48 8b 55 e8          	mov    -0x18(%rbp),%rdx
  40ab37:	48 8d 45 f0          	lea    -0x10(%rbp),%rax
  40ab3b:	48 89 d6             	mov    %rdx,%rsi
  40ab3e:	48 89 c7             	mov    %rax,%rdi
  40ab41:	e8 6c 06 00 00       	callq  40b1b2 <_ZN9__gnu_cxx17__normal_iteratorIPSt4pairISt6threadbESt6vectorIS3_SaIS3_EEEC1ERKS4_>
  40ab46:	48 8b 45 f0          	mov    -0x10(%rbp),%rax
  40ab4a:	48 8b 4d f8          	mov    -0x8(%rbp),%rcx
  40ab4e:	64 48 33 0c 25 28 00 	xor    %fs:0x28,%rcx
  40ab55:	00 00 
  40ab57:	74 05                	je     40ab5e <_ZNSt6vectorISt4pairISt6threadbESaIS2_EE5beginEv+0x46>
  40ab59:	e8 e2 83 ff ff       	callq  402f40 <__stack_chk_fail@plt>
  40ab5e:	c9                   	leaveq 
  40ab5f:	c3                   	retq   

000000000040ab60 <_ZNSt6vectorISt4pairISt6threadbESaIS2_EE3endEv>:
  40ab60:	55                   	push   %rbp
  40ab61:	48 89 e5             	mov    %rsp,%rbp
  40ab64:	48 83 ec 20          	sub    $0x20,%rsp
  40ab68:	48 89 7d e8          	mov    %rdi,-0x18(%rbp)
  40ab6c:	64 48 8b 04 25 28 00 	mov    %fs:0x28,%rax
  40ab73:	00 00 
  40ab75:	48 89 45 f8          	mov    %rax,-0x8(%rbp)
  40ab79:	31 c0                	xor    %eax,%eax
  40ab7b:	48 8b 45 e8          	mov    -0x18(%rbp),%rax
  40ab7f:	48 8d 50 08          	lea    0x8(%rax),%rdx
  40ab83:	48 8d 45 f0          	lea    -0x10(%rbp),%rax
  40ab87:	48 89 d6             	mov    %rdx,%rsi
  40ab8a:	48 89 c7             	mov    %rax,%rdi
  40ab8d:	e8 20 06 00 00       	callq  40b1b2 <_ZN9__gnu_cxx17__normal_iteratorIPSt4pairISt6threadbESt6vectorIS3_SaIS3_EEEC1ERKS4_>
  40ab92:	48 8b 45 f0          	mov    -0x10(%rbp),%rax
  40ab96:	48 8b 4d f8          	mov    -0x8(%rbp),%rcx
  40ab9a:	64 48 33 0c 25 28 00 	xor    %fs:0x28,%rcx
  40aba1:	00 00 
  40aba3:	74 05                	je     40abaa <_ZNSt6vectorISt4pairISt6threadbESaIS2_EE3endEv+0x4a>
  40aba5:	e8 96 83 ff ff       	callq  402f40 <__stack_chk_fail@plt>
  40abaa:	c9                   	leaveq 
  40abab:	c3                   	retq   

000000000040abac <_ZN9__gnu_cxxneIPSt4pairISt6threadbESt6vectorIS3_SaIS3_EEEEbRKNS_17__normal_iteratorIT_T0_EESD_>:
  40abac:	55                   	push   %rbp
  40abad:	48 89 e5             	mov    %rsp,%rbp
  40abb0:	53                   	push   %rbx
  40abb1:	48 83 ec 18          	sub    $0x18,%rsp
  40abb5:	48 89 7d e8          	mov    %rdi,-0x18(%rbp)
  40abb9:	48 89 75 e0          	mov    %rsi,-0x20(%rbp)
  40abbd:	48 8b 45 e8          	mov    -0x18(%rbp),%rax
  40abc1:	48 89 c7             	mov    %rax,%rdi
  40abc4:	e8 07 06 00 00       	callq  40b1d0 <_ZNK9__gnu_cxx17__normal_iteratorIPSt4pairISt6threadbESt6vectorIS3_SaIS3_EEE4baseEv>
  40abc9:	48 8b 18             	mov    (%rax),%rbx
  40abcc:	48 8b 45 e0          	mov    -0x20(%rbp),%rax
  40abd0:	48 89 c7             	mov    %rax,%rdi
  40abd3:	e8 f8 05 00 00       	callq  40b1d0 <_ZNK9__gnu_cxx17__normal_iteratorIPSt4pairISt6threadbESt6vectorIS3_SaIS3_EEE4baseEv>
  40abd8:	48 8b 00             	mov    (%rax),%rax
  40abdb:	48 39 c3             	cmp    %rax,%rbx
  40abde:	0f 95 c0             	setne  %al
  40abe1:	48 83 c4 18          	add    $0x18,%rsp
  40abe5:	5b                   	pop    %rbx
  40abe6:	5d                   	pop    %rbp
  40abe7:	c3                   	retq   

000000000040abe8 <_ZN9__gnu_cxx17__normal_iteratorIPSt4pairISt6threadbESt6vectorIS3_SaIS3_EEEppEv>:
  40abe8:	55                   	push   %rbp
  40abe9:	48 89 e5             	mov    %rsp,%rbp
  40abec:	48 89 7d f8          	mov    %rdi,-0x8(%rbp)
  40abf0:	48 8b 45 f8          	mov    -0x8(%rbp),%rax
  40abf4:	48 8b 00             	mov    (%rax),%rax
  40abf7:	48 8d 50 10          	lea    0x10(%rax),%rdx
  40abfb:	48 8b 45 f8          	mov    -0x8(%rbp),%rax
  40abff:	48 89 10             	mov    %rdx,(%rax)
  40ac02:	48 8b 45 f8          	mov    -0x8(%rbp),%rax
  40ac06:	5d                   	pop    %rbp
  40ac07:	c3                   	retq   

000000000040ac08 <_ZNK9__gnu_cxx17__normal_iteratorIPSt4pairISt6threadbESt6vectorIS3_SaIS3_EEEdeEv>:
  40ac08:	55                   	push   %rbp
  40ac09:	48 89 e5             	mov    %rsp,%rbp
  40ac0c:	48 89 7d f8          	mov    %rdi,-0x8(%rbp)
  40ac10:	48 8b 45 f8          	mov    -0x8(%rbp),%rax
  40ac14:	48 8b 00             	mov    (%rax),%rax
  40ac17:	5d                   	pop    %rbp
  40ac18:	c3                   	retq   
  40ac19:	90                   	nop

000000000040ac1a <_ZN9__gnu_cxx17__normal_iteratorIPKSt4pairISt6threadbESt6vectorIS3_SaIS3_EEEC1IPS3_EERKNS0_IT_NS_11__enable_ifIXsrSt10__are_sameISC_SB_E7__valueES8_E6__typeEEE>:
  40ac1a:	55                   	push   %rbp
  40ac1b:	48 89 e5             	mov    %rsp,%rbp
  40ac1e:	48 83 ec 10          	sub    $0x10,%rsp
  40ac22:	48 89 7d f8          	mov    %rdi,-0x8(%rbp)
  40ac26:	48 89 75 f0          	mov    %rsi,-0x10(%rbp)
  40ac2a:	48 8b 45 f0          	mov    -0x10(%rbp),%rax
  40ac2e:	48 89 c7             	mov    %rax,%rdi
  40ac31:	e8 9a 05 00 00       	callq  40b1d0 <_ZNK9__gnu_cxx17__normal_iteratorIPSt4pairISt6threadbESt6vectorIS3_SaIS3_EEE4baseEv>
  40ac36:	48 8b 10             	mov    (%rax),%rdx
  40ac39:	48 8b 45 f8          	mov    -0x8(%rbp),%rax
  40ac3d:	48 89 10             	mov    %rdx,(%rax)
  40ac40:	90                   	nop
  40ac41:	c9                   	leaveq 
  40ac42:	c3                   	retq   
  40ac43:	90                   	nop

000000000040ac44 <_ZNSt6vectorISt4pairISt6threadbESaIS2_EE5eraseEN9__gnu_cxx17__normal_iteratorIPKS2_S4_EES9_>:
  40ac44:	55                   	push   %rbp
  40ac45:	48 89 e5             	mov    %rsp,%rbp
  40ac48:	53                   	push   %rbx
  40ac49:	48 83 ec 48          	sub    $0x48,%rsp
  40ac4d:	48 89 7d c8          	mov    %rdi,-0x38(%rbp)
  40ac51:	48 89 75 c0          	mov    %rsi,-0x40(%rbp)
  40ac55:	48 89 55 b8          	mov    %rdx,-0x48(%rbp)
  40ac59:	64 48 8b 04 25 28 00 	mov    %fs:0x28,%rax
  40ac60:	00 00 
  40ac62:	48 89 45 e8          	mov    %rax,-0x18(%rbp)
  40ac66:	31 c0                	xor    %eax,%eax
  40ac68:	48 8b 45 c8          	mov    -0x38(%rbp),%rax
  40ac6c:	48 89 c7             	mov    %rax,%rdi
  40ac6f:	e8 a4 fe ff ff       	callq  40ab18 <_ZNSt6vectorISt4pairISt6threadbESaIS2_EE5beginEv>
  40ac74:	48 89 45 d8          	mov    %rax,-0x28(%rbp)
  40ac78:	48 8b 45 c8          	mov    -0x38(%rbp),%rax
  40ac7c:	48 89 c7             	mov    %rax,%rdi
  40ac7f:	e8 68 05 00 00       	callq  40b1ec <_ZNKSt6vectorISt4pairISt6threadbESaIS2_EE6cbeginEv>
  40ac84:	48 89 45 e0          	mov    %rax,-0x20(%rbp)
  40ac88:	48 8d 55 e0          	lea    -0x20(%rbp),%rdx
  40ac8c:	48 8d 45 b8          	lea    -0x48(%rbp),%rax
  40ac90:	48 89 d6             	mov    %rdx,%rsi
  40ac93:	48 89 c7             	mov    %rax,%rdi
  40ac96:	e8 a4 05 00 00       	callq  40b23f <_ZN9__gnu_cxxmiIPKSt4pairISt6threadbESt6vectorIS3_SaIS3_EEEENS_17__normal_iteratorIT_T0_E15difference_typeERKSC_SF_>
  40ac9b:	48 89 c2             	mov    %rax,%rdx
  40ac9e:	48 8d 45 d8          	lea    -0x28(%rbp),%rax
  40aca2:	48 89 d6             	mov    %rdx,%rsi
  40aca5:	48 89 c7             	mov    %rax,%rdi
  40aca8:	e8 d5 05 00 00       	callq  40b282 <_ZNK9__gnu_cxx17__normal_iteratorIPSt4pairISt6threadbESt6vectorIS3_SaIS3_EEEplEl>
  40acad:	48 89 c3             	mov    %rax,%rbx
  40acb0:	48 8d 55 e0          	lea    -0x20(%rbp),%rdx
  40acb4:	48 8d 45 c0          	lea    -0x40(%rbp),%rax
  40acb8:	48 89 d6             	mov    %rdx,%rsi
  40acbb:	48 89 c7             	mov    %rax,%rdi
  40acbe:	e8 7c 05 00 00       	callq  40b23f <_ZN9__gnu_cxxmiIPKSt4pairISt6threadbESt6vectorIS3_SaIS3_EEEENS_17__normal_iteratorIT_T0_E15difference_typeERKSC_SF_>
  40acc3:	48 89 c2             	mov    %rax,%rdx
  40acc6:	48 8d 45 d8          	lea    -0x28(%rbp),%rax
  40acca:	48 89 d6             	mov    %rdx,%rsi
  40accd:	48 89 c7             	mov    %rax,%rdi
  40acd0:	e8 ad 05 00 00       	callq  40b282 <_ZNK9__gnu_cxx17__normal_iteratorIPSt4pairISt6threadbESt6vectorIS3_SaIS3_EEEplEl>
  40acd5:	48 89 c1             	mov    %rax,%rcx
  40acd8:	48 8b 45 c8          	mov    -0x38(%rbp),%rax
  40acdc:	48 89 da             	mov    %rbx,%rdx
  40acdf:	48 89 ce             	mov    %rcx,%rsi
  40ace2:	48 89 c7             	mov    %rax,%rdi
  40ace5:	e8 fa 05 00 00       	callq  40b2e4 <_ZNSt6vectorISt4pairISt6threadbESaIS2_EE8_M_eraseEN9__gnu_cxx17__normal_iteratorIPS2_S4_EES8_>
  40acea:	48 8b 4d e8          	mov    -0x18(%rbp),%rcx
  40acee:	64 48 33 0c 25 28 00 	xor    %fs:0x28,%rcx
  40acf5:	00 00 
  40acf7:	74 05                	je     40acfe <_ZNSt6vectorISt4pairISt6threadbESaIS2_EE5eraseEN9__gnu_cxx17__normal_iteratorIPKS2_S4_EES9_+0xba>
  40acf9:	e8 42 82 ff ff       	callq  402f40 <__stack_chk_fail@plt>
  40acfe:	48 83 c4 48          	add    $0x48,%rsp
  40ad02:	5b                   	pop    %rbx
  40ad03:	5d                   	pop    %rbp
  40ad04:	c3                   	retq   
  40ad05:	90                   	nop

000000000040ad06 <_ZNSt8_Rb_treeINSt7__cxx1112basic_stringIcSt11char_traitsIcESaIcEEESt4pairIKS5_S5_ESt10_Select1stIS8_ESt4lessIS5_ESaIS8_EE5clearEv>:
  40ad06:	55                   	push   %rbp
  40ad07:	48 89 e5             	mov    %rsp,%rbp
  40ad0a:	48 83 ec 10          	sub    $0x10,%rsp
  40ad0e:	48 89 7d f8          	mov    %rdi,-0x8(%rbp)
  40ad12:	48 8b 45 f8          	mov    -0x8(%rbp),%rax
  40ad16:	48 89 c7             	mov    %rax,%rdi
  40ad19:	e8 d4 a8 ff ff       	callq  4055f2 <_ZNSt8_Rb_treeINSt7__cxx1112basic_stringIcSt11char_traitsIcESaIcEEESt4pairIKS5_S5_ESt10_Select1stIS8_ESt4lessIS5_ESaIS8_EE8_M_beginEv>
  40ad1e:	48 89 c2             	mov    %rax,%rdx
  40ad21:	48 8b 45 f8          	mov    -0x8(%rbp),%rax
  40ad25:	48 89 d6             	mov    %rdx,%rsi
  40ad28:	48 89 c7             	mov    %rax,%rdi
  40ad2b:	e8 5c a8 ff ff       	callq  40558c <_ZNSt8_Rb_treeINSt7__cxx1112basic_stringIcSt11char_traitsIcESaIcEEESt4pairIKS5_S5_ESt10_Select1stIS8_ESt4lessIS5_ESaIS8_EE8_M_eraseEPSt13_Rb_tree_nodeIS8_E>
  40ad30:	48 8b 45 f8          	mov    -0x8(%rbp),%rax
  40ad34:	48 89 c7             	mov    %rax,%rdi
  40ad37:	e8 98 06 00 00       	callq  40b3d4 <_ZNSt8_Rb_treeINSt7__cxx1112basic_stringIcSt11char_traitsIcESaIcEEESt4pairIKS5_S5_ESt10_Select1stIS8_ESt4lessIS5_ESaIS8_EE13_Rb_tree_implISC_Lb1EE8_M_resetEv>
  40ad3c:	90                   	nop
  40ad3d:	c9                   	leaveq 
  40ad3e:	c3                   	retq   
  40ad3f:	90                   	nop

000000000040ad40 <_ZNSt6vectorIhSaIhEE15_M_erase_at_endEPh>:
  40ad40:	55                   	push   %rbp
  40ad41:	48 89 e5             	mov    %rsp,%rbp
  40ad44:	48 83 ec 10          	sub    $0x10,%rsp
  40ad48:	48 89 7d f8          	mov    %rdi,-0x8(%rbp)
  40ad4c:	48 89 75 f0          	mov    %rsi,-0x10(%rbp)
  40ad50:	48 8b 45 f8          	mov    -0x8(%rbp),%rax
  40ad54:	48 89 c7             	mov    %rax,%rdi
  40ad57:	e8 2c a9 ff ff       	callq  405688 <_ZNSt12_Vector_baseIhSaIhEE19_M_get_Tp_allocatorEv>
  40ad5c:	48 89 c2             	mov    %rax,%rdx
  40ad5f:	48 8b 45 f8          	mov    -0x8(%rbp),%rax
  40ad63:	48 8b 48 08          	mov    0x8(%rax),%rcx
  40ad67:	48 8b 45 f0          	mov    -0x10(%rbp),%rax
  40ad6b:	48 89 ce             	mov    %rcx,%rsi
  40ad6e:	48 89 c7             	mov    %rax,%rdi
  40ad71:	e8 20 a9 ff ff       	callq  405696 <_ZSt8_DestroyIPhhEvT_S1_RSaIT0_E>
  40ad76:	48 8b 45 f8          	mov    -0x8(%rbp),%rax
  40ad7a:	48 8b 55 f0          	mov    -0x10(%rbp),%rdx
  40ad7e:	48 89 50 08          	mov    %rdx,0x8(%rax)
  40ad82:	90                   	nop
  40ad83:	c9                   	leaveq 
  40ad84:	c3                   	retq   

000000000040ad85 <_ZSt7forwardISt5tupleIJRKNSt7__cxx1112basic_stringIcSt11char_traitsIcESaIcEEEEEEOT_RNSt16remove_referenceISA_E4typeE>:
  40ad85:	55                   	push   %rbp
  40ad86:	48 89 e5             	mov    %rsp,%rbp
  40ad89:	48 89 7d f8          	mov    %rdi,-0x8(%rbp)
  40ad8d:	48 8b 45 f8          	mov    -0x8(%rbp),%rax
  40ad91:	5d                   	pop    %rbp
  40ad92:	c3                   	retq   
  40ad93:	90                   	nop

000000000040ad94 <_ZNSt8_Rb_treeINSt7__cxx1112basic_stringIcSt11char_traitsIcESaIcEEESt4pairIKS5_S5_ESt10_Select1stIS8_ESt4lessIS5_ESaIS8_EE22_M_emplace_hint_uniqueIJRKSt21piecewise_construct_tSt5tupleIJRS7_EESJ_IJEEEEESt17_Rb_tree_iteratorIS8_ESt23_Rb_tree_const_iteratorIS8_EDpOT_>:
  40ad94:	55                   	push   %rbp
  40ad95:	48 89 e5             	mov    %rsp,%rbp
  40ad98:	41 54                	push   %r12
  40ad9a:	53                   	push   %rbx
  40ad9b:	48 83 ec 60          	sub    $0x60,%rsp
  40ad9f:	48 89 7d b8          	mov    %rdi,-0x48(%rbp)
  40ada3:	48 89 75 b0          	mov    %rsi,-0x50(%rbp)
  40ada7:	48 89 55 a8          	mov    %rdx,-0x58(%rbp)
  40adab:	48 89 4d a0          	mov    %rcx,-0x60(%rbp)
  40adaf:	4c 89 45 98          	mov    %r8,-0x68(%rbp)
  40adb3:	64 48 8b 04 25 28 00 	mov    %fs:0x28,%rax
  40adba:	00 00 
  40adbc:	48 89 45 e8          	mov    %rax,-0x18(%rbp)
  40adc0:	31 c0                	xor    %eax,%eax
  40adc2:	48 8b 45 98          	mov    -0x68(%rbp),%rax
  40adc6:	48 89 c7             	mov    %rax,%rdi
  40adc9:	e8 b9 a9 ff ff       	callq  405787 <_ZSt7forwardISt5tupleIJEEEOT_RNSt16remove_referenceIS2_E4typeE>
  40adce:	49 89 c4             	mov    %rax,%r12
  40add1:	48 8b 45 a0          	mov    -0x60(%rbp),%rax
  40add5:	48 89 c7             	mov    %rax,%rdi
  40add8:	e8 a8 ff ff ff       	callq  40ad85 <_ZSt7forwardISt5tupleIJRKNSt7__cxx1112basic_stringIcSt11char_traitsIcESaIcEEEEEEOT_RNSt16remove_referenceISA_E4typeE>
  40addd:	48 89 c3             	mov    %rax,%rbx
  40ade0:	48 8b 45 a8          	mov    -0x58(%rbp),%rax
  40ade4:	48 89 c7             	mov    %rax,%rdi
  40ade7:	e8 7f a9 ff ff       	callq  40576b <_ZSt7forwardIRKSt21piecewise_construct_tEOT_RNSt16remove_referenceIS3_E4typeE>
  40adec:	48 89 c6             	mov    %rax,%rsi
  40adef:	48 8b 45 b8          	mov    -0x48(%rbp),%rax
  40adf3:	4c 89 e1             	mov    %r12,%rcx
  40adf6:	48 89 da             	mov    %rbx,%rdx
  40adf9:	48 89 c7             	mov    %rax,%rdi
  40adfc:	e8 17 06 00 00       	callq  40b418 <_ZNSt8_Rb_treeINSt7__cxx1112basic_stringIcSt11char_traitsIcESaIcEEESt4pairIKS5_S5_ESt10_Select1stIS8_ESt4lessIS5_ESaIS8_EE14_M_create_nodeIJRKSt21piecewise_construct_tSt5tupleIJRS7_EESJ_IJEEEEEPSt13_Rb_tree_nodeIS8_EDpOT_>
  40ae01:	48 89 45 c8          	mov    %rax,-0x38(%rbp)
  40ae05:	48 8b 45 c8          	mov    -0x38(%rbp),%rax
  40ae09:	48 89 c7             	mov    %rax,%rdi
  40ae0c:	e8 fb b7 ff ff       	callq  40660c <_ZNSt8_Rb_treeINSt7__cxx1112basic_stringIcSt11char_traitsIcESaIcEEESt4pairIKS5_S5_ESt10_Select1stIS8_ESt4lessIS5_ESaIS8_EE6_S_keyEPKSt13_Rb_tree_nodeIS8_E>
  40ae11:	48 89 c2             	mov    %rax,%rdx
  40ae14:	48 8b 4d b0          	mov    -0x50(%rbp),%rcx
  40ae18:	48 8b 45 b8          	mov    -0x48(%rbp),%rax
  40ae1c:	48 89 ce             	mov    %rcx,%rsi
  40ae1f:	48 89 c7             	mov    %rax,%rdi
  40ae22:	e8 49 b4 ff ff       	callq  406270 <_ZNSt8_Rb_treeINSt7__cxx1112basic_stringIcSt11char_traitsIcESaIcEEESt4pairIKS5_S5_ESt10_Select1stIS8_ESt4lessIS5_ESaIS8_EE29_M_get_insert_hint_unique_posESt23_Rb_tree_const_iteratorIS8_ERS7_>
  40ae27:	48 89 45 d0          	mov    %rax,-0x30(%rbp)
  40ae2b:	48 89 55 d8          	mov    %rdx,-0x28(%rbp)
  40ae2f:	48 8b 45 d8          	mov    -0x28(%rbp),%rax
  40ae33:	48 85 c0             	test   %rax,%rax
  40ae36:	74 1a                	je     40ae52 <_ZNSt8_Rb_treeINSt7__cxx1112basic_stringIcSt11char_traitsIcESaIcEEESt4pairIKS5_S5_ESt10_Select1stIS8_ESt4lessIS5_ESaIS8_EE22_M_emplace_hint_uniqueIJRKSt21piecewise_construct_tSt5tupleIJRS7_EESJ_IJEEEEESt17_Rb_tree_iteratorIS8_ESt23_Rb_tree_const_iteratorIS8_EDpOT_+0xbe>
  40ae38:	48 8b 55 d8          	mov    -0x28(%rbp),%rdx
  40ae3c:	48 8b 75 d0          	mov    -0x30(%rbp),%rsi
  40ae40:	48 8b 4d c8          	mov    -0x38(%rbp),%rcx
  40ae44:	48 8b 45 b8          	mov    -0x48(%rbp),%rax
  40ae48:	48 89 c7             	mov    %rax,%rdi
  40ae4b:	e8 0c b8 ff ff       	callq  40665c <_ZNSt8_Rb_treeINSt7__cxx1112basic_stringIcSt11char_traitsIcESaIcEEESt4pairIKS5_S5_ESt10_Select1stIS8_ESt4lessIS5_ESaIS8_EE14_M_insert_nodeEPSt18_Rb_tree_node_baseSG_PSt13_Rb_tree_nodeIS8_E>
  40ae50:	eb 2a                	jmp    40ae7c <_ZNSt8_Rb_treeINSt7__cxx1112basic_stringIcSt11char_traitsIcESaIcEEESt4pairIKS5_S5_ESt10_Select1stIS8_ESt4lessIS5_ESaIS8_EE22_M_emplace_hint_uniqueIJRKSt21piecewise_construct_tSt5tupleIJRS7_EESJ_IJEEEEESt17_Rb_tree_iteratorIS8_ESt23_Rb_tree_const_iteratorIS8_EDpOT_+0xe8>
  40ae52:	48 8b 55 c8          	mov    -0x38(%rbp),%rdx
  40ae56:	48 8b 45 b8          	mov    -0x48(%rbp),%rax
  40ae5a:	48 89 d6             	mov    %rdx,%rsi
  40ae5d:	48 89 c7             	mov    %rax,%rdi
  40ae60:	e8 7f b1 ff ff       	callq  405fe4 <_ZNSt8_Rb_treeINSt7__cxx1112basic_stringIcSt11char_traitsIcESaIcEEESt4pairIKS5_S5_ESt10_Select1stIS8_ESt4lessIS5_ESaIS8_EE12_M_drop_nodeEPSt13_Rb_tree_nodeIS8_E>
  40ae65:	48 8b 55 d0          	mov    -0x30(%rbp),%rdx
  40ae69:	48 8d 45 c0          	lea    -0x40(%rbp),%rax
  40ae6d:	48 89 d6             	mov    %rdx,%rsi
  40ae70:	48 89 c7             	mov    %rax,%rdi
  40ae73:	e8 ca b8 ff ff       	callq  406742 <_ZNSt17_Rb_tree_iteratorISt4pairIKNSt7__cxx1112basic_stringIcSt11char_traitsIcESaIcEEES6_EEC1EPSt18_Rb_tree_node_base>
  40ae78:	48 8b 45 c0          	mov    -0x40(%rbp),%rax
  40ae7c:	48 8b 5d e8          	mov    -0x18(%rbp),%rbx
  40ae80:	64 48 33 1c 25 28 00 	xor    %fs:0x28,%rbx
  40ae87:	00 00 
  40ae89:	74 3a                	je     40aec5 <_ZNSt8_Rb_treeINSt7__cxx1112basic_stringIcSt11char_traitsIcESaIcEEESt4pairIKS5_S5_ESt10_Select1stIS8_ESt4lessIS5_ESaIS8_EE22_M_emplace_hint_uniqueIJRKSt21piecewise_construct_tSt5tupleIJRS7_EESJ_IJEEEEESt17_Rb_tree_iteratorIS8_ESt23_Rb_tree_const_iteratorIS8_EDpOT_+0x131>
  40ae8b:	eb 33                	jmp    40aec0 <_ZNSt8_Rb_treeINSt7__cxx1112basic_stringIcSt11char_traitsIcESaIcEEESt4pairIKS5_S5_ESt10_Select1stIS8_ESt4lessIS5_ESaIS8_EE22_M_emplace_hint_uniqueIJRKSt21piecewise_construct_tSt5tupleIJRS7_EESJ_IJEEEEESt17_Rb_tree_iteratorIS8_ESt23_Rb_tree_const_iteratorIS8_EDpOT_+0x12c>
  40ae8d:	48 89 c7             	mov    %rax,%rdi
  40ae90:	e8 fb 7d ff ff       	callq  402c90 <__cxa_begin_catch@plt>
  40ae95:	48 8b 55 c8          	mov    -0x38(%rbp),%rdx
  40ae99:	48 8b 45 b8          	mov    -0x48(%rbp),%rax
  40ae9d:	48 89 d6             	mov    %rdx,%rsi
  40aea0:	48 89 c7             	mov    %rax,%rdi
  40aea3:	e8 3c b1 ff ff       	callq  405fe4 <_ZNSt8_Rb_treeINSt7__cxx1112basic_stringIcSt11char_traitsIcESaIcEEESt4pairIKS5_S5_ESt10_Select1stIS8_ESt4lessIS5_ESaIS8_EE12_M_drop_nodeEPSt13_Rb_tree_nodeIS8_E>
  40aea8:	e8 33 81 ff ff       	callq  402fe0 <__cxa_rethrow@plt>
  40aead:	48 89 c3             	mov    %rax,%rbx
  40aeb0:	e8 bb 81 ff ff       	callq  403070 <__cxa_end_catch@plt>
  40aeb5:	48 89 d8             	mov    %rbx,%rax
  40aeb8:	48 89 c7             	mov    %rax,%rdi
  40aebb:	e8 30 82 ff ff       	callq  4030f0 <_Unwind_Resume@plt>
  40aec0:	e8 7b 80 ff ff       	callq  402f40 <__stack_chk_fail@plt>
  40aec5:	48 83 c4 60          	add    $0x60,%rsp
  40aec9:	5b                   	pop    %rbx
  40aeca:	41 5c                	pop    %r12
  40aecc:	5d                   	pop    %rbp
  40aecd:	c3                   	retq   

000000000040aece <_ZN9__gnu_cxx17__normal_iteratorIPhSt6vectorIhSaIhEEEC1ERKS1_>:
  40aece:	55                   	push   %rbp
  40aecf:	48 89 e5             	mov    %rsp,%rbp
  40aed2:	48 89 7d f8          	mov    %rdi,-0x8(%rbp)
  40aed6:	48 89 75 f0          	mov    %rsi,-0x10(%rbp)
  40aeda:	48 8b 45 f0          	mov    -0x10(%rbp),%rax
  40aede:	48 8b 10             	mov    (%rax),%rdx
  40aee1:	48 8b 45 f8          	mov    -0x8(%rbp),%rax
  40aee5:	48 89 10             	mov    %rdx,(%rax)
  40aee8:	90                   	nop
  40aee9:	5d                   	pop    %rbp
  40aeea:	c3                   	retq   
  40aeeb:	90                   	nop

000000000040aeec <_ZNK9__gnu_cxx17__normal_iteratorIPhSt6vectorIhSaIhEEE4baseEv>:
  40aeec:	55                   	push   %rbp
  40aeed:	48 89 e5             	mov    %rsp,%rbp
  40aef0:	48 89 7d f8          	mov    %rdi,-0x8(%rbp)
  40aef4:	48 8b 45 f8          	mov    -0x8(%rbp),%rax
  40aef8:	5d                   	pop    %rbp
  40aef9:	c3                   	retq   

000000000040aefa <_ZNKSt6vectorIhSaIhEE6cbeginEv>:
  40aefa:	55                   	push   %rbp
  40aefb:	48 89 e5             	mov    %rsp,%rbp
  40aefe:	48 83 ec 30          	sub    $0x30,%rsp
  40af02:	48 89 7d d8          	mov    %rdi,-0x28(%rbp)
  40af06:	64 48 8b 04 25 28 00 	mov    %fs:0x28,%rax
  40af0d:	00 00 
  40af0f:	48 89 45 f8          	mov    %rax,-0x8(%rbp)
  40af13:	31 c0                	xor    %eax,%eax
  40af15:	48 8b 45 d8          	mov    -0x28(%rbp),%rax
  40af19:	48 8b 00             	mov    (%rax),%rax
  40af1c:	48 89 45 e8          	mov    %rax,-0x18(%rbp)
  40af20:	48 8d 55 e8          	lea    -0x18(%rbp),%rdx
  40af24:	48 8d 45 f0          	lea    -0x10(%rbp),%rax
  40af28:	48 89 d6             	mov    %rdx,%rsi
  40af2b:	48 89 c7             	mov    %rax,%rdi
  40af2e:	e8 61 05 00 00       	callq  40b494 <_ZN9__gnu_cxx17__normal_iteratorIPKhSt6vectorIhSaIhEEEC1ERKS2_>
  40af33:	48 8b 45 f0          	mov    -0x10(%rbp),%rax
  40af37:	48 8b 4d f8          	mov    -0x8(%rbp),%rcx
  40af3b:	64 48 33 0c 25 28 00 	xor    %fs:0x28,%rcx
  40af42:	00 00 
  40af44:	74 05                	je     40af4b <_ZNKSt6vectorIhSaIhEE6cbeginEv+0x51>
  40af46:	e8 f5 7f ff ff       	callq  402f40 <__stack_chk_fail@plt>
  40af4b:	c9                   	leaveq 
  40af4c:	c3                   	retq   

000000000040af4d <_ZN9__gnu_cxxmiIPKhSt6vectorIhSaIhEEEENS_17__normal_iteratorIT_T0_E15difference_typeERKS9_SC_>:
  40af4d:	55                   	push   %rbp
  40af4e:	48 89 e5             	mov    %rsp,%rbp
  40af51:	53                   	push   %rbx
  40af52:	48 83 ec 18          	sub    $0x18,%rsp
  40af56:	48 89 7d e8          	mov    %rdi,-0x18(%rbp)
  40af5a:	48 89 75 e0          	mov    %rsi,-0x20(%rbp)
  40af5e:	48 8b 45 e8          	mov    -0x18(%rbp),%rax
  40af62:	48 89 c7             	mov    %rax,%rdi
  40af65:	e8 48 05 00 00       	callq  40b4b2 <_ZNK9__gnu_cxx17__normal_iteratorIPKhSt6vectorIhSaIhEEE4baseEv>
  40af6a:	48 8b 00             	mov    (%rax),%rax
  40af6d:	48 89 c3             	mov    %rax,%rbx
  40af70:	48 8b 45 e0          	mov    -0x20(%rbp),%rax
  40af74:	48 89 c7             	mov    %rax,%rdi
  40af77:	e8 36 05 00 00       	callq  40b4b2 <_ZNK9__gnu_cxx17__normal_iteratorIPKhSt6vectorIhSaIhEEE4baseEv>
  40af7c:	48 8b 00             	mov    (%rax),%rax
  40af7f:	48 29 c3             	sub    %rax,%rbx
  40af82:	48 89 d8             	mov    %rbx,%rax
  40af85:	48 83 c4 18          	add    $0x18,%rsp
  40af89:	5b                   	pop    %rbx
  40af8a:	5d                   	pop    %rbp
  40af8b:	c3                   	retq   

000000000040af8c <_ZNSt6vectorIhSaIhEE5beginEv>:
  40af8c:	55                   	push   %rbp
  40af8d:	48 89 e5             	mov    %rsp,%rbp
  40af90:	48 83 ec 20          	sub    $0x20,%rsp
  40af94:	48 89 7d e8          	mov    %rdi,-0x18(%rbp)
  40af98:	64 48 8b 04 25 28 00 	mov    %fs:0x28,%rax
  40af9f:	00 00 
  40afa1:	48 89 45 f8          	mov    %rax,-0x8(%rbp)
  40afa5:	31 c0                	xor    %eax,%eax
  40afa7:	48 8b 55 e8          	mov    -0x18(%rbp),%rdx
  40afab:	48 8d 45 f0          	lea    -0x10(%rbp),%rax
  40afaf:	48 89 d6             	mov    %rdx,%rsi
  40afb2:	48 89 c7             	mov    %rax,%rdi
  40afb5:	e8 14 ff ff ff       	callq  40aece <_ZN9__gnu_cxx17__normal_iteratorIPhSt6vectorIhSaIhEEEC1ERKS1_>
  40afba:	48 8b 45 f0          	mov    -0x10(%rbp),%rax
  40afbe:	48 8b 4d f8          	mov    -0x8(%rbp),%rcx
  40afc2:	64 48 33 0c 25 28 00 	xor    %fs:0x28,%rcx
  40afc9:	00 00 
  40afcb:	74 05                	je     40afd2 <_ZNSt6vectorIhSaIhEE5beginEv+0x46>
  40afcd:	e8 6e 7f ff ff       	callq  402f40 <__stack_chk_fail@plt>
  40afd2:	c9                   	leaveq 
  40afd3:	c3                   	retq   

000000000040afd4 <_ZNK9__gnu_cxx17__normal_iteratorIPhSt6vectorIhSaIhEEEplEl>:
  40afd4:	55                   	push   %rbp
  40afd5:	48 89 e5             	mov    %rsp,%rbp
  40afd8:	48 83 ec 30          	sub    $0x30,%rsp
  40afdc:	48 89 7d d8          	mov    %rdi,-0x28(%rbp)
  40afe0:	48 89 75 d0          	mov    %rsi,-0x30(%rbp)
  40afe4:	64 48 8b 04 25 28 00 	mov    %fs:0x28,%rax
  40afeb:	00 00 
  40afed:	48 89 45 f8          	mov    %rax,-0x8(%rbp)
  40aff1:	31 c0                	xor    %eax,%eax
  40aff3:	48 8b 45 d8          	mov    -0x28(%rbp),%rax
  40aff7:	48 8b 10             	mov    (%rax),%rdx
  40affa:	48 8b 45 d0          	mov    -0x30(%rbp),%rax
  40affe:	48 01 d0             	add    %rdx,%rax
  40b001:	48 89 45 e8          	mov    %rax,-0x18(%rbp)
  40b005:	48 8d 55 e8          	lea    -0x18(%rbp),%rdx
  40b009:	48 8d 45 f0          	lea    -0x10(%rbp),%rax
  40b00d:	48 89 d6             	mov    %rdx,%rsi
  40b010:	48 89 c7             	mov    %rax,%rdi
  40b013:	e8 b6 fe ff ff       	callq  40aece <_ZN9__gnu_cxx17__normal_iteratorIPhSt6vectorIhSaIhEEEC1ERKS1_>
  40b018:	48 8b 45 f0          	mov    -0x10(%rbp),%rax
  40b01c:	48 8b 4d f8          	mov    -0x8(%rbp),%rcx
  40b020:	64 48 33 0c 25 28 00 	xor    %fs:0x28,%rcx
  40b027:	00 00 
  40b029:	74 05                	je     40b030 <_ZNK9__gnu_cxx17__normal_iteratorIPhSt6vectorIhSaIhEEEplEl+0x5c>
  40b02b:	e8 10 7f ff ff       	callq  402f40 <__stack_chk_fail@plt>
  40b030:	c9                   	leaveq 
  40b031:	c3                   	retq   

000000000040b032 <_ZNSt6vectorIhSaIhEE18_M_insert_dispatchIPKcEEvN9__gnu_cxx17__normal_iteratorIPhS1_EET_S9_St12__false_type>:
  40b032:	55                   	push   %rbp
  40b033:	48 89 e5             	mov    %rsp,%rbp
  40b036:	48 83 ec 30          	sub    $0x30,%rsp
  40b03a:	48 89 7d e8          	mov    %rdi,-0x18(%rbp)
  40b03e:	48 89 75 e0          	mov    %rsi,-0x20(%rbp)
  40b042:	48 89 55 d8          	mov    %rdx,-0x28(%rbp)
  40b046:	48 89 4d d0          	mov    %rcx,-0x30(%rbp)
  40b04a:	64 48 8b 04 25 28 00 	mov    %fs:0x28,%rax
  40b051:	00 00 
  40b053:	48 89 45 f8          	mov    %rax,-0x8(%rbp)
  40b057:	31 c0                	xor    %eax,%eax
  40b059:	48 8b 4d d0          	mov    -0x30(%rbp),%rcx
  40b05d:	48 8b 55 d8          	mov    -0x28(%rbp),%rdx
  40b061:	48 8b 75 e0          	mov    -0x20(%rbp),%rsi
  40b065:	48 8b 45 e8          	mov    -0x18(%rbp),%rax
  40b069:	48 83 ec 08          	sub    $0x8,%rsp
  40b06d:	41 50                	push   %r8
  40b06f:	48 89 c7             	mov    %rax,%rdi
  40b072:	e8 49 04 00 00       	callq  40b4c0 <_ZNSt6vectorIhSaIhEE15_M_range_insertIPKcEEvN9__gnu_cxx17__normal_iteratorIPhS1_EET_S9_St20forward_iterator_tag>
  40b077:	48 83 c4 10          	add    $0x10,%rsp
  40b07b:	90                   	nop
  40b07c:	48 8b 45 f8          	mov    -0x8(%rbp),%rax
  40b080:	64 48 33 04 25 28 00 	xor    %fs:0x28,%rax
  40b087:	00 00 
  40b089:	74 05                	je     40b090 <_ZNSt6vectorIhSaIhEE18_M_insert_dispatchIPKcEEvN9__gnu_cxx17__normal_iteratorIPhS1_EET_S9_St12__false_type+0x5e>
  40b08b:	e8 b0 7e ff ff       	callq  402f40 <__stack_chk_fail@plt>
  40b090:	c9                   	leaveq 
  40b091:	c3                   	retq   

000000000040b092 <_ZNSt6vectorIhSaIhEE18_M_insert_dispatchIPcEEvN9__gnu_cxx17__normal_iteratorIPhS1_EET_S8_St12__false_type>:
  40b092:	55                   	push   %rbp
  40b093:	48 89 e5             	mov    %rsp,%rbp
  40b096:	48 83 ec 30          	sub    $0x30,%rsp
  40b09a:	48 89 7d e8          	mov    %rdi,-0x18(%rbp)
  40b09e:	48 89 75 e0          	mov    %rsi,-0x20(%rbp)
  40b0a2:	48 89 55 d8          	mov    %rdx,-0x28(%rbp)
  40b0a6:	48 89 4d d0          	mov    %rcx,-0x30(%rbp)
  40b0aa:	64 48 8b 04 25 28 00 	mov    %fs:0x28,%rax
  40b0b1:	00 00 
  40b0b3:	48 89 45 f8          	mov    %rax,-0x8(%rbp)
  40b0b7:	31 c0                	xor    %eax,%eax
  40b0b9:	48 8b 4d d0          	mov    -0x30(%rbp),%rcx
  40b0bd:	48 8b 55 d8          	mov    -0x28(%rbp),%rdx
  40b0c1:	48 8b 75 e0          	mov    -0x20(%rbp),%rsi
  40b0c5:	48 8b 45 e8          	mov    -0x18(%rbp),%rax
  40b0c9:	48 83 ec 08          	sub    $0x8,%rsp
  40b0cd:	41 50                	push   %r8
  40b0cf:	48 89 c7             	mov    %rax,%rdi
  40b0d2:	e8 d7 07 00 00       	callq  40b8ae <_ZNSt6vectorIhSaIhEE15_M_range_insertIPcEEvN9__gnu_cxx17__normal_iteratorIPhS1_EET_S8_St20forward_iterator_tag>
  40b0d7:	48 83 c4 10          	add    $0x10,%rsp
  40b0db:	90                   	nop
  40b0dc:	48 8b 45 f8          	mov    -0x8(%rbp),%rax
  40b0e0:	64 48 33 04 25 28 00 	xor    %fs:0x28,%rax
  40b0e7:	00 00 
  40b0e9:	74 05                	je     40b0f0 <_ZNSt6vectorIhSaIhEE18_M_insert_dispatchIPcEEvN9__gnu_cxx17__normal_iteratorIPhS1_EET_S8_St12__false_type+0x5e>
  40b0eb:	e8 50 7e ff ff       	callq  402f40 <__stack_chk_fail@plt>
  40b0f0:	c9                   	leaveq 
  40b0f1:	c3                   	retq   

000000000040b0f2 <_ZNSt12_Vector_baseISt4pairISt6threadbESaIS2_EE12_Vector_implD1Ev>:
  40b0f2:	55                   	push   %rbp
  40b0f3:	48 89 e5             	mov    %rsp,%rbp
  40b0f6:	48 83 ec 10          	sub    $0x10,%rsp
  40b0fa:	48 89 7d f8          	mov    %rdi,-0x8(%rbp)
  40b0fe:	48 8b 45 f8          	mov    -0x8(%rbp),%rax
  40b102:	48 89 c7             	mov    %rax,%rdi
  40b105:	e8 d0 0b 00 00       	callq  40bcda <_ZNSaISt4pairISt6threadbEED1Ev>
  40b10a:	90                   	nop
  40b10b:	c9                   	leaveq 
  40b10c:	c3                   	retq   
  40b10d:	90                   	nop

000000000040b10e <_ZNSt12_Vector_baseISt4pairISt6threadbESaIS2_EEC1Ev>:
  40b10e:	55                   	push   %rbp
  40b10f:	48 89 e5             	mov    %rsp,%rbp
  40b112:	48 83 ec 10          	sub    $0x10,%rsp
  40b116:	48 89 7d f8          	mov    %rdi,-0x8(%rbp)
  40b11a:	48 8b 45 f8          	mov    -0x8(%rbp),%rax
  40b11e:	48 89 c7             	mov    %rax,%rdi
  40b121:	e8 76 0b 00 00       	callq  40bc9c <_ZNSt12_Vector_baseISt4pairISt6threadbESaIS2_EE12_Vector_implC1Ev>
  40b126:	90                   	nop
  40b127:	c9                   	leaveq 
  40b128:	c3                   	retq   
  40b129:	90                   	nop

000000000040b12a <_ZNSt12_Vector_baseISt4pairISt6threadbESaIS2_EED1Ev>:
  40b12a:	55                   	push   %rbp
  40b12b:	48 89 e5             	mov    %rsp,%rbp
  40b12e:	48 83 ec 10          	sub    $0x10,%rsp
  40b132:	48 89 7d f8          	mov    %rdi,-0x8(%rbp)
  40b136:	48 8b 45 f8          	mov    -0x8(%rbp),%rax
  40b13a:	48 8b 40 10          	mov    0x10(%rax),%rax
  40b13e:	48 89 c2             	mov    %rax,%rdx
  40b141:	48 8b 45 f8          	mov    -0x8(%rbp),%rax
  40b145:	48 8b 00             	mov    (%rax),%rax
  40b148:	48 29 c2             	sub    %rax,%rdx
  40b14b:	48 89 d0             	mov    %rdx,%rax
  40b14e:	48 c1 f8 04          	sar    $0x4,%rax
  40b152:	48 89 c2             	mov    %rax,%rdx
  40b155:	48 8b 45 f8          	mov    -0x8(%rbp),%rax
  40b159:	48 8b 08             	mov    (%rax),%rcx
  40b15c:	48 8b 45 f8          	mov    -0x8(%rbp),%rax
  40b160:	48 89 ce             	mov    %rcx,%rsi
  40b163:	48 89 c7             	mov    %rax,%rdi
  40b166:	e8 8b 0b 00 00       	callq  40bcf6 <_ZNSt12_Vector_baseISt4pairISt6threadbESaIS2_EE13_M_deallocateEPS2_m>
  40b16b:	48 8b 45 f8          	mov    -0x8(%rbp),%rax
  40b16f:	48 89 c7             	mov    %rax,%rdi
  40b172:	e8 7b ff ff ff       	callq  40b0f2 <_ZNSt12_Vector_baseISt4pairISt6threadbESaIS2_EE12_Vector_implD1Ev>
  40b177:	90                   	nop
  40b178:	c9                   	leaveq 
  40b179:	c3                   	retq   

000000000040b17a <_ZNSt12_Vector_baseISt4pairISt6threadbESaIS2_EE19_M_get_Tp_allocatorEv>:
  40b17a:	55                   	push   %rbp
  40b17b:	48 89 e5             	mov    %rsp,%rbp
  40b17e:	48 89 7d f8          	mov    %rdi,-0x8(%rbp)
  40b182:	48 8b 45 f8          	mov    -0x8(%rbp),%rax
  40b186:	5d                   	pop    %rbp
  40b187:	c3                   	retq   

000000000040b188 <_ZSt8_DestroyIPSt4pairISt6threadbES2_EvT_S4_RSaIT0_E>:
  40b188:	55                   	push   %rbp
  40b189:	48 89 e5             	mov    %rsp,%rbp
  40b18c:	48 83 ec 20          	sub    $0x20,%rsp
  40b190:	48 89 7d f8          	mov    %rdi,-0x8(%rbp)
  40b194:	48 89 75 f0          	mov    %rsi,-0x10(%rbp)
  40b198:	48 89 55 e8          	mov    %rdx,-0x18(%rbp)
  40b19c:	48 8b 55 f0          	mov    -0x10(%rbp),%rdx
  40b1a0:	48 8b 45 f8          	mov    -0x8(%rbp),%rax
  40b1a4:	48 89 d6             	mov    %rdx,%rsi
  40b1a7:	48 89 c7             	mov    %rax,%rdi
  40b1aa:	e8 7c 0b 00 00       	callq  40bd2b <_ZSt8_DestroyIPSt4pairISt6threadbEEvT_S4_>
  40b1af:	90                   	nop
  40b1b0:	c9                   	leaveq 
  40b1b1:	c3                   	retq   

000000000040b1b2 <_ZN9__gnu_cxx17__normal_iteratorIPSt4pairISt6threadbESt6vectorIS3_SaIS3_EEEC1ERKS4_>:
  40b1b2:	55                   	push   %rbp
  40b1b3:	48 89 e5             	mov    %rsp,%rbp
  40b1b6:	48 89 7d f8          	mov    %rdi,-0x8(%rbp)
  40b1ba:	48 89 75 f0          	mov    %rsi,-0x10(%rbp)
  40b1be:	48 8b 45 f0          	mov    -0x10(%rbp),%rax
  40b1c2:	48 8b 10             	mov    (%rax),%rdx
  40b1c5:	48 8b 45 f8          	mov    -0x8(%rbp),%rax
  40b1c9:	48 89 10             	mov    %rdx,(%rax)
  40b1cc:	90                   	nop
  40b1cd:	5d                   	pop    %rbp
  40b1ce:	c3                   	retq   
  40b1cf:	90                   	nop

000000000040b1d0 <_ZNK9__gnu_cxx17__normal_iteratorIPSt4pairISt6threadbESt6vectorIS3_SaIS3_EEE4baseEv>:
  40b1d0:	55                   	push   %rbp
  40b1d1:	48 89 e5             	mov    %rsp,%rbp
  40b1d4:	48 89 7d f8          	mov    %rdi,-0x8(%rbp)
  40b1d8:	48 8b 45 f8          	mov    -0x8(%rbp),%rax
  40b1dc:	5d                   	pop    %rbp
  40b1dd:	c3                   	retq   

000000000040b1de <_ZSt4moveIRSt4pairISt6threadbEEONSt16remove_referenceIT_E4typeEOS5_>:
  40b1de:	55                   	push   %rbp
  40b1df:	48 89 e5             	mov    %rsp,%rbp
  40b1e2:	48 89 7d f8          	mov    %rdi,-0x8(%rbp)
  40b1e6:	48 8b 45 f8          	mov    -0x8(%rbp),%rax
  40b1ea:	5d                   	pop    %rbp
  40b1eb:	c3                   	retq   

000000000040b1ec <_ZNKSt6vectorISt4pairISt6threadbESaIS2_EE6cbeginEv>:
  40b1ec:	55                   	push   %rbp
  40b1ed:	48 89 e5             	mov    %rsp,%rbp
  40b1f0:	48 83 ec 30          	sub    $0x30,%rsp
  40b1f4:	48 89 7d d8          	mov    %rdi,-0x28(%rbp)
  40b1f8:	64 48 8b 04 25 28 00 	mov    %fs:0x28,%rax
  40b1ff:	00 00 
  40b201:	48 89 45 f8          	mov    %rax,-0x8(%rbp)
  40b205:	31 c0                	xor    %eax,%eax
  40b207:	48 8b 45 d8          	mov    -0x28(%rbp),%rax
  40b20b:	48 8b 00             	mov    (%rax),%rax
  40b20e:	48 89 45 e8          	mov    %rax,-0x18(%rbp)
  40b212:	48 8d 55 e8          	lea    -0x18(%rbp),%rdx
  40b216:	48 8d 45 f0          	lea    -0x10(%rbp),%rax
  40b21a:	48 89 d6             	mov    %rdx,%rsi
  40b21d:	48 89 c7             	mov    %rax,%rdi
  40b220:	e8 af 0d 00 00       	callq  40bfd4 <_ZN9__gnu_cxx17__normal_iteratorIPKSt4pairISt6threadbESt6vectorIS3_SaIS3_EEEC1ERKS5_>
  40b225:	48 8b 45 f0          	mov    -0x10(%rbp),%rax
  40b229:	48 8b 4d f8          	mov    -0x8(%rbp),%rcx
  40b22d:	64 48 33 0c 25 28 00 	xor    %fs:0x28,%rcx
  40b234:	00 00 
  40b236:	74 05                	je     40b23d <_ZNKSt6vectorISt4pairISt6threadbESaIS2_EE6cbeginEv+0x51>
  40b238:	e8 03 7d ff ff       	callq  402f40 <__stack_chk_fail@plt>
  40b23d:	c9                   	leaveq 
  40b23e:	c3                   	retq   

000000000040b23f <_ZN9__gnu_cxxmiIPKSt4pairISt6threadbESt6vectorIS3_SaIS3_EEEENS_17__normal_iteratorIT_T0_E15difference_typeERKSC_SF_>:
  40b23f:	55                   	push   %rbp
  40b240:	48 89 e5             	mov    %rsp,%rbp
  40b243:	53                   	push   %rbx
  40b244:	48 83 ec 18          	sub    $0x18,%rsp
  40b248:	48 89 7d e8          	mov    %rdi,-0x18(%rbp)
  40b24c:	48 89 75 e0          	mov    %rsi,-0x20(%rbp)
  40b250:	48 8b 45 e8          	mov    -0x18(%rbp),%rax
  40b254:	48 89 c7             	mov    %rax,%rdi
  40b257:	e8 96 0d 00 00       	callq  40bff2 <_ZNK9__gnu_cxx17__normal_iteratorIPKSt4pairISt6threadbESt6vectorIS3_SaIS3_EEE4baseEv>
  40b25c:	48 8b 00             	mov    (%rax),%rax
  40b25f:	48 89 c3             	mov    %rax,%rbx
  40b262:	48 8b 45 e0          	mov    -0x20(%rbp),%rax
  40b266:	48 89 c7             	mov    %rax,%rdi
  40b269:	e8 84 0d 00 00       	callq  40bff2 <_ZNK9__gnu_cxx17__normal_iteratorIPKSt4pairISt6threadbESt6vectorIS3_SaIS3_EEE4baseEv>
  40b26e:	48 8b 00             	mov    (%rax),%rax
  40b271:	48 29 c3             	sub    %rax,%rbx
  40b274:	48 89 d8             	mov    %rbx,%rax
  40b277:	48 c1 f8 04          	sar    $0x4,%rax
  40b27b:	48 83 c4 18          	add    $0x18,%rsp
  40b27f:	5b                   	pop    %rbx
  40b280:	5d                   	pop    %rbp
  40b281:	c3                   	retq   

000000000040b282 <_ZNK9__gnu_cxx17__normal_iteratorIPSt4pairISt6threadbESt6vectorIS3_SaIS3_EEEplEl>:
  40b282:	55                   	push   %rbp
  40b283:	48 89 e5             	mov    %rsp,%rbp
  40b286:	48 83 ec 30          	sub    $0x30,%rsp
  40b28a:	48 89 7d d8          	mov    %rdi,-0x28(%rbp)
  40b28e:	48 89 75 d0          	mov    %rsi,-0x30(%rbp)
  40b292:	64 48 8b 04 25 28 00 	mov    %fs:0x28,%rax
  40b299:	00 00 
  40b29b:	48 89 45 f8          	mov    %rax,-0x8(%rbp)
  40b29f:	31 c0                	xor    %eax,%eax
  40b2a1:	48 8b 45 d8          	mov    -0x28(%rbp),%rax
  40b2a5:	48 8b 00             	mov    (%rax),%rax
  40b2a8:	48 8b 55 d0          	mov    -0x30(%rbp),%rdx
  40b2ac:	48 c1 e2 04          	shl    $0x4,%rdx
  40b2b0:	48 01 d0             	add    %rdx,%rax
  40b2b3:	48 89 45 e8          	mov    %rax,-0x18(%rbp)
  40b2b7:	48 8d 55 e8          	lea    -0x18(%rbp),%rdx
  40b2bb:	48 8d 45 f0          	lea    -0x10(%rbp),%rax
  40b2bf:	48 89 d6             	mov    %rdx,%rsi
  40b2c2:	48 89 c7             	mov    %rax,%rdi
  40b2c5:	e8 e8 fe ff ff       	callq  40b1b2 <_ZN9__gnu_cxx17__normal_iteratorIPSt4pairISt6threadbESt6vectorIS3_SaIS3_EEEC1ERKS4_>
  40b2ca:	48 8b 45 f0          	mov    -0x10(%rbp),%rax
  40b2ce:	48 8b 4d f8          	mov    -0x8(%rbp),%rcx
  40b2d2:	64 48 33 0c 25 28 00 	xor    %fs:0x28,%rcx
  40b2d9:	00 00 
  40b2db:	74 05                	je     40b2e2 <_ZNK9__gnu_cxx17__normal_iteratorIPSt4pairISt6threadbESt6vectorIS3_SaIS3_EEEplEl+0x60>
  40b2dd:	e8 5e 7c ff ff       	callq  402f40 <__stack_chk_fail@plt>
  40b2e2:	c9                   	leaveq 
  40b2e3:	c3                   	retq   

000000000040b2e4 <_ZNSt6vectorISt4pairISt6threadbESaIS2_EE8_M_eraseEN9__gnu_cxx17__normal_iteratorIPS2_S4_EES8_>:
  40b2e4:	55                   	push   %rbp
  40b2e5:	48 89 e5             	mov    %rsp,%rbp
  40b2e8:	53                   	push   %rbx
  40b2e9:	48 83 ec 38          	sub    $0x38,%rsp
  40b2ed:	48 89 7d d8          	mov    %rdi,-0x28(%rbp)
  40b2f1:	48 89 75 d0          	mov    %rsi,-0x30(%rbp)
  40b2f5:	48 89 55 c8          	mov    %rdx,-0x38(%rbp)
  40b2f9:	64 48 8b 04 25 28 00 	mov    %fs:0x28,%rax
  40b300:	00 00 
  40b302:	48 89 45 e8          	mov    %rax,-0x18(%rbp)
  40b306:	31 c0                	xor    %eax,%eax
  40b308:	48 8d 55 c8          	lea    -0x38(%rbp),%rdx
  40b30c:	48 8d 45 d0          	lea    -0x30(%rbp),%rax
  40b310:	48 89 d6             	mov    %rdx,%rsi
  40b313:	48 89 c7             	mov    %rax,%rdi
  40b316:	e8 91 f8 ff ff       	callq  40abac <_ZN9__gnu_cxxneIPSt4pairISt6threadbESt6vectorIS3_SaIS3_EEEEbRKNS_17__normal_iteratorIT_T0_EESD_>
  40b31b:	84 c0                	test   %al,%al
  40b31d:	0f 84 92 00 00 00    	je     40b3b5 <_ZNSt6vectorISt4pairISt6threadbESaIS2_EE8_M_eraseEN9__gnu_cxx17__normal_iteratorIPS2_S4_EES8_+0xd1>
  40b323:	48 8b 45 d8          	mov    -0x28(%rbp),%rax
  40b327:	48 89 c7             	mov    %rax,%rdi
  40b32a:	e8 31 f8 ff ff       	callq  40ab60 <_ZNSt6vectorISt4pairISt6threadbESaIS2_EE3endEv>
  40b32f:	48 89 45 e0          	mov    %rax,-0x20(%rbp)
  40b333:	48 8d 55 e0          	lea    -0x20(%rbp),%rdx
  40b337:	48 8d 45 c8          	lea    -0x38(%rbp),%rax
  40b33b:	48 89 d6             	mov    %rdx,%rsi
  40b33e:	48 89 c7             	mov    %rax,%rdi
  40b341:	e8 66 f8 ff ff       	callq  40abac <_ZN9__gnu_cxxneIPSt4pairISt6threadbESt6vectorIS3_SaIS3_EEEEbRKNS_17__normal_iteratorIT_T0_EESD_>
  40b346:	84 c0                	test   %al,%al
  40b348:	74 22                	je     40b36c <_ZNSt6vectorISt4pairISt6threadbESaIS2_EE8_M_eraseEN9__gnu_cxx17__normal_iteratorIPS2_S4_EES8_+0x88>
  40b34a:	48 8b 45 d8          	mov    -0x28(%rbp),%rax
  40b34e:	48 89 c7             	mov    %rax,%rdi
  40b351:	e8 0a f8 ff ff       	callq  40ab60 <_ZNSt6vectorISt4pairISt6threadbESaIS2_EE3endEv>
  40b356:	48 89 c1             	mov    %rax,%rcx
  40b359:	48 8b 55 d0          	mov    -0x30(%rbp),%rdx
  40b35d:	48 8b 45 c8          	mov    -0x38(%rbp),%rax
  40b361:	48 89 ce             	mov    %rcx,%rsi
  40b364:	48 89 c7             	mov    %rax,%rdi
  40b367:	e8 94 0c 00 00       	callq  40c000 <_ZSt4moveIN9__gnu_cxx17__normal_iteratorIPSt4pairISt6threadbESt6vectorIS4_SaIS4_EEEES9_ET0_T_SB_SA_>
  40b36c:	48 8d 45 d0          	lea    -0x30(%rbp),%rax
  40b370:	48 89 c7             	mov    %rax,%rdi
  40b373:	e8 58 fe ff ff       	callq  40b1d0 <_ZNK9__gnu_cxx17__normal_iteratorIPSt4pairISt6threadbESt6vectorIS3_SaIS3_EEE4baseEv>
  40b378:	48 8b 18             	mov    (%rax),%rbx
  40b37b:	48 8b 45 d8          	mov    -0x28(%rbp),%rax
  40b37f:	48 89 c7             	mov    %rax,%rdi
  40b382:	e8 d9 f7 ff ff       	callq  40ab60 <_ZNSt6vectorISt4pairISt6threadbESaIS2_EE3endEv>
  40b387:	48 89 45 e0          	mov    %rax,-0x20(%rbp)
  40b38b:	48 8d 55 c8          	lea    -0x38(%rbp),%rdx
  40b38f:	48 8d 45 e0          	lea    -0x20(%rbp),%rax
  40b393:	48 89 d6             	mov    %rdx,%rsi
  40b396:	48 89 c7             	mov    %rax,%rdi
  40b399:	e8 f3 0c 00 00       	callq  40c091 <_ZN9__gnu_cxxmiIPSt4pairISt6threadbESt6vectorIS3_SaIS3_EEEENS_17__normal_iteratorIT_T0_E15difference_typeERKSB_SE_>
  40b39e:	48 c1 e0 04          	shl    $0x4,%rax
  40b3a2:	48 8d 14 03          	lea    (%rbx,%rax,1),%rdx
  40b3a6:	48 8b 45 d8          	mov    -0x28(%rbp),%rax
  40b3aa:	48 89 d6             	mov    %rdx,%rsi
  40b3ad:	48 89 c7             	mov    %rax,%rdi
  40b3b0:	e8 97 0c 00 00       	callq  40c04c <_ZNSt6vectorISt4pairISt6threadbESaIS2_EE15_M_erase_at_endEPS2_>
  40b3b5:	48 8b 45 d0          	mov    -0x30(%rbp),%rax
  40b3b9:	48 8b 4d e8          	mov    -0x18(%rbp),%rcx
  40b3bd:	64 48 33 0c 25 28 00 	xor    %fs:0x28,%rcx
  40b3c4:	00 00 
  40b3c6:	74 05                	je     40b3cd <_ZNSt6vectorISt4pairISt6threadbESaIS2_EE8_M_eraseEN9__gnu_cxx17__normal_iteratorIPS2_S4_EES8_+0xe9>
  40b3c8:	e8 73 7b ff ff       	callq  402f40 <__stack_chk_fail@plt>
  40b3cd:	48 83 c4 38          	add    $0x38,%rsp
  40b3d1:	5b                   	pop    %rbx
  40b3d2:	5d                   	pop    %rbp
  40b3d3:	c3                   	retq   

000000000040b3d4 <_ZNSt8_Rb_treeINSt7__cxx1112basic_stringIcSt11char_traitsIcESaIcEEESt4pairIKS5_S5_ESt10_Select1stIS8_ESt4lessIS5_ESaIS8_EE13_Rb_tree_implISC_Lb1EE8_M_resetEv>:
  40b3d4:	55                   	push   %rbp
  40b3d5:	48 89 e5             	mov    %rsp,%rbp
  40b3d8:	48 89 7d f8          	mov    %rdi,-0x8(%rbp)
  40b3dc:	48 8b 45 f8          	mov    -0x8(%rbp),%rax
  40b3e0:	48 c7 40 10 00 00 00 	movq   $0x0,0x10(%rax)
  40b3e7:	00 
  40b3e8:	48 8b 45 f8          	mov    -0x8(%rbp),%rax
  40b3ec:	48 8d 50 08          	lea    0x8(%rax),%rdx
  40b3f0:	48 8b 45 f8          	mov    -0x8(%rbp),%rax
  40b3f4:	48 89 50 18          	mov    %rdx,0x18(%rax)
  40b3f8:	48 8b 45 f8          	mov    -0x8(%rbp),%rax
  40b3fc:	48 8d 50 08          	lea    0x8(%rax),%rdx
  40b400:	48 8b 45 f8          	mov    -0x8(%rbp),%rax
  40b404:	48 89 50 20          	mov    %rdx,0x20(%rax)
  40b408:	48 8b 45 f8          	mov    -0x8(%rbp),%rax
  40b40c:	48 c7 40 28 00 00 00 	movq   $0x0,0x28(%rax)
  40b413:	00 
  40b414:	90                   	nop
  40b415:	5d                   	pop    %rbp
  40b416:	c3                   	retq   
  40b417:	90                   	nop

000000000040b418 <_ZNSt8_Rb_treeINSt7__cxx1112basic_stringIcSt11char_traitsIcESaIcEEESt4pairIKS5_S5_ESt10_Select1stIS8_ESt4lessIS5_ESaIS8_EE14_M_create_nodeIJRKSt21piecewise_construct_tSt5tupleIJRS7_EESJ_IJEEEEEPSt13_Rb_tree_nodeIS8_EDpOT_>:
  40b418:	55                   	push   %rbp
  40b419:	48 89 e5             	mov    %rsp,%rbp
  40b41c:	41 54                	push   %r12
  40b41e:	53                   	push   %rbx
  40b41f:	48 83 ec 30          	sub    $0x30,%rsp
  40b423:	48 89 7d d8          	mov    %rdi,-0x28(%rbp)
  40b427:	48 89 75 d0          	mov    %rsi,-0x30(%rbp)
  40b42b:	48 89 55 c8          	mov    %rdx,-0x38(%rbp)
  40b42f:	48 89 4d c0          	mov    %rcx,-0x40(%rbp)
  40b433:	48 8b 45 d8          	mov    -0x28(%rbp),%rax
  40b437:	48 89 c7             	mov    %rax,%rdi
  40b43a:	e8 a5 bc ff ff       	callq  4070e4 <_ZNSt8_Rb_treeINSt7__cxx1112basic_stringIcSt11char_traitsIcESaIcEEESt4pairIKS5_S5_ESt10_Select1stIS8_ESt4lessIS5_ESaIS8_EE11_M_get_nodeEv>
  40b43f:	48 89 45 e8          	mov    %rax,-0x18(%rbp)
  40b443:	48 8b 45 c0          	mov    -0x40(%rbp),%rax
  40b447:	48 89 c7             	mov    %rax,%rdi
  40b44a:	e8 38 a3 ff ff       	callq  405787 <_ZSt7forwardISt5tupleIJEEEOT_RNSt16remove_referenceIS2_E4typeE>
  40b44f:	49 89 c4             	mov    %rax,%r12
  40b452:	48 8b 45 c8          	mov    -0x38(%rbp),%rax
  40b456:	48 89 c7             	mov    %rax,%rdi
  40b459:	e8 27 f9 ff ff       	callq  40ad85 <_ZSt7forwardISt5tupleIJRKNSt7__cxx1112basic_stringIcSt11char_traitsIcESaIcEEEEEEOT_RNSt16remove_referenceISA_E4typeE>
  40b45e:	48 89 c3             	mov    %rax,%rbx
  40b461:	48 8b 45 d0          	mov    -0x30(%rbp),%rax
  40b465:	48 89 c7             	mov    %rax,%rdi
  40b468:	e8 fe a2 ff ff       	callq  40576b <_ZSt7forwardIRKSt21piecewise_construct_tEOT_RNSt16remove_referenceIS3_E4typeE>
  40b46d:	48 89 c2             	mov    %rax,%rdx
  40b470:	48 8b 75 e8          	mov    -0x18(%rbp),%rsi
  40b474:	48 8b 45 d8          	mov    -0x28(%rbp),%rax
  40b478:	4d 89 e0             	mov    %r12,%r8
  40b47b:	48 89 d9             	mov    %rbx,%rcx
  40b47e:	48 89 c7             	mov    %rax,%rdi
  40b481:	e8 4e 0c 00 00       	callq  40c0d4 <_ZNSt8_Rb_treeINSt7__cxx1112basic_stringIcSt11char_traitsIcESaIcEEESt4pairIKS5_S5_ESt10_Select1stIS8_ESt4lessIS5_ESaIS8_EE17_M_construct_nodeIJRKSt21piecewise_construct_tSt5tupleIJRS7_EESJ_IJEEEEEvPSt13_Rb_tree_nodeIS8_EDpOT_>
  40b486:	48 8b 45 e8          	mov    -0x18(%rbp),%rax
  40b48a:	48 83 c4 30          	add    $0x30,%rsp
  40b48e:	5b                   	pop    %rbx
  40b48f:	41 5c                	pop    %r12
  40b491:	5d                   	pop    %rbp
  40b492:	c3                   	retq   
  40b493:	90                   	nop

000000000040b494 <_ZN9__gnu_cxx17__normal_iteratorIPKhSt6vectorIhSaIhEEEC1ERKS2_>:
  40b494:	55                   	push   %rbp
  40b495:	48 89 e5             	mov    %rsp,%rbp
  40b498:	48 89 7d f8          	mov    %rdi,-0x8(%rbp)
  40b49c:	48 89 75 f0          	mov    %rsi,-0x10(%rbp)
  40b4a0:	48 8b 45 f0          	mov    -0x10(%rbp),%rax
  40b4a4:	48 8b 10             	mov    (%rax),%rdx
  40b4a7:	48 8b 45 f8          	mov    -0x8(%rbp),%rax
  40b4ab:	48 89 10             	mov    %rdx,(%rax)
  40b4ae:	90                   	nop
  40b4af:	5d                   	pop    %rbp
  40b4b0:	c3                   	retq   
  40b4b1:	90                   	nop

000000000040b4b2 <_ZNK9__gnu_cxx17__normal_iteratorIPKhSt6vectorIhSaIhEEE4baseEv>:
  40b4b2:	55                   	push   %rbp
  40b4b3:	48 89 e5             	mov    %rsp,%rbp
  40b4b6:	48 89 7d f8          	mov    %rdi,-0x8(%rbp)
  40b4ba:	48 8b 45 f8          	mov    -0x8(%rbp),%rax
  40b4be:	5d                   	pop    %rbp
  40b4bf:	c3                   	retq   

000000000040b4c0 <_ZNSt6vectorIhSaIhEE15_M_range_insertIPKcEEvN9__gnu_cxx17__normal_iteratorIPhS1_EET_S9_St20forward_iterator_tag>:
  40b4c0:	55                   	push   %rbp
  40b4c1:	48 89 e5             	mov    %rsp,%rbp
  40b4c4:	41 54                	push   %r12
  40b4c6:	53                   	push   %rbx
  40b4c7:	48 83 ec 60          	sub    $0x60,%rsp
  40b4cb:	48 89 7d a8          	mov    %rdi,-0x58(%rbp)
  40b4cf:	48 89 75 a0          	mov    %rsi,-0x60(%rbp)
  40b4d3:	48 89 55 98          	mov    %rdx,-0x68(%rbp)
  40b4d7:	48 89 4d 90          	mov    %rcx,-0x70(%rbp)
  40b4db:	64 48 8b 04 25 28 00 	mov    %fs:0x28,%rax
  40b4e2:	00 00 
  40b4e4:	48 89 45 e8          	mov    %rax,-0x18(%rbp)
  40b4e8:	31 c0                	xor    %eax,%eax
  40b4ea:	48 8b 45 98          	mov    -0x68(%rbp),%rax
  40b4ee:	48 3b 45 90          	cmp    -0x70(%rbp),%rax
  40b4f2:	0f 84 98 03 00 00    	je     40b890 <_ZNSt6vectorIhSaIhEE15_M_range_insertIPKcEEvN9__gnu_cxx17__normal_iteratorIPhS1_EET_S9_St20forward_iterator_tag+0x3d0>
  40b4f8:	48 8b 55 90          	mov    -0x70(%rbp),%rdx
  40b4fc:	48 8b 45 98          	mov    -0x68(%rbp),%rax
  40b500:	48 89 d6             	mov    %rdx,%rsi
  40b503:	48 89 c7             	mov    %rax,%rdi
  40b506:	e8 a8 0c 00 00       	callq  40c1b3 <_ZSt8distanceIPKcENSt15iterator_traitsIT_E15difference_typeES3_S3_>
  40b50b:	48 89 45 c0          	mov    %rax,-0x40(%rbp)
  40b50f:	48 8b 45 a8          	mov    -0x58(%rbp),%rax
  40b513:	48 8b 40 10          	mov    0x10(%rax),%rax
  40b517:	48 89 c2             	mov    %rax,%rdx
  40b51a:	48 8b 45 a8          	mov    -0x58(%rbp),%rax
  40b51e:	48 8b 40 08          	mov    0x8(%rax),%rax
  40b522:	48 29 c2             	sub    %rax,%rdx
  40b525:	48 89 d0             	mov    %rdx,%rax
  40b528:	48 3b 45 c0          	cmp    -0x40(%rbp),%rax
  40b52c:	0f 82 a9 01 00 00    	jb     40b6db <_ZNSt6vectorIhSaIhEE15_M_range_insertIPKcEEvN9__gnu_cxx17__normal_iteratorIPhS1_EET_S9_St20forward_iterator_tag+0x21b>
  40b532:	48 8b 45 a8          	mov    -0x58(%rbp),%rax
  40b536:	48 89 c7             	mov    %rax,%rdi
  40b539:	e8 98 f2 ff ff       	callq  40a7d6 <_ZNSt6vectorIhSaIhEE3endEv>
  40b53e:	48 89 45 b0          	mov    %rax,-0x50(%rbp)
  40b542:	48 8d 55 a0          	lea    -0x60(%rbp),%rdx
  40b546:	48 8d 45 b0          	lea    -0x50(%rbp),%rax
  40b54a:	48 89 d6             	mov    %rdx,%rsi
  40b54d:	48 89 c7             	mov    %rax,%rdi
  40b550:	e8 c0 0c 00 00       	callq  40c215 <_ZN9__gnu_cxxmiIPhSt6vectorIhSaIhEEEENS_17__normal_iteratorIT_T0_E15difference_typeERKS8_SB_>
  40b555:	48 89 45 c8          	mov    %rax,-0x38(%rbp)
  40b559:	48 8b 45 a8          	mov    -0x58(%rbp),%rax
  40b55d:	48 8b 40 08          	mov    0x8(%rax),%rax
  40b561:	48 89 45 d0          	mov    %rax,-0x30(%rbp)
  40b565:	48 8b 45 c8          	mov    -0x38(%rbp),%rax
  40b569:	48 3b 45 c0          	cmp    -0x40(%rbp),%rax
  40b56d:	0f 86 a0 00 00 00    	jbe    40b613 <_ZNSt6vectorIhSaIhEE15_M_range_insertIPKcEEvN9__gnu_cxx17__normal_iteratorIPhS1_EET_S9_St20forward_iterator_tag+0x153>
  40b573:	48 8b 45 a8          	mov    -0x58(%rbp),%rax
  40b577:	48 89 c7             	mov    %rax,%rdi
  40b57a:	e8 09 a1 ff ff       	callq  405688 <_ZNSt12_Vector_baseIhSaIhEE19_M_get_Tp_allocatorEv>
  40b57f:	49 89 c0             	mov    %rax,%r8
  40b582:	48 8b 45 a8          	mov    -0x58(%rbp),%rax
  40b586:	48 8b 50 08          	mov    0x8(%rax),%rdx
  40b58a:	48 8b 45 a8          	mov    -0x58(%rbp),%rax
  40b58e:	48 8b 40 08          	mov    0x8(%rax),%rax
  40b592:	48 8b 4d a8          	mov    -0x58(%rbp),%rcx
  40b596:	48 8b 49 08          	mov    0x8(%rcx),%rcx
  40b59a:	48 8b 75 c0          	mov    -0x40(%rbp),%rsi
  40b59e:	48 f7 de             	neg    %rsi
  40b5a1:	48 8d 3c 31          	lea    (%rcx,%rsi,1),%rdi
  40b5a5:	4c 89 c1             	mov    %r8,%rcx
  40b5a8:	48 89 c6             	mov    %rax,%rsi
  40b5ab:	e8 a4 0c 00 00       	callq  40c254 <_ZSt22__uninitialized_move_aIPhS0_SaIhEET0_T_S3_S2_RT1_>
  40b5b0:	48 8b 45 a8          	mov    -0x58(%rbp),%rax
  40b5b4:	48 8b 50 08          	mov    0x8(%rax),%rdx
  40b5b8:	48 8b 45 c0          	mov    -0x40(%rbp),%rax
  40b5bc:	48 01 c2             	add    %rax,%rdx
  40b5bf:	48 8b 45 a8          	mov    -0x58(%rbp),%rax
  40b5c3:	48 89 50 08          	mov    %rdx,0x8(%rax)
  40b5c7:	48 8b 45 c0          	mov    -0x40(%rbp),%rax
  40b5cb:	48 f7 d8             	neg    %rax
  40b5ce:	48 89 c2             	mov    %rax,%rdx
  40b5d1:	48 8b 45 d0          	mov    -0x30(%rbp),%rax
  40b5d5:	48 8d 1c 02          	lea    (%rdx,%rax,1),%rbx
  40b5d9:	48 8d 45 a0          	lea    -0x60(%rbp),%rax
  40b5dd:	48 89 c7             	mov    %rax,%rdi
  40b5e0:	e8 07 f9 ff ff       	callq  40aeec <_ZNK9__gnu_cxx17__normal_iteratorIPhSt6vectorIhSaIhEEE4baseEv>
  40b5e5:	48 8b 00             	mov    (%rax),%rax
  40b5e8:	48 8b 55 d0          	mov    -0x30(%rbp),%rdx
  40b5ec:	48 89 de             	mov    %rbx,%rsi
  40b5ef:	48 89 c7             	mov    %rax,%rdi
  40b5f2:	e8 b1 0c 00 00       	callq  40c2a8 <_ZSt13move_backwardIPhS0_ET0_T_S2_S1_>
  40b5f7:	48 8b 55 a0          	mov    -0x60(%rbp),%rdx
  40b5fb:	48 8b 4d 90          	mov    -0x70(%rbp),%rcx
  40b5ff:	48 8b 45 98          	mov    -0x68(%rbp),%rax
  40b603:	48 89 ce             	mov    %rcx,%rsi
  40b606:	48 89 c7             	mov    %rax,%rdi
  40b609:	e8 e6 0c 00 00       	callq  40c2f4 <_ZSt4copyIPKcN9__gnu_cxx17__normal_iteratorIPhSt6vectorIhSaIhEEEEET0_T_SA_S9_>
  40b60e:	e9 7d 02 00 00       	jmpq   40b890 <_ZNSt6vectorIhSaIhEE15_M_range_insertIPKcEEvN9__gnu_cxx17__normal_iteratorIPhS1_EET_S9_St20forward_iterator_tag+0x3d0>
  40b613:	48 8b 45 98          	mov    -0x68(%rbp),%rax
  40b617:	48 89 45 b0          	mov    %rax,-0x50(%rbp)
  40b61b:	48 8b 55 c8          	mov    -0x38(%rbp),%rdx
  40b61f:	48 8d 45 b0          	lea    -0x50(%rbp),%rax
  40b623:	48 89 d6             	mov    %rdx,%rsi
  40b626:	48 89 c7             	mov    %rax,%rdi
  40b629:	e8 12 0d 00 00       	callq  40c340 <_ZSt7advanceIPKcmEvRT_T0_>
  40b62e:	48 8b 45 a8          	mov    -0x58(%rbp),%rax
  40b632:	48 89 c7             	mov    %rax,%rdi
  40b635:	e8 4e a0 ff ff       	callq  405688 <_ZNSt12_Vector_baseIhSaIhEE19_M_get_Tp_allocatorEv>
  40b63a:	48 89 c1             	mov    %rax,%rcx
  40b63d:	48 8b 45 a8          	mov    -0x58(%rbp),%rax
  40b641:	48 8b 50 08          	mov    0x8(%rax),%rdx
  40b645:	48 8b 45 b0          	mov    -0x50(%rbp),%rax
  40b649:	48 8b 75 90          	mov    -0x70(%rbp),%rsi
  40b64d:	48 89 c7             	mov    %rax,%rdi
  40b650:	e8 56 0d 00 00       	callq  40c3ab <_ZSt22__uninitialized_copy_aIPKcPhhET0_T_S4_S3_RSaIT1_E>
  40b655:	48 8b 45 a8          	mov    -0x58(%rbp),%rax
  40b659:	48 8b 50 08          	mov    0x8(%rax),%rdx
  40b65d:	48 8b 45 c0          	mov    -0x40(%rbp),%rax
  40b661:	48 2b 45 c8          	sub    -0x38(%rbp),%rax
  40b665:	48 01 c2             	add    %rax,%rdx
  40b668:	48 8b 45 a8          	mov    -0x58(%rbp),%rax
  40b66c:	48 89 50 08          	mov    %rdx,0x8(%rax)
  40b670:	48 8b 45 a8          	mov    -0x58(%rbp),%rax
  40b674:	48 89 c7             	mov    %rax,%rdi
  40b677:	e8 0c a0 ff ff       	callq  405688 <_ZNSt12_Vector_baseIhSaIhEE19_M_get_Tp_allocatorEv>
  40b67c:	49 89 c4             	mov    %rax,%r12
  40b67f:	48 8b 45 a8          	mov    -0x58(%rbp),%rax
  40b683:	48 8b 58 08          	mov    0x8(%rax),%rbx
  40b687:	48 8d 45 a0          	lea    -0x60(%rbp),%rax
  40b68b:	48 89 c7             	mov    %rax,%rdi
  40b68e:	e8 59 f8 ff ff       	callq  40aeec <_ZNK9__gnu_cxx17__normal_iteratorIPhSt6vectorIhSaIhEEE4baseEv>
  40b693:	48 8b 00             	mov    (%rax),%rax
  40b696:	48 8b 75 d0          	mov    -0x30(%rbp),%rsi
  40b69a:	4c 89 e1             	mov    %r12,%rcx
  40b69d:	48 89 da             	mov    %rbx,%rdx
  40b6a0:	48 89 c7             	mov    %rax,%rdi
  40b6a3:	e8 ac 0b 00 00       	callq  40c254 <_ZSt22__uninitialized_move_aIPhS0_SaIhEET0_T_S3_S2_RT1_>
  40b6a8:	48 8b 45 a8          	mov    -0x58(%rbp),%rax
  40b6ac:	48 8b 50 08          	mov    0x8(%rax),%rdx
  40b6b0:	48 8b 45 c8          	mov    -0x38(%rbp),%rax
  40b6b4:	48 01 c2             	add    %rax,%rdx
  40b6b7:	48 8b 45 a8          	mov    -0x58(%rbp),%rax
  40b6bb:	48 89 50 08          	mov    %rdx,0x8(%rax)
  40b6bf:	48 8b 4d b0          	mov    -0x50(%rbp),%rcx
  40b6c3:	48 8b 55 a0          	mov    -0x60(%rbp),%rdx
  40b6c7:	48 8b 45 98          	mov    -0x68(%rbp),%rax
  40b6cb:	48 89 ce             	mov    %rcx,%rsi
  40b6ce:	48 89 c7             	mov    %rax,%rdi
  40b6d1:	e8 1e 0c 00 00       	callq  40c2f4 <_ZSt4copyIPKcN9__gnu_cxx17__normal_iteratorIPhSt6vectorIhSaIhEEEEET0_T_SA_S9_>
  40b6d6:	e9 b5 01 00 00       	jmpq   40b890 <_ZNSt6vectorIhSaIhEE15_M_range_insertIPKcEEvN9__gnu_cxx17__normal_iteratorIPhS1_EET_S9_St20forward_iterator_tag+0x3d0>
  40b6db:	48 8b 4d c0          	mov    -0x40(%rbp),%rcx
  40b6df:	48 8b 45 a8          	mov    -0x58(%rbp),%rax
  40b6e3:	ba 6f dc 40 00       	mov    $0x40dc6f,%edx
  40b6e8:	48 89 ce             	mov    %rcx,%rsi
  40b6eb:	48 89 c7             	mov    %rax,%rdi
  40b6ee:	e8 e9 0c 00 00       	callq  40c3dc <_ZNKSt6vectorIhSaIhEE12_M_check_lenEmPKc>
  40b6f3:	48 89 45 d8          	mov    %rax,-0x28(%rbp)
  40b6f7:	48 8b 45 a8          	mov    -0x58(%rbp),%rax
  40b6fb:	48 8b 55 d8          	mov    -0x28(%rbp),%rdx
  40b6ff:	48 89 d6             	mov    %rdx,%rsi
  40b702:	48 89 c7             	mov    %rax,%rdi
  40b705:	e8 be 0d 00 00       	callq  40c4c8 <_ZNSt12_Vector_baseIhSaIhEE11_M_allocateEm>
  40b70a:	48 89 45 e0          	mov    %rax,-0x20(%rbp)
  40b70e:	48 8b 45 e0          	mov    -0x20(%rbp),%rax
  40b712:	48 89 45 b8          	mov    %rax,-0x48(%rbp)
  40b716:	48 8b 45 a8          	mov    -0x58(%rbp),%rax
  40b71a:	48 89 c7             	mov    %rax,%rdi
  40b71d:	e8 66 9f ff ff       	callq  405688 <_ZNSt12_Vector_baseIhSaIhEE19_M_get_Tp_allocatorEv>
  40b722:	48 89 c3             	mov    %rax,%rbx
  40b725:	48 8d 45 a0          	lea    -0x60(%rbp),%rax
  40b729:	48 89 c7             	mov    %rax,%rdi
  40b72c:	e8 bb f7 ff ff       	callq  40aeec <_ZNK9__gnu_cxx17__normal_iteratorIPhSt6vectorIhSaIhEEE4baseEv>
  40b731:	48 8b 30             	mov    (%rax),%rsi
  40b734:	48 8b 45 a8          	mov    -0x58(%rbp),%rax
  40b738:	48 8b 00             	mov    (%rax),%rax
  40b73b:	48 8b 55 e0          	mov    -0x20(%rbp),%rdx
  40b73f:	48 89 d9             	mov    %rbx,%rcx
  40b742:	48 89 c7             	mov    %rax,%rdi
  40b745:	e8 b1 0d 00 00       	callq  40c4fb <_ZSt34__uninitialized_move_if_noexcept_aIPhS0_SaIhEET0_T_S3_S2_RT1_>
  40b74a:	48 89 45 b8          	mov    %rax,-0x48(%rbp)
  40b74e:	48 8b 45 a8          	mov    -0x58(%rbp),%rax
  40b752:	48 89 c7             	mov    %rax,%rdi
  40b755:	e8 2e 9f ff ff       	callq  405688 <_ZNSt12_Vector_baseIhSaIhEE19_M_get_Tp_allocatorEv>
  40b75a:	48 89 c1             	mov    %rax,%rcx
  40b75d:	48 8b 55 b8          	mov    -0x48(%rbp),%rdx
  40b761:	48 8b 75 90          	mov    -0x70(%rbp),%rsi
  40b765:	48 8b 45 98          	mov    -0x68(%rbp),%rax
  40b769:	48 89 c7             	mov    %rax,%rdi
  40b76c:	e8 3a 0c 00 00       	callq  40c3ab <_ZSt22__uninitialized_copy_aIPKcPhhET0_T_S4_S3_RSaIT1_E>
  40b771:	48 89 45 b8          	mov    %rax,-0x48(%rbp)
  40b775:	48 8b 45 a8          	mov    -0x58(%rbp),%rax
  40b779:	48 89 c7             	mov    %rax,%rdi
  40b77c:	e8 07 9f ff ff       	callq  405688 <_ZNSt12_Vector_baseIhSaIhEE19_M_get_Tp_allocatorEv>
  40b781:	49 89 c4             	mov    %rax,%r12
  40b784:	48 8b 45 a8          	mov    -0x58(%rbp),%rax
  40b788:	48 8b 58 08          	mov    0x8(%rax),%rbx
  40b78c:	48 8d 45 a0          	lea    -0x60(%rbp),%rax
  40b790:	48 89 c7             	mov    %rax,%rdi
  40b793:	e8 54 f7 ff ff       	callq  40aeec <_ZNK9__gnu_cxx17__normal_iteratorIPhSt6vectorIhSaIhEEE4baseEv>
  40b798:	48 8b 00             	mov    (%rax),%rax
  40b79b:	48 8b 55 b8          	mov    -0x48(%rbp),%rdx
  40b79f:	4c 89 e1             	mov    %r12,%rcx
  40b7a2:	48 89 de             	mov    %rbx,%rsi
  40b7a5:	48 89 c7             	mov    %rax,%rdi
  40b7a8:	e8 4e 0d 00 00       	callq  40c4fb <_ZSt34__uninitialized_move_if_noexcept_aIPhS0_SaIhEET0_T_S3_S2_RT1_>
  40b7ad:	48 89 45 b8          	mov    %rax,-0x48(%rbp)
  40b7b1:	48 8b 45 a8          	mov    -0x58(%rbp),%rax
  40b7b5:	48 89 c7             	mov    %rax,%rdi
  40b7b8:	e8 cb 9e ff ff       	callq  405688 <_ZNSt12_Vector_baseIhSaIhEE19_M_get_Tp_allocatorEv>
  40b7bd:	48 89 c2             	mov    %rax,%rdx
  40b7c0:	48 8b 45 a8          	mov    -0x58(%rbp),%rax
  40b7c4:	48 8b 48 08          	mov    0x8(%rax),%rcx
  40b7c8:	48 8b 45 a8          	mov    -0x58(%rbp),%rax
  40b7cc:	48 8b 00             	mov    (%rax),%rax
  40b7cf:	48 89 ce             	mov    %rcx,%rsi
  40b7d2:	48 89 c7             	mov    %rax,%rdi
  40b7d5:	e8 bc 9e ff ff       	callq  405696 <_ZSt8_DestroyIPhhEvT_S1_RSaIT0_E>
  40b7da:	48 8b 45 a8          	mov    -0x58(%rbp),%rax
  40b7de:	48 8b 40 10          	mov    0x10(%rax),%rax
  40b7e2:	48 89 c2             	mov    %rax,%rdx
  40b7e5:	48 8b 45 a8          	mov    -0x58(%rbp),%rax
  40b7e9:	48 8b 00             	mov    (%rax),%rax
  40b7ec:	48 29 c2             	sub    %rax,%rdx
  40b7ef:	48 89 d0             	mov    %rdx,%rax
  40b7f2:	48 89 c2             	mov    %rax,%rdx
  40b7f5:	48 8b 45 a8          	mov    -0x58(%rbp),%rax
  40b7f9:	48 8b 08             	mov    (%rax),%rcx
  40b7fc:	48 8b 45 a8          	mov    -0x58(%rbp),%rax
  40b800:	48 89 ce             	mov    %rcx,%rsi
  40b803:	48 89 c7             	mov    %rax,%rdi
  40b806:	e8 6d a8 ff ff       	callq  406078 <_ZNSt12_Vector_baseIhSaIhEE13_M_deallocateEPhm>
  40b80b:	48 8b 45 a8          	mov    -0x58(%rbp),%rax
  40b80f:	48 8b 55 e0          	mov    -0x20(%rbp),%rdx
  40b813:	48 89 10             	mov    %rdx,(%rax)
  40b816:	48 8b 45 a8          	mov    -0x58(%rbp),%rax
  40b81a:	48 8b 55 b8          	mov    -0x48(%rbp),%rdx
  40b81e:	48 89 50 08          	mov    %rdx,0x8(%rax)
  40b822:	48 8b 55 e0          	mov    -0x20(%rbp),%rdx
  40b826:	48 8b 45 d8          	mov    -0x28(%rbp),%rax
  40b82a:	48 01 c2             	add    %rax,%rdx
  40b82d:	48 8b 45 a8          	mov    -0x58(%rbp),%rax
  40b831:	48 89 50 10          	mov    %rdx,0x10(%rax)
  40b835:	eb 59                	jmp    40b890 <_ZNSt6vectorIhSaIhEE15_M_range_insertIPKcEEvN9__gnu_cxx17__normal_iteratorIPhS1_EET_S9_St20forward_iterator_tag+0x3d0>
  40b837:	48 89 c7             	mov    %rax,%rdi
  40b83a:	e8 51 74 ff ff       	callq  402c90 <__cxa_begin_catch@plt>
  40b83f:	48 8b 45 a8          	mov    -0x58(%rbp),%rax
  40b843:	48 89 c7             	mov    %rax,%rdi
  40b846:	e8 3d 9e ff ff       	callq  405688 <_ZNSt12_Vector_baseIhSaIhEE19_M_get_Tp_allocatorEv>
  40b84b:	48 89 c2             	mov    %rax,%rdx
  40b84e:	48 8b 4d b8          	mov    -0x48(%rbp),%rcx
  40b852:	48 8b 45 e0          	mov    -0x20(%rbp),%rax
  40b856:	48 89 ce             	mov    %rcx,%rsi
  40b859:	48 89 c7             	mov    %rax,%rdi
  40b85c:	e8 35 9e ff ff       	callq  405696 <_ZSt8_DestroyIPhhEvT_S1_RSaIT0_E>
  40b861:	48 8b 45 a8          	mov    -0x58(%rbp),%rax
  40b865:	48 8b 55 d8          	mov    -0x28(%rbp),%rdx
  40b869:	48 8b 4d e0          	mov    -0x20(%rbp),%rcx
  40b86d:	48 89 ce             	mov    %rcx,%rsi
  40b870:	48 89 c7             	mov    %rax,%rdi
  40b873:	e8 00 a8 ff ff       	callq  406078 <_ZNSt12_Vector_baseIhSaIhEE13_M_deallocateEPhm>
  40b878:	e8 63 77 ff ff       	callq  402fe0 <__cxa_rethrow@plt>
  40b87d:	48 89 c3             	mov    %rax,%rbx
  40b880:	e8 eb 77 ff ff       	callq  403070 <__cxa_end_catch@plt>
  40b885:	48 89 d8             	mov    %rbx,%rax
  40b888:	48 89 c7             	mov    %rax,%rdi
  40b88b:	e8 60 78 ff ff       	callq  4030f0 <_Unwind_Resume@plt>
  40b890:	90                   	nop
  40b891:	48 8b 45 e8          	mov    -0x18(%rbp),%rax
  40b895:	64 48 33 04 25 28 00 	xor    %fs:0x28,%rax
  40b89c:	00 00 
  40b89e:	74 05                	je     40b8a5 <_ZNSt6vectorIhSaIhEE15_M_range_insertIPKcEEvN9__gnu_cxx17__normal_iteratorIPhS1_EET_S9_St20forward_iterator_tag+0x3e5>
  40b8a0:	e8 9b 76 ff ff       	callq  402f40 <__stack_chk_fail@plt>
  40b8a5:	48 83 c4 60          	add    $0x60,%rsp
  40b8a9:	5b                   	pop    %rbx
  40b8aa:	41 5c                	pop    %r12
  40b8ac:	5d                   	pop    %rbp
  40b8ad:	c3                   	retq   

000000000040b8ae <_ZNSt6vectorIhSaIhEE15_M_range_insertIPcEEvN9__gnu_cxx17__normal_iteratorIPhS1_EET_S8_St20forward_iterator_tag>:
  40b8ae:	55                   	push   %rbp
  40b8af:	48 89 e5             	mov    %rsp,%rbp
  40b8b2:	41 54                	push   %r12
  40b8b4:	53                   	push   %rbx
  40b8b5:	48 83 ec 60          	sub    $0x60,%rsp
  40b8b9:	48 89 7d a8          	mov    %rdi,-0x58(%rbp)
  40b8bd:	48 89 75 a0          	mov    %rsi,-0x60(%rbp)
  40b8c1:	48 89 55 98          	mov    %rdx,-0x68(%rbp)
  40b8c5:	48 89 4d 90          	mov    %rcx,-0x70(%rbp)
  40b8c9:	64 48 8b 04 25 28 00 	mov    %fs:0x28,%rax
  40b8d0:	00 00 
  40b8d2:	48 89 45 e8          	mov    %rax,-0x18(%rbp)
  40b8d6:	31 c0                	xor    %eax,%eax
  40b8d8:	48 8b 45 98          	mov    -0x68(%rbp),%rax
  40b8dc:	48 3b 45 90          	cmp    -0x70(%rbp),%rax
  40b8e0:	0f 84 98 03 00 00    	je     40bc7e <_ZNSt6vectorIhSaIhEE15_M_range_insertIPcEEvN9__gnu_cxx17__normal_iteratorIPhS1_EET_S8_St20forward_iterator_tag+0x3d0>
  40b8e6:	48 8b 55 90          	mov    -0x70(%rbp),%rdx
  40b8ea:	48 8b 45 98          	mov    -0x68(%rbp),%rax
  40b8ee:	48 89 d6             	mov    %rdx,%rsi
  40b8f1:	48 89 c7             	mov    %rax,%rdi
  40b8f4:	e8 43 c0 ff ff       	callq  40793c <_ZSt8distanceIPcENSt15iterator_traitsIT_E15difference_typeES2_S2_>
  40b8f9:	48 89 45 c0          	mov    %rax,-0x40(%rbp)
  40b8fd:	48 8b 45 a8          	mov    -0x58(%rbp),%rax
  40b901:	48 8b 40 10          	mov    0x10(%rax),%rax
  40b905:	48 89 c2             	mov    %rax,%rdx
  40b908:	48 8b 45 a8          	mov    -0x58(%rbp),%rax
  40b90c:	48 8b 40 08          	mov    0x8(%rax),%rax
  40b910:	48 29 c2             	sub    %rax,%rdx
  40b913:	48 89 d0             	mov    %rdx,%rax
  40b916:	48 3b 45 c0          	cmp    -0x40(%rbp),%rax
  40b91a:	0f 82 a9 01 00 00    	jb     40bac9 <_ZNSt6vectorIhSaIhEE15_M_range_insertIPcEEvN9__gnu_cxx17__normal_iteratorIPhS1_EET_S8_St20forward_iterator_tag+0x21b>
  40b920:	48 8b 45 a8          	mov    -0x58(%rbp),%rax
  40b924:	48 89 c7             	mov    %rax,%rdi
  40b927:	e8 aa ee ff ff       	callq  40a7d6 <_ZNSt6vectorIhSaIhEE3endEv>
  40b92c:	48 89 45 b0          	mov    %rax,-0x50(%rbp)
  40b930:	48 8d 55 a0          	lea    -0x60(%rbp),%rdx
  40b934:	48 8d 45 b0          	lea    -0x50(%rbp),%rax
  40b938:	48 89 d6             	mov    %rdx,%rsi
  40b93b:	48 89 c7             	mov    %rax,%rdi
  40b93e:	e8 d2 08 00 00       	callq  40c215 <_ZN9__gnu_cxxmiIPhSt6vectorIhSaIhEEEENS_17__normal_iteratorIT_T0_E15difference_typeERKS8_SB_>
  40b943:	48 89 45 c8          	mov    %rax,-0x38(%rbp)
  40b947:	48 8b 45 a8          	mov    -0x58(%rbp),%rax
  40b94b:	48 8b 40 08          	mov    0x8(%rax),%rax
  40b94f:	48 89 45 d0          	mov    %rax,-0x30(%rbp)
  40b953:	48 8b 45 c8          	mov    -0x38(%rbp),%rax
  40b957:	48 3b 45 c0          	cmp    -0x40(%rbp),%rax
  40b95b:	0f 86 a0 00 00 00    	jbe    40ba01 <_ZNSt6vectorIhSaIhEE15_M_range_insertIPcEEvN9__gnu_cxx17__normal_iteratorIPhS1_EET_S8_St20forward_iterator_tag+0x153>
  40b961:	48 8b 45 a8          	mov    -0x58(%rbp),%rax
  40b965:	48 89 c7             	mov    %rax,%rdi
  40b968:	e8 1b 9d ff ff       	callq  405688 <_ZNSt12_Vector_baseIhSaIhEE19_M_get_Tp_allocatorEv>
  40b96d:	49 89 c0             	mov    %rax,%r8
  40b970:	48 8b 45 a8          	mov    -0x58(%rbp),%rax
  40b974:	48 8b 50 08          	mov    0x8(%rax),%rdx
  40b978:	48 8b 45 a8          	mov    -0x58(%rbp),%rax
  40b97c:	48 8b 40 08          	mov    0x8(%rax),%rax
  40b980:	48 8b 4d a8          	mov    -0x58(%rbp),%rcx
  40b984:	48 8b 49 08          	mov    0x8(%rcx),%rcx
  40b988:	48 8b 75 c0          	mov    -0x40(%rbp),%rsi
  40b98c:	48 f7 de             	neg    %rsi
  40b98f:	48 8d 3c 31          	lea    (%rcx,%rsi,1),%rdi
  40b993:	4c 89 c1             	mov    %r8,%rcx
  40b996:	48 89 c6             	mov    %rax,%rsi
  40b999:	e8 b6 08 00 00       	callq  40c254 <_ZSt22__uninitialized_move_aIPhS0_SaIhEET0_T_S3_S2_RT1_>
  40b99e:	48 8b 45 a8          	mov    -0x58(%rbp),%rax
  40b9a2:	48 8b 50 08          	mov    0x8(%rax),%rdx
  40b9a6:	48 8b 45 c0          	mov    -0x40(%rbp),%rax
  40b9aa:	48 01 c2             	add    %rax,%rdx
  40b9ad:	48 8b 45 a8          	mov    -0x58(%rbp),%rax
  40b9b1:	48 89 50 08          	mov    %rdx,0x8(%rax)
  40b9b5:	48 8b 45 c0          	mov    -0x40(%rbp),%rax
  40b9b9:	48 f7 d8             	neg    %rax
  40b9bc:	48 89 c2             	mov    %rax,%rdx
  40b9bf:	48 8b 45 d0          	mov    -0x30(%rbp),%rax
  40b9c3:	48 8d 1c 02          	lea    (%rdx,%rax,1),%rbx
  40b9c7:	48 8d 45 a0          	lea    -0x60(%rbp),%rax
  40b9cb:	48 89 c7             	mov    %rax,%rdi
  40b9ce:	e8 19 f5 ff ff       	callq  40aeec <_ZNK9__gnu_cxx17__normal_iteratorIPhSt6vectorIhSaIhEEE4baseEv>
  40b9d3:	48 8b 00             	mov    (%rax),%rax
  40b9d6:	48 8b 55 d0          	mov    -0x30(%rbp),%rdx
  40b9da:	48 89 de             	mov    %rbx,%rsi
  40b9dd:	48 89 c7             	mov    %rax,%rdi
  40b9e0:	e8 c3 08 00 00       	callq  40c2a8 <_ZSt13move_backwardIPhS0_ET0_T_S2_S1_>
  40b9e5:	48 8b 55 a0          	mov    -0x60(%rbp),%rdx
  40b9e9:	48 8b 4d 90          	mov    -0x70(%rbp),%rcx
  40b9ed:	48 8b 45 98          	mov    -0x68(%rbp),%rax
  40b9f1:	48 89 ce             	mov    %rcx,%rsi
  40b9f4:	48 89 c7             	mov    %rax,%rdi
  40b9f7:	e8 53 0b 00 00       	callq  40c54f <_ZSt4copyIPcN9__gnu_cxx17__normal_iteratorIPhSt6vectorIhSaIhEEEEET0_T_S9_S8_>
  40b9fc:	e9 7d 02 00 00       	jmpq   40bc7e <_ZNSt6vectorIhSaIhEE15_M_range_insertIPcEEvN9__gnu_cxx17__normal_iteratorIPhS1_EET_S8_St20forward_iterator_tag+0x3d0>
  40ba01:	48 8b 45 98          	mov    -0x68(%rbp),%rax
  40ba05:	48 89 45 b0          	mov    %rax,-0x50(%rbp)
  40ba09:	48 8b 55 c8          	mov    -0x38(%rbp),%rdx
  40ba0d:	48 8d 45 b0          	lea    -0x50(%rbp),%rax
  40ba11:	48 89 d6             	mov    %rdx,%rsi
  40ba14:	48 89 c7             	mov    %rax,%rdi
  40ba17:	e8 7f 0b 00 00       	callq  40c59b <_ZSt7advanceIPcmEvRT_T0_>
  40ba1c:	48 8b 45 a8          	mov    -0x58(%rbp),%rax
  40ba20:	48 89 c7             	mov    %rax,%rdi
  40ba23:	e8 60 9c ff ff       	callq  405688 <_ZNSt12_Vector_baseIhSaIhEE19_M_get_Tp_allocatorEv>
  40ba28:	48 89 c1             	mov    %rax,%rcx
  40ba2b:	48 8b 45 a8          	mov    -0x58(%rbp),%rax
  40ba2f:	48 8b 50 08          	mov    0x8(%rax),%rdx
  40ba33:	48 8b 45 b0          	mov    -0x50(%rbp),%rax
  40ba37:	48 8b 75 90          	mov    -0x70(%rbp),%rsi
  40ba3b:	48 89 c7             	mov    %rax,%rdi
  40ba3e:	e8 c3 0b 00 00       	callq  40c606 <_ZSt22__uninitialized_copy_aIPcPhhET0_T_S3_S2_RSaIT1_E>
  40ba43:	48 8b 45 a8          	mov    -0x58(%rbp),%rax
  40ba47:	48 8b 50 08          	mov    0x8(%rax),%rdx
  40ba4b:	48 8b 45 c0          	mov    -0x40(%rbp),%rax
  40ba4f:	48 2b 45 c8          	sub    -0x38(%rbp),%rax
  40ba53:	48 01 c2             	add    %rax,%rdx
  40ba56:	48 8b 45 a8          	mov    -0x58(%rbp),%rax
  40ba5a:	48 89 50 08          	mov    %rdx,0x8(%rax)
  40ba5e:	48 8b 45 a8          	mov    -0x58(%rbp),%rax
  40ba62:	48 89 c7             	mov    %rax,%rdi
  40ba65:	e8 1e 9c ff ff       	callq  405688 <_ZNSt12_Vector_baseIhSaIhEE19_M_get_Tp_allocatorEv>
  40ba6a:	49 89 c4             	mov    %rax,%r12
  40ba6d:	48 8b 45 a8          	mov    -0x58(%rbp),%rax
  40ba71:	48 8b 58 08          	mov    0x8(%rax),%rbx
  40ba75:	48 8d 45 a0          	lea    -0x60(%rbp),%rax
  40ba79:	48 89 c7             	mov    %rax,%rdi
  40ba7c:	e8 6b f4 ff ff       	callq  40aeec <_ZNK9__gnu_cxx17__normal_iteratorIPhSt6vectorIhSaIhEEE4baseEv>
  40ba81:	48 8b 00             	mov    (%rax),%rax
  40ba84:	48 8b 75 d0          	mov    -0x30(%rbp),%rsi
  40ba88:	4c 89 e1             	mov    %r12,%rcx
  40ba8b:	48 89 da             	mov    %rbx,%rdx
  40ba8e:	48 89 c7             	mov    %rax,%rdi
  40ba91:	e8 be 07 00 00       	callq  40c254 <_ZSt22__uninitialized_move_aIPhS0_SaIhEET0_T_S3_S2_RT1_>
  40ba96:	48 8b 45 a8          	mov    -0x58(%rbp),%rax
  40ba9a:	48 8b 50 08          	mov    0x8(%rax),%rdx
  40ba9e:	48 8b 45 c8          	mov    -0x38(%rbp),%rax
  40baa2:	48 01 c2             	add    %rax,%rdx
  40baa5:	48 8b 45 a8          	mov    -0x58(%rbp),%rax
  40baa9:	48 89 50 08          	mov    %rdx,0x8(%rax)
  40baad:	48 8b 4d b0          	mov    -0x50(%rbp),%rcx
  40bab1:	48 8b 55 a0          	mov    -0x60(%rbp),%rdx
  40bab5:	48 8b 45 98          	mov    -0x68(%rbp),%rax
  40bab9:	48 89 ce             	mov    %rcx,%rsi
  40babc:	48 89 c7             	mov    %rax,%rdi
  40babf:	e8 8b 0a 00 00       	callq  40c54f <_ZSt4copyIPcN9__gnu_cxx17__normal_iteratorIPhSt6vectorIhSaIhEEEEET0_T_S9_S8_>
  40bac4:	e9 b5 01 00 00       	jmpq   40bc7e <_ZNSt6vectorIhSaIhEE15_M_range_insertIPcEEvN9__gnu_cxx17__normal_iteratorIPhS1_EET_S8_St20forward_iterator_tag+0x3d0>
  40bac9:	48 8b 4d c0          	mov    -0x40(%rbp),%rcx
  40bacd:	48 8b 45 a8          	mov    -0x58(%rbp),%rax
  40bad1:	ba 6f dc 40 00       	mov    $0x40dc6f,%edx
  40bad6:	48 89 ce             	mov    %rcx,%rsi
  40bad9:	48 89 c7             	mov    %rax,%rdi
  40badc:	e8 fb 08 00 00       	callq  40c3dc <_ZNKSt6vectorIhSaIhEE12_M_check_lenEmPKc>
  40bae1:	48 89 45 d8          	mov    %rax,-0x28(%rbp)
  40bae5:	48 8b 45 a8          	mov    -0x58(%rbp),%rax
  40bae9:	48 8b 55 d8          	mov    -0x28(%rbp),%rdx
  40baed:	48 89 d6             	mov    %rdx,%rsi
  40baf0:	48 89 c7             	mov    %rax,%rdi
  40baf3:	e8 d0 09 00 00       	callq  40c4c8 <_ZNSt12_Vector_baseIhSaIhEE11_M_allocateEm>
  40baf8:	48 89 45 e0          	mov    %rax,-0x20(%rbp)
  40bafc:	48 8b 45 e0          	mov    -0x20(%rbp),%rax
  40bb00:	48 89 45 b8          	mov    %rax,-0x48(%rbp)
  40bb04:	48 8b 45 a8          	mov    -0x58(%rbp),%rax
  40bb08:	48 89 c7             	mov    %rax,%rdi
  40bb0b:	e8 78 9b ff ff       	callq  405688 <_ZNSt12_Vector_baseIhSaIhEE19_M_get_Tp_allocatorEv>
  40bb10:	48 89 c3             	mov    %rax,%rbx
  40bb13:	48 8d 45 a0          	lea    -0x60(%rbp),%rax
  40bb17:	48 89 c7             	mov    %rax,%rdi
  40bb1a:	e8 cd f3 ff ff       	callq  40aeec <_ZNK9__gnu_cxx17__normal_iteratorIPhSt6vectorIhSaIhEEE4baseEv>
  40bb1f:	48 8b 30             	mov    (%rax),%rsi
  40bb22:	48 8b 45 a8          	mov    -0x58(%rbp),%rax
  40bb26:	48 8b 00             	mov    (%rax),%rax
  40bb29:	48 8b 55 e0          	mov    -0x20(%rbp),%rdx
  40bb2d:	48 89 d9             	mov    %rbx,%rcx
  40bb30:	48 89 c7             	mov    %rax,%rdi
  40bb33:	e8 c3 09 00 00       	callq  40c4fb <_ZSt34__uninitialized_move_if_noexcept_aIPhS0_SaIhEET0_T_S3_S2_RT1_>
  40bb38:	48 89 45 b8          	mov    %rax,-0x48(%rbp)
  40bb3c:	48 8b 45 a8          	mov    -0x58(%rbp),%rax
  40bb40:	48 89 c7             	mov    %rax,%rdi
  40bb43:	e8 40 9b ff ff       	callq  405688 <_ZNSt12_Vector_baseIhSaIhEE19_M_get_Tp_allocatorEv>
  40bb48:	48 89 c1             	mov    %rax,%rcx
  40bb4b:	48 8b 55 b8          	mov    -0x48(%rbp),%rdx
  40bb4f:	48 8b 75 90          	mov    -0x70(%rbp),%rsi
  40bb53:	48 8b 45 98          	mov    -0x68(%rbp),%rax
  40bb57:	48 89 c7             	mov    %rax,%rdi
  40bb5a:	e8 a7 0a 00 00       	callq  40c606 <_ZSt22__uninitialized_copy_aIPcPhhET0_T_S3_S2_RSaIT1_E>
  40bb5f:	48 89 45 b8          	mov    %rax,-0x48(%rbp)
  40bb63:	48 8b 45 a8          	mov    -0x58(%rbp),%rax
  40bb67:	48 89 c7             	mov    %rax,%rdi
  40bb6a:	e8 19 9b ff ff       	callq  405688 <_ZNSt12_Vector_baseIhSaIhEE19_M_get_Tp_allocatorEv>
  40bb6f:	49 89 c4             	mov    %rax,%r12
  40bb72:	48 8b 45 a8          	mov    -0x58(%rbp),%rax
  40bb76:	48 8b 58 08          	mov    0x8(%rax),%rbx
  40bb7a:	48 8d 45 a0          	lea    -0x60(%rbp),%rax
  40bb7e:	48 89 c7             	mov    %rax,%rdi
  40bb81:	e8 66 f3 ff ff       	callq  40aeec <_ZNK9__gnu_cxx17__normal_iteratorIPhSt6vectorIhSaIhEEE4baseEv>
  40bb86:	48 8b 00             	mov    (%rax),%rax
  40bb89:	48 8b 55 b8          	mov    -0x48(%rbp),%rdx
  40bb8d:	4c 89 e1             	mov    %r12,%rcx
  40bb90:	48 89 de             	mov    %rbx,%rsi
  40bb93:	48 89 c7             	mov    %rax,%rdi
  40bb96:	e8 60 09 00 00       	callq  40c4fb <_ZSt34__uninitialized_move_if_noexcept_aIPhS0_SaIhEET0_T_S3_S2_RT1_>
  40bb9b:	48 89 45 b8          	mov    %rax,-0x48(%rbp)
  40bb9f:	48 8b 45 a8          	mov    -0x58(%rbp),%rax
  40bba3:	48 89 c7             	mov    %rax,%rdi
  40bba6:	e8 dd 9a ff ff       	callq  405688 <_ZNSt12_Vector_baseIhSaIhEE19_M_get_Tp_allocatorEv>
  40bbab:	48 89 c2             	mov    %rax,%rdx
  40bbae:	48 8b 45 a8          	mov    -0x58(%rbp),%rax
  40bbb2:	48 8b 48 08          	mov    0x8(%rax),%rcx
  40bbb6:	48 8b 45 a8          	mov    -0x58(%rbp),%rax
  40bbba:	48 8b 00             	mov    (%rax),%rax
  40bbbd:	48 89 ce             	mov    %rcx,%rsi
  40bbc0:	48 89 c7             	mov    %rax,%rdi
  40bbc3:	e8 ce 9a ff ff       	callq  405696 <_ZSt8_DestroyIPhhEvT_S1_RSaIT0_E>
  40bbc8:	48 8b 45 a8          	mov    -0x58(%rbp),%rax
  40bbcc:	48 8b 40 10          	mov    0x10(%rax),%rax
  40bbd0:	48 89 c2             	mov    %rax,%rdx
  40bbd3:	48 8b 45 a8          	mov    -0x58(%rbp),%rax
  40bbd7:	48 8b 00             	mov    (%rax),%rax
  40bbda:	48 29 c2             	sub    %rax,%rdx
  40bbdd:	48 89 d0             	mov    %rdx,%rax
  40bbe0:	48 89 c2             	mov    %rax,%rdx
  40bbe3:	48 8b 45 a8          	mov    -0x58(%rbp),%rax
  40bbe7:	48 8b 08             	mov    (%rax),%rcx
  40bbea:	48 8b 45 a8          	mov    -0x58(%rbp),%rax
  40bbee:	48 89 ce             	mov    %rcx,%rsi
  40bbf1:	48 89 c7             	mov    %rax,%rdi
  40bbf4:	e8 7f a4 ff ff       	callq  406078 <_ZNSt12_Vector_baseIhSaIhEE13_M_deallocateEPhm>
  40bbf9:	48 8b 45 a8          	mov    -0x58(%rbp),%rax
  40bbfd:	48 8b 55 e0          	mov    -0x20(%rbp),%rdx
  40bc01:	48 89 10             	mov    %rdx,(%rax)
  40bc04:	48 8b 45 a8          	mov    -0x58(%rbp),%rax
  40bc08:	48 8b 55 b8          	mov    -0x48(%rbp),%rdx
  40bc0c:	48 89 50 08          	mov    %rdx,0x8(%rax)
  40bc10:	48 8b 55 e0          	mov    -0x20(%rbp),%rdx
  40bc14:	48 8b 45 d8          	mov    -0x28(%rbp),%rax
  40bc18:	48 01 c2             	add    %rax,%rdx
  40bc1b:	48 8b 45 a8          	mov    -0x58(%rbp),%rax
  40bc1f:	48 89 50 10          	mov    %rdx,0x10(%rax)
  40bc23:	eb 59                	jmp    40bc7e <_ZNSt6vectorIhSaIhEE15_M_range_insertIPcEEvN9__gnu_cxx17__normal_iteratorIPhS1_EET_S8_St20forward_iterator_tag+0x3d0>
  40bc25:	48 89 c7             	mov    %rax,%rdi
  40bc28:	e8 63 70 ff ff       	callq  402c90 <__cxa_begin_catch@plt>
  40bc2d:	48 8b 45 a8          	mov    -0x58(%rbp),%rax
  40bc31:	48 89 c7             	mov    %rax,%rdi
  40bc34:	e8 4f 9a ff ff       	callq  405688 <_ZNSt12_Vector_baseIhSaIhEE19_M_get_Tp_allocatorEv>
  40bc39:	48 89 c2             	mov    %rax,%rdx
  40bc3c:	48 8b 4d b8          	mov    -0x48(%rbp),%rcx
  40bc40:	48 8b 45 e0          	mov    -0x20(%rbp),%rax
  40bc44:	48 89 ce             	mov    %rcx,%rsi
  40bc47:	48 89 c7             	mov    %rax,%rdi
  40bc4a:	e8 47 9a ff ff       	callq  405696 <_ZSt8_DestroyIPhhEvT_S1_RSaIT0_E>
  40bc4f:	48 8b 45 a8          	mov    -0x58(%rbp),%rax
  40bc53:	48 8b 55 d8          	mov    -0x28(%rbp),%rdx
  40bc57:	48 8b 4d e0          	mov    -0x20(%rbp),%rcx
  40bc5b:	48 89 ce             	mov    %rcx,%rsi
  40bc5e:	48 89 c7             	mov    %rax,%rdi
  40bc61:	e8 12 a4 ff ff       	callq  406078 <_ZNSt12_Vector_baseIhSaIhEE13_M_deallocateEPhm>
  40bc66:	e8 75 73 ff ff       	callq  402fe0 <__cxa_rethrow@plt>
  40bc6b:	48 89 c3             	mov    %rax,%rbx
  40bc6e:	e8 fd 73 ff ff       	callq  403070 <__cxa_end_catch@plt>
  40bc73:	48 89 d8             	mov    %rbx,%rax
  40bc76:	48 89 c7             	mov    %rax,%rdi
  40bc79:	e8 72 74 ff ff       	callq  4030f0 <_Unwind_Resume@plt>
  40bc7e:	90                   	nop
  40bc7f:	48 8b 45 e8          	mov    -0x18(%rbp),%rax
  40bc83:	64 48 33 04 25 28 00 	xor    %fs:0x28,%rax
  40bc8a:	00 00 
  40bc8c:	74 05                	je     40bc93 <_ZNSt6vectorIhSaIhEE15_M_range_insertIPcEEvN9__gnu_cxx17__normal_iteratorIPhS1_EET_S8_St20forward_iterator_tag+0x3e5>
  40bc8e:	e8 ad 72 ff ff       	callq  402f40 <__stack_chk_fail@plt>
  40bc93:	48 83 c4 60          	add    $0x60,%rsp
  40bc97:	5b                   	pop    %rbx
  40bc98:	41 5c                	pop    %r12
  40bc9a:	5d                   	pop    %rbp
  40bc9b:	c3                   	retq   

000000000040bc9c <_ZNSt12_Vector_baseISt4pairISt6threadbESaIS2_EE12_Vector_implC1Ev>:
  40bc9c:	55                   	push   %rbp
  40bc9d:	48 89 e5             	mov    %rsp,%rbp
  40bca0:	48 83 ec 10          	sub    $0x10,%rsp
  40bca4:	48 89 7d f8          	mov    %rdi,-0x8(%rbp)
  40bca8:	48 8b 45 f8          	mov    -0x8(%rbp),%rax
  40bcac:	48 89 c7             	mov    %rax,%rdi
  40bcaf:	e8 84 09 00 00       	callq  40c638 <_ZNSaISt4pairISt6threadbEEC1Ev>
  40bcb4:	48 8b 45 f8          	mov    -0x8(%rbp),%rax
  40bcb8:	48 c7 00 00 00 00 00 	movq   $0x0,(%rax)
  40bcbf:	48 8b 45 f8          	mov    -0x8(%rbp),%rax
  40bcc3:	48 c7 40 08 00 00 00 	movq   $0x0,0x8(%rax)
  40bcca:	00 
  40bccb:	48 8b 45 f8          	mov    -0x8(%rbp),%rax
  40bccf:	48 c7 40 10 00 00 00 	movq   $0x0,0x10(%rax)
  40bcd6:	00 
  40bcd7:	90                   	nop
  40bcd8:	c9                   	leaveq 
  40bcd9:	c3                   	retq   

000000000040bcda <_ZNSaISt4pairISt6threadbEED1Ev>:
  40bcda:	55                   	push   %rbp
  40bcdb:	48 89 e5             	mov    %rsp,%rbp
  40bcde:	48 83 ec 10          	sub    $0x10,%rsp
  40bce2:	48 89 7d f8          	mov    %rdi,-0x8(%rbp)
  40bce6:	48 8b 45 f8          	mov    -0x8(%rbp),%rax
  40bcea:	48 89 c7             	mov    %rax,%rdi
  40bced:	e8 62 09 00 00       	callq  40c654 <_ZN9__gnu_cxx13new_allocatorISt4pairISt6threadbEED1Ev>
  40bcf2:	90                   	nop
  40bcf3:	c9                   	leaveq 
  40bcf4:	c3                   	retq   
  40bcf5:	90                   	nop

000000000040bcf6 <_ZNSt12_Vector_baseISt4pairISt6threadbESaIS2_EE13_M_deallocateEPS2_m>:
  40bcf6:	55                   	push   %rbp
  40bcf7:	48 89 e5             	mov    %rsp,%rbp
  40bcfa:	48 83 ec 20          	sub    $0x20,%rsp
  40bcfe:	48 89 7d f8          	mov    %rdi,-0x8(%rbp)
  40bd02:	48 89 75 f0          	mov    %rsi,-0x10(%rbp)
  40bd06:	48 89 55 e8          	mov    %rdx,-0x18(%rbp)
  40bd0a:	48 83 7d f0 00       	cmpq   $0x0,-0x10(%rbp)
  40bd0f:	74 17                	je     40bd28 <_ZNSt12_Vector_baseISt4pairISt6threadbESaIS2_EE13_M_deallocateEPS2_m+0x32>
  40bd11:	48 8b 45 f8          	mov    -0x8(%rbp),%rax
  40bd15:	48 8b 55 e8          	mov    -0x18(%rbp),%rdx
  40bd19:	48 8b 4d f0          	mov    -0x10(%rbp),%rcx
  40bd1d:	48 89 ce             	mov    %rcx,%rsi
  40bd20:	48 89 c7             	mov    %rax,%rdi
  40bd23:	e8 37 09 00 00       	callq  40c65f <_ZNSt16allocator_traitsISaISt4pairISt6threadbEEE10deallocateERS3_PS2_m>
  40bd28:	90                   	nop
  40bd29:	c9                   	leaveq 
  40bd2a:	c3                   	retq   

000000000040bd2b <_ZSt8_DestroyIPSt4pairISt6threadbEEvT_S4_>:
  40bd2b:	55                   	push   %rbp
  40bd2c:	48 89 e5             	mov    %rsp,%rbp
  40bd2f:	48 83 ec 10          	sub    $0x10,%rsp
  40bd33:	48 89 7d f8          	mov    %rdi,-0x8(%rbp)
  40bd37:	48 89 75 f0          	mov    %rsi,-0x10(%rbp)
  40bd3b:	48 8b 55 f0          	mov    -0x10(%rbp),%rdx
  40bd3f:	48 8b 45 f8          	mov    -0x8(%rbp),%rax
  40bd43:	48 89 d6             	mov    %rdx,%rsi
  40bd46:	48 89 c7             	mov    %rax,%rdi
  40bd49:	e8 3f 09 00 00       	callq  40c68d <_ZNSt12_Destroy_auxILb0EE9__destroyIPSt4pairISt6threadbEEEvT_S6_>
  40bd4e:	90                   	nop
  40bd4f:	c9                   	leaveq 
  40bd50:	c3                   	retq   

000000000040bd51 <_ZSt3maxImERKT_S2_S2_>:
  40bd51:	55                   	push   %rbp
  40bd52:	48 89 e5             	mov    %rsp,%rbp
  40bd55:	48 89 7d f8          	mov    %rdi,-0x8(%rbp)
  40bd59:	48 89 75 f0          	mov    %rsi,-0x10(%rbp)
  40bd5d:	48 8b 45 f8          	mov    -0x8(%rbp),%rax
  40bd61:	48 8b 10             	mov    (%rax),%rdx
  40bd64:	48 8b 45 f0          	mov    -0x10(%rbp),%rax
  40bd68:	48 8b 00             	mov    (%rax),%rax
  40bd6b:	48 39 c2             	cmp    %rax,%rdx
  40bd6e:	73 06                	jae    40bd76 <_ZSt3maxImERKT_S2_S2_+0x25>
  40bd70:	48 8b 45 f0          	mov    -0x10(%rbp),%rax
  40bd74:	eb 04                	jmp    40bd7a <_ZSt3maxImERKT_S2_S2_+0x29>
  40bd76:	48 8b 45 f8          	mov    -0x8(%rbp),%rax
  40bd7a:	5d                   	pop    %rbp
  40bd7b:	c3                   	retq   

000000000040bd7c <_ZNKSt6vectorISt4pairISt6threadbESaIS2_EE12_M_check_lenEmPKc>:
  40bd7c:	55                   	push   %rbp
  40bd7d:	48 89 e5             	mov    %rsp,%rbp
  40bd80:	53                   	push   %rbx
  40bd81:	48 83 ec 48          	sub    $0x48,%rsp
  40bd85:	48 89 7d c8          	mov    %rdi,-0x38(%rbp)
  40bd89:	48 89 75 c0          	mov    %rsi,-0x40(%rbp)
  40bd8d:	48 89 55 b8          	mov    %rdx,-0x48(%rbp)
  40bd91:	64 48 8b 04 25 28 00 	mov    %fs:0x28,%rax
  40bd98:	00 00 
  40bd9a:	48 89 45 e8          	mov    %rax,-0x18(%rbp)
  40bd9e:	31 c0                	xor    %eax,%eax
  40bda0:	48 8b 45 c8          	mov    -0x38(%rbp),%rax
  40bda4:	48 89 c7             	mov    %rax,%rdi
  40bda7:	e8 1a 09 00 00       	callq  40c6c6 <_ZNKSt6vectorISt4pairISt6threadbESaIS2_EE8max_sizeEv>
  40bdac:	48 89 c3             	mov    %rax,%rbx
  40bdaf:	48 8b 45 c8          	mov    -0x38(%rbp),%rax
  40bdb3:	48 89 c7             	mov    %rax,%rdi
  40bdb6:	e8 e1 00 00 00       	callq  40be9c <_ZNKSt6vectorISt4pairISt6threadbESaIS2_EE4sizeEv>
  40bdbb:	48 29 c3             	sub    %rax,%rbx
  40bdbe:	48 89 da             	mov    %rbx,%rdx
  40bdc1:	48 8b 45 c0          	mov    -0x40(%rbp),%rax
  40bdc5:	48 39 c2             	cmp    %rax,%rdx
  40bdc8:	0f 92 c0             	setb   %al
  40bdcb:	84 c0                	test   %al,%al
  40bdcd:	74 0c                	je     40bddb <_ZNKSt6vectorISt4pairISt6threadbESaIS2_EE12_M_check_lenEmPKc+0x5f>
  40bdcf:	48 8b 45 b8          	mov    -0x48(%rbp),%rax
  40bdd3:	48 89 c7             	mov    %rax,%rdi
  40bdd6:	e8 25 6f ff ff       	callq  402d00 <_ZSt20__throw_length_errorPKc@plt>
  40bddb:	48 8b 45 c8          	mov    -0x38(%rbp),%rax
  40bddf:	48 89 c7             	mov    %rax,%rdi
  40bde2:	e8 b5 00 00 00       	callq  40be9c <_ZNKSt6vectorISt4pairISt6threadbESaIS2_EE4sizeEv>
  40bde7:	48 89 c3             	mov    %rax,%rbx
  40bdea:	48 8b 45 c8          	mov    -0x38(%rbp),%rax
  40bdee:	48 89 c7             	mov    %rax,%rdi
  40bdf1:	e8 a6 00 00 00       	callq  40be9c <_ZNKSt6vectorISt4pairISt6threadbESaIS2_EE4sizeEv>
  40bdf6:	48 89 45 d8          	mov    %rax,-0x28(%rbp)
  40bdfa:	48 8d 55 c0          	lea    -0x40(%rbp),%rdx
  40bdfe:	48 8d 45 d8          	lea    -0x28(%rbp),%rax
  40be02:	48 89 d6             	mov    %rdx,%rsi
  40be05:	48 89 c7             	mov    %rax,%rdi
  40be08:	e8 44 ff ff ff       	callq  40bd51 <_ZSt3maxImERKT_S2_S2_>
  40be0d:	48 8b 00             	mov    (%rax),%rax
  40be10:	48 01 d8             	add    %rbx,%rax
  40be13:	48 89 45 e0          	mov    %rax,-0x20(%rbp)
  40be17:	48 8b 45 c8          	mov    -0x38(%rbp),%rax
  40be1b:	48 89 c7             	mov    %rax,%rdi
  40be1e:	e8 79 00 00 00       	callq  40be9c <_ZNKSt6vectorISt4pairISt6threadbESaIS2_EE4sizeEv>
  40be23:	48 3b 45 e0          	cmp    -0x20(%rbp),%rax
  40be27:	77 12                	ja     40be3b <_ZNKSt6vectorISt4pairISt6threadbESaIS2_EE12_M_check_lenEmPKc+0xbf>
  40be29:	48 8b 45 c8          	mov    -0x38(%rbp),%rax
  40be2d:	48 89 c7             	mov    %rax,%rdi
  40be30:	e8 91 08 00 00       	callq  40c6c6 <_ZNKSt6vectorISt4pairISt6threadbESaIS2_EE8max_sizeEv>
  40be35:	48 3b 45 e0          	cmp    -0x20(%rbp),%rax
  40be39:	73 0e                	jae    40be49 <_ZNKSt6vectorISt4pairISt6threadbESaIS2_EE12_M_check_lenEmPKc+0xcd>
  40be3b:	48 8b 45 c8          	mov    -0x38(%rbp),%rax
  40be3f:	48 89 c7             	mov    %rax,%rdi
  40be42:	e8 7f 08 00 00       	callq  40c6c6 <_ZNKSt6vectorISt4pairISt6threadbESaIS2_EE8max_sizeEv>
  40be47:	eb 04                	jmp    40be4d <_ZNKSt6vectorISt4pairISt6threadbESaIS2_EE12_M_check_lenEmPKc+0xd1>
  40be49:	48 8b 45 e0          	mov    -0x20(%rbp),%rax
  40be4d:	48 8b 4d e8          	mov    -0x18(%rbp),%rcx
  40be51:	64 48 33 0c 25 28 00 	xor    %fs:0x28,%rcx
  40be58:	00 00 
  40be5a:	74 05                	je     40be61 <_ZNKSt6vectorISt4pairISt6threadbESaIS2_EE12_M_check_lenEmPKc+0xe5>
  40be5c:	e8 df 70 ff ff       	callq  402f40 <__stack_chk_fail@plt>
  40be61:	48 83 c4 48          	add    $0x48,%rsp
  40be65:	5b                   	pop    %rbx
  40be66:	5d                   	pop    %rbp
  40be67:	c3                   	retq   

000000000040be68 <_ZNSt12_Vector_baseISt4pairISt6threadbESaIS2_EE11_M_allocateEm>:
  40be68:	55                   	push   %rbp
  40be69:	48 89 e5             	mov    %rsp,%rbp
  40be6c:	48 83 ec 10          	sub    $0x10,%rsp
  40be70:	48 89 7d f8          	mov    %rdi,-0x8(%rbp)
  40be74:	48 89 75 f0          	mov    %rsi,-0x10(%rbp)
  40be78:	48 83 7d f0 00       	cmpq   $0x0,-0x10(%rbp)
  40be7d:	74 15                	je     40be94 <_ZNSt12_Vector_baseISt4pairISt6threadbESaIS2_EE11_M_allocateEm+0x2c>
  40be7f:	48 8b 45 f8          	mov    -0x8(%rbp),%rax
  40be83:	48 8b 55 f0          	mov    -0x10(%rbp),%rdx
  40be87:	48 89 d6             	mov    %rdx,%rsi
  40be8a:	48 89 c7             	mov    %rax,%rdi
  40be8d:	e8 56 08 00 00       	callq  40c6e8 <_ZNSt16allocator_traitsISaISt4pairISt6threadbEEE8allocateERS3_m>
  40be92:	eb 05                	jmp    40be99 <_ZNSt12_Vector_baseISt4pairISt6threadbESaIS2_EE11_M_allocateEm+0x31>
  40be94:	b8 00 00 00 00       	mov    $0x0,%eax
  40be99:	c9                   	leaveq 
  40be9a:	c3                   	retq   
  40be9b:	90                   	nop

000000000040be9c <_ZNKSt6vectorISt4pairISt6threadbESaIS2_EE4sizeEv>:
  40be9c:	55                   	push   %rbp
  40be9d:	48 89 e5             	mov    %rsp,%rbp
  40bea0:	48 89 7d f8          	mov    %rdi,-0x8(%rbp)
  40bea4:	48 8b 45 f8          	mov    -0x8(%rbp),%rax
  40bea8:	48 8b 40 08          	mov    0x8(%rax),%rax
  40beac:	48 89 c2             	mov    %rax,%rdx
  40beaf:	48 8b 45 f8          	mov    -0x8(%rbp),%rax
  40beb3:	48 8b 00             	mov    (%rax),%rax
  40beb6:	48 29 c2             	sub    %rax,%rdx
  40beb9:	48 89 d0             	mov    %rdx,%rax
  40bebc:	48 c1 f8 04          	sar    $0x4,%rax
  40bec0:	5d                   	pop    %rbp
  40bec1:	c3                   	retq   

000000000040bec2 <_ZSt34__uninitialized_move_if_noexcept_aIPSt4pairISt6threadbES3_SaIS2_EET0_T_S6_S5_RT1_>:
  40bec2:	55                   	push   %rbp
  40bec3:	48 89 e5             	mov    %rsp,%rbp
  40bec6:	53                   	push   %rbx
  40bec7:	48 83 ec 28          	sub    $0x28,%rsp
  40becb:	48 89 7d e8          	mov    %rdi,-0x18(%rbp)
  40becf:	48 89 75 e0          	mov    %rsi,-0x20(%rbp)
  40bed3:	48 89 55 d8          	mov    %rdx,-0x28(%rbp)
  40bed7:	48 89 4d d0          	mov    %rcx,-0x30(%rbp)
  40bedb:	48 8b 45 e0          	mov    -0x20(%rbp),%rax
  40bedf:	48 89 c7             	mov    %rax,%rdi
  40bee2:	e8 2b 08 00 00       	callq  40c712 <_ZSt32__make_move_if_noexcept_iteratorISt4pairISt6threadbESt13move_iteratorIPS2_EET0_PT_>
  40bee7:	48 89 c3             	mov    %rax,%rbx
  40beea:	48 8b 45 e8          	mov    -0x18(%rbp),%rax
  40beee:	48 89 c7             	mov    %rax,%rdi
  40bef1:	e8 1c 08 00 00       	callq  40c712 <_ZSt32__make_move_if_noexcept_iteratorISt4pairISt6threadbESt13move_iteratorIPS2_EET0_PT_>
  40bef6:	48 89 c7             	mov    %rax,%rdi
  40bef9:	48 8b 55 d0          	mov    -0x30(%rbp),%rdx
  40befd:	48 8b 45 d8          	mov    -0x28(%rbp),%rax
  40bf01:	48 89 d1             	mov    %rdx,%rcx
  40bf04:	48 89 c2             	mov    %rax,%rdx
  40bf07:	48 89 de             	mov    %rbx,%rsi
  40bf0a:	e8 4b 08 00 00       	callq  40c75a <_ZSt22__uninitialized_copy_aISt13move_iteratorIPSt4pairISt6threadbEES4_S3_ET0_T_S7_S6_RSaIT1_E>
  40bf0f:	48 83 c4 28          	add    $0x28,%rsp
  40bf13:	5b                   	pop    %rbx
  40bf14:	5d                   	pop    %rbp
  40bf15:	c3                   	retq   

000000000040bf16 <_ZNSt16allocator_traitsISaISt4pairISt6threadbEEE7destroyIS2_EEvRS3_PT_>:
  40bf16:	55                   	push   %rbp
  40bf17:	48 89 e5             	mov    %rsp,%rbp
  40bf1a:	48 83 ec 10          	sub    $0x10,%rsp
  40bf1e:	48 89 7d f8          	mov    %rdi,-0x8(%rbp)
  40bf22:	48 89 75 f0          	mov    %rsi,-0x10(%rbp)
  40bf26:	48 8b 55 f0          	mov    -0x10(%rbp),%rdx
  40bf2a:	48 8b 45 f8          	mov    -0x8(%rbp),%rax
  40bf2e:	48 89 d6             	mov    %rdx,%rsi
  40bf31:	48 89 c7             	mov    %rax,%rdi
  40bf34:	e8 6f 08 00 00       	callq  40c7a8 <_ZN9__gnu_cxx13new_allocatorISt4pairISt6threadbEE7destroyIS3_EEvPT_>
  40bf39:	90                   	nop
  40bf3a:	c9                   	leaveq 
  40bf3b:	c3                   	retq   

000000000040bf3c <_ZN9__gnu_cxxeqIPSt4pairISt6threadbESt6vectorIS3_SaIS3_EEEEbRKNS_17__normal_iteratorIT_T0_EESD_>:
  40bf3c:	55                   	push   %rbp
  40bf3d:	48 89 e5             	mov    %rsp,%rbp
  40bf40:	53                   	push   %rbx
  40bf41:	48 83 ec 18          	sub    $0x18,%rsp
  40bf45:	48 89 7d e8          	mov    %rdi,-0x18(%rbp)
  40bf49:	48 89 75 e0          	mov    %rsi,-0x20(%rbp)
  40bf4d:	48 8b 45 e8          	mov    -0x18(%rbp),%rax
  40bf51:	48 89 c7             	mov    %rax,%rdi
  40bf54:	e8 77 f2 ff ff       	callq  40b1d0 <_ZNK9__gnu_cxx17__normal_iteratorIPSt4pairISt6threadbESt6vectorIS3_SaIS3_EEE4baseEv>
  40bf59:	48 8b 18             	mov    (%rax),%rbx
  40bf5c:	48 8b 45 e0          	mov    -0x20(%rbp),%rax
  40bf60:	48 89 c7             	mov    %rax,%rdi
  40bf63:	e8 68 f2 ff ff       	callq  40b1d0 <_ZNK9__gnu_cxx17__normal_iteratorIPSt4pairISt6threadbESt6vectorIS3_SaIS3_EEE4baseEv>
  40bf68:	48 8b 00             	mov    (%rax),%rax
  40bf6b:	48 39 c3             	cmp    %rax,%rbx
  40bf6e:	0f 94 c0             	sete   %al
  40bf71:	48 83 c4 18          	add    $0x18,%rsp
  40bf75:	5b                   	pop    %rbx
  40bf76:	5d                   	pop    %rbp
  40bf77:	c3                   	retq   

000000000040bf78 <_ZSt7forwardISt6threadEOT_RNSt16remove_referenceIS1_E4typeE>:
  40bf78:	55                   	push   %rbp
  40bf79:	48 89 e5             	mov    %rsp,%rbp
  40bf7c:	48 89 7d f8          	mov    %rdi,-0x8(%rbp)
  40bf80:	48 8b 45 f8          	mov    -0x8(%rbp),%rax
  40bf84:	5d                   	pop    %rbp
  40bf85:	c3                   	retq   

000000000040bf86 <_ZNSt4pairISt6threadbEaSEOS1_>:
  40bf86:	55                   	push   %rbp
  40bf87:	48 89 e5             	mov    %rsp,%rbp
  40bf8a:	48 83 ec 10          	sub    $0x10,%rsp
  40bf8e:	48 89 7d f8          	mov    %rdi,-0x8(%rbp)
  40bf92:	48 89 75 f0          	mov    %rsi,-0x10(%rbp)
  40bf96:	48 8b 45 f0          	mov    -0x10(%rbp),%rax
  40bf9a:	48 89 c7             	mov    %rax,%rdi
  40bf9d:	e8 d6 ff ff ff       	callq  40bf78 <_ZSt7forwardISt6threadEOT_RNSt16remove_referenceIS1_E4typeE>
  40bfa2:	48 89 c2             	mov    %rax,%rdx
  40bfa5:	48 8b 45 f8          	mov    -0x8(%rbp),%rax
  40bfa9:	48 89 d6             	mov    %rdx,%rsi
  40bfac:	48 89 c7             	mov    %rax,%rdi
  40bfaf:	e8 00 e4 ff ff       	callq  40a3b4 <_ZNSt6threadaSEOS_>
  40bfb4:	48 8b 45 f0          	mov    -0x10(%rbp),%rax
  40bfb8:	48 83 c0 08          	add    $0x8,%rax
  40bfbc:	48 89 c7             	mov    %rax,%rdi
  40bfbf:	e8 30 9c ff ff       	callq  405bf4 <_ZSt7forwardIbEOT_RNSt16remove_referenceIS0_E4typeE>
  40bfc4:	0f b6 10             	movzbl (%rax),%edx
  40bfc7:	48 8b 45 f8          	mov    -0x8(%rbp),%rax
  40bfcb:	88 50 08             	mov    %dl,0x8(%rax)
  40bfce:	48 8b 45 f8          	mov    -0x8(%rbp),%rax
  40bfd2:	c9                   	leaveq 
  40bfd3:	c3                   	retq   

000000000040bfd4 <_ZN9__gnu_cxx17__normal_iteratorIPKSt4pairISt6threadbESt6vectorIS3_SaIS3_EEEC1ERKS5_>:
  40bfd4:	55                   	push   %rbp
  40bfd5:	48 89 e5             	mov    %rsp,%rbp
  40bfd8:	48 89 7d f8          	mov    %rdi,-0x8(%rbp)
  40bfdc:	48 89 75 f0          	mov    %rsi,-0x10(%rbp)
  40bfe0:	48 8b 45 f0          	mov    -0x10(%rbp),%rax
  40bfe4:	48 8b 10             	mov    (%rax),%rdx
  40bfe7:	48 8b 45 f8          	mov    -0x8(%rbp),%rax
  40bfeb:	48 89 10             	mov    %rdx,(%rax)
  40bfee:	90                   	nop
  40bfef:	5d                   	pop    %rbp
  40bff0:	c3                   	retq   
  40bff1:	90                   	nop

000000000040bff2 <_ZNK9__gnu_cxx17__normal_iteratorIPKSt4pairISt6threadbESt6vectorIS3_SaIS3_EEE4baseEv>:
  40bff2:	55                   	push   %rbp
  40bff3:	48 89 e5             	mov    %rsp,%rbp
  40bff6:	48 89 7d f8          	mov    %rdi,-0x8(%rbp)
  40bffa:	48 8b 45 f8          	mov    -0x8(%rbp),%rax
  40bffe:	5d                   	pop    %rbp
  40bfff:	c3                   	retq   

000000000040c000 <_ZSt4moveIN9__gnu_cxx17__normal_iteratorIPSt4pairISt6threadbESt6vectorIS4_SaIS4_EEEES9_ET0_T_SB_SA_>:
  40c000:	55                   	push   %rbp
  40c001:	48 89 e5             	mov    %rsp,%rbp
  40c004:	53                   	push   %rbx
  40c005:	48 83 ec 28          	sub    $0x28,%rsp
  40c009:	48 89 7d e8          	mov    %rdi,-0x18(%rbp)
  40c00d:	48 89 75 e0          	mov    %rsi,-0x20(%rbp)
  40c011:	48 89 55 d8          	mov    %rdx,-0x28(%rbp)
  40c015:	48 8b 45 e0          	mov    -0x20(%rbp),%rax
  40c019:	48 89 c7             	mov    %rax,%rdi
  40c01c:	e8 b0 07 00 00       	callq  40c7d1 <_ZSt12__miter_baseIN9__gnu_cxx17__normal_iteratorIPSt4pairISt6threadbESt6vectorIS4_SaIS4_EEEEET_SA_>
  40c021:	48 89 c3             	mov    %rax,%rbx
  40c024:	48 8b 45 e8          	mov    -0x18(%rbp),%rax
  40c028:	48 89 c7             	mov    %rax,%rdi
  40c02b:	e8 a1 07 00 00       	callq  40c7d1 <_ZSt12__miter_baseIN9__gnu_cxx17__normal_iteratorIPSt4pairISt6threadbESt6vectorIS4_SaIS4_EEEEET_SA_>
  40c030:	48 89 c1             	mov    %rax,%rcx
  40c033:	48 8b 45 d8          	mov    -0x28(%rbp),%rax
  40c037:	48 89 c2             	mov    %rax,%rdx
  40c03a:	48 89 de             	mov    %rbx,%rsi
  40c03d:	48 89 cf             	mov    %rcx,%rdi
  40c040:	e8 9a 07 00 00       	callq  40c7df <_ZSt14__copy_move_a2ILb1EN9__gnu_cxx17__normal_iteratorIPSt4pairISt6threadbESt6vectorIS4_SaIS4_EEEES9_ET1_T0_SB_SA_>
  40c045:	48 83 c4 28          	add    $0x28,%rsp
  40c049:	5b                   	pop    %rbx
  40c04a:	5d                   	pop    %rbp
  40c04b:	c3                   	retq   

000000000040c04c <_ZNSt6vectorISt4pairISt6threadbESaIS2_EE15_M_erase_at_endEPS2_>:
  40c04c:	55                   	push   %rbp
  40c04d:	48 89 e5             	mov    %rsp,%rbp
  40c050:	48 83 ec 10          	sub    $0x10,%rsp
  40c054:	48 89 7d f8          	mov    %rdi,-0x8(%rbp)
  40c058:	48 89 75 f0          	mov    %rsi,-0x10(%rbp)
  40c05c:	48 8b 45 f8          	mov    -0x8(%rbp),%rax
  40c060:	48 89 c7             	mov    %rax,%rdi
  40c063:	e8 12 f1 ff ff       	callq  40b17a <_ZNSt12_Vector_baseISt4pairISt6threadbESaIS2_EE19_M_get_Tp_allocatorEv>
  40c068:	48 89 c2             	mov    %rax,%rdx
  40c06b:	48 8b 45 f8          	mov    -0x8(%rbp),%rax
  40c06f:	48 8b 48 08          	mov    0x8(%rax),%rcx
  40c073:	48 8b 45 f0          	mov    -0x10(%rbp),%rax
  40c077:	48 89 ce             	mov    %rcx,%rsi
  40c07a:	48 89 c7             	mov    %rax,%rdi
  40c07d:	e8 06 f1 ff ff       	callq  40b188 <_ZSt8_DestroyIPSt4pairISt6threadbES2_EvT_S4_RSaIT0_E>
  40c082:	48 8b 45 f8          	mov    -0x8(%rbp),%rax
  40c086:	48 8b 55 f0          	mov    -0x10(%rbp),%rdx
  40c08a:	48 89 50 08          	mov    %rdx,0x8(%rax)
  40c08e:	90                   	nop
  40c08f:	c9                   	leaveq 
  40c090:	c3                   	retq   

000000000040c091 <_ZN9__gnu_cxxmiIPSt4pairISt6threadbESt6vectorIS3_SaIS3_EEEENS_17__normal_iteratorIT_T0_E15difference_typeERKSB_SE_>:
  40c091:	55                   	push   %rbp
  40c092:	48 89 e5             	mov    %rsp,%rbp
  40c095:	53                   	push   %rbx
  40c096:	48 83 ec 18          	sub    $0x18,%rsp
  40c09a:	48 89 7d e8          	mov    %rdi,-0x18(%rbp)
  40c09e:	48 89 75 e0          	mov    %rsi,-0x20(%rbp)
  40c0a2:	48 8b 45 e8          	mov    -0x18(%rbp),%rax
  40c0a6:	48 89 c7             	mov    %rax,%rdi
  40c0a9:	e8 22 f1 ff ff       	callq  40b1d0 <_ZNK9__gnu_cxx17__normal_iteratorIPSt4pairISt6threadbESt6vectorIS3_SaIS3_EEE4baseEv>
  40c0ae:	48 8b 00             	mov    (%rax),%rax
  40c0b1:	48 89 c3             	mov    %rax,%rbx
  40c0b4:	48 8b 45 e0          	mov    -0x20(%rbp),%rax
  40c0b8:	48 89 c7             	mov    %rax,%rdi
  40c0bb:	e8 10 f1 ff ff       	callq  40b1d0 <_ZNK9__gnu_cxx17__normal_iteratorIPSt4pairISt6threadbESt6vectorIS3_SaIS3_EEE4baseEv>
  40c0c0:	48 8b 00             	mov    (%rax),%rax
  40c0c3:	48 29 c3             	sub    %rax,%rbx
  40c0c6:	48 89 d8             	mov    %rbx,%rax
  40c0c9:	48 c1 f8 04          	sar    $0x4,%rax
  40c0cd:	48 83 c4 18          	add    $0x18,%rsp
  40c0d1:	5b                   	pop    %rbx
  40c0d2:	5d                   	pop    %rbp
  40c0d3:	c3                   	retq   

000000000040c0d4 <_ZNSt8_Rb_treeINSt7__cxx1112basic_stringIcSt11char_traitsIcESaIcEEESt4pairIKS5_S5_ESt10_Select1stIS8_ESt4lessIS5_ESaIS8_EE17_M_construct_nodeIJRKSt21piecewise_construct_tSt5tupleIJRS7_EESJ_IJEEEEEvPSt13_Rb_tree_nodeIS8_EDpOT_>:
  40c0d4:	55                   	push   %rbp
  40c0d5:	48 89 e5             	mov    %rsp,%rbp
  40c0d8:	41 56                	push   %r14
  40c0da:	41 55                	push   %r13
  40c0dc:	41 54                	push   %r12
  40c0de:	53                   	push   %rbx
  40c0df:	48 83 ec 30          	sub    $0x30,%rsp
  40c0e3:	48 89 7d d8          	mov    %rdi,-0x28(%rbp)
  40c0e7:	48 89 75 d0          	mov    %rsi,-0x30(%rbp)
  40c0eb:	48 89 55 c8          	mov    %rdx,-0x38(%rbp)
  40c0ef:	48 89 4d c0          	mov    %rcx,-0x40(%rbp)
  40c0f3:	4c 89 45 b8          	mov    %r8,-0x48(%rbp)
  40c0f7:	48 8b 45 d0          	mov    -0x30(%rbp),%rax
  40c0fb:	48 89 c6             	mov    %rax,%rsi
  40c0fe:	bf 60 00 00 00       	mov    $0x60,%edi
  40c103:	e8 2b 87 ff ff       	callq  404833 <_ZnwmPv>
  40c108:	48 85 c0             	test   %rax,%rax
  40c10b:	74 08                	je     40c115 <_ZNSt8_Rb_treeINSt7__cxx1112basic_stringIcSt11char_traitsIcESaIcEEESt4pairIKS5_S5_ESt10_Select1stIS8_ESt4lessIS5_ESaIS8_EE17_M_construct_nodeIJRKSt21piecewise_construct_tSt5tupleIJRS7_EESJ_IJEEEEEvPSt13_Rb_tree_nodeIS8_EDpOT_+0x41>
  40c10d:	48 89 c7             	mov    %rax,%rdi
  40c110:	e8 0f b0 ff ff       	callq  407124 <_ZNSt13_Rb_tree_nodeISt4pairIKNSt7__cxx1112basic_stringIcSt11char_traitsIcESaIcEEES6_EEC1Ev>
  40c115:	48 8b 45 b8          	mov    -0x48(%rbp),%rax
  40c119:	48 89 c7             	mov    %rax,%rdi
  40c11c:	e8 66 96 ff ff       	callq  405787 <_ZSt7forwardISt5tupleIJEEEOT_RNSt16remove_referenceIS2_E4typeE>
  40c121:	49 89 c6             	mov    %rax,%r14
  40c124:	48 8b 45 c0          	mov    -0x40(%rbp),%rax
  40c128:	48 89 c7             	mov    %rax,%rdi
  40c12b:	e8 55 ec ff ff       	callq  40ad85 <_ZSt7forwardISt5tupleIJRKNSt7__cxx1112basic_stringIcSt11char_traitsIcESaIcEEEEEEOT_RNSt16remove_referenceISA_E4typeE>
  40c130:	49 89 c5             	mov    %rax,%r13
  40c133:	48 8b 45 c8          	mov    -0x38(%rbp),%rax
  40c137:	48 89 c7             	mov    %rax,%rdi
  40c13a:	e8 2c 96 ff ff       	callq  40576b <_ZSt7forwardIRKSt21piecewise_construct_tEOT_RNSt16remove_referenceIS3_E4typeE>
  40c13f:	49 89 c4             	mov    %rax,%r12
  40c142:	48 8b 45 d0          	mov    -0x30(%rbp),%rax
  40c146:	48 89 c7             	mov    %rax,%rdi
  40c149:	e8 7a 9a ff ff       	callq  405bc8 <_ZNSt13_Rb_tree_nodeISt4pairIKNSt7__cxx1112basic_stringIcSt11char_traitsIcESaIcEEES6_EE9_M_valptrEv>
  40c14e:	48 89 c3             	mov    %rax,%rbx
  40c151:	48 8b 45 d8          	mov    -0x28(%rbp),%rax
  40c155:	48 89 c7             	mov    %rax,%rdi
  40c158:	e8 87 b6 ff ff       	callq  4077e4 <_ZNSt8_Rb_treeINSt7__cxx1112basic_stringIcSt11char_traitsIcESaIcEEESt4pairIKS5_S5_ESt10_Select1stIS8_ESt4lessIS5_ESaIS8_EE21_M_get_Node_allocatorEv>
  40c15d:	4d 89 f0             	mov    %r14,%r8
  40c160:	4c 89 e9             	mov    %r13,%rcx
  40c163:	4c 89 e2             	mov    %r12,%rdx
  40c166:	48 89 de             	mov    %rbx,%rsi
  40c169:	48 89 c7             	mov    %rax,%rdi
  40c16c:	e8 04 07 00 00       	callq  40c875 <_ZNSt16allocator_traitsISaISt13_Rb_tree_nodeISt4pairIKNSt7__cxx1112basic_stringIcSt11char_traitsIcESaIcEEES7_EEEE9constructIS9_JRKSt21piecewise_construct_tSt5tupleIJRS8_EESH_IJEEEEEvRSB_PT_DpOT0_>
  40c171:	eb 33                	jmp    40c1a6 <_ZNSt8_Rb_treeINSt7__cxx1112basic_stringIcSt11char_traitsIcESaIcEEESt4pairIKS5_S5_ESt10_Select1stIS8_ESt4lessIS5_ESaIS8_EE17_M_construct_nodeIJRKSt21piecewise_construct_tSt5tupleIJRS7_EESJ_IJEEEEEvPSt13_Rb_tree_nodeIS8_EDpOT_+0xd2>
  40c173:	48 89 c7             	mov    %rax,%rdi
  40c176:	e8 15 6b ff ff       	callq  402c90 <__cxa_begin_catch@plt>
  40c17b:	48 8b 55 d0          	mov    -0x30(%rbp),%rdx
  40c17f:	48 8b 45 d8          	mov    -0x28(%rbp),%rax
  40c183:	48 89 d6             	mov    %rdx,%rsi
  40c186:	48 89 c7             	mov    %rax,%rdi
  40c189:	e8 bc ae ff ff       	callq  40704a <_ZNSt8_Rb_treeINSt7__cxx1112basic_stringIcSt11char_traitsIcESaIcEEESt4pairIKS5_S5_ESt10_Select1stIS8_ESt4lessIS5_ESaIS8_EE11_M_put_nodeEPSt13_Rb_tree_nodeIS8_E>
  40c18e:	e8 4d 6e ff ff       	callq  402fe0 <__cxa_rethrow@plt>
  40c193:	48 89 c3             	mov    %rax,%rbx
  40c196:	e8 d5 6e ff ff       	callq  403070 <__cxa_end_catch@plt>
  40c19b:	48 89 d8             	mov    %rbx,%rax
  40c19e:	48 89 c7             	mov    %rax,%rdi
  40c1a1:	e8 4a 6f ff ff       	callq  4030f0 <_Unwind_Resume@plt>
  40c1a6:	48 83 c4 30          	add    $0x30,%rsp
  40c1aa:	5b                   	pop    %rbx
  40c1ab:	41 5c                	pop    %r12
  40c1ad:	41 5d                	pop    %r13
  40c1af:	41 5e                	pop    %r14
  40c1b1:	5d                   	pop    %rbp
  40c1b2:	c3                   	retq   

000000000040c1b3 <_ZSt8distanceIPKcENSt15iterator_traitsIT_E15difference_typeES3_S3_>:
  40c1b3:	55                   	push   %rbp
  40c1b4:	48 89 e5             	mov    %rsp,%rbp
  40c1b7:	53                   	push   %rbx
  40c1b8:	48 83 ec 28          	sub    $0x28,%rsp
  40c1bc:	48 89 7d d8          	mov    %rdi,-0x28(%rbp)
  40c1c0:	48 89 75 d0          	mov    %rsi,-0x30(%rbp)
  40c1c4:	64 48 8b 04 25 28 00 	mov    %fs:0x28,%rax
  40c1cb:	00 00 
  40c1cd:	48 89 45 e8          	mov    %rax,-0x18(%rbp)
  40c1d1:	31 c0                	xor    %eax,%eax
  40c1d3:	48 8d 45 d8          	lea    -0x28(%rbp),%rax
  40c1d7:	48 89 c7             	mov    %rax,%rdi
  40c1da:	e8 02 07 00 00       	callq  40c8e1 <_ZSt19__iterator_categoryIPKcENSt15iterator_traitsIT_E17iterator_categoryERKS3_>
  40c1df:	48 8b 45 d8          	mov    -0x28(%rbp),%rax
  40c1e3:	48 8b 55 d0          	mov    -0x30(%rbp),%rdx
  40c1e7:	48 83 ec 08          	sub    $0x8,%rsp
  40c1eb:	53                   	push   %rbx
  40c1ec:	48 89 d6             	mov    %rdx,%rsi
  40c1ef:	48 89 c7             	mov    %rax,%rdi
  40c1f2:	e8 f4 06 00 00       	callq  40c8eb <_ZSt10__distanceIPKcENSt15iterator_traitsIT_E15difference_typeES3_S3_St26random_access_iterator_tag>
  40c1f7:	48 83 c4 10          	add    $0x10,%rsp
  40c1fb:	48 8b 4d e8          	mov    -0x18(%rbp),%rcx
  40c1ff:	64 48 33 0c 25 28 00 	xor    %fs:0x28,%rcx
  40c206:	00 00 
  40c208:	74 05                	je     40c20f <_ZSt8distanceIPKcENSt15iterator_traitsIT_E15difference_typeES3_S3_+0x5c>
  40c20a:	e8 31 6d ff ff       	callq  402f40 <__stack_chk_fail@plt>
  40c20f:	48 8b 5d f8          	mov    -0x8(%rbp),%rbx
  40c213:	c9                   	leaveq 
  40c214:	c3                   	retq   

000000000040c215 <_ZN9__gnu_cxxmiIPhSt6vectorIhSaIhEEEENS_17__normal_iteratorIT_T0_E15difference_typeERKS8_SB_>:
  40c215:	55                   	push   %rbp
  40c216:	48 89 e5             	mov    %rsp,%rbp
  40c219:	53                   	push   %rbx
  40c21a:	48 83 ec 18          	sub    $0x18,%rsp
  40c21e:	48 89 7d e8          	mov    %rdi,-0x18(%rbp)
  40c222:	48 89 75 e0          	mov    %rsi,-0x20(%rbp)
  40c226:	48 8b 45 e8          	mov    -0x18(%rbp),%rax
  40c22a:	48 89 c7             	mov    %rax,%rdi
  40c22d:	e8 ba ec ff ff       	callq  40aeec <_ZNK9__gnu_cxx17__normal_iteratorIPhSt6vectorIhSaIhEEE4baseEv>
  40c232:	48 8b 00             	mov    (%rax),%rax
  40c235:	48 89 c3             	mov    %rax,%rbx
  40c238:	48 8b 45 e0          	mov    -0x20(%rbp),%rax
  40c23c:	48 89 c7             	mov    %rax,%rdi
  40c23f:	e8 a8 ec ff ff       	callq  40aeec <_ZNK9__gnu_cxx17__normal_iteratorIPhSt6vectorIhSaIhEEE4baseEv>
  40c244:	48 8b 00             	mov    (%rax),%rax
  40c247:	48 29 c3             	sub    %rax,%rbx
  40c24a:	48 89 d8             	mov    %rbx,%rax
  40c24d:	48 83 c4 18          	add    $0x18,%rsp
  40c251:	5b                   	pop    %rbx
  40c252:	5d                   	pop    %rbp
  40c253:	c3                   	retq   

000000000040c254 <_ZSt22__uninitialized_move_aIPhS0_SaIhEET0_T_S3_S2_RT1_>:
  40c254:	55                   	push   %rbp
  40c255:	48 89 e5             	mov    %rsp,%rbp
  40c258:	53                   	push   %rbx
  40c259:	48 83 ec 28          	sub    $0x28,%rsp
  40c25d:	48 89 7d e8          	mov    %rdi,-0x18(%rbp)
  40c261:	48 89 75 e0          	mov    %rsi,-0x20(%rbp)
  40c265:	48 89 55 d8          	mov    %rdx,-0x28(%rbp)
  40c269:	48 89 4d d0          	mov    %rcx,-0x30(%rbp)
  40c26d:	48 8b 45 e0          	mov    -0x20(%rbp),%rax
  40c271:	48 89 c7             	mov    %rax,%rdi
  40c274:	e8 8e 06 00 00       	callq  40c907 <_ZSt18make_move_iteratorIPhESt13move_iteratorIT_ES2_>
  40c279:	48 89 c3             	mov    %rax,%rbx
  40c27c:	48 8b 45 e8          	mov    -0x18(%rbp),%rax
  40c280:	48 89 c7             	mov    %rax,%rdi
  40c283:	e8 7f 06 00 00       	callq  40c907 <_ZSt18make_move_iteratorIPhESt13move_iteratorIT_ES2_>
  40c288:	48 89 c7             	mov    %rax,%rdi
  40c28b:	48 8b 55 d0          	mov    -0x30(%rbp),%rdx
  40c28f:	48 8b 45 d8          	mov    -0x28(%rbp),%rax
  40c293:	48 89 d1             	mov    %rdx,%rcx
  40c296:	48 89 c2             	mov    %rax,%rdx
  40c299:	48 89 de             	mov    %rbx,%rsi
  40c29c:	e8 ae 06 00 00       	callq  40c94f <_ZSt22__uninitialized_copy_aISt13move_iteratorIPhES1_hET0_T_S4_S3_RSaIT1_E>
  40c2a1:	48 83 c4 28          	add    $0x28,%rsp
  40c2a5:	5b                   	pop    %rbx
  40c2a6:	5d                   	pop    %rbp
  40c2a7:	c3                   	retq   

000000000040c2a8 <_ZSt13move_backwardIPhS0_ET0_T_S2_S1_>:
  40c2a8:	55                   	push   %rbp
  40c2a9:	48 89 e5             	mov    %rsp,%rbp
  40c2ac:	53                   	push   %rbx
  40c2ad:	48 83 ec 28          	sub    $0x28,%rsp
  40c2b1:	48 89 7d e8          	mov    %rdi,-0x18(%rbp)
  40c2b5:	48 89 75 e0          	mov    %rsi,-0x20(%rbp)
  40c2b9:	48 89 55 d8          	mov    %rdx,-0x28(%rbp)
  40c2bd:	48 8b 45 e0          	mov    -0x20(%rbp),%rax
  40c2c1:	48 89 c7             	mov    %rax,%rdi
  40c2c4:	e8 b7 06 00 00       	callq  40c980 <_ZSt12__miter_baseIPhET_S1_>
  40c2c9:	48 89 c3             	mov    %rax,%rbx
  40c2cc:	48 8b 45 e8          	mov    -0x18(%rbp),%rax
  40c2d0:	48 89 c7             	mov    %rax,%rdi
  40c2d3:	e8 a8 06 00 00       	callq  40c980 <_ZSt12__miter_baseIPhET_S1_>
  40c2d8:	48 89 c1             	mov    %rax,%rcx
  40c2db:	48 8b 45 d8          	mov    -0x28(%rbp),%rax
  40c2df:	48 89 c2             	mov    %rax,%rdx
  40c2e2:	48 89 de             	mov    %rbx,%rsi
  40c2e5:	48 89 cf             	mov    %rcx,%rdi
  40c2e8:	e8 a1 06 00 00       	callq  40c98e <_ZSt23__copy_move_backward_a2ILb1EPhS0_ET1_T0_S2_S1_>
  40c2ed:	48 83 c4 28          	add    $0x28,%rsp
  40c2f1:	5b                   	pop    %rbx
  40c2f2:	5d                   	pop    %rbp
  40c2f3:	c3                   	retq   

000000000040c2f4 <_ZSt4copyIPKcN9__gnu_cxx17__normal_iteratorIPhSt6vectorIhSaIhEEEEET0_T_SA_S9_>:
  40c2f4:	55                   	push   %rbp
  40c2f5:	48 89 e5             	mov    %rsp,%rbp
  40c2f8:	53                   	push   %rbx
  40c2f9:	48 83 ec 28          	sub    $0x28,%rsp
  40c2fd:	48 89 7d e8          	mov    %rdi,-0x18(%rbp)
  40c301:	48 89 75 e0          	mov    %rsi,-0x20(%rbp)
  40c305:	48 89 55 d8          	mov    %rdx,-0x28(%rbp)
  40c309:	48 8b 45 e0          	mov    -0x20(%rbp),%rax
  40c30d:	48 89 c7             	mov    %rax,%rdi
  40c310:	e8 d1 06 00 00       	callq  40c9e6 <_ZSt12__miter_baseIPKcET_S2_>
  40c315:	48 89 c3             	mov    %rax,%rbx
  40c318:	48 8b 45 e8          	mov    -0x18(%rbp),%rax
  40c31c:	48 89 c7             	mov    %rax,%rdi
  40c31f:	e8 c2 06 00 00       	callq  40c9e6 <_ZSt12__miter_baseIPKcET_S2_>
  40c324:	48 89 c1             	mov    %rax,%rcx
  40c327:	48 8b 45 d8          	mov    -0x28(%rbp),%rax
  40c32b:	48 89 c2             	mov    %rax,%rdx
  40c32e:	48 89 de             	mov    %rbx,%rsi
  40c331:	48 89 cf             	mov    %rcx,%rdi
  40c334:	e8 bb 06 00 00       	callq  40c9f4 <_ZSt14__copy_move_a2ILb0EPKcN9__gnu_cxx17__normal_iteratorIPhSt6vectorIhSaIhEEEEET1_T0_SA_S9_>
  40c339:	48 83 c4 28          	add    $0x28,%rsp
  40c33d:	5b                   	pop    %rbx
  40c33e:	5d                   	pop    %rbp
  40c33f:	c3                   	retq   

000000000040c340 <_ZSt7advanceIPKcmEvRT_T0_>:
  40c340:	55                   	push   %rbp
  40c341:	48 89 e5             	mov    %rsp,%rbp
  40c344:	53                   	push   %rbx
  40c345:	48 83 ec 38          	sub    $0x38,%rsp
  40c349:	48 89 7d c8          	mov    %rdi,-0x38(%rbp)
  40c34d:	48 89 75 c0          	mov    %rsi,-0x40(%rbp)
  40c351:	64 48 8b 04 25 28 00 	mov    %fs:0x28,%rax
  40c358:	00 00 
  40c35a:	48 89 45 e8          	mov    %rax,-0x18(%rbp)
  40c35e:	31 c0                	xor    %eax,%eax
  40c360:	48 8b 45 c0          	mov    -0x40(%rbp),%rax
  40c364:	48 89 45 e0          	mov    %rax,-0x20(%rbp)
  40c368:	48 8b 45 c8          	mov    -0x38(%rbp),%rax
  40c36c:	48 89 c7             	mov    %rax,%rdi
  40c36f:	e8 6d 05 00 00       	callq  40c8e1 <_ZSt19__iterator_categoryIPKcENSt15iterator_traitsIT_E17iterator_categoryERKS3_>
  40c374:	48 8b 55 e0          	mov    -0x20(%rbp),%rdx
  40c378:	48 8b 45 c8          	mov    -0x38(%rbp),%rax
  40c37c:	48 83 ec 08          	sub    $0x8,%rsp
  40c380:	53                   	push   %rbx
  40c381:	48 89 d6             	mov    %rdx,%rsi
  40c384:	48 89 c7             	mov    %rax,%rdi
  40c387:	e8 fe 06 00 00       	callq  40ca8a <_ZSt9__advanceIPKclEvRT_T0_St26random_access_iterator_tag>
  40c38c:	48 83 c4 10          	add    $0x10,%rsp
  40c390:	90                   	nop
  40c391:	48 8b 45 e8          	mov    -0x18(%rbp),%rax
  40c395:	64 48 33 04 25 28 00 	xor    %fs:0x28,%rax
  40c39c:	00 00 
  40c39e:	74 05                	je     40c3a5 <_ZSt7advanceIPKcmEvRT_T0_+0x65>
  40c3a0:	e8 9b 6b ff ff       	callq  402f40 <__stack_chk_fail@plt>
  40c3a5:	48 8b 5d f8          	mov    -0x8(%rbp),%rbx
  40c3a9:	c9                   	leaveq 
  40c3aa:	c3                   	retq   

000000000040c3ab <_ZSt22__uninitialized_copy_aIPKcPhhET0_T_S4_S3_RSaIT1_E>:
  40c3ab:	55                   	push   %rbp
  40c3ac:	48 89 e5             	mov    %rsp,%rbp
  40c3af:	48 83 ec 20          	sub    $0x20,%rsp
  40c3b3:	48 89 7d f8          	mov    %rdi,-0x8(%rbp)
  40c3b7:	48 89 75 f0          	mov    %rsi,-0x10(%rbp)
  40c3bb:	48 89 55 e8          	mov    %rdx,-0x18(%rbp)
  40c3bf:	48 89 4d e0          	mov    %rcx,-0x20(%rbp)
  40c3c3:	48 8b 55 e8          	mov    -0x18(%rbp),%rdx
  40c3c7:	48 8b 4d f0          	mov    -0x10(%rbp),%rcx
  40c3cb:	48 8b 45 f8          	mov    -0x8(%rbp),%rax
  40c3cf:	48 89 ce             	mov    %rcx,%rsi
  40c3d2:	48 89 c7             	mov    %rax,%rdi
  40c3d5:	e8 d4 06 00 00       	callq  40caae <_ZSt18uninitialized_copyIPKcPhET0_T_S4_S3_>
  40c3da:	c9                   	leaveq 
  40c3db:	c3                   	retq   

000000000040c3dc <_ZNKSt6vectorIhSaIhEE12_M_check_lenEmPKc>:
  40c3dc:	55                   	push   %rbp
  40c3dd:	48 89 e5             	mov    %rsp,%rbp
  40c3e0:	53                   	push   %rbx
  40c3e1:	48 83 ec 48          	sub    $0x48,%rsp
  40c3e5:	48 89 7d c8          	mov    %rdi,-0x38(%rbp)
  40c3e9:	48 89 75 c0          	mov    %rsi,-0x40(%rbp)
  40c3ed:	48 89 55 b8          	mov    %rdx,-0x48(%rbp)
  40c3f1:	64 48 8b 04 25 28 00 	mov    %fs:0x28,%rax
  40c3f8:	00 00 
  40c3fa:	48 89 45 e8          	mov    %rax,-0x18(%rbp)
  40c3fe:	31 c0                	xor    %eax,%eax
  40c400:	48 8b 45 c8          	mov    -0x38(%rbp),%rax
  40c404:	48 89 c7             	mov    %rax,%rdi
  40c407:	e8 d4 06 00 00       	callq  40cae0 <_ZNKSt6vectorIhSaIhEE8max_sizeEv>
  40c40c:	48 89 c3             	mov    %rax,%rbx
  40c40f:	48 8b 45 c8          	mov    -0x38(%rbp),%rax
  40c413:	48 89 c7             	mov    %rax,%rdi
  40c416:	e8 01 e5 ff ff       	callq  40a91c <_ZNKSt6vectorIhSaIhEE4sizeEv>
  40c41b:	48 29 c3             	sub    %rax,%rbx
  40c41e:	48 89 da             	mov    %rbx,%rdx
  40c421:	48 8b 45 c0          	mov    -0x40(%rbp),%rax
  40c425:	48 39 c2             	cmp    %rax,%rdx
  40c428:	0f 92 c0             	setb   %al
  40c42b:	84 c0                	test   %al,%al
  40c42d:	74 0c                	je     40c43b <_ZNKSt6vectorIhSaIhEE12_M_check_lenEmPKc+0x5f>
  40c42f:	48 8b 45 b8          	mov    -0x48(%rbp),%rax
  40c433:	48 89 c7             	mov    %rax,%rdi
  40c436:	e8 c5 68 ff ff       	callq  402d00 <_ZSt20__throw_length_errorPKc@plt>
  40c43b:	48 8b 45 c8          	mov    -0x38(%rbp),%rax
  40c43f:	48 89 c7             	mov    %rax,%rdi
  40c442:	e8 d5 e4 ff ff       	callq  40a91c <_ZNKSt6vectorIhSaIhEE4sizeEv>
  40c447:	48 89 c3             	mov    %rax,%rbx
  40c44a:	48 8b 45 c8          	mov    -0x38(%rbp),%rax
  40c44e:	48 89 c7             	mov    %rax,%rdi
  40c451:	e8 c6 e4 ff ff       	callq  40a91c <_ZNKSt6vectorIhSaIhEE4sizeEv>
  40c456:	48 89 45 d8          	mov    %rax,-0x28(%rbp)
  40c45a:	48 8d 55 c0          	lea    -0x40(%rbp),%rdx
  40c45e:	48 8d 45 d8          	lea    -0x28(%rbp),%rax
  40c462:	48 89 d6             	mov    %rdx,%rsi
  40c465:	48 89 c7             	mov    %rax,%rdi
  40c468:	e8 e4 f8 ff ff       	callq  40bd51 <_ZSt3maxImERKT_S2_S2_>
  40c46d:	48 8b 00             	mov    (%rax),%rax
  40c470:	48 01 d8             	add    %rbx,%rax
  40c473:	48 89 45 e0          	mov    %rax,-0x20(%rbp)
  40c477:	48 8b 45 c8          	mov    -0x38(%rbp),%rax
  40c47b:	48 89 c7             	mov    %rax,%rdi
  40c47e:	e8 99 e4 ff ff       	callq  40a91c <_ZNKSt6vectorIhSaIhEE4sizeEv>
  40c483:	48 3b 45 e0          	cmp    -0x20(%rbp),%rax
  40c487:	77 12                	ja     40c49b <_ZNKSt6vectorIhSaIhEE12_M_check_lenEmPKc+0xbf>
  40c489:	48 8b 45 c8          	mov    -0x38(%rbp),%rax
  40c48d:	48 89 c7             	mov    %rax,%rdi
  40c490:	e8 4b 06 00 00       	callq  40cae0 <_ZNKSt6vectorIhSaIhEE8max_sizeEv>
  40c495:	48 3b 45 e0          	cmp    -0x20(%rbp),%rax
  40c499:	73 0e                	jae    40c4a9 <_ZNKSt6vectorIhSaIhEE12_M_check_lenEmPKc+0xcd>
  40c49b:	48 8b 45 c8          	mov    -0x38(%rbp),%rax
  40c49f:	48 89 c7             	mov    %rax,%rdi
  40c4a2:	e8 39 06 00 00       	callq  40cae0 <_ZNKSt6vectorIhSaIhEE8max_sizeEv>
  40c4a7:	eb 04                	jmp    40c4ad <_ZNKSt6vectorIhSaIhEE12_M_check_lenEmPKc+0xd1>
  40c4a9:	48 8b 45 e0          	mov    -0x20(%rbp),%rax
  40c4ad:	48 8b 4d e8          	mov    -0x18(%rbp),%rcx
  40c4b1:	64 48 33 0c 25 28 00 	xor    %fs:0x28,%rcx
  40c4b8:	00 00 
  40c4ba:	74 05                	je     40c4c1 <_ZNKSt6vectorIhSaIhEE12_M_check_lenEmPKc+0xe5>
  40c4bc:	e8 7f 6a ff ff       	callq  402f40 <__stack_chk_fail@plt>
  40c4c1:	48 83 c4 48          	add    $0x48,%rsp
  40c4c5:	5b                   	pop    %rbx
  40c4c6:	5d                   	pop    %rbp
  40c4c7:	c3                   	retq   

000000000040c4c8 <_ZNSt12_Vector_baseIhSaIhEE11_M_allocateEm>:
  40c4c8:	55                   	push   %rbp
  40c4c9:	48 89 e5             	mov    %rsp,%rbp
  40c4cc:	48 83 ec 10          	sub    $0x10,%rsp
  40c4d0:	48 89 7d f8          	mov    %rdi,-0x8(%rbp)
  40c4d4:	48 89 75 f0          	mov    %rsi,-0x10(%rbp)
  40c4d8:	48 83 7d f0 00       	cmpq   $0x0,-0x10(%rbp)
  40c4dd:	74 15                	je     40c4f4 <_ZNSt12_Vector_baseIhSaIhEE11_M_allocateEm+0x2c>
  40c4df:	48 8b 45 f8          	mov    -0x8(%rbp),%rax
  40c4e3:	48 8b 55 f0          	mov    -0x10(%rbp),%rdx
  40c4e7:	48 89 d6             	mov    %rdx,%rsi
  40c4ea:	48 89 c7             	mov    %rax,%rdi
  40c4ed:	e8 10 06 00 00       	callq  40cb02 <_ZNSt16allocator_traitsISaIhEE8allocateERS0_m>
  40c4f2:	eb 05                	jmp    40c4f9 <_ZNSt12_Vector_baseIhSaIhEE11_M_allocateEm+0x31>
  40c4f4:	b8 00 00 00 00       	mov    $0x0,%eax
  40c4f9:	c9                   	leaveq 
  40c4fa:	c3                   	retq   

000000000040c4fb <_ZSt34__uninitialized_move_if_noexcept_aIPhS0_SaIhEET0_T_S3_S2_RT1_>:
  40c4fb:	55                   	push   %rbp
  40c4fc:	48 89 e5             	mov    %rsp,%rbp
  40c4ff:	53                   	push   %rbx
  40c500:	48 83 ec 28          	sub    $0x28,%rsp
  40c504:	48 89 7d e8          	mov    %rdi,-0x18(%rbp)
  40c508:	48 89 75 e0          	mov    %rsi,-0x20(%rbp)
  40c50c:	48 89 55 d8          	mov    %rdx,-0x28(%rbp)
  40c510:	48 89 4d d0          	mov    %rcx,-0x30(%rbp)
  40c514:	48 8b 45 e0          	mov    -0x20(%rbp),%rax
  40c518:	48 89 c7             	mov    %rax,%rdi
  40c51b:	e8 0c 06 00 00       	callq  40cb2c <_ZSt32__make_move_if_noexcept_iteratorIhSt13move_iteratorIPhEET0_PT_>
  40c520:	48 89 c3             	mov    %rax,%rbx
  40c523:	48 8b 45 e8          	mov    -0x18(%rbp),%rax
  40c527:	48 89 c7             	mov    %rax,%rdi
  40c52a:	e8 fd 05 00 00       	callq  40cb2c <_ZSt32__make_move_if_noexcept_iteratorIhSt13move_iteratorIPhEET0_PT_>
  40c52f:	48 89 c7             	mov    %rax,%rdi
  40c532:	48 8b 55 d0          	mov    -0x30(%rbp),%rdx
  40c536:	48 8b 45 d8          	mov    -0x28(%rbp),%rax
  40c53a:	48 89 d1             	mov    %rdx,%rcx
  40c53d:	48 89 c2             	mov    %rax,%rdx
  40c540:	48 89 de             	mov    %rbx,%rsi
  40c543:	e8 07 04 00 00       	callq  40c94f <_ZSt22__uninitialized_copy_aISt13move_iteratorIPhES1_hET0_T_S4_S3_RSaIT1_E>
  40c548:	48 83 c4 28          	add    $0x28,%rsp
  40c54c:	5b                   	pop    %rbx
  40c54d:	5d                   	pop    %rbp
  40c54e:	c3                   	retq   

000000000040c54f <_ZSt4copyIPcN9__gnu_cxx17__normal_iteratorIPhSt6vectorIhSaIhEEEEET0_T_S9_S8_>:
  40c54f:	55                   	push   %rbp
  40c550:	48 89 e5             	mov    %rsp,%rbp
  40c553:	53                   	push   %rbx
  40c554:	48 83 ec 28          	sub    $0x28,%rsp
  40c558:	48 89 7d e8          	mov    %rdi,-0x18(%rbp)
  40c55c:	48 89 75 e0          	mov    %rsi,-0x20(%rbp)
  40c560:	48 89 55 d8          	mov    %rdx,-0x28(%rbp)
  40c564:	48 8b 45 e0          	mov    -0x20(%rbp),%rax
  40c568:	48 89 c7             	mov    %rax,%rdi
  40c56b:	e8 04 06 00 00       	callq  40cb74 <_ZSt12__miter_baseIPcET_S1_>
  40c570:	48 89 c3             	mov    %rax,%rbx
  40c573:	48 8b 45 e8          	mov    -0x18(%rbp),%rax
  40c577:	48 89 c7             	mov    %rax,%rdi
  40c57a:	e8 f5 05 00 00       	callq  40cb74 <_ZSt12__miter_baseIPcET_S1_>
  40c57f:	48 89 c1             	mov    %rax,%rcx
  40c582:	48 8b 45 d8          	mov    -0x28(%rbp),%rax
  40c586:	48 89 c2             	mov    %rax,%rdx
  40c589:	48 89 de             	mov    %rbx,%rsi
  40c58c:	48 89 cf             	mov    %rcx,%rdi
  40c58f:	e8 ee 05 00 00       	callq  40cb82 <_ZSt14__copy_move_a2ILb0EPcN9__gnu_cxx17__normal_iteratorIPhSt6vectorIhSaIhEEEEET1_T0_S9_S8_>
  40c594:	48 83 c4 28          	add    $0x28,%rsp
  40c598:	5b                   	pop    %rbx
  40c599:	5d                   	pop    %rbp
  40c59a:	c3                   	retq   

000000000040c59b <_ZSt7advanceIPcmEvRT_T0_>:
  40c59b:	55                   	push   %rbp
  40c59c:	48 89 e5             	mov    %rsp,%rbp
  40c59f:	53                   	push   %rbx
  40c5a0:	48 83 ec 38          	sub    $0x38,%rsp
  40c5a4:	48 89 7d c8          	mov    %rdi,-0x38(%rbp)
  40c5a8:	48 89 75 c0          	mov    %rsi,-0x40(%rbp)
  40c5ac:	64 48 8b 04 25 28 00 	mov    %fs:0x28,%rax
  40c5b3:	00 00 
  40c5b5:	48 89 45 e8          	mov    %rax,-0x18(%rbp)
  40c5b9:	31 c0                	xor    %eax,%eax
  40c5bb:	48 8b 45 c0          	mov    -0x40(%rbp),%rax
  40c5bf:	48 89 45 e0          	mov    %rax,-0x20(%rbp)
  40c5c3:	48 8b 45 c8          	mov    -0x38(%rbp),%rax
  40c5c7:	48 89 c7             	mov    %rax,%rdi
  40c5ca:	e8 67 b6 ff ff       	callq  407c36 <_ZSt19__iterator_categoryIPcENSt15iterator_traitsIT_E17iterator_categoryERKS2_>
  40c5cf:	48 8b 55 e0          	mov    -0x20(%rbp),%rdx
  40c5d3:	48 8b 45 c8          	mov    -0x38(%rbp),%rax
  40c5d7:	48 83 ec 08          	sub    $0x8,%rsp
  40c5db:	53                   	push   %rbx
  40c5dc:	48 89 d6             	mov    %rdx,%rsi
  40c5df:	48 89 c7             	mov    %rax,%rdi
  40c5e2:	e8 31 06 00 00       	callq  40cc18 <_ZSt9__advanceIPclEvRT_T0_St26random_access_iterator_tag>
  40c5e7:	48 83 c4 10          	add    $0x10,%rsp
  40c5eb:	90                   	nop
  40c5ec:	48 8b 45 e8          	mov    -0x18(%rbp),%rax
  40c5f0:	64 48 33 04 25 28 00 	xor    %fs:0x28,%rax
  40c5f7:	00 00 
  40c5f9:	74 05                	je     40c600 <_ZSt7advanceIPcmEvRT_T0_+0x65>
  40c5fb:	e8 40 69 ff ff       	callq  402f40 <__stack_chk_fail@plt>
  40c600:	48 8b 5d f8          	mov    -0x8(%rbp),%rbx
  40c604:	c9                   	leaveq 
  40c605:	c3                   	retq   

000000000040c606 <_ZSt22__uninitialized_copy_aIPcPhhET0_T_S3_S2_RSaIT1_E>:
  40c606:	55                   	push   %rbp
  40c607:	48 89 e5             	mov    %rsp,%rbp
  40c60a:	48 83 ec 20          	sub    $0x20,%rsp
  40c60e:	48 89 7d f8          	mov    %rdi,-0x8(%rbp)
  40c612:	48 89 75 f0          	mov    %rsi,-0x10(%rbp)
  40c616:	48 89 55 e8          	mov    %rdx,-0x18(%rbp)
  40c61a:	48 89 4d e0          	mov    %rcx,-0x20(%rbp)
  40c61e:	48 8b 55 e8          	mov    -0x18(%rbp),%rdx
  40c622:	48 8b 4d f0          	mov    -0x10(%rbp),%rcx
  40c626:	48 8b 45 f8          	mov    -0x8(%rbp),%rax
  40c62a:	48 89 ce             	mov    %rcx,%rsi
  40c62d:	48 89 c7             	mov    %rax,%rdi
  40c630:	e8 07 06 00 00       	callq  40cc3c <_ZSt18uninitialized_copyIPcPhET0_T_S3_S2_>
  40c635:	c9                   	leaveq 
  40c636:	c3                   	retq   
  40c637:	90                   	nop

000000000040c638 <_ZNSaISt4pairISt6threadbEEC1Ev>:
  40c638:	55                   	push   %rbp
  40c639:	48 89 e5             	mov    %rsp,%rbp
  40c63c:	48 83 ec 10          	sub    $0x10,%rsp
  40c640:	48 89 7d f8          	mov    %rdi,-0x8(%rbp)
  40c644:	48 8b 45 f8          	mov    -0x8(%rbp),%rax
  40c648:	48 89 c7             	mov    %rax,%rdi
  40c64b:	e8 1e 06 00 00       	callq  40cc6e <_ZN9__gnu_cxx13new_allocatorISt4pairISt6threadbEEC1Ev>
  40c650:	90                   	nop
  40c651:	c9                   	leaveq 
  40c652:	c3                   	retq   
  40c653:	90                   	nop

000000000040c654 <_ZN9__gnu_cxx13new_allocatorISt4pairISt6threadbEED1Ev>:
  40c654:	55                   	push   %rbp
  40c655:	48 89 e5             	mov    %rsp,%rbp
  40c658:	48 89 7d f8          	mov    %rdi,-0x8(%rbp)
  40c65c:	90                   	nop
  40c65d:	5d                   	pop    %rbp
  40c65e:	c3                   	retq   

000000000040c65f <_ZNSt16allocator_traitsISaISt4pairISt6threadbEEE10deallocateERS3_PS2_m>:
  40c65f:	55                   	push   %rbp
  40c660:	48 89 e5             	mov    %rsp,%rbp
  40c663:	48 83 ec 20          	sub    $0x20,%rsp
  40c667:	48 89 7d f8          	mov    %rdi,-0x8(%rbp)
  40c66b:	48 89 75 f0          	mov    %rsi,-0x10(%rbp)
  40c66f:	48 89 55 e8          	mov    %rdx,-0x18(%rbp)
  40c673:	48 8b 55 e8          	mov    -0x18(%rbp),%rdx
  40c677:	48 8b 4d f0          	mov    -0x10(%rbp),%rcx
  40c67b:	48 8b 45 f8          	mov    -0x8(%rbp),%rax
  40c67f:	48 89 ce             	mov    %rcx,%rsi
  40c682:	48 89 c7             	mov    %rax,%rdi
  40c685:	e8 f0 05 00 00       	callq  40cc7a <_ZN9__gnu_cxx13new_allocatorISt4pairISt6threadbEE10deallocateEPS3_m>
  40c68a:	90                   	nop
  40c68b:	c9                   	leaveq 
  40c68c:	c3                   	retq   

000000000040c68d <_ZNSt12_Destroy_auxILb0EE9__destroyIPSt4pairISt6threadbEEEvT_S6_>:
  40c68d:	55                   	push   %rbp
  40c68e:	48 89 e5             	mov    %rsp,%rbp
  40c691:	48 83 ec 10          	sub    $0x10,%rsp
  40c695:	48 89 7d f8          	mov    %rdi,-0x8(%rbp)
  40c699:	48 89 75 f0          	mov    %rsi,-0x10(%rbp)
  40c69d:	48 8b 45 f8          	mov    -0x8(%rbp),%rax
  40c6a1:	48 3b 45 f0          	cmp    -0x10(%rbp),%rax
  40c6a5:	74 1b                	je     40c6c2 <_ZNSt12_Destroy_auxILb0EE9__destroyIPSt4pairISt6threadbEEEvT_S6_+0x35>
  40c6a7:	48 8b 45 f8          	mov    -0x8(%rbp),%rax
  40c6ab:	48 89 c7             	mov    %rax,%rdi
  40c6ae:	e8 ea 05 00 00       	callq  40cc9d <_ZSt11__addressofISt4pairISt6threadbEEPT_RS3_>
  40c6b3:	48 89 c7             	mov    %rax,%rdi
  40c6b6:	e8 f0 05 00 00       	callq  40ccab <_ZSt8_DestroyISt4pairISt6threadbEEvPT_>
  40c6bb:	48 83 45 f8 10       	addq   $0x10,-0x8(%rbp)
  40c6c0:	eb db                	jmp    40c69d <_ZNSt12_Destroy_auxILb0EE9__destroyIPSt4pairISt6threadbEEEvT_S6_+0x10>
  40c6c2:	90                   	nop
  40c6c3:	c9                   	leaveq 
  40c6c4:	c3                   	retq   
  40c6c5:	90                   	nop

000000000040c6c6 <_ZNKSt6vectorISt4pairISt6threadbESaIS2_EE8max_sizeEv>:
  40c6c6:	55                   	push   %rbp
  40c6c7:	48 89 e5             	mov    %rsp,%rbp
  40c6ca:	48 83 ec 10          	sub    $0x10,%rsp
  40c6ce:	48 89 7d f8          	mov    %rdi,-0x8(%rbp)
  40c6d2:	48 8b 45 f8          	mov    -0x8(%rbp),%rax
  40c6d6:	48 89 c7             	mov    %rax,%rdi
  40c6d9:	e8 b8 06 00 00       	callq  40cd96 <_ZNKSt12_Vector_baseISt4pairISt6threadbESaIS2_EE19_M_get_Tp_allocatorEv>
  40c6de:	48 89 c7             	mov    %rax,%rdi
  40c6e1:	e8 96 06 00 00       	callq  40cd7c <_ZNSt16allocator_traitsISaISt4pairISt6threadbEEE8max_sizeERKS3_>
  40c6e6:	c9                   	leaveq 
  40c6e7:	c3                   	retq   

000000000040c6e8 <_ZNSt16allocator_traitsISaISt4pairISt6threadbEEE8allocateERS3_m>:
  40c6e8:	55                   	push   %rbp
  40c6e9:	48 89 e5             	mov    %rsp,%rbp
  40c6ec:	48 83 ec 10          	sub    $0x10,%rsp
  40c6f0:	48 89 7d f8          	mov    %rdi,-0x8(%rbp)
  40c6f4:	48 89 75 f0          	mov    %rsi,-0x10(%rbp)
  40c6f8:	48 8b 4d f0          	mov    -0x10(%rbp),%rcx
  40c6fc:	48 8b 45 f8          	mov    -0x8(%rbp),%rax
  40c700:	ba 00 00 00 00       	mov    $0x0,%edx
  40c705:	48 89 ce             	mov    %rcx,%rsi
  40c708:	48 89 c7             	mov    %rax,%rdi
  40c70b:	e8 94 06 00 00       	callq  40cda4 <_ZN9__gnu_cxx13new_allocatorISt4pairISt6threadbEE8allocateEmPKv>
  40c710:	c9                   	leaveq 
  40c711:	c3                   	retq   

000000000040c712 <_ZSt32__make_move_if_noexcept_iteratorISt4pairISt6threadbESt13move_iteratorIPS2_EET0_PT_>:
  40c712:	55                   	push   %rbp
  40c713:	48 89 e5             	mov    %rsp,%rbp
  40c716:	48 83 ec 20          	sub    $0x20,%rsp
  40c71a:	48 89 7d e8          	mov    %rdi,-0x18(%rbp)
  40c71e:	64 48 8b 04 25 28 00 	mov    %fs:0x28,%rax
  40c725:	00 00 
  40c727:	48 89 45 f8          	mov    %rax,-0x8(%rbp)
  40c72b:	31 c0                	xor    %eax,%eax
  40c72d:	48 8b 55 e8          	mov    -0x18(%rbp),%rdx
  40c731:	48 8d 45 f0          	lea    -0x10(%rbp),%rax
  40c735:	48 89 d6             	mov    %rdx,%rsi
  40c738:	48 89 c7             	mov    %rax,%rdi
  40c73b:	e8 a6 06 00 00       	callq  40cde6 <_ZNSt13move_iteratorIPSt4pairISt6threadbEEC1ES3_>
  40c740:	48 8b 45 f0          	mov    -0x10(%rbp),%rax
  40c744:	48 8b 4d f8          	mov    -0x8(%rbp),%rcx
  40c748:	64 48 33 0c 25 28 00 	xor    %fs:0x28,%rcx
  40c74f:	00 00 
  40c751:	74 05                	je     40c758 <_ZSt32__make_move_if_noexcept_iteratorISt4pairISt6threadbESt13move_iteratorIPS2_EET0_PT_+0x46>
  40c753:	e8 e8 67 ff ff       	callq  402f40 <__stack_chk_fail@plt>
  40c758:	c9                   	leaveq 
  40c759:	c3                   	retq   

000000000040c75a <_ZSt22__uninitialized_copy_aISt13move_iteratorIPSt4pairISt6threadbEES4_S3_ET0_T_S7_S6_RSaIT1_E>:
  40c75a:	55                   	push   %rbp
  40c75b:	48 89 e5             	mov    %rsp,%rbp
  40c75e:	48 83 ec 20          	sub    $0x20,%rsp
  40c762:	48 89 7d f8          	mov    %rdi,-0x8(%rbp)
  40c766:	48 89 75 f0          	mov    %rsi,-0x10(%rbp)
  40c76a:	48 89 55 e8          	mov    %rdx,-0x18(%rbp)
  40c76e:	48 89 4d e0          	mov    %rcx,-0x20(%rbp)
  40c772:	48 8b 55 e8          	mov    -0x18(%rbp),%rdx
  40c776:	48 8b 4d f0          	mov    -0x10(%rbp),%rcx
  40c77a:	48 8b 45 f8          	mov    -0x8(%rbp),%rax
  40c77e:	48 89 ce             	mov    %rcx,%rsi
  40c781:	48 89 c7             	mov    %rax,%rdi
  40c784:	e8 77 06 00 00       	callq  40ce00 <_ZSt18uninitialized_copyISt13move_iteratorIPSt4pairISt6threadbEES4_ET0_T_S7_S6_>
  40c789:	c9                   	leaveq 
  40c78a:	c3                   	retq   
  40c78b:	90                   	nop

000000000040c78c <_ZNSt4pairISt6threadbED1Ev>:
  40c78c:	55                   	push   %rbp
  40c78d:	48 89 e5             	mov    %rsp,%rbp
  40c790:	48 83 ec 10          	sub    $0x10,%rsp
  40c794:	48 89 7d f8          	mov    %rdi,-0x8(%rbp)
  40c798:	48 8b 45 f8          	mov    -0x8(%rbp),%rax
  40c79c:	48 89 c7             	mov    %rax,%rdi
  40c79f:	e8 ec db ff ff       	callq  40a390 <_ZNSt6threadD1Ev>
  40c7a4:	90                   	nop
  40c7a5:	c9                   	leaveq 
  40c7a6:	c3                   	retq   
  40c7a7:	90                   	nop

000000000040c7a8 <_ZN9__gnu_cxx13new_allocatorISt4pairISt6threadbEE7destroyIS3_EEvPT_>:
  40c7a8:	55                   	push   %rbp
  40c7a9:	48 89 e5             	mov    %rsp,%rbp
  40c7ac:	48 83 ec 10          	sub    $0x10,%rsp
  40c7b0:	48 89 7d f8          	mov    %rdi,-0x8(%rbp)
  40c7b4:	48 89 75 f0          	mov    %rsi,-0x10(%rbp)
  40c7b8:	48 8b 45 f0          	mov    -0x10(%rbp),%rax
  40c7bc:	48 89 c7             	mov    %rax,%rdi
  40c7bf:	e8 c8 ff ff ff       	callq  40c78c <_ZNSt4pairISt6threadbED1Ev>
  40c7c4:	90                   	nop
  40c7c5:	c9                   	leaveq 
  40c7c6:	c3                   	retq   

000000000040c7c7 <_ZSt19__iterator_categoryIN9__gnu_cxx17__normal_iteratorIPSt4pairISt6threadbESt6vectorIS4_SaIS4_EEEEENSt15iterator_traitsIT_E17iterator_categoryERKSB_>:
  40c7c7:	55                   	push   %rbp
  40c7c8:	48 89 e5             	mov    %rsp,%rbp
  40c7cb:	48 89 7d f8          	mov    %rdi,-0x8(%rbp)
  40c7cf:	5d                   	pop    %rbp
  40c7d0:	c3                   	retq   

000000000040c7d1 <_ZSt12__miter_baseIN9__gnu_cxx17__normal_iteratorIPSt4pairISt6threadbESt6vectorIS4_SaIS4_EEEEET_SA_>:
  40c7d1:	55                   	push   %rbp
  40c7d2:	48 89 e5             	mov    %rsp,%rbp
  40c7d5:	48 89 7d f8          	mov    %rdi,-0x8(%rbp)
  40c7d9:	48 8b 45 f8          	mov    -0x8(%rbp),%rax
  40c7dd:	5d                   	pop    %rbp
  40c7de:	c3                   	retq   

000000000040c7df <_ZSt14__copy_move_a2ILb1EN9__gnu_cxx17__normal_iteratorIPSt4pairISt6threadbESt6vectorIS4_SaIS4_EEEES9_ET1_T0_SB_SA_>:
  40c7df:	55                   	push   %rbp
  40c7e0:	48 89 e5             	mov    %rsp,%rbp
  40c7e3:	41 54                	push   %r12
  40c7e5:	53                   	push   %rbx
  40c7e6:	48 83 ec 40          	sub    $0x40,%rsp
  40c7ea:	48 89 7d c8          	mov    %rdi,-0x38(%rbp)
  40c7ee:	48 89 75 c0          	mov    %rsi,-0x40(%rbp)
  40c7f2:	48 89 55 b8          	mov    %rdx,-0x48(%rbp)
  40c7f6:	64 48 8b 04 25 28 00 	mov    %fs:0x28,%rax
  40c7fd:	00 00 
  40c7ff:	48 89 45 e8          	mov    %rax,-0x18(%rbp)
  40c803:	31 c0                	xor    %eax,%eax
  40c805:	48 8b 45 b8          	mov    -0x48(%rbp),%rax
  40c809:	48 89 c7             	mov    %rax,%rdi
  40c80c:	e8 20 06 00 00       	callq  40ce31 <_ZSt12__niter_baseIPSt4pairISt6threadbESt6vectorIS2_SaIS2_EEET_N9__gnu_cxx17__normal_iteratorIS7_T0_EE>
  40c811:	49 89 c4             	mov    %rax,%r12
  40c814:	48 8b 45 c0          	mov    -0x40(%rbp),%rax
  40c818:	48 89 c7             	mov    %rax,%rdi
  40c81b:	e8 11 06 00 00       	callq  40ce31 <_ZSt12__niter_baseIPSt4pairISt6threadbESt6vectorIS2_SaIS2_EEET_N9__gnu_cxx17__normal_iteratorIS7_T0_EE>
  40c820:	48 89 c3             	mov    %rax,%rbx
  40c823:	48 8b 45 c8          	mov    -0x38(%rbp),%rax
  40c827:	48 89 c7             	mov    %rax,%rdi
  40c82a:	e8 02 06 00 00       	callq  40ce31 <_ZSt12__niter_baseIPSt4pairISt6threadbESt6vectorIS2_SaIS2_EEET_N9__gnu_cxx17__normal_iteratorIS7_T0_EE>
  40c82f:	4c 89 e2             	mov    %r12,%rdx
  40c832:	48 89 de             	mov    %rbx,%rsi
  40c835:	48 89 c7             	mov    %rax,%rdi
  40c838:	e8 11 06 00 00       	callq  40ce4e <_ZSt13__copy_move_aILb1EPSt4pairISt6threadbES3_ET1_T0_S5_S4_>
  40c83d:	48 89 45 d8          	mov    %rax,-0x28(%rbp)
  40c841:	48 8d 55 d8          	lea    -0x28(%rbp),%rdx
  40c845:	48 8d 45 e0          	lea    -0x20(%rbp),%rax
  40c849:	48 89 d6             	mov    %rdx,%rsi
  40c84c:	48 89 c7             	mov    %rax,%rdi
  40c84f:	e8 5e e9 ff ff       	callq  40b1b2 <_ZN9__gnu_cxx17__normal_iteratorIPSt4pairISt6threadbESt6vectorIS3_SaIS3_EEEC1ERKS4_>
  40c854:	48 8b 45 e0          	mov    -0x20(%rbp),%rax
  40c858:	48 8b 4d e8          	mov    -0x18(%rbp),%rcx
  40c85c:	64 48 33 0c 25 28 00 	xor    %fs:0x28,%rcx
  40c863:	00 00 
  40c865:	74 05                	je     40c86c <_ZSt14__copy_move_a2ILb1EN9__gnu_cxx17__normal_iteratorIPSt4pairISt6threadbESt6vectorIS4_SaIS4_EEEES9_ET1_T0_SB_SA_+0x8d>
  40c867:	e8 d4 66 ff ff       	callq  402f40 <__stack_chk_fail@plt>
  40c86c:	48 83 c4 40          	add    $0x40,%rsp
  40c870:	5b                   	pop    %rbx
  40c871:	41 5c                	pop    %r12
  40c873:	5d                   	pop    %rbp
  40c874:	c3                   	retq   

000000000040c875 <_ZNSt16allocator_traitsISaISt13_Rb_tree_nodeISt4pairIKNSt7__cxx1112basic_stringIcSt11char_traitsIcESaIcEEES7_EEEE9constructIS9_JRKSt21piecewise_construct_tSt5tupleIJRS8_EESH_IJEEEEEvRSB_PT_DpOT0_>:
  40c875:	55                   	push   %rbp
  40c876:	48 89 e5             	mov    %rsp,%rbp
  40c879:	41 54                	push   %r12
  40c87b:	53                   	push   %rbx
  40c87c:	48 83 ec 30          	sub    $0x30,%rsp
  40c880:	48 89 7d e8          	mov    %rdi,-0x18(%rbp)
  40c884:	48 89 75 e0          	mov    %rsi,-0x20(%rbp)
  40c888:	48 89 55 d8          	mov    %rdx,-0x28(%rbp)
  40c88c:	48 89 4d d0          	mov    %rcx,-0x30(%rbp)
  40c890:	4c 89 45 c8          	mov    %r8,-0x38(%rbp)
  40c894:	48 8b 45 c8          	mov    -0x38(%rbp),%rax
  40c898:	48 89 c7             	mov    %rax,%rdi
  40c89b:	e8 e7 8e ff ff       	callq  405787 <_ZSt7forwardISt5tupleIJEEEOT_RNSt16remove_referenceIS2_E4typeE>
  40c8a0:	49 89 c4             	mov    %rax,%r12
  40c8a3:	48 8b 45 d0          	mov    -0x30(%rbp),%rax
  40c8a7:	48 89 c7             	mov    %rax,%rdi
  40c8aa:	e8 d6 e4 ff ff       	callq  40ad85 <_ZSt7forwardISt5tupleIJRKNSt7__cxx1112basic_stringIcSt11char_traitsIcESaIcEEEEEEOT_RNSt16remove_referenceISA_E4typeE>
  40c8af:	48 89 c3             	mov    %rax,%rbx
  40c8b2:	48 8b 45 d8          	mov    -0x28(%rbp),%rax
  40c8b6:	48 89 c7             	mov    %rax,%rdi
  40c8b9:	e8 ad 8e ff ff       	callq  40576b <_ZSt7forwardIRKSt21piecewise_construct_tEOT_RNSt16remove_referenceIS3_E4typeE>
  40c8be:	48 89 c2             	mov    %rax,%rdx
  40c8c1:	48 8b 75 e0          	mov    -0x20(%rbp),%rsi
  40c8c5:	48 8b 45 e8          	mov    -0x18(%rbp),%rax
  40c8c9:	4d 89 e0             	mov    %r12,%r8
  40c8cc:	48 89 d9             	mov    %rbx,%rcx
  40c8cf:	48 89 c7             	mov    %rax,%rdi
  40c8d2:	e8 41 06 00 00       	callq  40cf18 <_ZN9__gnu_cxx13new_allocatorISt13_Rb_tree_nodeISt4pairIKNSt7__cxx1112basic_stringIcSt11char_traitsIcESaIcEEES8_EEE9constructISA_JRKSt21piecewise_construct_tSt5tupleIJRS9_EESH_IJEEEEEvPT_DpOT0_>
  40c8d7:	90                   	nop
  40c8d8:	48 83 c4 30          	add    $0x30,%rsp
  40c8dc:	5b                   	pop    %rbx
  40c8dd:	41 5c                	pop    %r12
  40c8df:	5d                   	pop    %rbp
  40c8e0:	c3                   	retq   

000000000040c8e1 <_ZSt19__iterator_categoryIPKcENSt15iterator_traitsIT_E17iterator_categoryERKS3_>:
  40c8e1:	55                   	push   %rbp
  40c8e2:	48 89 e5             	mov    %rsp,%rbp
  40c8e5:	48 89 7d f8          	mov    %rdi,-0x8(%rbp)
  40c8e9:	5d                   	pop    %rbp
  40c8ea:	c3                   	retq   

000000000040c8eb <_ZSt10__distanceIPKcENSt15iterator_traitsIT_E15difference_typeES3_S3_St26random_access_iterator_tag>:
  40c8eb:	55                   	push   %rbp
  40c8ec:	48 89 e5             	mov    %rsp,%rbp
  40c8ef:	48 89 7d f8          	mov    %rdi,-0x8(%rbp)
  40c8f3:	48 89 75 f0          	mov    %rsi,-0x10(%rbp)
  40c8f7:	48 8b 55 f0          	mov    -0x10(%rbp),%rdx
  40c8fb:	48 8b 45 f8          	mov    -0x8(%rbp),%rax
  40c8ff:	48 29 c2             	sub    %rax,%rdx
  40c902:	48 89 d0             	mov    %rdx,%rax
  40c905:	5d                   	pop    %rbp
  40c906:	c3                   	retq   

000000000040c907 <_ZSt18make_move_iteratorIPhESt13move_iteratorIT_ES2_>:
  40c907:	55                   	push   %rbp
  40c908:	48 89 e5             	mov    %rsp,%rbp
  40c90b:	48 83 ec 20          	sub    $0x20,%rsp
  40c90f:	48 89 7d e8          	mov    %rdi,-0x18(%rbp)
  40c913:	64 48 8b 04 25 28 00 	mov    %fs:0x28,%rax
  40c91a:	00 00 
  40c91c:	48 89 45 f8          	mov    %rax,-0x8(%rbp)
  40c920:	31 c0                	xor    %eax,%eax
  40c922:	48 8b 55 e8          	mov    -0x18(%rbp),%rdx
  40c926:	48 8d 45 f0          	lea    -0x10(%rbp),%rax
  40c92a:	48 89 d6             	mov    %rdx,%rsi
  40c92d:	48 89 c7             	mov    %rax,%rdi
  40c930:	e8 c1 06 00 00       	callq  40cff6 <_ZNSt13move_iteratorIPhEC1ES0_>
  40c935:	48 8b 45 f0          	mov    -0x10(%rbp),%rax
  40c939:	48 8b 4d f8          	mov    -0x8(%rbp),%rcx
  40c93d:	64 48 33 0c 25 28 00 	xor    %fs:0x28,%rcx
  40c944:	00 00 
  40c946:	74 05                	je     40c94d <_ZSt18make_move_iteratorIPhESt13move_iteratorIT_ES2_+0x46>
  40c948:	e8 f3 65 ff ff       	callq  402f40 <__stack_chk_fail@plt>
  40c94d:	c9                   	leaveq 
  40c94e:	c3                   	retq   

000000000040c94f <_ZSt22__uninitialized_copy_aISt13move_iteratorIPhES1_hET0_T_S4_S3_RSaIT1_E>:
  40c94f:	55                   	push   %rbp
  40c950:	48 89 e5             	mov    %rsp,%rbp
  40c953:	48 83 ec 20          	sub    $0x20,%rsp
  40c957:	48 89 7d f8          	mov    %rdi,-0x8(%rbp)
  40c95b:	48 89 75 f0          	mov    %rsi,-0x10(%rbp)
  40c95f:	48 89 55 e8          	mov    %rdx,-0x18(%rbp)
  40c963:	48 89 4d e0          	mov    %rcx,-0x20(%rbp)
  40c967:	48 8b 55 e8          	mov    -0x18(%rbp),%rdx
  40c96b:	48 8b 4d f0          	mov    -0x10(%rbp),%rcx
  40c96f:	48 8b 45 f8          	mov    -0x8(%rbp),%rax
  40c973:	48 89 ce             	mov    %rcx,%rsi
  40c976:	48 89 c7             	mov    %rax,%rdi
  40c979:	e8 92 06 00 00       	callq  40d010 <_ZSt18uninitialized_copyISt13move_iteratorIPhES1_ET0_T_S4_S3_>
  40c97e:	c9                   	leaveq 
  40c97f:	c3                   	retq   

000000000040c980 <_ZSt12__miter_baseIPhET_S1_>:
  40c980:	55                   	push   %rbp
  40c981:	48 89 e5             	mov    %rsp,%rbp
  40c984:	48 89 7d f8          	mov    %rdi,-0x8(%rbp)
  40c988:	48 8b 45 f8          	mov    -0x8(%rbp),%rax
  40c98c:	5d                   	pop    %rbp
  40c98d:	c3                   	retq   

000000000040c98e <_ZSt23__copy_move_backward_a2ILb1EPhS0_ET1_T0_S2_S1_>:
  40c98e:	55                   	push   %rbp
  40c98f:	48 89 e5             	mov    %rsp,%rbp
  40c992:	41 54                	push   %r12
  40c994:	53                   	push   %rbx
  40c995:	48 83 ec 20          	sub    $0x20,%rsp
  40c999:	48 89 7d e8          	mov    %rdi,-0x18(%rbp)
  40c99d:	48 89 75 e0          	mov    %rsi,-0x20(%rbp)
  40c9a1:	48 89 55 d8          	mov    %rdx,-0x28(%rbp)
  40c9a5:	48 8b 45 d8          	mov    -0x28(%rbp),%rax
  40c9a9:	48 89 c7             	mov    %rax,%rdi
  40c9ac:	e8 90 06 00 00       	callq  40d041 <_ZSt12__niter_baseIPhET_S1_>
  40c9b1:	49 89 c4             	mov    %rax,%r12
  40c9b4:	48 8b 45 e0          	mov    -0x20(%rbp),%rax
  40c9b8:	48 89 c7             	mov    %rax,%rdi
  40c9bb:	e8 81 06 00 00       	callq  40d041 <_ZSt12__niter_baseIPhET_S1_>
  40c9c0:	48 89 c3             	mov    %rax,%rbx
  40c9c3:	48 8b 45 e8          	mov    -0x18(%rbp),%rax
  40c9c7:	48 89 c7             	mov    %rax,%rdi
  40c9ca:	e8 72 06 00 00       	callq  40d041 <_ZSt12__niter_baseIPhET_S1_>
  40c9cf:	4c 89 e2             	mov    %r12,%rdx
  40c9d2:	48 89 de             	mov    %rbx,%rsi
  40c9d5:	48 89 c7             	mov    %rax,%rdi
  40c9d8:	e8 72 06 00 00       	callq  40d04f <_ZSt22__copy_move_backward_aILb1EPhS0_ET1_T0_S2_S1_>
  40c9dd:	48 83 c4 20          	add    $0x20,%rsp
  40c9e1:	5b                   	pop    %rbx
  40c9e2:	41 5c                	pop    %r12
  40c9e4:	5d                   	pop    %rbp
  40c9e5:	c3                   	retq   

000000000040c9e6 <_ZSt12__miter_baseIPKcET_S2_>:
  40c9e6:	55                   	push   %rbp
  40c9e7:	48 89 e5             	mov    %rsp,%rbp
  40c9ea:	48 89 7d f8          	mov    %rdi,-0x8(%rbp)
  40c9ee:	48 8b 45 f8          	mov    -0x8(%rbp),%rax
  40c9f2:	5d                   	pop    %rbp
  40c9f3:	c3                   	retq   

000000000040c9f4 <_ZSt14__copy_move_a2ILb0EPKcN9__gnu_cxx17__normal_iteratorIPhSt6vectorIhSaIhEEEEET1_T0_SA_S9_>:
  40c9f4:	55                   	push   %rbp
  40c9f5:	48 89 e5             	mov    %rsp,%rbp
  40c9f8:	41 54                	push   %r12
  40c9fa:	53                   	push   %rbx
  40c9fb:	48 83 ec 40          	sub    $0x40,%rsp
  40c9ff:	48 89 7d c8          	mov    %rdi,-0x38(%rbp)
  40ca03:	48 89 75 c0          	mov    %rsi,-0x40(%rbp)
  40ca07:	48 89 55 b8          	mov    %rdx,-0x48(%rbp)
  40ca0b:	64 48 8b 04 25 28 00 	mov    %fs:0x28,%rax
  40ca12:	00 00 
  40ca14:	48 89 45 e8          	mov    %rax,-0x18(%rbp)
  40ca18:	31 c0                	xor    %eax,%eax
  40ca1a:	48 8b 45 b8          	mov    -0x48(%rbp),%rax
  40ca1e:	48 89 c7             	mov    %rax,%rdi
  40ca21:	e8 68 06 00 00       	callq  40d08e <_ZSt12__niter_baseIPhSt6vectorIhSaIhEEET_N9__gnu_cxx17__normal_iteratorIS4_T0_EE>
  40ca26:	49 89 c4             	mov    %rax,%r12
  40ca29:	48 8b 45 c0          	mov    -0x40(%rbp),%rax
  40ca2d:	48 89 c7             	mov    %rax,%rdi
  40ca30:	e8 4b 06 00 00       	callq  40d080 <_ZSt12__niter_baseIPKcET_S2_>
  40ca35:	48 89 c3             	mov    %rax,%rbx
  40ca38:	48 8b 45 c8          	mov    -0x38(%rbp),%rax
  40ca3c:	48 89 c7             	mov    %rax,%rdi
  40ca3f:	e8 3c 06 00 00       	callq  40d080 <_ZSt12__niter_baseIPKcET_S2_>
  40ca44:	4c 89 e2             	mov    %r12,%rdx
  40ca47:	48 89 de             	mov    %rbx,%rsi
  40ca4a:	48 89 c7             	mov    %rax,%rdi
  40ca4d:	e8 59 06 00 00       	callq  40d0ab <_ZSt13__copy_move_aILb0EPKcPhET1_T0_S4_S3_>
  40ca52:	48 89 45 d8          	mov    %rax,-0x28(%rbp)
  40ca56:	48 8d 55 d8          	lea    -0x28(%rbp),%rdx
  40ca5a:	48 8d 45 e0          	lea    -0x20(%rbp),%rax
  40ca5e:	48 89 d6             	mov    %rdx,%rsi
  40ca61:	48 89 c7             	mov    %rax,%rdi
  40ca64:	e8 65 e4 ff ff       	callq  40aece <_ZN9__gnu_cxx17__normal_iteratorIPhSt6vectorIhSaIhEEEC1ERKS1_>
  40ca69:	48 8b 45 e0          	mov    -0x20(%rbp),%rax
  40ca6d:	48 8b 4d e8          	mov    -0x18(%rbp),%rcx
  40ca71:	64 48 33 0c 25 28 00 	xor    %fs:0x28,%rcx
  40ca78:	00 00 
  40ca7a:	74 05                	je     40ca81 <_ZSt14__copy_move_a2ILb0EPKcN9__gnu_cxx17__normal_iteratorIPhSt6vectorIhSaIhEEEEET1_T0_SA_S9_+0x8d>
  40ca7c:	e8 bf 64 ff ff       	callq  402f40 <__stack_chk_fail@plt>
  40ca81:	48 83 c4 40          	add    $0x40,%rsp
  40ca85:	5b                   	pop    %rbx
  40ca86:	41 5c                	pop    %r12
  40ca88:	5d                   	pop    %rbp
  40ca89:	c3                   	retq   

000000000040ca8a <_ZSt9__advanceIPKclEvRT_T0_St26random_access_iterator_tag>:
  40ca8a:	55                   	push   %rbp
  40ca8b:	48 89 e5             	mov    %rsp,%rbp
  40ca8e:	48 89 7d f8          	mov    %rdi,-0x8(%rbp)
  40ca92:	48 89 75 f0          	mov    %rsi,-0x10(%rbp)
  40ca96:	48 8b 45 f8          	mov    -0x8(%rbp),%rax
  40ca9a:	48 8b 10             	mov    (%rax),%rdx
  40ca9d:	48 8b 45 f0          	mov    -0x10(%rbp),%rax
  40caa1:	48 01 c2             	add    %rax,%rdx
  40caa4:	48 8b 45 f8          	mov    -0x8(%rbp),%rax
  40caa8:	48 89 10             	mov    %rdx,(%rax)
  40caab:	90                   	nop
  40caac:	5d                   	pop    %rbp
  40caad:	c3                   	retq   

000000000040caae <_ZSt18uninitialized_copyIPKcPhET0_T_S4_S3_>:
  40caae:	55                   	push   %rbp
  40caaf:	48 89 e5             	mov    %rsp,%rbp
  40cab2:	48 83 ec 30          	sub    $0x30,%rsp
  40cab6:	48 89 7d e8          	mov    %rdi,-0x18(%rbp)
  40caba:	48 89 75 e0          	mov    %rsi,-0x20(%rbp)
  40cabe:	48 89 55 d8          	mov    %rdx,-0x28(%rbp)
  40cac2:	c6 45 ff 01          	movb   $0x1,-0x1(%rbp)
  40cac6:	48 8b 55 d8          	mov    -0x28(%rbp),%rdx
  40caca:	48 8b 4d e0          	mov    -0x20(%rbp),%rcx
  40cace:	48 8b 45 e8          	mov    -0x18(%rbp),%rax
  40cad2:	48 89 ce             	mov    %rcx,%rsi
  40cad5:	48 89 c7             	mov    %rax,%rdi
  40cad8:	e8 ff 05 00 00       	callq  40d0dc <_ZNSt20__uninitialized_copyILb1EE13__uninit_copyIPKcPhEET0_T_S6_S5_>
  40cadd:	c9                   	leaveq 
  40cade:	c3                   	retq   
  40cadf:	90                   	nop

000000000040cae0 <_ZNKSt6vectorIhSaIhEE8max_sizeEv>:
  40cae0:	55                   	push   %rbp
  40cae1:	48 89 e5             	mov    %rsp,%rbp
  40cae4:	48 83 ec 10          	sub    $0x10,%rsp
  40cae8:	48 89 7d f8          	mov    %rdi,-0x8(%rbp)
  40caec:	48 8b 45 f8          	mov    -0x8(%rbp),%rax
  40caf0:	48 89 c7             	mov    %rax,%rdi
  40caf3:	e8 2c 06 00 00       	callq  40d124 <_ZNKSt12_Vector_baseIhSaIhEE19_M_get_Tp_allocatorEv>
  40caf8:	48 89 c7             	mov    %rax,%rdi
  40cafb:	e8 09 06 00 00       	callq  40d109 <_ZNSt16allocator_traitsISaIhEE8max_sizeERKS0_>
  40cb00:	c9                   	leaveq 
  40cb01:	c3                   	retq   

000000000040cb02 <_ZNSt16allocator_traitsISaIhEE8allocateERS0_m>:
  40cb02:	55                   	push   %rbp
  40cb03:	48 89 e5             	mov    %rsp,%rbp
  40cb06:	48 83 ec 10          	sub    $0x10,%rsp
  40cb0a:	48 89 7d f8          	mov    %rdi,-0x8(%rbp)
  40cb0e:	48 89 75 f0          	mov    %rsi,-0x10(%rbp)
  40cb12:	48 8b 4d f0          	mov    -0x10(%rbp),%rcx
  40cb16:	48 8b 45 f8          	mov    -0x8(%rbp),%rax
  40cb1a:	ba 00 00 00 00       	mov    $0x0,%edx
  40cb1f:	48 89 ce             	mov    %rcx,%rsi
  40cb22:	48 89 c7             	mov    %rax,%rdi
  40cb25:	e8 08 06 00 00       	callq  40d132 <_ZN9__gnu_cxx13new_allocatorIhE8allocateEmPKv>
  40cb2a:	c9                   	leaveq 
  40cb2b:	c3                   	retq   

000000000040cb2c <_ZSt32__make_move_if_noexcept_iteratorIhSt13move_iteratorIPhEET0_PT_>:
  40cb2c:	55                   	push   %rbp
  40cb2d:	48 89 e5             	mov    %rsp,%rbp
  40cb30:	48 83 ec 20          	sub    $0x20,%rsp
  40cb34:	48 89 7d e8          	mov    %rdi,-0x18(%rbp)
  40cb38:	64 48 8b 04 25 28 00 	mov    %fs:0x28,%rax
  40cb3f:	00 00 
  40cb41:	48 89 45 f8          	mov    %rax,-0x8(%rbp)
  40cb45:	31 c0                	xor    %eax,%eax
  40cb47:	48 8b 55 e8          	mov    -0x18(%rbp),%rdx
  40cb4b:	48 8d 45 f0          	lea    -0x10(%rbp),%rax
  40cb4f:	48 89 d6             	mov    %rdx,%rsi
  40cb52:	48 89 c7             	mov    %rax,%rdi
  40cb55:	e8 9c 04 00 00       	callq  40cff6 <_ZNSt13move_iteratorIPhEC1ES0_>
  40cb5a:	48 8b 45 f0          	mov    -0x10(%rbp),%rax
  40cb5e:	48 8b 4d f8          	mov    -0x8(%rbp),%rcx
  40cb62:	64 48 33 0c 25 28 00 	xor    %fs:0x28,%rcx
  40cb69:	00 00 
  40cb6b:	74 05                	je     40cb72 <_ZSt32__make_move_if_noexcept_iteratorIhSt13move_iteratorIPhEET0_PT_+0x46>
  40cb6d:	e8 ce 63 ff ff       	callq  402f40 <__stack_chk_fail@plt>
  40cb72:	c9                   	leaveq 
  40cb73:	c3                   	retq   

000000000040cb74 <_ZSt12__miter_baseIPcET_S1_>:
  40cb74:	55                   	push   %rbp
  40cb75:	48 89 e5             	mov    %rsp,%rbp
  40cb78:	48 89 7d f8          	mov    %rdi,-0x8(%rbp)
  40cb7c:	48 8b 45 f8          	mov    -0x8(%rbp),%rax
  40cb80:	5d                   	pop    %rbp
  40cb81:	c3                   	retq   

000000000040cb82 <_ZSt14__copy_move_a2ILb0EPcN9__gnu_cxx17__normal_iteratorIPhSt6vectorIhSaIhEEEEET1_T0_S9_S8_>:
  40cb82:	55                   	push   %rbp
  40cb83:	48 89 e5             	mov    %rsp,%rbp
  40cb86:	41 54                	push   %r12
  40cb88:	53                   	push   %rbx
  40cb89:	48 83 ec 40          	sub    $0x40,%rsp
  40cb8d:	48 89 7d c8          	mov    %rdi,-0x38(%rbp)
  40cb91:	48 89 75 c0          	mov    %rsi,-0x40(%rbp)
  40cb95:	48 89 55 b8          	mov    %rdx,-0x48(%rbp)
  40cb99:	64 48 8b 04 25 28 00 	mov    %fs:0x28,%rax
  40cba0:	00 00 
  40cba2:	48 89 45 e8          	mov    %rax,-0x18(%rbp)
  40cba6:	31 c0                	xor    %eax,%eax
  40cba8:	48 8b 45 b8          	mov    -0x48(%rbp),%rax
  40cbac:	48 89 c7             	mov    %rax,%rdi
  40cbaf:	e8 da 04 00 00       	callq  40d08e <_ZSt12__niter_baseIPhSt6vectorIhSaIhEEET_N9__gnu_cxx17__normal_iteratorIS4_T0_EE>
  40cbb4:	49 89 c4             	mov    %rax,%r12
  40cbb7:	48 8b 45 c0          	mov    -0x40(%rbp),%rax
  40cbbb:	48 89 c7             	mov    %rax,%rdi
  40cbbe:	e8 ad 05 00 00       	callq  40d170 <_ZSt12__niter_baseIPcET_S1_>
  40cbc3:	48 89 c3             	mov    %rax,%rbx
  40cbc6:	48 8b 45 c8          	mov    -0x38(%rbp),%rax
  40cbca:	48 89 c7             	mov    %rax,%rdi
  40cbcd:	e8 9e 05 00 00       	callq  40d170 <_ZSt12__niter_baseIPcET_S1_>
  40cbd2:	4c 89 e2             	mov    %r12,%rdx
  40cbd5:	48 89 de             	mov    %rbx,%rsi
  40cbd8:	48 89 c7             	mov    %rax,%rdi
  40cbdb:	e8 9e 05 00 00       	callq  40d17e <_ZSt13__copy_move_aILb0EPcPhET1_T0_S3_S2_>
  40cbe0:	48 89 45 d8          	mov    %rax,-0x28(%rbp)
  40cbe4:	48 8d 55 d8          	lea    -0x28(%rbp),%rdx
  40cbe8:	48 8d 45 e0          	lea    -0x20(%rbp),%rax
  40cbec:	48 89 d6             	mov    %rdx,%rsi
  40cbef:	48 89 c7             	mov    %rax,%rdi
  40cbf2:	e8 d7 e2 ff ff       	callq  40aece <_ZN9__gnu_cxx17__normal_iteratorIPhSt6vectorIhSaIhEEEC1ERKS1_>
  40cbf7:	48 8b 45 e0          	mov    -0x20(%rbp),%rax
  40cbfb:	48 8b 4d e8          	mov    -0x18(%rbp),%rcx
  40cbff:	64 48 33 0c 25 28 00 	xor    %fs:0x28,%rcx
  40cc06:	00 00 
  40cc08:	74 05                	je     40cc0f <_ZSt14__copy_move_a2ILb0EPcN9__gnu_cxx17__normal_iteratorIPhSt6vectorIhSaIhEEEEET1_T0_S9_S8_+0x8d>
  40cc0a:	e8 31 63 ff ff       	callq  402f40 <__stack_chk_fail@plt>
  40cc0f:	48 83 c4 40          	add    $0x40,%rsp
  40cc13:	5b                   	pop    %rbx
  40cc14:	41 5c                	pop    %r12
  40cc16:	5d                   	pop    %rbp
  40cc17:	c3                   	retq   

000000000040cc18 <_ZSt9__advanceIPclEvRT_T0_St26random_access_iterator_tag>:
  40cc18:	55                   	push   %rbp
  40cc19:	48 89 e5             	mov    %rsp,%rbp
  40cc1c:	48 89 7d f8          	mov    %rdi,-0x8(%rbp)
  40cc20:	48 89 75 f0          	mov    %rsi,-0x10(%rbp)
  40cc24:	48 8b 45 f8          	mov    -0x8(%rbp),%rax
  40cc28:	48 8b 10             	mov    (%rax),%rdx
  40cc2b:	48 8b 45 f0          	mov    -0x10(%rbp),%rax
  40cc2f:	48 01 c2             	add    %rax,%rdx
  40cc32:	48 8b 45 f8          	mov    -0x8(%rbp),%rax
  40cc36:	48 89 10             	mov    %rdx,(%rax)
  40cc39:	90                   	nop
  40cc3a:	5d                   	pop    %rbp
  40cc3b:	c3                   	retq   

000000000040cc3c <_ZSt18uninitialized_copyIPcPhET0_T_S3_S2_>:
  40cc3c:	55                   	push   %rbp
  40cc3d:	48 89 e5             	mov    %rsp,%rbp
  40cc40:	48 83 ec 30          	sub    $0x30,%rsp
  40cc44:	48 89 7d e8          	mov    %rdi,-0x18(%rbp)
  40cc48:	48 89 75 e0          	mov    %rsi,-0x20(%rbp)
  40cc4c:	48 89 55 d8          	mov    %rdx,-0x28(%rbp)
  40cc50:	c6 45 ff 01          	movb   $0x1,-0x1(%rbp)
  40cc54:	48 8b 55 d8          	mov    -0x28(%rbp),%rdx
  40cc58:	48 8b 4d e0          	mov    -0x20(%rbp),%rcx
  40cc5c:	48 8b 45 e8          	mov    -0x18(%rbp),%rax
  40cc60:	48 89 ce             	mov    %rcx,%rsi
  40cc63:	48 89 c7             	mov    %rax,%rdi
  40cc66:	e8 44 05 00 00       	callq  40d1af <_ZNSt20__uninitialized_copyILb1EE13__uninit_copyIPcPhEET0_T_S5_S4_>
  40cc6b:	c9                   	leaveq 
  40cc6c:	c3                   	retq   
  40cc6d:	90                   	nop

000000000040cc6e <_ZN9__gnu_cxx13new_allocatorISt4pairISt6threadbEEC1Ev>:
  40cc6e:	55                   	push   %rbp
  40cc6f:	48 89 e5             	mov    %rsp,%rbp
  40cc72:	48 89 7d f8          	mov    %rdi,-0x8(%rbp)
  40cc76:	90                   	nop
  40cc77:	5d                   	pop    %rbp
  40cc78:	c3                   	retq   
  40cc79:	90                   	nop

000000000040cc7a <_ZN9__gnu_cxx13new_allocatorISt4pairISt6threadbEE10deallocateEPS3_m>:
  40cc7a:	55                   	push   %rbp
  40cc7b:	48 89 e5             	mov    %rsp,%rbp
  40cc7e:	48 83 ec 20          	sub    $0x20,%rsp
  40cc82:	48 89 7d f8          	mov    %rdi,-0x8(%rbp)
  40cc86:	48 89 75 f0          	mov    %rsi,-0x10(%rbp)
  40cc8a:	48 89 55 e8          	mov    %rdx,-0x18(%rbp)
  40cc8e:	48 8b 45 f0          	mov    -0x10(%rbp),%rax
  40cc92:	48 89 c7             	mov    %rax,%rdi
  40cc95:	e8 e6 61 ff ff       	callq  402e80 <_ZdlPv@plt>
  40cc9a:	90                   	nop
  40cc9b:	c9                   	leaveq 
  40cc9c:	c3                   	retq   

000000000040cc9d <_ZSt11__addressofISt4pairISt6threadbEEPT_RS3_>:
  40cc9d:	55                   	push   %rbp
  40cc9e:	48 89 e5             	mov    %rsp,%rbp
  40cca1:	48 89 7d f8          	mov    %rdi,-0x8(%rbp)
  40cca5:	48 8b 45 f8          	mov    -0x8(%rbp),%rax
  40cca9:	5d                   	pop    %rbp
  40ccaa:	c3                   	retq   

000000000040ccab <_ZSt8_DestroyISt4pairISt6threadbEEvPT_>:
  40ccab:	55                   	push   %rbp
  40ccac:	48 89 e5             	mov    %rsp,%rbp
  40ccaf:	48 83 ec 10          	sub    $0x10,%rsp
  40ccb3:	48 89 7d f8          	mov    %rdi,-0x8(%rbp)
  40ccb7:	48 8b 45 f8          	mov    -0x8(%rbp),%rax
  40ccbb:	48 89 c7             	mov    %rax,%rdi
  40ccbe:	e8 c9 fa ff ff       	callq  40c78c <_ZNSt4pairISt6threadbED1Ev>
  40ccc3:	90                   	nop
  40ccc4:	c9                   	leaveq 
  40ccc5:	c3                   	retq   

000000000040ccc6 <_ZNSt10_Head_baseILm0EPNSt6thread6_StateELb0EE7_M_headERS3_>:
  40ccc6:	55                   	push   %rbp
  40ccc7:	48 89 e5             	mov    %rsp,%rbp
  40ccca:	48 89 7d f8          	mov    %rdi,-0x8(%rbp)
  40ccce:	48 8b 45 f8          	mov    -0x8(%rbp),%rax
  40ccd2:	5d                   	pop    %rbp
  40ccd3:	c3                   	retq   

000000000040ccd4 <_ZNSt11_Tuple_implILm0EJPNSt6thread6_StateESt14default_deleteIS1_EEE7_M_headERS5_>:
  40ccd4:	55                   	push   %rbp
  40ccd5:	48 89 e5             	mov    %rsp,%rbp
  40ccd8:	48 83 ec 10          	sub    $0x10,%rsp
  40ccdc:	48 89 7d f8          	mov    %rdi,-0x8(%rbp)
  40cce0:	48 8b 45 f8          	mov    -0x8(%rbp),%rax
  40cce4:	48 89 c7             	mov    %rax,%rdi
  40cce7:	e8 da ff ff ff       	callq  40ccc6 <_ZNSt10_Head_baseILm0EPNSt6thread6_StateELb0EE7_M_headERS3_>
  40ccec:	c9                   	leaveq 
  40cced:	c3                   	retq   

000000000040ccee <_ZSt12__get_helperILm0EPNSt6thread6_StateEJSt14default_deleteIS1_EEERT0_RSt11_Tuple_implIXT_EJS5_DpT1_EE>:
  40ccee:	55                   	push   %rbp
  40ccef:	48 89 e5             	mov    %rsp,%rbp
  40ccf2:	48 83 ec 10          	sub    $0x10,%rsp
  40ccf6:	48 89 7d f8          	mov    %rdi,-0x8(%rbp)
  40ccfa:	48 8b 45 f8          	mov    -0x8(%rbp),%rax
  40ccfe:	48 89 c7             	mov    %rax,%rdi
  40cd01:	e8 ce ff ff ff       	callq  40ccd4 <_ZNSt11_Tuple_implILm0EJPNSt6thread6_StateESt14default_deleteIS1_EEE7_M_headERS5_>
  40cd06:	c9                   	leaveq 
  40cd07:	c3                   	retq   

000000000040cd08 <_ZSt3getILm0EJPNSt6thread6_StateESt14default_deleteIS1_EEERNSt13tuple_elementIXT_ESt5tupleIJDpT0_EEE4typeERS9_>:
  40cd08:	55                   	push   %rbp
  40cd09:	48 89 e5             	mov    %rsp,%rbp
  40cd0c:	48 83 ec 10          	sub    $0x10,%rsp
  40cd10:	48 89 7d f8          	mov    %rdi,-0x8(%rbp)
  40cd14:	48 8b 45 f8          	mov    -0x8(%rbp),%rax
  40cd18:	48 89 c7             	mov    %rax,%rdi
  40cd1b:	e8 ce ff ff ff       	callq  40ccee <_ZSt12__get_helperILm0EPNSt6thread6_StateEJSt14default_deleteIS1_EEERT0_RSt11_Tuple_implIXT_EJS5_DpT1_EE>
  40cd20:	c9                   	leaveq 
  40cd21:	c3                   	retq   

000000000040cd22 <_ZNSt10unique_ptrINSt6thread6_StateESt14default_deleteIS1_EED1Ev>:
  40cd22:	55                   	push   %rbp
  40cd23:	48 89 e5             	mov    %rsp,%rbp
  40cd26:	53                   	push   %rbx
  40cd27:	48 83 ec 28          	sub    $0x28,%rsp
  40cd2b:	48 89 7d d8          	mov    %rdi,-0x28(%rbp)
  40cd2f:	48 8b 45 d8          	mov    -0x28(%rbp),%rax
  40cd33:	48 89 c7             	mov    %rax,%rdi
  40cd36:	e8 cd ff ff ff       	callq  40cd08 <_ZSt3getILm0EJPNSt6thread6_StateESt14default_deleteIS1_EEERNSt13tuple_elementIXT_ESt5tupleIJDpT0_EEE4typeERS9_>
  40cd3b:	48 89 45 e8          	mov    %rax,-0x18(%rbp)
  40cd3f:	48 8b 45 e8          	mov    -0x18(%rbp),%rax
  40cd43:	48 8b 00             	mov    (%rax),%rax
  40cd46:	48 85 c0             	test   %rax,%rax
  40cd49:	74 1e                	je     40cd69 <_ZNSt10unique_ptrINSt6thread6_StateESt14default_deleteIS1_EED1Ev+0x47>
  40cd4b:	48 8b 45 e8          	mov    -0x18(%rbp),%rax
  40cd4f:	48 8b 18             	mov    (%rax),%rbx
  40cd52:	48 8b 45 d8          	mov    -0x28(%rbp),%rax
  40cd56:	48 89 c7             	mov    %rax,%rdi
  40cd59:	e8 c6 05 00 00       	callq  40d324 <_ZNSt10unique_ptrINSt6thread6_StateESt14default_deleteIS1_EE11get_deleterEv>
  40cd5e:	48 89 de             	mov    %rbx,%rsi
  40cd61:	48 89 c7             	mov    %rax,%rdi
  40cd64:	e8 d5 05 00 00       	callq  40d33e <_ZNKSt14default_deleteINSt6thread6_StateEEclEPS1_>
  40cd69:	48 8b 45 e8          	mov    -0x18(%rbp),%rax
  40cd6d:	48 c7 00 00 00 00 00 	movq   $0x0,(%rax)
  40cd74:	90                   	nop
  40cd75:	48 83 c4 28          	add    $0x28,%rsp
  40cd79:	5b                   	pop    %rbx
  40cd7a:	5d                   	pop    %rbp
  40cd7b:	c3                   	retq   

000000000040cd7c <_ZNSt16allocator_traitsISaISt4pairISt6threadbEEE8max_sizeERKS3_>:
  40cd7c:	55                   	push   %rbp
  40cd7d:	48 89 e5             	mov    %rsp,%rbp
  40cd80:	48 83 ec 10          	sub    $0x10,%rsp
  40cd84:	48 89 7d f8          	mov    %rdi,-0x8(%rbp)
  40cd88:	48 8b 45 f8          	mov    -0x8(%rbp),%rax
  40cd8c:	48 89 c7             	mov    %rax,%rdi
  40cd8f:	e8 dc 05 00 00       	callq  40d370 <_ZNK9__gnu_cxx13new_allocatorISt4pairISt6threadbEE8max_sizeEv>
  40cd94:	c9                   	leaveq 
  40cd95:	c3                   	retq   

000000000040cd96 <_ZNKSt12_Vector_baseISt4pairISt6threadbESaIS2_EE19_M_get_Tp_allocatorEv>:
  40cd96:	55                   	push   %rbp
  40cd97:	48 89 e5             	mov    %rsp,%rbp
  40cd9a:	48 89 7d f8          	mov    %rdi,-0x8(%rbp)
  40cd9e:	48 8b 45 f8          	mov    -0x8(%rbp),%rax
  40cda2:	5d                   	pop    %rbp
  40cda3:	c3                   	retq   

000000000040cda4 <_ZN9__gnu_cxx13new_allocatorISt4pairISt6threadbEE8allocateEmPKv>:
  40cda4:	55                   	push   %rbp
  40cda5:	48 89 e5             	mov    %rsp,%rbp
  40cda8:	48 83 ec 20          	sub    $0x20,%rsp
  40cdac:	48 89 7d f8          	mov    %rdi,-0x8(%rbp)
  40cdb0:	48 89 75 f0          	mov    %rsi,-0x10(%rbp)
  40cdb4:	48 89 55 e8          	mov    %rdx,-0x18(%rbp)
  40cdb8:	48 8b 45 f8          	mov    -0x8(%rbp),%rax
  40cdbc:	48 89 c7             	mov    %rax,%rdi
  40cdbf:	e8 ac 05 00 00       	callq  40d370 <_ZNK9__gnu_cxx13new_allocatorISt4pairISt6threadbEE8max_sizeEv>
  40cdc4:	48 3b 45 f0          	cmp    -0x10(%rbp),%rax
  40cdc8:	0f 92 c0             	setb   %al
  40cdcb:	84 c0                	test   %al,%al
  40cdcd:	74 05                	je     40cdd4 <_ZN9__gnu_cxx13new_allocatorISt4pairISt6threadbEE8allocateEmPKv+0x30>
  40cdcf:	e8 9c 5e ff ff       	callq  402c70 <_ZSt17__throw_bad_allocv@plt>
  40cdd4:	48 8b 45 f0          	mov    -0x10(%rbp),%rax
  40cdd8:	48 c1 e0 04          	shl    $0x4,%rax
  40cddc:	48 89 c7             	mov    %rax,%rdi
  40cddf:	e8 cc 60 ff ff       	callq  402eb0 <_Znwm@plt>
  40cde4:	c9                   	leaveq 
  40cde5:	c3                   	retq   

000000000040cde6 <_ZNSt13move_iteratorIPSt4pairISt6threadbEEC1ES3_>:
  40cde6:	55                   	push   %rbp
  40cde7:	48 89 e5             	mov    %rsp,%rbp
  40cdea:	48 89 7d f8          	mov    %rdi,-0x8(%rbp)
  40cdee:	48 89 75 f0          	mov    %rsi,-0x10(%rbp)
  40cdf2:	48 8b 45 f8          	mov    -0x8(%rbp),%rax
  40cdf6:	48 8b 55 f0          	mov    -0x10(%rbp),%rdx
  40cdfa:	48 89 10             	mov    %rdx,(%rax)
  40cdfd:	90                   	nop
  40cdfe:	5d                   	pop    %rbp
  40cdff:	c3                   	retq   

000000000040ce00 <_ZSt18uninitialized_copyISt13move_iteratorIPSt4pairISt6threadbEES4_ET0_T_S7_S6_>:
  40ce00:	55                   	push   %rbp
  40ce01:	48 89 e5             	mov    %rsp,%rbp
  40ce04:	48 83 ec 30          	sub    $0x30,%rsp
  40ce08:	48 89 7d e8          	mov    %rdi,-0x18(%rbp)
  40ce0c:	48 89 75 e0          	mov    %rsi,-0x20(%rbp)
  40ce10:	48 89 55 d8          	mov    %rdx,-0x28(%rbp)
  40ce14:	c6 45 ff 01          	movb   $0x1,-0x1(%rbp)
  40ce18:	48 8b 55 d8          	mov    -0x28(%rbp),%rdx
  40ce1c:	48 8b 4d e0          	mov    -0x20(%rbp),%rcx
  40ce20:	48 8b 45 e8          	mov    -0x18(%rbp),%rax
  40ce24:	48 89 ce             	mov    %rcx,%rsi
  40ce27:	48 89 c7             	mov    %rax,%rdi
  40ce2a:	e8 55 05 00 00       	callq  40d384 <_ZNSt20__uninitialized_copyILb0EE13__uninit_copyISt13move_iteratorIPSt4pairISt6threadbEES6_EET0_T_S9_S8_>
  40ce2f:	c9                   	leaveq 
  40ce30:	c3                   	retq   

000000000040ce31 <_ZSt12__niter_baseIPSt4pairISt6threadbESt6vectorIS2_SaIS2_EEET_N9__gnu_cxx17__normal_iteratorIS7_T0_EE>:
  40ce31:	55                   	push   %rbp
  40ce32:	48 89 e5             	mov    %rsp,%rbp
  40ce35:	48 83 ec 10          	sub    $0x10,%rsp
  40ce39:	48 89 7d f8          	mov    %rdi,-0x8(%rbp)
  40ce3d:	48 8d 45 f8          	lea    -0x8(%rbp),%rax
  40ce41:	48 89 c7             	mov    %rax,%rdi
  40ce44:	e8 87 e3 ff ff       	callq  40b1d0 <_ZNK9__gnu_cxx17__normal_iteratorIPSt4pairISt6threadbESt6vectorIS3_SaIS3_EEE4baseEv>
  40ce49:	48 8b 00             	mov    (%rax),%rax
  40ce4c:	c9                   	leaveq 
  40ce4d:	c3                   	retq   

000000000040ce4e <_ZSt13__copy_move_aILb1EPSt4pairISt6threadbES3_ET1_T0_S5_S4_>:
  40ce4e:	55                   	push   %rbp
  40ce4f:	48 89 e5             	mov    %rsp,%rbp
  40ce52:	48 83 ec 30          	sub    $0x30,%rsp
  40ce56:	48 89 7d e8          	mov    %rdi,-0x18(%rbp)
  40ce5a:	48 89 75 e0          	mov    %rsi,-0x20(%rbp)
  40ce5e:	48 89 55 d8          	mov    %rdx,-0x28(%rbp)
  40ce62:	c6 45 ff 00          	movb   $0x0,-0x1(%rbp)
  40ce66:	48 8b 55 d8          	mov    -0x28(%rbp),%rdx
  40ce6a:	48 8b 4d e0          	mov    -0x20(%rbp),%rcx
  40ce6e:	48 8b 45 e8          	mov    -0x18(%rbp),%rax
  40ce72:	48 89 ce             	mov    %rcx,%rsi
  40ce75:	48 89 c7             	mov    %rax,%rdi
  40ce78:	e8 b4 05 00 00       	callq  40d431 <_ZNSt11__copy_moveILb1ELb0ESt26random_access_iterator_tagE8__copy_mIPSt4pairISt6threadbES6_EET0_T_S8_S7_>
  40ce7d:	c9                   	leaveq 
  40ce7e:	c3                   	retq   

000000000040ce7f <_ZNSt10_Head_baseILm0ERKNSt7__cxx1112basic_stringIcSt11char_traitsIcESaIcEEELb0EE7_M_headERS8_>:
  40ce7f:	55                   	push   %rbp
  40ce80:	48 89 e5             	mov    %rsp,%rbp
  40ce83:	48 89 7d f8          	mov    %rdi,-0x8(%rbp)
  40ce87:	48 8b 45 f8          	mov    -0x8(%rbp),%rax
  40ce8b:	48 8b 00             	mov    (%rax),%rax
  40ce8e:	5d                   	pop    %rbp
  40ce8f:	c3                   	retq   

000000000040ce90 <_ZNSt11_Tuple_implILm0EJRKNSt7__cxx1112basic_stringIcSt11char_traitsIcESaIcEEEEE7_M_headERS8_>:
  40ce90:	55                   	push   %rbp
  40ce91:	48 89 e5             	mov    %rsp,%rbp
  40ce94:	48 83 ec 10          	sub    $0x10,%rsp
  40ce98:	48 89 7d f8          	mov    %rdi,-0x8(%rbp)
  40ce9c:	48 8b 45 f8          	mov    -0x8(%rbp),%rax
  40cea0:	48 89 c7             	mov    %rax,%rdi
  40cea3:	e8 d7 ff ff ff       	callq  40ce7f <_ZNSt10_Head_baseILm0ERKNSt7__cxx1112basic_stringIcSt11char_traitsIcESaIcEEELb0EE7_M_headERS8_>
  40cea8:	c9                   	leaveq 
  40cea9:	c3                   	retq   

000000000040ceaa <_ZSt7forwardIRKNSt7__cxx1112basic_stringIcSt11char_traitsIcESaIcEEEEOT_RNSt16remove_referenceIS8_E4typeE>:
  40ceaa:	55                   	push   %rbp
  40ceab:	48 89 e5             	mov    %rsp,%rbp
  40ceae:	48 89 7d f8          	mov    %rdi,-0x8(%rbp)
  40ceb2:	48 8b 45 f8          	mov    -0x8(%rbp),%rax
  40ceb6:	5d                   	pop    %rbp
  40ceb7:	c3                   	retq   

000000000040ceb8 <_ZNSt11_Tuple_implILm0EJRKNSt7__cxx1112basic_stringIcSt11char_traitsIcESaIcEEEEEC1EOS8_>:
  40ceb8:	55                   	push   %rbp
  40ceb9:	48 89 e5             	mov    %rsp,%rbp
  40cebc:	48 83 ec 10          	sub    $0x10,%rsp
  40cec0:	48 89 7d f8          	mov    %rdi,-0x8(%rbp)
  40cec4:	48 89 75 f0          	mov    %rsi,-0x10(%rbp)
  40cec8:	48 8b 45 f0          	mov    -0x10(%rbp),%rax
  40cecc:	48 89 c7             	mov    %rax,%rdi
  40cecf:	e8 bc ff ff ff       	callq  40ce90 <_ZNSt11_Tuple_implILm0EJRKNSt7__cxx1112basic_stringIcSt11char_traitsIcESaIcEEEEE7_M_headERS8_>
  40ced4:	48 89 c7             	mov    %rax,%rdi
  40ced7:	e8 ce ff ff ff       	callq  40ceaa <_ZSt7forwardIRKNSt7__cxx1112basic_stringIcSt11char_traitsIcESaIcEEEEOT_RNSt16remove_referenceIS8_E4typeE>
  40cedc:	48 89 c2             	mov    %rax,%rdx
  40cedf:	48 8b 45 f8          	mov    -0x8(%rbp),%rax
  40cee3:	48 89 d6             	mov    %rdx,%rsi
  40cee6:	48 89 c7             	mov    %rax,%rdi
  40cee9:	e8 28 d7 ff ff       	callq  40a616 <_ZNSt10_Head_baseILm0ERKNSt7__cxx1112basic_stringIcSt11char_traitsIcESaIcEEELb0EEC1ES7_>
  40ceee:	90                   	nop
  40ceef:	c9                   	leaveq 
  40cef0:	c3                   	retq   
  40cef1:	90                   	nop

000000000040cef2 <_ZNSt5tupleIJRKNSt7__cxx1112basic_stringIcSt11char_traitsIcESaIcEEEEEC1EOS8_>:
  40cef2:	55                   	push   %rbp
  40cef3:	48 89 e5             	mov    %rsp,%rbp
  40cef6:	48 83 ec 10          	sub    $0x10,%rsp
  40cefa:	48 89 7d f8          	mov    %rdi,-0x8(%rbp)
  40cefe:	48 89 75 f0          	mov    %rsi,-0x10(%rbp)
  40cf02:	48 8b 55 f0          	mov    -0x10(%rbp),%rdx
  40cf06:	48 8b 45 f8          	mov    -0x8(%rbp),%rax
  40cf0a:	48 89 d6             	mov    %rdx,%rsi
  40cf0d:	48 89 c7             	mov    %rax,%rdi
  40cf10:	e8 a3 ff ff ff       	callq  40ceb8 <_ZNSt11_Tuple_implILm0EJRKNSt7__cxx1112basic_stringIcSt11char_traitsIcESaIcEEEEEC1EOS8_>
  40cf15:	90                   	nop
  40cf16:	c9                   	leaveq 
  40cf17:	c3                   	retq   

000000000040cf18 <_ZN9__gnu_cxx13new_allocatorISt13_Rb_tree_nodeISt4pairIKNSt7__cxx1112basic_stringIcSt11char_traitsIcESaIcEEES8_EEE9constructISA_JRKSt21piecewise_construct_tSt5tupleIJRS9_EESH_IJEEEEEvPT_DpOT0_>:
  40cf18:	55                   	push   %rbp
  40cf19:	48 89 e5             	mov    %rsp,%rbp
  40cf1c:	41 55                	push   %r13
  40cf1e:	41 54                	push   %r12
  40cf20:	53                   	push   %rbx
  40cf21:	48 83 ec 58          	sub    $0x58,%rsp
  40cf25:	48 89 7d b8          	mov    %rdi,-0x48(%rbp)
  40cf29:	48 89 75 b0          	mov    %rsi,-0x50(%rbp)
  40cf2d:	48 89 55 a8          	mov    %rdx,-0x58(%rbp)
  40cf31:	48 89 4d a0          	mov    %rcx,-0x60(%rbp)
  40cf35:	4c 89 45 98          	mov    %r8,-0x68(%rbp)
  40cf39:	64 48 8b 04 25 28 00 	mov    %fs:0x28,%rax
  40cf40:	00 00 
  40cf42:	48 89 45 d8          	mov    %rax,-0x28(%rbp)
  40cf46:	31 c0                	xor    %eax,%eax
  40cf48:	48 8b 45 a8          	mov    -0x58(%rbp),%rax
  40cf4c:	48 89 c7             	mov    %rax,%rdi
  40cf4f:	e8 17 88 ff ff       	callq  40576b <_ZSt7forwardIRKSt21piecewise_construct_tEOT_RNSt16remove_referenceIS3_E4typeE>
  40cf54:	44 88 65 ce          	mov    %r12b,-0x32(%rbp)
  40cf58:	48 8b 45 a0          	mov    -0x60(%rbp),%rax
  40cf5c:	48 89 c7             	mov    %rax,%rdi
  40cf5f:	e8 21 de ff ff       	callq  40ad85 <_ZSt7forwardISt5tupleIJRKNSt7__cxx1112basic_stringIcSt11char_traitsIcESaIcEEEEEEOT_RNSt16remove_referenceISA_E4typeE>
  40cf64:	48 89 c2             	mov    %rax,%rdx
  40cf67:	48 8d 45 d0          	lea    -0x30(%rbp),%rax
  40cf6b:	48 89 d6             	mov    %rdx,%rsi
  40cf6e:	48 89 c7             	mov    %rax,%rdi
  40cf71:	e8 7c ff ff ff       	callq  40cef2 <_ZNSt5tupleIJRKNSt7__cxx1112basic_stringIcSt11char_traitsIcESaIcEEEEEC1EOS8_>
  40cf76:	4c 8d 6d d0          	lea    -0x30(%rbp),%r13
  40cf7a:	48 8b 45 98          	mov    -0x68(%rbp),%rax
  40cf7e:	48 89 c7             	mov    %rax,%rdi
  40cf81:	e8 01 88 ff ff       	callq  405787 <_ZSt7forwardISt5tupleIJEEEOT_RNSt16remove_referenceIS2_E4typeE>
  40cf86:	88 5d cf             	mov    %bl,-0x31(%rbp)
  40cf89:	4c 8b 65 b0          	mov    -0x50(%rbp),%r12
  40cf8d:	4c 89 e6             	mov    %r12,%rsi
  40cf90:	bf 40 00 00 00       	mov    $0x40,%edi
  40cf95:	e8 99 78 ff ff       	callq  404833 <_ZnwmPv>
  40cf9a:	48 89 c3             	mov    %rax,%rbx
  40cf9d:	48 85 db             	test   %rbx,%rbx
  40cfa0:	74 34                	je     40cfd6 <_ZN9__gnu_cxx13new_allocatorISt13_Rb_tree_nodeISt4pairIKNSt7__cxx1112basic_stringIcSt11char_traitsIcESaIcEEES8_EEE9constructISA_JRKSt21piecewise_construct_tSt5tupleIJRS9_EESH_IJEEEEEvPT_DpOT0_+0xbe>
  40cfa2:	0f b6 45 cf          	movzbl -0x31(%rbp),%eax
  40cfa6:	50                   	push   %rax
  40cfa7:	0f b6 45 ce          	movzbl -0x32(%rbp),%eax
  40cfab:	50                   	push   %rax
  40cfac:	4c 89 ee             	mov    %r13,%rsi
  40cfaf:	48 89 df             	mov    %rbx,%rdi
  40cfb2:	e8 e1 04 00 00       	callq  40d498 <_ZNSt4pairIKNSt7__cxx1112basic_stringIcSt11char_traitsIcESaIcEEES5_EC1IJRS6_EJEEESt21piecewise_construct_tSt5tupleIJDpT_EESB_IJDpT0_EE>
  40cfb7:	48 83 c4 10          	add    $0x10,%rsp
  40cfbb:	eb 19                	jmp    40cfd6 <_ZN9__gnu_cxx13new_allocatorISt13_Rb_tree_nodeISt4pairIKNSt7__cxx1112basic_stringIcSt11char_traitsIcESaIcEEES8_EEE9constructISA_JRKSt21piecewise_construct_tSt5tupleIJRS9_EESH_IJEEEEEvPT_DpOT0_+0xbe>
  40cfbd:	49 89 c5             	mov    %rax,%r13
  40cfc0:	4c 89 e6             	mov    %r12,%rsi
  40cfc3:	48 89 df             	mov    %rbx,%rdi
  40cfc6:	e8 7a 78 ff ff       	callq  404845 <_ZdlPvS_>
  40cfcb:	4c 89 e8             	mov    %r13,%rax
  40cfce:	48 89 c7             	mov    %rax,%rdi
  40cfd1:	e8 1a 61 ff ff       	callq  4030f0 <_Unwind_Resume@plt>
  40cfd6:	90                   	nop
  40cfd7:	48 8b 45 d8          	mov    -0x28(%rbp),%rax
  40cfdb:	64 48 33 04 25 28 00 	xor    %fs:0x28,%rax
  40cfe2:	00 00 
  40cfe4:	74 05                	je     40cfeb <_ZN9__gnu_cxx13new_allocatorISt13_Rb_tree_nodeISt4pairIKNSt7__cxx1112basic_stringIcSt11char_traitsIcESaIcEEES8_EEE9constructISA_JRKSt21piecewise_construct_tSt5tupleIJRS9_EESH_IJEEEEEvPT_DpOT0_+0xd3>
  40cfe6:	e8 55 5f ff ff       	callq  402f40 <__stack_chk_fail@plt>
  40cfeb:	48 8d 65 e8          	lea    -0x18(%rbp),%rsp
  40cfef:	5b                   	pop    %rbx
  40cff0:	41 5c                	pop    %r12
  40cff2:	41 5d                	pop    %r13
  40cff4:	5d                   	pop    %rbp
  40cff5:	c3                   	retq   

000000000040cff6 <_ZNSt13move_iteratorIPhEC1ES0_>:
  40cff6:	55                   	push   %rbp
  40cff7:	48 89 e5             	mov    %rsp,%rbp
  40cffa:	48 89 7d f8          	mov    %rdi,-0x8(%rbp)
  40cffe:	48 89 75 f0          	mov    %rsi,-0x10(%rbp)
  40d002:	48 8b 45 f8          	mov    -0x8(%rbp),%rax
  40d006:	48 8b 55 f0          	mov    -0x10(%rbp),%rdx
  40d00a:	48 89 10             	mov    %rdx,(%rax)
  40d00d:	90                   	nop
  40d00e:	5d                   	pop    %rbp
  40d00f:	c3                   	retq   

000000000040d010 <_ZSt18uninitialized_copyISt13move_iteratorIPhES1_ET0_T_S4_S3_>:
  40d010:	55                   	push   %rbp
  40d011:	48 89 e5             	mov    %rsp,%rbp
  40d014:	48 83 ec 30          	sub    $0x30,%rsp
  40d018:	48 89 7d e8          	mov    %rdi,-0x18(%rbp)
  40d01c:	48 89 75 e0          	mov    %rsi,-0x20(%rbp)
  40d020:	48 89 55 d8          	mov    %rdx,-0x28(%rbp)
  40d024:	c6 45 ff 01          	movb   $0x1,-0x1(%rbp)
  40d028:	48 8b 55 d8          	mov    -0x28(%rbp),%rdx
  40d02c:	48 8b 4d e0          	mov    -0x20(%rbp),%rcx
  40d030:	48 8b 45 e8          	mov    -0x18(%rbp),%rax
  40d034:	48 89 ce             	mov    %rcx,%rsi
  40d037:	48 89 c7             	mov    %rax,%rdi
  40d03a:	e8 ae 04 00 00       	callq  40d4ed <_ZNSt20__uninitialized_copyILb1EE13__uninit_copyISt13move_iteratorIPhES3_EET0_T_S6_S5_>
  40d03f:	c9                   	leaveq 
  40d040:	c3                   	retq   

000000000040d041 <_ZSt12__niter_baseIPhET_S1_>:
  40d041:	55                   	push   %rbp
  40d042:	48 89 e5             	mov    %rsp,%rbp
  40d045:	48 89 7d f8          	mov    %rdi,-0x8(%rbp)
  40d049:	48 8b 45 f8          	mov    -0x8(%rbp),%rax
  40d04d:	5d                   	pop    %rbp
  40d04e:	c3                   	retq   

000000000040d04f <_ZSt22__copy_move_backward_aILb1EPhS0_ET1_T0_S2_S1_>:
  40d04f:	55                   	push   %rbp
  40d050:	48 89 e5             	mov    %rsp,%rbp
  40d053:	48 83 ec 30          	sub    $0x30,%rsp
  40d057:	48 89 7d e8          	mov    %rdi,-0x18(%rbp)
  40d05b:	48 89 75 e0          	mov    %rsi,-0x20(%rbp)
  40d05f:	48 89 55 d8          	mov    %rdx,-0x28(%rbp)
  40d063:	c6 45 ff 01          	movb   $0x1,-0x1(%rbp)
  40d067:	48 8b 55 d8          	mov    -0x28(%rbp),%rdx
  40d06b:	48 8b 4d e0          	mov    -0x20(%rbp),%rcx
  40d06f:	48 8b 45 e8          	mov    -0x18(%rbp),%rax
  40d073:	48 89 ce             	mov    %rcx,%rsi
  40d076:	48 89 c7             	mov    %rax,%rdi
  40d079:	e8 9c 04 00 00       	callq  40d51a <_ZNSt20__copy_move_backwardILb1ELb1ESt26random_access_iterator_tagE13__copy_move_bIhEEPT_PKS3_S6_S4_>
  40d07e:	c9                   	leaveq 
  40d07f:	c3                   	retq   

000000000040d080 <_ZSt12__niter_baseIPKcET_S2_>:
  40d080:	55                   	push   %rbp
  40d081:	48 89 e5             	mov    %rsp,%rbp
  40d084:	48 89 7d f8          	mov    %rdi,-0x8(%rbp)
  40d088:	48 8b 45 f8          	mov    -0x8(%rbp),%rax
  40d08c:	5d                   	pop    %rbp
  40d08d:	c3                   	retq   

000000000040d08e <_ZSt12__niter_baseIPhSt6vectorIhSaIhEEET_N9__gnu_cxx17__normal_iteratorIS4_T0_EE>:
  40d08e:	55                   	push   %rbp
  40d08f:	48 89 e5             	mov    %rsp,%rbp
  40d092:	48 83 ec 10          	sub    $0x10,%rsp
  40d096:	48 89 7d f8          	mov    %rdi,-0x8(%rbp)
  40d09a:	48 8d 45 f8          	lea    -0x8(%rbp),%rax
  40d09e:	48 89 c7             	mov    %rax,%rdi
  40d0a1:	e8 46 de ff ff       	callq  40aeec <_ZNK9__gnu_cxx17__normal_iteratorIPhSt6vectorIhSaIhEEE4baseEv>
  40d0a6:	48 8b 00             	mov    (%rax),%rax
  40d0a9:	c9                   	leaveq 
  40d0aa:	c3                   	retq   

000000000040d0ab <_ZSt13__copy_move_aILb0EPKcPhET1_T0_S4_S3_>:
  40d0ab:	55                   	push   %rbp
  40d0ac:	48 89 e5             	mov    %rsp,%rbp
  40d0af:	48 83 ec 30          	sub    $0x30,%rsp
  40d0b3:	48 89 7d e8          	mov    %rdi,-0x18(%rbp)
  40d0b7:	48 89 75 e0          	mov    %rsi,-0x20(%rbp)
  40d0bb:	48 89 55 d8          	mov    %rdx,-0x28(%rbp)
  40d0bf:	c6 45 ff 00          	movb   $0x0,-0x1(%rbp)
  40d0c3:	48 8b 55 d8          	mov    -0x28(%rbp),%rdx
  40d0c7:	48 8b 4d e0          	mov    -0x20(%rbp),%rcx
  40d0cb:	48 8b 45 e8          	mov    -0x18(%rbp),%rax
  40d0cf:	48 89 ce             	mov    %rcx,%rsi
  40d0d2:	48 89 c7             	mov    %rax,%rdi
  40d0d5:	e8 a4 04 00 00       	callq  40d57e <_ZNSt11__copy_moveILb0ELb0ESt26random_access_iterator_tagE8__copy_mIPKcPhEET0_T_S7_S6_>
  40d0da:	c9                   	leaveq 
  40d0db:	c3                   	retq   

000000000040d0dc <_ZNSt20__uninitialized_copyILb1EE13__uninit_copyIPKcPhEET0_T_S6_S5_>:
  40d0dc:	55                   	push   %rbp
  40d0dd:	48 89 e5             	mov    %rsp,%rbp
  40d0e0:	48 83 ec 20          	sub    $0x20,%rsp
  40d0e4:	48 89 7d f8          	mov    %rdi,-0x8(%rbp)
  40d0e8:	48 89 75 f0          	mov    %rsi,-0x10(%rbp)
  40d0ec:	48 89 55 e8          	mov    %rdx,-0x18(%rbp)
  40d0f0:	48 8b 55 e8          	mov    -0x18(%rbp),%rdx
  40d0f4:	48 8b 4d f0          	mov    -0x10(%rbp),%rcx
  40d0f8:	48 8b 45 f8          	mov    -0x8(%rbp),%rax
  40d0fc:	48 89 ce             	mov    %rcx,%rsi
  40d0ff:	48 89 c7             	mov    %rax,%rdi
  40d102:	e8 c6 04 00 00       	callq  40d5cd <_ZSt4copyIPKcPhET0_T_S4_S3_>
  40d107:	c9                   	leaveq 
  40d108:	c3                   	retq   

000000000040d109 <_ZNSt16allocator_traitsISaIhEE8max_sizeERKS0_>:
  40d109:	55                   	push   %rbp
  40d10a:	48 89 e5             	mov    %rsp,%rbp
  40d10d:	48 83 ec 10          	sub    $0x10,%rsp
  40d111:	48 89 7d f8          	mov    %rdi,-0x8(%rbp)
  40d115:	48 8b 45 f8          	mov    -0x8(%rbp),%rax
  40d119:	48 89 c7             	mov    %rax,%rdi
  40d11c:	e8 f9 04 00 00       	callq  40d61a <_ZNK9__gnu_cxx13new_allocatorIhE8max_sizeEv>
  40d121:	c9                   	leaveq 
  40d122:	c3                   	retq   
  40d123:	90                   	nop

000000000040d124 <_ZNKSt12_Vector_baseIhSaIhEE19_M_get_Tp_allocatorEv>:
  40d124:	55                   	push   %rbp
  40d125:	48 89 e5             	mov    %rsp,%rbp
  40d128:	48 89 7d f8          	mov    %rdi,-0x8(%rbp)
  40d12c:	48 8b 45 f8          	mov    -0x8(%rbp),%rax
  40d130:	5d                   	pop    %rbp
  40d131:	c3                   	retq   

000000000040d132 <_ZN9__gnu_cxx13new_allocatorIhE8allocateEmPKv>:
  40d132:	55                   	push   %rbp
  40d133:	48 89 e5             	mov    %rsp,%rbp
  40d136:	48 83 ec 20          	sub    $0x20,%rsp
  40d13a:	48 89 7d f8          	mov    %rdi,-0x8(%rbp)
  40d13e:	48 89 75 f0          	mov    %rsi,-0x10(%rbp)
  40d142:	48 89 55 e8          	mov    %rdx,-0x18(%rbp)
  40d146:	48 8b 45 f8          	mov    -0x8(%rbp),%rax
  40d14a:	48 89 c7             	mov    %rax,%rdi
  40d14d:	e8 c8 04 00 00       	callq  40d61a <_ZNK9__gnu_cxx13new_allocatorIhE8max_sizeEv>
  40d152:	48 3b 45 f0          	cmp    -0x10(%rbp),%rax
  40d156:	0f 92 c0             	setb   %al
  40d159:	84 c0                	test   %al,%al
  40d15b:	74 05                	je     40d162 <_ZN9__gnu_cxx13new_allocatorIhE8allocateEmPKv+0x30>
  40d15d:	e8 0e 5b ff ff       	callq  402c70 <_ZSt17__throw_bad_allocv@plt>
  40d162:	48 8b 45 f0          	mov    -0x10(%rbp),%rax
  40d166:	48 89 c7             	mov    %rax,%rdi
  40d169:	e8 42 5d ff ff       	callq  402eb0 <_Znwm@plt>
  40d16e:	c9                   	leaveq 
  40d16f:	c3                   	retq   

000000000040d170 <_ZSt12__niter_baseIPcET_S1_>:
  40d170:	55                   	push   %rbp
  40d171:	48 89 e5             	mov    %rsp,%rbp
  40d174:	48 89 7d f8          	mov    %rdi,-0x8(%rbp)
  40d178:	48 8b 45 f8          	mov    -0x8(%rbp),%rax
  40d17c:	5d                   	pop    %rbp
  40d17d:	c3                   	retq   

000000000040d17e <_ZSt13__copy_move_aILb0EPcPhET1_T0_S3_S2_>:
  40d17e:	55                   	push   %rbp
  40d17f:	48 89 e5             	mov    %rsp,%rbp
  40d182:	48 83 ec 30          	sub    $0x30,%rsp
  40d186:	48 89 7d e8          	mov    %rdi,-0x18(%rbp)
  40d18a:	48 89 75 e0          	mov    %rsi,-0x20(%rbp)
  40d18e:	48 89 55 d8          	mov    %rdx,-0x28(%rbp)
  40d192:	c6 45 ff 00          	movb   $0x0,-0x1(%rbp)
  40d196:	48 8b 55 d8          	mov    -0x28(%rbp),%rdx
  40d19a:	48 8b 4d e0          	mov    -0x20(%rbp),%rcx
  40d19e:	48 8b 45 e8          	mov    -0x18(%rbp),%rax
  40d1a2:	48 89 ce             	mov    %rcx,%rsi
  40d1a5:	48 89 c7             	mov    %rax,%rdi
  40d1a8:	e8 7e 04 00 00       	callq  40d62b <_ZNSt11__copy_moveILb0ELb0ESt26random_access_iterator_tagE8__copy_mIPcPhEET0_T_S6_S5_>
  40d1ad:	c9                   	leaveq 
  40d1ae:	c3                   	retq   

000000000040d1af <_ZNSt20__uninitialized_copyILb1EE13__uninit_copyIPcPhEET0_T_S5_S4_>:
  40d1af:	55                   	push   %rbp
  40d1b0:	48 89 e5             	mov    %rsp,%rbp
  40d1b3:	48 83 ec 20          	sub    $0x20,%rsp
  40d1b7:	48 89 7d f8          	mov    %rdi,-0x8(%rbp)
  40d1bb:	48 89 75 f0          	mov    %rsi,-0x10(%rbp)
  40d1bf:	48 89 55 e8          	mov    %rdx,-0x18(%rbp)
  40d1c3:	48 8b 55 e8          	mov    -0x18(%rbp),%rdx
  40d1c7:	48 8b 4d f0          	mov    -0x10(%rbp),%rcx
  40d1cb:	48 8b 45 f8          	mov    -0x8(%rbp),%rax
  40d1cf:	48 89 ce             	mov    %rcx,%rsi
  40d1d2:	48 89 c7             	mov    %rax,%rdi
  40d1d5:	e8 a0 04 00 00       	callq  40d67a <_ZSt4copyIPcPhET0_T_S3_S2_>
  40d1da:	c9                   	leaveq 
  40d1db:	c3                   	retq   

000000000040d1dc <_ZNSt6thread6_StateC1Ev>:
  40d1dc:	55                   	push   %rbp
  40d1dd:	48 89 e5             	mov    %rsp,%rbp
  40d1e0:	48 89 7d f8          	mov    %rdi,-0x8(%rbp)
  40d1e4:	ba 80 43 61 00       	mov    $0x614380,%edx
  40d1e9:	48 8b 45 f8          	mov    -0x8(%rbp),%rax
  40d1ed:	48 89 10             	mov    %rdx,(%rax)
  40d1f0:	90                   	nop
  40d1f1:	5d                   	pop    %rbp
  40d1f2:	c3                   	retq   
  40d1f3:	90                   	nop

000000000040d1f4 <_ZNSt14default_deleteINSt6thread6_StateEEC1Ev>:
  40d1f4:	55                   	push   %rbp
  40d1f5:	48 89 e5             	mov    %rsp,%rbp
  40d1f8:	48 89 7d f8          	mov    %rdi,-0x8(%rbp)
  40d1fc:	90                   	nop
  40d1fd:	5d                   	pop    %rbp
  40d1fe:	c3                   	retq   
  40d1ff:	90                   	nop

000000000040d200 <_ZNSt10_Head_baseILm1ESt14default_deleteINSt6thread6_StateEELb1EEC1Ev>:
  40d200:	55                   	push   %rbp
  40d201:	48 89 e5             	mov    %rsp,%rbp
  40d204:	48 83 ec 10          	sub    $0x10,%rsp
  40d208:	48 89 7d f8          	mov    %rdi,-0x8(%rbp)
  40d20c:	48 8b 45 f8          	mov    -0x8(%rbp),%rax
  40d210:	48 89 c7             	mov    %rax,%rdi
  40d213:	e8 dc ff ff ff       	callq  40d1f4 <_ZNSt14default_deleteINSt6thread6_StateEEC1Ev>
  40d218:	90                   	nop
  40d219:	c9                   	leaveq 
  40d21a:	c3                   	retq   
  40d21b:	90                   	nop

000000000040d21c <_ZNSt11_Tuple_implILm1EJSt14default_deleteINSt6thread6_StateEEEEC1Ev>:
  40d21c:	55                   	push   %rbp
  40d21d:	48 89 e5             	mov    %rsp,%rbp
  40d220:	48 83 ec 10          	sub    $0x10,%rsp
  40d224:	48 89 7d f8          	mov    %rdi,-0x8(%rbp)
  40d228:	48 8b 45 f8          	mov    -0x8(%rbp),%rax
  40d22c:	48 89 c7             	mov    %rax,%rdi
  40d22f:	e8 cc ff ff ff       	callq  40d200 <_ZNSt10_Head_baseILm1ESt14default_deleteINSt6thread6_StateEELb1EEC1Ev>
  40d234:	90                   	nop
  40d235:	c9                   	leaveq 
  40d236:	c3                   	retq   
  40d237:	90                   	nop

000000000040d238 <_ZNSt10_Head_baseILm0EPNSt6thread6_StateELb0EEC1Ev>:
  40d238:	55                   	push   %rbp
  40d239:	48 89 e5             	mov    %rsp,%rbp
  40d23c:	48 89 7d f8          	mov    %rdi,-0x8(%rbp)
  40d240:	48 8b 45 f8          	mov    -0x8(%rbp),%rax
  40d244:	48 c7 00 00 00 00 00 	movq   $0x0,(%rax)
  40d24b:	90                   	nop
  40d24c:	5d                   	pop    %rbp
  40d24d:	c3                   	retq   

000000000040d24e <_ZNSt11_Tuple_implILm0EJPNSt6thread6_StateESt14default_deleteIS1_EEEC1Ev>:
  40d24e:	55                   	push   %rbp
  40d24f:	48 89 e5             	mov    %rsp,%rbp
  40d252:	48 83 ec 10          	sub    $0x10,%rsp
  40d256:	48 89 7d f8          	mov    %rdi,-0x8(%rbp)
  40d25a:	48 8b 45 f8          	mov    -0x8(%rbp),%rax
  40d25e:	48 89 c7             	mov    %rax,%rdi
  40d261:	e8 b6 ff ff ff       	callq  40d21c <_ZNSt11_Tuple_implILm1EJSt14default_deleteINSt6thread6_StateEEEEC1Ev>
  40d266:	48 8b 45 f8          	mov    -0x8(%rbp),%rax
  40d26a:	48 89 c7             	mov    %rax,%rdi
  40d26d:	e8 c6 ff ff ff       	callq  40d238 <_ZNSt10_Head_baseILm0EPNSt6thread6_StateELb0EEC1Ev>
  40d272:	90                   	nop
  40d273:	c9                   	leaveq 
  40d274:	c3                   	retq   
  40d275:	90                   	nop

000000000040d276 <_ZNSt5tupleIJPNSt6thread6_StateESt14default_deleteIS1_EEEC1IS2_S4_Lb1EEEv>:
  40d276:	55                   	push   %rbp
  40d277:	48 89 e5             	mov    %rsp,%rbp
  40d27a:	48 83 ec 10          	sub    $0x10,%rsp
  40d27e:	48 89 7d f8          	mov    %rdi,-0x8(%rbp)
  40d282:	48 8b 45 f8          	mov    -0x8(%rbp),%rax
  40d286:	48 89 c7             	mov    %rax,%rdi
  40d289:	e8 c0 ff ff ff       	callq  40d24e <_ZNSt11_Tuple_implILm0EJPNSt6thread6_StateESt14default_deleteIS1_EEEC1Ev>
  40d28e:	90                   	nop
  40d28f:	c9                   	leaveq 
  40d290:	c3                   	retq   
  40d291:	90                   	nop

000000000040d292 <_ZNSt10unique_ptrINSt6thread6_StateESt14default_deleteIS1_EEC1EPS1_>:
  40d292:	55                   	push   %rbp
  40d293:	48 89 e5             	mov    %rsp,%rbp
  40d296:	48 83 ec 10          	sub    $0x10,%rsp
  40d29a:	48 89 7d f8          	mov    %rdi,-0x8(%rbp)
  40d29e:	48 89 75 f0          	mov    %rsi,-0x10(%rbp)
  40d2a2:	48 8b 45 f8          	mov    -0x8(%rbp),%rax
  40d2a6:	48 89 c7             	mov    %rax,%rdi
  40d2a9:	e8 c8 ff ff ff       	callq  40d276 <_ZNSt5tupleIJPNSt6thread6_StateESt14default_deleteIS1_EEEC1IS2_S4_Lb1EEEv>
  40d2ae:	48 8b 45 f8          	mov    -0x8(%rbp),%rax
  40d2b2:	48 89 c7             	mov    %rax,%rdi
  40d2b5:	e8 4e fa ff ff       	callq  40cd08 <_ZSt3getILm0EJPNSt6thread6_StateESt14default_deleteIS1_EEERNSt13tuple_elementIXT_ESt5tupleIJDpT0_EEE4typeERS9_>
  40d2ba:	48 89 c2             	mov    %rax,%rdx
  40d2bd:	48 8b 45 f0          	mov    -0x10(%rbp),%rax
  40d2c1:	48 89 02             	mov    %rax,(%rdx)
  40d2c4:	90                   	nop
  40d2c5:	c9                   	leaveq 
  40d2c6:	c3                   	retq   

000000000040d2c7 <_ZNSt10_Head_baseILm1ESt14default_deleteINSt6thread6_StateEELb1EE7_M_headERS4_>:
  40d2c7:	55                   	push   %rbp
  40d2c8:	48 89 e5             	mov    %rsp,%rbp
  40d2cb:	48 89 7d f8          	mov    %rdi,-0x8(%rbp)
  40d2cf:	48 8b 45 f8          	mov    -0x8(%rbp),%rax
  40d2d3:	5d                   	pop    %rbp
  40d2d4:	c3                   	retq   

000000000040d2d5 <_ZNSt11_Tuple_implILm1EJSt14default_deleteINSt6thread6_StateEEEE7_M_headERS4_>:
  40d2d5:	55                   	push   %rbp
  40d2d6:	48 89 e5             	mov    %rsp,%rbp
  40d2d9:	48 83 ec 10          	sub    $0x10,%rsp
  40d2dd:	48 89 7d f8          	mov    %rdi,-0x8(%rbp)
  40d2e1:	48 8b 45 f8          	mov    -0x8(%rbp),%rax
  40d2e5:	48 89 c7             	mov    %rax,%rdi
  40d2e8:	e8 da ff ff ff       	callq  40d2c7 <_ZNSt10_Head_baseILm1ESt14default_deleteINSt6thread6_StateEELb1EE7_M_headERS4_>
  40d2ed:	c9                   	leaveq 
  40d2ee:	c3                   	retq   

000000000040d2ef <_ZSt12__get_helperILm1ESt14default_deleteINSt6thread6_StateEEJEERT0_RSt11_Tuple_implIXT_EJS4_DpT1_EE>:
  40d2ef:	55                   	push   %rbp
  40d2f0:	48 89 e5             	mov    %rsp,%rbp
  40d2f3:	48 83 ec 10          	sub    $0x10,%rsp
  40d2f7:	48 89 7d f8          	mov    %rdi,-0x8(%rbp)
  40d2fb:	48 8b 45 f8          	mov    -0x8(%rbp),%rax
  40d2ff:	48 89 c7             	mov    %rax,%rdi
  40d302:	e8 ce ff ff ff       	callq  40d2d5 <_ZNSt11_Tuple_implILm1EJSt14default_deleteINSt6thread6_StateEEEE7_M_headERS4_>
  40d307:	c9                   	leaveq 
  40d308:	c3                   	retq   

000000000040d309 <_ZSt3getILm1EJPNSt6thread6_StateESt14default_deleteIS1_EEERNSt13tuple_elementIXT_ESt5tupleIJDpT0_EEE4typeERS9_>:
  40d309:	55                   	push   %rbp
  40d30a:	48 89 e5             	mov    %rsp,%rbp
  40d30d:	48 83 ec 10          	sub    $0x10,%rsp
  40d311:	48 89 7d f8          	mov    %rdi,-0x8(%rbp)
  40d315:	48 8b 45 f8          	mov    -0x8(%rbp),%rax
  40d319:	48 89 c7             	mov    %rax,%rdi
  40d31c:	e8 ce ff ff ff       	callq  40d2ef <_ZSt12__get_helperILm1ESt14default_deleteINSt6thread6_StateEEJEERT0_RSt11_Tuple_implIXT_EJS4_DpT1_EE>
  40d321:	c9                   	leaveq 
  40d322:	c3                   	retq   
  40d323:	90                   	nop

000000000040d324 <_ZNSt10unique_ptrINSt6thread6_StateESt14default_deleteIS1_EE11get_deleterEv>:
  40d324:	55                   	push   %rbp
  40d325:	48 89 e5             	mov    %rsp,%rbp
  40d328:	48 83 ec 10          	sub    $0x10,%rsp
  40d32c:	48 89 7d f8          	mov    %rdi,-0x8(%rbp)
  40d330:	48 8b 45 f8          	mov    -0x8(%rbp),%rax
  40d334:	48 89 c7             	mov    %rax,%rdi
  40d337:	e8 cd ff ff ff       	callq  40d309 <_ZSt3getILm1EJPNSt6thread6_StateESt14default_deleteIS1_EEERNSt13tuple_elementIXT_ESt5tupleIJDpT0_EEE4typeERS9_>
  40d33c:	c9                   	leaveq 
  40d33d:	c3                   	retq   

000000000040d33e <_ZNKSt14default_deleteINSt6thread6_StateEEclEPS1_>:
  40d33e:	55                   	push   %rbp
  40d33f:	48 89 e5             	mov    %rsp,%rbp
  40d342:	48 83 ec 10          	sub    $0x10,%rsp
  40d346:	48 89 7d f8          	mov    %rdi,-0x8(%rbp)
  40d34a:	48 89 75 f0          	mov    %rsi,-0x10(%rbp)
  40d34e:	48 83 7d f0 00       	cmpq   $0x0,-0x10(%rbp)
  40d353:	74 17                	je     40d36c <_ZNKSt14default_deleteINSt6thread6_StateEEclEPS1_+0x2e>
  40d355:	48 8b 45 f0          	mov    -0x10(%rbp),%rax
  40d359:	48 8b 00             	mov    (%rax),%rax
  40d35c:	48 83 c0 08          	add    $0x8,%rax
  40d360:	48 8b 00             	mov    (%rax),%rax
  40d363:	48 8b 55 f0          	mov    -0x10(%rbp),%rdx
  40d367:	48 89 d7             	mov    %rdx,%rdi
  40d36a:	ff d0                	callq  *%rax
  40d36c:	90                   	nop
  40d36d:	c9                   	leaveq 
  40d36e:	c3                   	retq   
  40d36f:	90                   	nop

000000000040d370 <_ZNK9__gnu_cxx13new_allocatorISt4pairISt6threadbEE8max_sizeEv>:
  40d370:	55                   	push   %rbp
  40d371:	48 89 e5             	mov    %rsp,%rbp
  40d374:	48 89 7d f8          	mov    %rdi,-0x8(%rbp)
  40d378:	48 b8 ff ff ff ff ff 	movabs $0xfffffffffffffff,%rax
  40d37f:	ff ff 0f 
  40d382:	5d                   	pop    %rbp
  40d383:	c3                   	retq   

000000000040d384 <_ZNSt20__uninitialized_copyILb0EE13__uninit_copyISt13move_iteratorIPSt4pairISt6threadbEES6_EET0_T_S9_S8_>:
  40d384:	55                   	push   %rbp
  40d385:	48 89 e5             	mov    %rsp,%rbp
  40d388:	53                   	push   %rbx
  40d389:	48 83 ec 38          	sub    $0x38,%rsp
  40d38d:	48 89 7d d8          	mov    %rdi,-0x28(%rbp)
  40d391:	48 89 75 d0          	mov    %rsi,-0x30(%rbp)
  40d395:	48 89 55 c8          	mov    %rdx,-0x38(%rbp)
  40d399:	48 8b 45 c8          	mov    -0x38(%rbp),%rax
  40d39d:	48 89 45 e8          	mov    %rax,-0x18(%rbp)
  40d3a1:	48 8d 55 d0          	lea    -0x30(%rbp),%rdx
  40d3a5:	48 8d 45 d8          	lea    -0x28(%rbp),%rax
  40d3a9:	48 89 d6             	mov    %rdx,%rsi
  40d3ac:	48 89 c7             	mov    %rax,%rdi
  40d3af:	e8 12 03 00 00       	callq  40d6c6 <_ZStneIPSt4pairISt6threadbEEbRKSt13move_iteratorIT_ES8_>
  40d3b4:	84 c0                	test   %al,%al
  40d3b6:	74 39                	je     40d3f1 <_ZNSt20__uninitialized_copyILb0EE13__uninit_copyISt13move_iteratorIPSt4pairISt6threadbEES6_EET0_T_S9_S8_+0x6d>
  40d3b8:	48 8d 45 d8          	lea    -0x28(%rbp),%rax
  40d3bc:	48 89 c7             	mov    %rax,%rdi
  40d3bf:	e8 4a 03 00 00       	callq  40d70e <_ZNKSt13move_iteratorIPSt4pairISt6threadbEEdeEv>
  40d3c4:	48 89 c3             	mov    %rax,%rbx
  40d3c7:	48 8b 45 e8          	mov    -0x18(%rbp),%rax
  40d3cb:	48 89 c7             	mov    %rax,%rdi
  40d3ce:	e8 ca f8 ff ff       	callq  40cc9d <_ZSt11__addressofISt4pairISt6threadbEEPT_RS3_>
  40d3d3:	48 89 de             	mov    %rbx,%rsi
  40d3d6:	48 89 c7             	mov    %rax,%rdi
  40d3d9:	e8 85 03 00 00       	callq  40d763 <_ZSt10_ConstructISt4pairISt6threadbEJS2_EEvPT_DpOT0_>
  40d3de:	48 8d 45 d8          	lea    -0x28(%rbp),%rax
  40d3e2:	48 89 c7             	mov    %rax,%rdi
  40d3e5:	e8 04 03 00 00       	callq  40d6ee <_ZNSt13move_iteratorIPSt4pairISt6threadbEEppEv>
  40d3ea:	48 83 45 e8 10       	addq   $0x10,-0x18(%rbp)
  40d3ef:	eb b0                	jmp    40d3a1 <_ZNSt20__uninitialized_copyILb0EE13__uninit_copyISt13move_iteratorIPSt4pairISt6threadbEES6_EET0_T_S9_S8_+0x1d>
  40d3f1:	48 8b 45 e8          	mov    -0x18(%rbp),%rax
  40d3f5:	eb 33                	jmp    40d42a <_ZNSt20__uninitialized_copyILb0EE13__uninit_copyISt13move_iteratorIPSt4pairISt6threadbEES6_EET0_T_S9_S8_+0xa6>
  40d3f7:	48 89 c7             	mov    %rax,%rdi
  40d3fa:	e8 91 58 ff ff       	callq  402c90 <__cxa_begin_catch@plt>
  40d3ff:	48 8b 55 e8          	mov    -0x18(%rbp),%rdx
  40d403:	48 8b 45 c8          	mov    -0x38(%rbp),%rax
  40d407:	48 89 d6             	mov    %rdx,%rsi
  40d40a:	48 89 c7             	mov    %rax,%rdi
  40d40d:	e8 19 e9 ff ff       	callq  40bd2b <_ZSt8_DestroyIPSt4pairISt6threadbEEvT_S4_>
  40d412:	e8 c9 5b ff ff       	callq  402fe0 <__cxa_rethrow@plt>
  40d417:	48 89 c3             	mov    %rax,%rbx
  40d41a:	e8 51 5c ff ff       	callq  403070 <__cxa_end_catch@plt>
  40d41f:	48 89 d8             	mov    %rbx,%rax
  40d422:	48 89 c7             	mov    %rax,%rdi
  40d425:	e8 c6 5c ff ff       	callq  4030f0 <_Unwind_Resume@plt>
  40d42a:	48 83 c4 38          	add    $0x38,%rsp
  40d42e:	5b                   	pop    %rbx
  40d42f:	5d                   	pop    %rbp
  40d430:	c3                   	retq   

000000000040d431 <_ZNSt11__copy_moveILb1ELb0ESt26random_access_iterator_tagE8__copy_mIPSt4pairISt6threadbES6_EET0_T_S8_S7_>:
  40d431:	55                   	push   %rbp
  40d432:	48 89 e5             	mov    %rsp,%rbp
  40d435:	48 83 ec 30          	sub    $0x30,%rsp
  40d439:	48 89 7d e8          	mov    %rdi,-0x18(%rbp)
  40d43d:	48 89 75 e0          	mov    %rsi,-0x20(%rbp)
  40d441:	48 89 55 d8          	mov    %rdx,-0x28(%rbp)
  40d445:	48 8b 55 e0          	mov    -0x20(%rbp),%rdx
  40d449:	48 8b 45 e8          	mov    -0x18(%rbp),%rax
  40d44d:	48 29 c2             	sub    %rax,%rdx
  40d450:	48 89 d0             	mov    %rdx,%rax
  40d453:	48 c1 f8 04          	sar    $0x4,%rax
  40d457:	48 89 45 f8          	mov    %rax,-0x8(%rbp)
  40d45b:	48 83 7d f8 00       	cmpq   $0x0,-0x8(%rbp)
  40d460:	7e 2f                	jle    40d491 <_ZNSt11__copy_moveILb1ELb0ESt26random_access_iterator_tagE8__copy_mIPSt4pairISt6threadbES6_EET0_T_S8_S7_+0x60>
  40d462:	48 8b 45 e8          	mov    -0x18(%rbp),%rax
  40d466:	48 89 c7             	mov    %rax,%rdi
  40d469:	e8 70 dd ff ff       	callq  40b1de <_ZSt4moveIRSt4pairISt6threadbEEONSt16remove_referenceIT_E4typeEOS5_>
  40d46e:	48 89 c2             	mov    %rax,%rdx
  40d471:	48 8b 45 d8          	mov    -0x28(%rbp),%rax
  40d475:	48 89 d6             	mov    %rdx,%rsi
  40d478:	48 89 c7             	mov    %rax,%rdi
  40d47b:	e8 06 eb ff ff       	callq  40bf86 <_ZNSt4pairISt6threadbEaSEOS1_>
  40d480:	48 83 45 e8 10       	addq   $0x10,-0x18(%rbp)
  40d485:	48 83 45 d8 10       	addq   $0x10,-0x28(%rbp)
  40d48a:	48 83 6d f8 01       	subq   $0x1,-0x8(%rbp)
  40d48f:	eb ca                	jmp    40d45b <_ZNSt11__copy_moveILb1ELb0ESt26random_access_iterator_tagE8__copy_mIPSt4pairISt6threadbES6_EET0_T_S8_S7_+0x2a>
  40d491:	48 8b 45 d8          	mov    -0x28(%rbp),%rax
  40d495:	c9                   	leaveq 
  40d496:	c3                   	retq   
  40d497:	90                   	nop

000000000040d498 <_ZNSt4pairIKNSt7__cxx1112basic_stringIcSt11char_traitsIcESaIcEEES5_EC1IJRS6_EJEEESt21piecewise_construct_tSt5tupleIJDpT_EESB_IJDpT0_EE>:
  40d498:	55                   	push   %rbp
  40d499:	48 89 e5             	mov    %rsp,%rbp
  40d49c:	48 83 ec 20          	sub    $0x20,%rsp
  40d4a0:	48 89 7d e8          	mov    %rdi,-0x18(%rbp)
  40d4a4:	48 89 75 e0          	mov    %rsi,-0x20(%rbp)
  40d4a8:	64 48 8b 04 25 28 00 	mov    %fs:0x28,%rax
  40d4af:	00 00 
  40d4b1:	48 89 45 f8          	mov    %rax,-0x8(%rbp)
  40d4b5:	31 c0                	xor    %eax,%eax
  40d4b7:	48 8d 55 18          	lea    0x18(%rbp),%rdx
  40d4bb:	48 8b 4d e0          	mov    -0x20(%rbp),%rcx
  40d4bf:	48 8b 45 e8          	mov    -0x18(%rbp),%rax
  40d4c3:	41 51                	push   %r9
  40d4c5:	41 50                	push   %r8
  40d4c7:	48 89 ce             	mov    %rcx,%rsi
  40d4ca:	48 89 c7             	mov    %rax,%rdi
  40d4cd:	e8 0e 03 00 00       	callq  40d7e0 <_ZNSt4pairIKNSt7__cxx1112basic_stringIcSt11char_traitsIcESaIcEEES5_EC1IJRS6_EJLm0EEJEJEEERSt5tupleIJDpT_EERSA_IJDpT1_EESt12_Index_tupleIJXspT0_EEESJ_IJXspT2_EEE>
  40d4d2:	48 83 c4 10          	add    $0x10,%rsp
  40d4d6:	90                   	nop
  40d4d7:	48 8b 45 f8          	mov    -0x8(%rbp),%rax
  40d4db:	64 48 33 04 25 28 00 	xor    %fs:0x28,%rax
  40d4e2:	00 00 
  40d4e4:	74 05                	je     40d4eb <_ZNSt4pairIKNSt7__cxx1112basic_stringIcSt11char_traitsIcESaIcEEES5_EC1IJRS6_EJEEESt21piecewise_construct_tSt5tupleIJDpT_EESB_IJDpT0_EE+0x53>
  40d4e6:	e8 55 5a ff ff       	callq  402f40 <__stack_chk_fail@plt>
  40d4eb:	c9                   	leaveq 
  40d4ec:	c3                   	retq   

000000000040d4ed <_ZNSt20__uninitialized_copyILb1EE13__uninit_copyISt13move_iteratorIPhES3_EET0_T_S6_S5_>:
  40d4ed:	55                   	push   %rbp
  40d4ee:	48 89 e5             	mov    %rsp,%rbp
  40d4f1:	48 83 ec 20          	sub    $0x20,%rsp
  40d4f5:	48 89 7d f8          	mov    %rdi,-0x8(%rbp)
  40d4f9:	48 89 75 f0          	mov    %rsi,-0x10(%rbp)
  40d4fd:	48 89 55 e8          	mov    %rdx,-0x18(%rbp)
  40d501:	48 8b 55 e8          	mov    -0x18(%rbp),%rdx
  40d505:	48 8b 4d f0          	mov    -0x10(%rbp),%rcx
  40d509:	48 8b 45 f8          	mov    -0x8(%rbp),%rax
  40d50d:	48 89 ce             	mov    %rcx,%rsi
  40d510:	48 89 c7             	mov    %rax,%rdi
  40d513:	e8 15 03 00 00       	callq  40d82d <_ZSt4copyISt13move_iteratorIPhES1_ET0_T_S4_S3_>
  40d518:	c9                   	leaveq 
  40d519:	c3                   	retq   

000000000040d51a <_ZNSt20__copy_move_backwardILb1ELb1ESt26random_access_iterator_tagE13__copy_move_bIhEEPT_PKS3_S6_S4_>:
  40d51a:	55                   	push   %rbp
  40d51b:	48 89 e5             	mov    %rsp,%rbp
  40d51e:	48 83 ec 30          	sub    $0x30,%rsp
  40d522:	48 89 7d e8          	mov    %rdi,-0x18(%rbp)
  40d526:	48 89 75 e0          	mov    %rsi,-0x20(%rbp)
  40d52a:	48 89 55 d8          	mov    %rdx,-0x28(%rbp)
  40d52e:	48 8b 55 e0          	mov    -0x20(%rbp),%rdx
  40d532:	48 8b 45 e8          	mov    -0x18(%rbp),%rax
  40d536:	48 29 c2             	sub    %rax,%rdx
  40d539:	48 89 d0             	mov    %rdx,%rax
  40d53c:	48 89 45 f8          	mov    %rax,-0x8(%rbp)
  40d540:	48 83 7d f8 00       	cmpq   $0x0,-0x8(%rbp)
  40d545:	74 24                	je     40d56b <_ZNSt20__copy_move_backwardILb1ELb1ESt26random_access_iterator_tagE13__copy_move_bIhEEPT_PKS3_S6_S4_+0x51>
  40d547:	48 8b 55 f8          	mov    -0x8(%rbp),%rdx
  40d54b:	48 8b 45 f8          	mov    -0x8(%rbp),%rax
  40d54f:	48 f7 d8             	neg    %rax
  40d552:	48 89 c1             	mov    %rax,%rcx
  40d555:	48 8b 45 d8          	mov    -0x28(%rbp),%rax
  40d559:	48 01 c1             	add    %rax,%rcx
  40d55c:	48 8b 45 e8          	mov    -0x18(%rbp),%rax
  40d560:	48 89 c6             	mov    %rax,%rsi
  40d563:	48 89 cf             	mov    %rcx,%rdi
  40d566:	e8 f5 5a ff ff       	callq  403060 <memmove@plt>
  40d56b:	48 8b 45 f8          	mov    -0x8(%rbp),%rax
  40d56f:	48 f7 d8             	neg    %rax
  40d572:	48 89 c2             	mov    %rax,%rdx
  40d575:	48 8b 45 d8          	mov    -0x28(%rbp),%rax
  40d579:	48 01 d0             	add    %rdx,%rax
  40d57c:	c9                   	leaveq 
  40d57d:	c3                   	retq   

000000000040d57e <_ZNSt11__copy_moveILb0ELb0ESt26random_access_iterator_tagE8__copy_mIPKcPhEET0_T_S7_S6_>:
  40d57e:	55                   	push   %rbp
  40d57f:	48 89 e5             	mov    %rsp,%rbp
  40d582:	48 89 7d e8          	mov    %rdi,-0x18(%rbp)
  40d586:	48 89 75 e0          	mov    %rsi,-0x20(%rbp)
  40d58a:	48 89 55 d8          	mov    %rdx,-0x28(%rbp)
  40d58e:	48 8b 55 e0          	mov    -0x20(%rbp),%rdx
  40d592:	48 8b 45 e8          	mov    -0x18(%rbp),%rax
  40d596:	48 29 c2             	sub    %rax,%rdx
  40d599:	48 89 d0             	mov    %rdx,%rax
  40d59c:	48 89 45 f8          	mov    %rax,-0x8(%rbp)
  40d5a0:	48 83 7d f8 00       	cmpq   $0x0,-0x8(%rbp)
  40d5a5:	7e 20                	jle    40d5c7 <_ZNSt11__copy_moveILb0ELb0ESt26random_access_iterator_tagE8__copy_mIPKcPhEET0_T_S7_S6_+0x49>
  40d5a7:	48 8b 45 e8          	mov    -0x18(%rbp),%rax
  40d5ab:	0f b6 00             	movzbl (%rax),%eax
  40d5ae:	89 c2                	mov    %eax,%edx
  40d5b0:	48 8b 45 d8          	mov    -0x28(%rbp),%rax
  40d5b4:	88 10                	mov    %dl,(%rax)
  40d5b6:	48 83 45 e8 01       	addq   $0x1,-0x18(%rbp)
  40d5bb:	48 83 45 d8 01       	addq   $0x1,-0x28(%rbp)
  40d5c0:	48 83 6d f8 01       	subq   $0x1,-0x8(%rbp)
  40d5c5:	eb d9                	jmp    40d5a0 <_ZNSt11__copy_moveILb0ELb0ESt26random_access_iterator_tagE8__copy_mIPKcPhEET0_T_S7_S6_+0x22>
  40d5c7:	48 8b 45 d8          	mov    -0x28(%rbp),%rax
  40d5cb:	5d                   	pop    %rbp
  40d5cc:	c3                   	retq   

000000000040d5cd <_ZSt4copyIPKcPhET0_T_S4_S3_>:
  40d5cd:	55                   	push   %rbp
  40d5ce:	48 89 e5             	mov    %rsp,%rbp
  40d5d1:	53                   	push   %rbx
  40d5d2:	48 83 ec 28          	sub    $0x28,%rsp
  40d5d6:	48 89 7d e8          	mov    %rdi,-0x18(%rbp)
  40d5da:	48 89 75 e0          	mov    %rsi,-0x20(%rbp)
  40d5de:	48 89 55 d8          	mov    %rdx,-0x28(%rbp)
  40d5e2:	48 8b 45 e0          	mov    -0x20(%rbp),%rax
  40d5e6:	48 89 c7             	mov    %rax,%rdi
  40d5e9:	e8 f8 f3 ff ff       	callq  40c9e6 <_ZSt12__miter_baseIPKcET_S2_>
  40d5ee:	48 89 c3             	mov    %rax,%rbx
  40d5f1:	48 8b 45 e8          	mov    -0x18(%rbp),%rax
  40d5f5:	48 89 c7             	mov    %rax,%rdi
  40d5f8:	e8 e9 f3 ff ff       	callq  40c9e6 <_ZSt12__miter_baseIPKcET_S2_>
  40d5fd:	48 89 c1             	mov    %rax,%rcx
  40d600:	48 8b 45 d8          	mov    -0x28(%rbp),%rax
  40d604:	48 89 c2             	mov    %rax,%rdx
  40d607:	48 89 de             	mov    %rbx,%rsi
  40d60a:	48 89 cf             	mov    %rcx,%rdi
  40d60d:	e8 67 02 00 00       	callq  40d879 <_ZSt14__copy_move_a2ILb0EPKcPhET1_T0_S4_S3_>
  40d612:	48 83 c4 28          	add    $0x28,%rsp
  40d616:	5b                   	pop    %rbx
  40d617:	5d                   	pop    %rbp
  40d618:	c3                   	retq   
  40d619:	90                   	nop

000000000040d61a <_ZNK9__gnu_cxx13new_allocatorIhE8max_sizeEv>:
  40d61a:	55                   	push   %rbp
  40d61b:	48 89 e5             	mov    %rsp,%rbp
  40d61e:	48 89 7d f8          	mov    %rdi,-0x8(%rbp)
  40d622:	48 c7 c0 ff ff ff ff 	mov    $0xffffffffffffffff,%rax
  40d629:	5d                   	pop    %rbp
  40d62a:	c3                   	retq   

000000000040d62b <_ZNSt11__copy_moveILb0ELb0ESt26random_access_iterator_tagE8__copy_mIPcPhEET0_T_S6_S5_>:
  40d62b:	55                   	push   %rbp
  40d62c:	48 89 e5             	mov    %rsp,%rbp
  40d62f:	48 89 7d e8          	mov    %rdi,-0x18(%rbp)
  40d633:	48 89 75 e0          	mov    %rsi,-0x20(%rbp)
  40d637:	48 89 55 d8          	mov    %rdx,-0x28(%rbp)
  40d63b:	48 8b 55 e0          	mov    -0x20(%rbp),%rdx
  40d63f:	48 8b 45 e8          	mov    -0x18(%rbp),%rax
  40d643:	48 29 c2             	sub    %rax,%rdx
  40d646:	48 89 d0             	mov    %rdx,%rax
  40d649:	48 89 45 f8          	mov    %rax,-0x8(%rbp)
  40d64d:	48 83 7d f8 00       	cmpq   $0x0,-0x8(%rbp)
  40d652:	7e 20                	jle    40d674 <_ZNSt11__copy_moveILb0ELb0ESt26random_access_iterator_tagE8__copy_mIPcPhEET0_T_S6_S5_+0x49>
  40d654:	48 8b 45 e8          	mov    -0x18(%rbp),%rax
  40d658:	0f b6 00             	movzbl (%rax),%eax
  40d65b:	89 c2                	mov    %eax,%edx
  40d65d:	48 8b 45 d8          	mov    -0x28(%rbp),%rax
  40d661:	88 10                	mov    %dl,(%rax)
  40d663:	48 83 45 e8 01       	addq   $0x1,-0x18(%rbp)
  40d668:	48 83 45 d8 01       	addq   $0x1,-0x28(%rbp)
  40d66d:	48 83 6d f8 01       	subq   $0x1,-0x8(%rbp)
  40d672:	eb d9                	jmp    40d64d <_ZNSt11__copy_moveILb0ELb0ESt26random_access_iterator_tagE8__copy_mIPcPhEET0_T_S6_S5_+0x22>
  40d674:	48 8b 45 d8          	mov    -0x28(%rbp),%rax
  40d678:	5d                   	pop    %rbp
  40d679:	c3                   	retq   

000000000040d67a <_ZSt4copyIPcPhET0_T_S3_S2_>:
  40d67a:	55                   	push   %rbp
  40d67b:	48 89 e5             	mov    %rsp,%rbp
  40d67e:	53                   	push   %rbx
  40d67f:	48 83 ec 28          	sub    $0x28,%rsp
  40d683:	48 89 7d e8          	mov    %rdi,-0x18(%rbp)
  40d687:	48 89 75 e0          	mov    %rsi,-0x20(%rbp)
  40d68b:	48 89 55 d8          	mov    %rdx,-0x28(%rbp)
  40d68f:	48 8b 45 e0          	mov    -0x20(%rbp),%rax
  40d693:	48 89 c7             	mov    %rax,%rdi
  40d696:	e8 d9 f4 ff ff       	callq  40cb74 <_ZSt12__miter_baseIPcET_S1_>
  40d69b:	48 89 c3             	mov    %rax,%rbx
  40d69e:	48 8b 45 e8          	mov    -0x18(%rbp),%rax
  40d6a2:	48 89 c7             	mov    %rax,%rdi
  40d6a5:	e8 ca f4 ff ff       	callq  40cb74 <_ZSt12__miter_baseIPcET_S1_>
  40d6aa:	48 89 c1             	mov    %rax,%rcx
  40d6ad:	48 8b 45 d8          	mov    -0x28(%rbp),%rax
  40d6b1:	48 89 c2             	mov    %rax,%rdx
  40d6b4:	48 89 de             	mov    %rbx,%rsi
  40d6b7:	48 89 cf             	mov    %rcx,%rdi
  40d6ba:	e8 12 02 00 00       	callq  40d8d1 <_ZSt14__copy_move_a2ILb0EPcPhET1_T0_S3_S2_>
  40d6bf:	48 83 c4 28          	add    $0x28,%rsp
  40d6c3:	5b                   	pop    %rbx
  40d6c4:	5d                   	pop    %rbp
  40d6c5:	c3                   	retq   

000000000040d6c6 <_ZStneIPSt4pairISt6threadbEEbRKSt13move_iteratorIT_ES8_>:
  40d6c6:	55                   	push   %rbp
  40d6c7:	48 89 e5             	mov    %rsp,%rbp
  40d6ca:	48 83 ec 10          	sub    $0x10,%rsp
  40d6ce:	48 89 7d f8          	mov    %rdi,-0x8(%rbp)
  40d6d2:	48 89 75 f0          	mov    %rsi,-0x10(%rbp)
  40d6d6:	48 8b 55 f0          	mov    -0x10(%rbp),%rdx
  40d6da:	48 8b 45 f8          	mov    -0x8(%rbp),%rax
  40d6de:	48 89 d6             	mov    %rdx,%rsi
  40d6e1:	48 89 c7             	mov    %rax,%rdi
  40d6e4:	e8 40 02 00 00       	callq  40d929 <_ZSteqIPSt4pairISt6threadbEEbRKSt13move_iteratorIT_ES8_>
  40d6e9:	83 f0 01             	xor    $0x1,%eax
  40d6ec:	c9                   	leaveq 
  40d6ed:	c3                   	retq   

000000000040d6ee <_ZNSt13move_iteratorIPSt4pairISt6threadbEEppEv>:
  40d6ee:	55                   	push   %rbp
  40d6ef:	48 89 e5             	mov    %rsp,%rbp
  40d6f2:	48 89 7d f8          	mov    %rdi,-0x8(%rbp)
  40d6f6:	48 8b 45 f8          	mov    -0x8(%rbp),%rax
  40d6fa:	48 8b 00             	mov    (%rax),%rax
  40d6fd:	48 8d 50 10          	lea    0x10(%rax),%rdx
  40d701:	48 8b 45 f8          	mov    -0x8(%rbp),%rax
  40d705:	48 89 10             	mov    %rdx,(%rax)
  40d708:	48 8b 45 f8          	mov    -0x8(%rbp),%rax
  40d70c:	5d                   	pop    %rbp
  40d70d:	c3                   	retq   

000000000040d70e <_ZNKSt13move_iteratorIPSt4pairISt6threadbEEdeEv>:
  40d70e:	55                   	push   %rbp
  40d70f:	48 89 e5             	mov    %rsp,%rbp
  40d712:	48 89 7d f8          	mov    %rdi,-0x8(%rbp)
  40d716:	48 8b 45 f8          	mov    -0x8(%rbp),%rax
  40d71a:	48 8b 00             	mov    (%rax),%rax
  40d71d:	5d                   	pop    %rbp
  40d71e:	c3                   	retq   

000000000040d71f <_ZSt7forwardISt4pairISt6threadbEEOT_RNSt16remove_referenceIS3_E4typeE>:
  40d71f:	55                   	push   %rbp
  40d720:	48 89 e5             	mov    %rsp,%rbp
  40d723:	48 89 7d f8          	mov    %rdi,-0x8(%rbp)
  40d727:	48 8b 45 f8          	mov    -0x8(%rbp),%rax
  40d72b:	5d                   	pop    %rbp
  40d72c:	c3                   	retq   
  40d72d:	90                   	nop

000000000040d72e <_ZNSt4pairISt6threadbEC1EOS1_>:
  40d72e:	55                   	push   %rbp
  40d72f:	48 89 e5             	mov    %rsp,%rbp
  40d732:	48 83 ec 10          	sub    $0x10,%rsp
  40d736:	48 89 7d f8          	mov    %rdi,-0x8(%rbp)
  40d73a:	48 89 75 f0          	mov    %rsi,-0x10(%rbp)
  40d73e:	48 8b 55 f0          	mov    -0x10(%rbp),%rdx
  40d742:	48 8b 45 f8          	mov    -0x8(%rbp),%rax
  40d746:	48 89 d6             	mov    %rdx,%rsi
  40d749:	48 89 c7             	mov    %rax,%rdi
  40d74c:	e8 0d cc ff ff       	callq  40a35e <_ZNSt6threadC1EOS_>
  40d751:	48 8b 45 f0          	mov    -0x10(%rbp),%rax
  40d755:	0f b6 50 08          	movzbl 0x8(%rax),%edx
  40d759:	48 8b 45 f8          	mov    -0x8(%rbp),%rax
  40d75d:	88 50 08             	mov    %dl,0x8(%rax)
  40d760:	90                   	nop
  40d761:	c9                   	leaveq 
  40d762:	c3                   	retq   

000000000040d763 <_ZSt10_ConstructISt4pairISt6threadbEJS2_EEvPT_DpOT0_>:
  40d763:	55                   	push   %rbp
  40d764:	48 89 e5             	mov    %rsp,%rbp
  40d767:	53                   	push   %rbx
  40d768:	48 83 ec 18          	sub    $0x18,%rsp
  40d76c:	48 89 7d e8          	mov    %rdi,-0x18(%rbp)
  40d770:	48 89 75 e0          	mov    %rsi,-0x20(%rbp)
  40d774:	48 8b 45 e0          	mov    -0x20(%rbp),%rax
  40d778:	48 89 c7             	mov    %rax,%rdi
  40d77b:	e8 9f ff ff ff       	callq  40d71f <_ZSt7forwardISt4pairISt6threadbEEOT_RNSt16remove_referenceIS3_E4typeE>
  40d780:	48 89 c3             	mov    %rax,%rbx
  40d783:	48 8b 45 e8          	mov    -0x18(%rbp),%rax
  40d787:	48 89 c6             	mov    %rax,%rsi
  40d78a:	bf 10 00 00 00       	mov    $0x10,%edi
  40d78f:	e8 9f 70 ff ff       	callq  404833 <_ZnwmPv>
  40d794:	48 85 c0             	test   %rax,%rax
  40d797:	74 0b                	je     40d7a4 <_ZSt10_ConstructISt4pairISt6threadbEJS2_EEvPT_DpOT0_+0x41>
  40d799:	48 89 de             	mov    %rbx,%rsi
  40d79c:	48 89 c7             	mov    %rax,%rdi
  40d79f:	e8 8a ff ff ff       	callq  40d72e <_ZNSt4pairISt6threadbEC1EOS1_>
  40d7a4:	90                   	nop
  40d7a5:	48 83 c4 18          	add    $0x18,%rsp
  40d7a9:	5b                   	pop    %rbx
  40d7aa:	5d                   	pop    %rbp
  40d7ab:	c3                   	retq   

000000000040d7ac <_ZSt12__get_helperILm0ERKNSt7__cxx1112basic_stringIcSt11char_traitsIcESaIcEEEJEERT0_RSt11_Tuple_implIXT_EJS8_DpT1_EE>:
  40d7ac:	55                   	push   %rbp
  40d7ad:	48 89 e5             	mov    %rsp,%rbp
  40d7b0:	48 83 ec 10          	sub    $0x10,%rsp
  40d7b4:	48 89 7d f8          	mov    %rdi,-0x8(%rbp)
  40d7b8:	48 8b 45 f8          	mov    -0x8(%rbp),%rax
  40d7bc:	48 89 c7             	mov    %rax,%rdi
  40d7bf:	e8 cc f6 ff ff       	callq  40ce90 <_ZNSt11_Tuple_implILm0EJRKNSt7__cxx1112basic_stringIcSt11char_traitsIcESaIcEEEEE7_M_headERS8_>
  40d7c4:	c9                   	leaveq 
  40d7c5:	c3                   	retq   

000000000040d7c6 <_ZSt3getILm0EJRKNSt7__cxx1112basic_stringIcSt11char_traitsIcESaIcEEEEERNSt13tuple_elementIXT_ESt5tupleIJDpT0_EEE4typeERSC_>:
  40d7c6:	55                   	push   %rbp
  40d7c7:	48 89 e5             	mov    %rsp,%rbp
  40d7ca:	48 83 ec 10          	sub    $0x10,%rsp
  40d7ce:	48 89 7d f8          	mov    %rdi,-0x8(%rbp)
  40d7d2:	48 8b 45 f8          	mov    -0x8(%rbp),%rax
  40d7d6:	48 89 c7             	mov    %rax,%rdi
  40d7d9:	e8 ce ff ff ff       	callq  40d7ac <_ZSt12__get_helperILm0ERKNSt7__cxx1112basic_stringIcSt11char_traitsIcESaIcEEEJEERT0_RSt11_Tuple_implIXT_EJS8_DpT1_EE>
  40d7de:	c9                   	leaveq 
  40d7df:	c3                   	retq   

000000000040d7e0 <_ZNSt4pairIKNSt7__cxx1112basic_stringIcSt11char_traitsIcESaIcEEES5_EC1IJRS6_EJLm0EEJEJEEERSt5tupleIJDpT_EERSA_IJDpT1_EESt12_Index_tupleIJXspT0_EEESJ_IJXspT2_EEE>:
  40d7e0:	55                   	push   %rbp
  40d7e1:	48 89 e5             	mov    %rsp,%rbp
  40d7e4:	48 83 ec 20          	sub    $0x20,%rsp
  40d7e8:	48 89 7d f8          	mov    %rdi,-0x8(%rbp)
  40d7ec:	48 89 75 f0          	mov    %rsi,-0x10(%rbp)
  40d7f0:	48 89 55 e8          	mov    %rdx,-0x18(%rbp)
  40d7f4:	48 8b 45 f0          	mov    -0x10(%rbp),%rax
  40d7f8:	48 89 c7             	mov    %rax,%rdi
  40d7fb:	e8 c6 ff ff ff       	callq  40d7c6 <_ZSt3getILm0EJRKNSt7__cxx1112basic_stringIcSt11char_traitsIcESaIcEEEEERNSt13tuple_elementIXT_ESt5tupleIJDpT0_EEE4typeERSC_>
  40d800:	48 89 c7             	mov    %rax,%rdi
  40d803:	e8 a2 f6 ff ff       	callq  40ceaa <_ZSt7forwardIRKNSt7__cxx1112basic_stringIcSt11char_traitsIcESaIcEEEEOT_RNSt16remove_referenceIS8_E4typeE>
  40d808:	48 89 c2             	mov    %rax,%rdx
  40d80b:	48 8b 45 f8          	mov    -0x8(%rbp),%rax
  40d80f:	48 89 d6             	mov    %rdx,%rsi
  40d812:	48 89 c7             	mov    %rax,%rdi
  40d815:	e8 a6 54 ff ff       	callq  402cc0 <_ZNSt7__cxx1112basic_stringIcSt11char_traitsIcESaIcEEC1ERKS4_@plt>
  40d81a:	48 8b 45 f8          	mov    -0x8(%rbp),%rax
  40d81e:	48 83 c0 20          	add    $0x20,%rax
  40d822:	48 89 c7             	mov    %rax,%rdi
  40d825:	e8 a6 57 ff ff       	callq  402fd0 <_ZNSt7__cxx1112basic_stringIcSt11char_traitsIcESaIcEEC1Ev@plt>
  40d82a:	90                   	nop
  40d82b:	c9                   	leaveq 
  40d82c:	c3                   	retq   

000000000040d82d <_ZSt4copyISt13move_iteratorIPhES1_ET0_T_S4_S3_>:
  40d82d:	55                   	push   %rbp
  40d82e:	48 89 e5             	mov    %rsp,%rbp
  40d831:	53                   	push   %rbx
  40d832:	48 83 ec 28          	sub    $0x28,%rsp
  40d836:	48 89 7d e8          	mov    %rdi,-0x18(%rbp)
  40d83a:	48 89 75 e0          	mov    %rsi,-0x20(%rbp)
  40d83e:	48 89 55 d8          	mov    %rdx,-0x28(%rbp)
  40d842:	48 8b 45 e0          	mov    -0x20(%rbp),%rax
  40d846:	48 89 c7             	mov    %rax,%rdi
  40d849:	e8 14 01 00 00       	callq  40d962 <_ZSt12__miter_baseIPhEDTcl12__miter_basecldtfp_4baseEEESt13move_iteratorIT_E>
  40d84e:	48 89 c3             	mov    %rax,%rbx
  40d851:	48 8b 45 e8          	mov    -0x18(%rbp),%rax
  40d855:	48 89 c7             	mov    %rax,%rdi
  40d858:	e8 05 01 00 00       	callq  40d962 <_ZSt12__miter_baseIPhEDTcl12__miter_basecldtfp_4baseEEESt13move_iteratorIT_E>
  40d85d:	48 89 c1             	mov    %rax,%rcx
  40d860:	48 8b 45 d8          	mov    -0x28(%rbp),%rax
  40d864:	48 89 c2             	mov    %rax,%rdx
  40d867:	48 89 de             	mov    %rbx,%rsi
  40d86a:	48 89 cf             	mov    %rcx,%rdi
  40d86d:	e8 12 01 00 00       	callq  40d984 <_ZSt14__copy_move_a2ILb1EPhS0_ET1_T0_S2_S1_>
  40d872:	48 83 c4 28          	add    $0x28,%rsp
  40d876:	5b                   	pop    %rbx
  40d877:	5d                   	pop    %rbp
  40d878:	c3                   	retq   

000000000040d879 <_ZSt14__copy_move_a2ILb0EPKcPhET1_T0_S4_S3_>:
  40d879:	55                   	push   %rbp
  40d87a:	48 89 e5             	mov    %rsp,%rbp
  40d87d:	41 54                	push   %r12
  40d87f:	53                   	push   %rbx
  40d880:	48 83 ec 20          	sub    $0x20,%rsp
  40d884:	48 89 7d e8          	mov    %rdi,-0x18(%rbp)
  40d888:	48 89 75 e0          	mov    %rsi,-0x20(%rbp)
  40d88c:	48 89 55 d8          	mov    %rdx,-0x28(%rbp)
  40d890:	48 8b 45 d8          	mov    -0x28(%rbp),%rax
  40d894:	48 89 c7             	mov    %rax,%rdi
  40d897:	e8 a5 f7 ff ff       	callq  40d041 <_ZSt12__niter_baseIPhET_S1_>
  40d89c:	49 89 c4             	mov    %rax,%r12
  40d89f:	48 8b 45 e0          	mov    -0x20(%rbp),%rax
  40d8a3:	48 89 c7             	mov    %rax,%rdi
  40d8a6:	e8 d5 f7 ff ff       	callq  40d080 <_ZSt12__niter_baseIPKcET_S2_>
  40d8ab:	48 89 c3             	mov    %rax,%rbx
  40d8ae:	48 8b 45 e8          	mov    -0x18(%rbp),%rax
  40d8b2:	48 89 c7             	mov    %rax,%rdi
  40d8b5:	e8 c6 f7 ff ff       	callq  40d080 <_ZSt12__niter_baseIPKcET_S2_>
  40d8ba:	4c 89 e2             	mov    %r12,%rdx
  40d8bd:	48 89 de             	mov    %rbx,%rsi
  40d8c0:	48 89 c7             	mov    %rax,%rdi
  40d8c3:	e8 e3 f7 ff ff       	callq  40d0ab <_ZSt13__copy_move_aILb0EPKcPhET1_T0_S4_S3_>
  40d8c8:	48 83 c4 20          	add    $0x20,%rsp
  40d8cc:	5b                   	pop    %rbx
  40d8cd:	41 5c                	pop    %r12
  40d8cf:	5d                   	pop    %rbp
  40d8d0:	c3                   	retq   

000000000040d8d1 <_ZSt14__copy_move_a2ILb0EPcPhET1_T0_S3_S2_>:
  40d8d1:	55                   	push   %rbp
  40d8d2:	48 89 e5             	mov    %rsp,%rbp
  40d8d5:	41 54                	push   %r12
  40d8d7:	53                   	push   %rbx
  40d8d8:	48 83 ec 20          	sub    $0x20,%rsp
  40d8dc:	48 89 7d e8          	mov    %rdi,-0x18(%rbp)
  40d8e0:	48 89 75 e0          	mov    %rsi,-0x20(%rbp)
  40d8e4:	48 89 55 d8          	mov    %rdx,-0x28(%rbp)
  40d8e8:	48 8b 45 d8          	mov    -0x28(%rbp),%rax
  40d8ec:	48 89 c7             	mov    %rax,%rdi
  40d8ef:	e8 4d f7 ff ff       	callq  40d041 <_ZSt12__niter_baseIPhET_S1_>
  40d8f4:	49 89 c4             	mov    %rax,%r12
  40d8f7:	48 8b 45 e0          	mov    -0x20(%rbp),%rax
  40d8fb:	48 89 c7             	mov    %rax,%rdi
  40d8fe:	e8 6d f8 ff ff       	callq  40d170 <_ZSt12__niter_baseIPcET_S1_>
  40d903:	48 89 c3             	mov    %rax,%rbx
  40d906:	48 8b 45 e8          	mov    -0x18(%rbp),%rax
  40d90a:	48 89 c7             	mov    %rax,%rdi
  40d90d:	e8 5e f8 ff ff       	callq  40d170 <_ZSt12__niter_baseIPcET_S1_>
  40d912:	4c 89 e2             	mov    %r12,%rdx
  40d915:	48 89 de             	mov    %rbx,%rsi
  40d918:	48 89 c7             	mov    %rax,%rdi
  40d91b:	e8 5e f8 ff ff       	callq  40d17e <_ZSt13__copy_move_aILb0EPcPhET1_T0_S3_S2_>
  40d920:	48 83 c4 20          	add    $0x20,%rsp
  40d924:	5b                   	pop    %rbx
  40d925:	41 5c                	pop    %r12
  40d927:	5d                   	pop    %rbp
  40d928:	c3                   	retq   

000000000040d929 <_ZSteqIPSt4pairISt6threadbEEbRKSt13move_iteratorIT_ES8_>:
  40d929:	55                   	push   %rbp
  40d92a:	48 89 e5             	mov    %rsp,%rbp
  40d92d:	53                   	push   %rbx
  40d92e:	48 83 ec 18          	sub    $0x18,%rsp
  40d932:	48 89 7d e8          	mov    %rdi,-0x18(%rbp)
  40d936:	48 89 75 e0          	mov    %rsi,-0x20(%rbp)
  40d93a:	48 8b 45 e8          	mov    -0x18(%rbp),%rax
  40d93e:	48 89 c7             	mov    %rax,%rdi
  40d941:	e8 96 00 00 00       	callq  40d9dc <_ZNKSt13move_iteratorIPSt4pairISt6threadbEE4baseEv>
  40d946:	48 89 c3             	mov    %rax,%rbx
  40d949:	48 8b 45 e0          	mov    -0x20(%rbp),%rax
  40d94d:	48 89 c7             	mov    %rax,%rdi
  40d950:	e8 87 00 00 00       	callq  40d9dc <_ZNKSt13move_iteratorIPSt4pairISt6threadbEE4baseEv>
  40d955:	48 39 c3             	cmp    %rax,%rbx
  40d958:	0f 94 c0             	sete   %al
  40d95b:	48 83 c4 18          	add    $0x18,%rsp
  40d95f:	5b                   	pop    %rbx
  40d960:	5d                   	pop    %rbp
  40d961:	c3                   	retq   

000000000040d962 <_ZSt12__miter_baseIPhEDTcl12__miter_basecldtfp_4baseEEESt13move_iteratorIT_E>:
  40d962:	55                   	push   %rbp
  40d963:	48 89 e5             	mov    %rsp,%rbp
  40d966:	48 83 ec 10          	sub    $0x10,%rsp
  40d96a:	48 89 7d f8          	mov    %rdi,-0x8(%rbp)
  40d96e:	48 8d 45 f8          	lea    -0x8(%rbp),%rax
  40d972:	48 89 c7             	mov    %rax,%rdi
  40d975:	e8 74 00 00 00       	callq  40d9ee <_ZNKSt13move_iteratorIPhE4baseEv>
  40d97a:	48 89 c7             	mov    %rax,%rdi
  40d97d:	e8 fe ef ff ff       	callq  40c980 <_ZSt12__miter_baseIPhET_S1_>
  40d982:	c9                   	leaveq 
  40d983:	c3                   	retq   

000000000040d984 <_ZSt14__copy_move_a2ILb1EPhS0_ET1_T0_S2_S1_>:
  40d984:	55                   	push   %rbp
  40d985:	48 89 e5             	mov    %rsp,%rbp
  40d988:	41 54                	push   %r12
  40d98a:	53                   	push   %rbx
  40d98b:	48 83 ec 20          	sub    $0x20,%rsp
  40d98f:	48 89 7d e8          	mov    %rdi,-0x18(%rbp)
  40d993:	48 89 75 e0          	mov    %rsi,-0x20(%rbp)
  40d997:	48 89 55 d8          	mov    %rdx,-0x28(%rbp)
  40d99b:	48 8b 45 d8          	mov    -0x28(%rbp),%rax
  40d99f:	48 89 c7             	mov    %rax,%rdi
  40d9a2:	e8 9a f6 ff ff       	callq  40d041 <_ZSt12__niter_baseIPhET_S1_>
  40d9a7:	49 89 c4             	mov    %rax,%r12
  40d9aa:	48 8b 45 e0          	mov    -0x20(%rbp),%rax
  40d9ae:	48 89 c7             	mov    %rax,%rdi
  40d9b1:	e8 8b f6 ff ff       	callq  40d041 <_ZSt12__niter_baseIPhET_S1_>
  40d9b6:	48 89 c3             	mov    %rax,%rbx
  40d9b9:	48 8b 45 e8          	mov    -0x18(%rbp),%rax
  40d9bd:	48 89 c7             	mov    %rax,%rdi
  40d9c0:	e8 7c f6 ff ff       	callq  40d041 <_ZSt12__niter_baseIPhET_S1_>
  40d9c5:	4c 89 e2             	mov    %r12,%rdx
  40d9c8:	48 89 de             	mov    %rbx,%rsi
  40d9cb:	48 89 c7             	mov    %rax,%rdi
  40d9ce:	e8 2c 00 00 00       	callq  40d9ff <_ZSt13__copy_move_aILb1EPhS0_ET1_T0_S2_S1_>
  40d9d3:	48 83 c4 20          	add    $0x20,%rsp
  40d9d7:	5b                   	pop    %rbx
  40d9d8:	41 5c                	pop    %r12
  40d9da:	5d                   	pop    %rbp
  40d9db:	c3                   	retq   

000000000040d9dc <_ZNKSt13move_iteratorIPSt4pairISt6threadbEE4baseEv>:
  40d9dc:	55                   	push   %rbp
  40d9dd:	48 89 e5             	mov    %rsp,%rbp
  40d9e0:	48 89 7d f8          	mov    %rdi,-0x8(%rbp)
  40d9e4:	48 8b 45 f8          	mov    -0x8(%rbp),%rax
  40d9e8:	48 8b 00             	mov    (%rax),%rax
  40d9eb:	5d                   	pop    %rbp
  40d9ec:	c3                   	retq   
  40d9ed:	90                   	nop

000000000040d9ee <_ZNKSt13move_iteratorIPhE4baseEv>:
  40d9ee:	55                   	push   %rbp
  40d9ef:	48 89 e5             	mov    %rsp,%rbp
  40d9f2:	48 89 7d f8          	mov    %rdi,-0x8(%rbp)
  40d9f6:	48 8b 45 f8          	mov    -0x8(%rbp),%rax
  40d9fa:	48 8b 00             	mov    (%rax),%rax
  40d9fd:	5d                   	pop    %rbp
  40d9fe:	c3                   	retq   

000000000040d9ff <_ZSt13__copy_move_aILb1EPhS0_ET1_T0_S2_S1_>:
  40d9ff:	55                   	push   %rbp
  40da00:	48 89 e5             	mov    %rsp,%rbp
  40da03:	48 83 ec 30          	sub    $0x30,%rsp
  40da07:	48 89 7d e8          	mov    %rdi,-0x18(%rbp)
  40da0b:	48 89 75 e0          	mov    %rsi,-0x20(%rbp)
  40da0f:	48 89 55 d8          	mov    %rdx,-0x28(%rbp)
  40da13:	c6 45 ff 01          	movb   $0x1,-0x1(%rbp)
  40da17:	48 8b 55 d8          	mov    -0x28(%rbp),%rdx
  40da1b:	48 8b 4d e0          	mov    -0x20(%rbp),%rcx
  40da1f:	48 8b 45 e8          	mov    -0x18(%rbp),%rax
  40da23:	48 89 ce             	mov    %rcx,%rsi
  40da26:	48 89 c7             	mov    %rax,%rdi
  40da29:	e8 02 00 00 00       	callq  40da30 <_ZNSt11__copy_moveILb1ELb1ESt26random_access_iterator_tagE8__copy_mIhEEPT_PKS3_S6_S4_>
  40da2e:	c9                   	leaveq 
  40da2f:	c3                   	retq   

000000000040da30 <_ZNSt11__copy_moveILb1ELb1ESt26random_access_iterator_tagE8__copy_mIhEEPT_PKS3_S6_S4_>:
  40da30:	55                   	push   %rbp
  40da31:	48 89 e5             	mov    %rsp,%rbp
  40da34:	48 83 ec 30          	sub    $0x30,%rsp
  40da38:	48 89 7d e8          	mov    %rdi,-0x18(%rbp)
  40da3c:	48 89 75 e0          	mov    %rsi,-0x20(%rbp)
  40da40:	48 89 55 d8          	mov    %rdx,-0x28(%rbp)
  40da44:	48 8b 55 e0          	mov    -0x20(%rbp),%rdx
  40da48:	48 8b 45 e8          	mov    -0x18(%rbp),%rax
  40da4c:	48 29 c2             	sub    %rax,%rdx
  40da4f:	48 89 d0             	mov    %rdx,%rax
  40da52:	48 89 45 f8          	mov    %rax,-0x8(%rbp)
  40da56:	48 83 7d f8 00       	cmpq   $0x0,-0x8(%rbp)
  40da5b:	74 17                	je     40da74 <_ZNSt11__copy_moveILb1ELb1ESt26random_access_iterator_tagE8__copy_mIhEEPT_PKS3_S6_S4_+0x44>
  40da5d:	48 8b 55 f8          	mov    -0x8(%rbp),%rdx
  40da61:	48 8b 4d e8          	mov    -0x18(%rbp),%rcx
  40da65:	48 8b 45 d8          	mov    -0x28(%rbp),%rax
  40da69:	48 89 ce             	mov    %rcx,%rsi
  40da6c:	48 89 c7             	mov    %rax,%rdi
  40da6f:	e8 ec 55 ff ff       	callq  403060 <memmove@plt>
  40da74:	48 8b 55 f8          	mov    -0x8(%rbp),%rdx
  40da78:	48 8b 45 d8          	mov    -0x28(%rbp),%rax
  40da7c:	48 01 d0             	add    %rdx,%rax
  40da7f:	c9                   	leaveq 
  40da80:	c3                   	retq   
  40da81:	66 2e 0f 1f 84 00 00 	nopw   %cs:0x0(%rax,%rax,1)
  40da88:	00 00 00 
  40da8b:	0f 1f 44 00 00       	nopl   0x0(%rax,%rax,1)

000000000040da90 <__libc_csu_init>:
  40da90:	41 57                	push   %r15
  40da92:	41 56                	push   %r14
  40da94:	41 89 ff             	mov    %edi,%r15d
  40da97:	41 55                	push   %r13
  40da99:	41 54                	push   %r12
  40da9b:	4c 8d 25 2e 63 20 00 	lea    0x20632e(%rip),%r12        # 613dd0 <__frame_dummy_init_array_entry>
  40daa2:	55                   	push   %rbp
  40daa3:	48 8d 2d 3e 63 20 00 	lea    0x20633e(%rip),%rbp        # 613de8 <__init_array_end>
  40daaa:	53                   	push   %rbx
  40daab:	49 89 f6             	mov    %rsi,%r14
  40daae:	49 89 d5             	mov    %rdx,%r13
  40dab1:	4c 29 e5             	sub    %r12,%rbp
  40dab4:	48 83 ec 08          	sub    $0x8,%rsp
  40dab8:	48 c1 fd 03          	sar    $0x3,%rbp
  40dabc:	e8 5f 50 ff ff       	callq  402b20 <_init>
  40dac1:	48 85 ed             	test   %rbp,%rbp
  40dac4:	74 20                	je     40dae6 <__libc_csu_init+0x56>
  40dac6:	31 db                	xor    %ebx,%ebx
  40dac8:	0f 1f 84 00 00 00 00 	nopl   0x0(%rax,%rax,1)
  40dacf:	00 
  40dad0:	4c 89 ea             	mov    %r13,%rdx
  40dad3:	4c 89 f6             	mov    %r14,%rsi
  40dad6:	44 89 ff             	mov    %r15d,%edi
  40dad9:	41 ff 14 dc          	callq  *(%r12,%rbx,8)
  40dadd:	48 83 c3 01          	add    $0x1,%rbx
  40dae1:	48 39 eb             	cmp    %rbp,%rbx
  40dae4:	75 ea                	jne    40dad0 <__libc_csu_init+0x40>
  40dae6:	48 83 c4 08          	add    $0x8,%rsp
  40daea:	5b                   	pop    %rbx
  40daeb:	5d                   	pop    %rbp
  40daec:	41 5c                	pop    %r12
  40daee:	41 5d                	pop    %r13
  40daf0:	41 5e                	pop    %r14
  40daf2:	41 5f                	pop    %r15
  40daf4:	c3                   	retq   
  40daf5:	90                   	nop
  40daf6:	66 2e 0f 1f 84 00 00 	nopw   %cs:0x0(%rax,%rax,1)
  40dafd:	00 00 00 

000000000040db00 <__libc_csu_fini>:
  40db00:	f3 c3                	repz retq 

Disassembly of section .fini:

000000000040db04 <_fini>:
  40db04:	48 83 ec 08          	sub    $0x8,%rsp
  40db08:	48 83 c4 08          	add    $0x8,%rsp
  40db0c:	c3                   	retq   
