
../linux/bot_123/client_123:     file format elf64-x86-64


Disassembly of section .init:

00000000004029f0 <_init>:
  4029f0:	48 83 ec 08          	sub    $0x8,%rsp
  4029f4:	48 8b 05 fd 25 21 00 	mov    0x2125fd(%rip),%rax        # 614ff8 <_DYNAMIC+0x200>
  4029fb:	48 85 c0             	test   %rax,%rax
  4029fe:	74 05                	je     402a05 <_init+0x15>
  402a00:	e8 7b 06 00 00       	callq  403080 <_ZNSt7__cxx1112basic_stringIcSt11char_traitsIcESaIcEE11_M_capacityEm@plt+0x10>
  402a05:	48 83 c4 08          	add    $0x8,%rsp
  402a09:	c3                   	retq   

Disassembly of section .plt:

0000000000402a10 <_ZNKSt7__cxx1112basic_stringIcSt11char_traitsIcESaIcEE7compareERKS4_@plt-0x10>:
  402a10:	ff 35 f2 25 21 00    	pushq  0x2125f2(%rip)        # 615008 <_GLOBAL_OFFSET_TABLE_+0x8>
  402a16:	ff 25 f4 25 21 00    	jmpq   *0x2125f4(%rip)        # 615010 <_GLOBAL_OFFSET_TABLE_+0x10>
  402a1c:	0f 1f 40 00          	nopl   0x0(%rax)

0000000000402a20 <_ZNKSt7__cxx1112basic_stringIcSt11char_traitsIcESaIcEE7compareERKS4_@plt>:
  402a20:	ff 25 f2 25 21 00    	jmpq   *0x2125f2(%rip)        # 615018 <_GLOBAL_OFFSET_TABLE_+0x18>
  402a26:	68 00 00 00 00       	pushq  $0x0
  402a2b:	e9 e0 ff ff ff       	jmpq   402a10 <_init+0x20>

0000000000402a30 <_ZNSt7__cxx1112basic_stringIcSt11char_traitsIcESaIcEEaSERKS4_@plt>:
  402a30:	ff 25 ea 25 21 00    	jmpq   *0x2125ea(%rip)        # 615020 <_GLOBAL_OFFSET_TABLE_+0x20>
  402a36:	68 01 00 00 00       	pushq  $0x1
  402a3b:	e9 d0 ff ff ff       	jmpq   402a10 <_init+0x20>

0000000000402a40 <__errno_location@plt>:
  402a40:	ff 25 e2 25 21 00    	jmpq   *0x2125e2(%rip)        # 615028 <_GLOBAL_OFFSET_TABLE_+0x28>
  402a46:	68 02 00 00 00       	pushq  $0x2
  402a4b:	e9 c0 ff ff ff       	jmpq   402a10 <_init+0x20>

0000000000402a50 <printf@plt>:
  402a50:	ff 25 da 25 21 00    	jmpq   *0x2125da(%rip)        # 615030 <_GLOBAL_OFFSET_TABLE_+0x30>
  402a56:	68 03 00 00 00       	pushq  $0x3
  402a5b:	e9 b0 ff ff ff       	jmpq   402a10 <_init+0x20>

0000000000402a60 <htons@plt>:
  402a60:	ff 25 d2 25 21 00    	jmpq   *0x2125d2(%rip)        # 615038 <_GLOBAL_OFFSET_TABLE_+0x38>
  402a66:	68 04 00 00 00       	pushq  $0x4
  402a6b:	e9 a0 ff ff ff       	jmpq   402a10 <_init+0x20>

0000000000402a70 <bind@plt>:
  402a70:	ff 25 ca 25 21 00    	jmpq   *0x2125ca(%rip)        # 615040 <_GLOBAL_OFFSET_TABLE_+0x40>
  402a76:	68 05 00 00 00       	pushq  $0x5
  402a7b:	e9 90 ff ff ff       	jmpq   402a10 <_init+0x20>

0000000000402a80 <_ZSt29_Rb_tree_insert_and_rebalancebPSt18_Rb_tree_node_baseS0_RS_@plt>:
  402a80:	ff 25 c2 25 21 00    	jmpq   *0x2125c2(%rip)        # 615048 <_GLOBAL_OFFSET_TABLE_+0x48>
  402a86:	68 06 00 00 00       	pushq  $0x6
  402a8b:	e9 80 ff ff ff       	jmpq   402a10 <_init+0x20>

0000000000402a90 <_ZNSaIcED2Ev@plt>:
  402a90:	ff 25 ba 25 21 00    	jmpq   *0x2125ba(%rip)        # 615050 <_GLOBAL_OFFSET_TABLE_+0x50>
  402a96:	68 07 00 00 00       	pushq  $0x7
  402a9b:	e9 70 ff ff ff       	jmpq   402a10 <_init+0x20>

0000000000402aa0 <sprintf@plt>:
  402aa0:	ff 25 b2 25 21 00    	jmpq   *0x2125b2(%rip)        # 615058 <_GLOBAL_OFFSET_TABLE_+0x58>
  402aa6:	68 08 00 00 00       	pushq  $0x8
  402aab:	e9 60 ff ff ff       	jmpq   402a10 <_init+0x20>

0000000000402ab0 <_ZSt7getlineIcSt11char_traitsIcESaIcEERSt13basic_istreamIT_T0_ES7_RNSt7__cxx1112basic_stringIS4_S5_T1_EE@plt>:
  402ab0:	ff 25 aa 25 21 00    	jmpq   *0x2125aa(%rip)        # 615060 <_GLOBAL_OFFSET_TABLE_+0x60>
  402ab6:	68 09 00 00 00       	pushq  $0x9
  402abb:	e9 50 ff ff ff       	jmpq   402a10 <_init+0x20>

0000000000402ac0 <socket@plt>:
  402ac0:	ff 25 a2 25 21 00    	jmpq   *0x2125a2(%rip)        # 615068 <_GLOBAL_OFFSET_TABLE_+0x68>
  402ac6:	68 0a 00 00 00       	pushq  $0xa
  402acb:	e9 40 ff ff ff       	jmpq   402a10 <_init+0x20>

0000000000402ad0 <_ZNSt14basic_ifstreamIcSt11char_traitsIcEED1Ev@plt>:
  402ad0:	ff 25 9a 25 21 00    	jmpq   *0x21259a(%rip)        # 615070 <_GLOBAL_OFFSET_TABLE_+0x70>
  402ad6:	68 0b 00 00 00       	pushq  $0xb
  402adb:	e9 30 ff ff ff       	jmpq   402a10 <_init+0x20>

0000000000402ae0 <rand@plt>:
  402ae0:	ff 25 92 25 21 00    	jmpq   *0x212592(%rip)        # 615078 <_GLOBAL_OFFSET_TABLE_+0x78>
  402ae6:	68 0c 00 00 00       	pushq  $0xc
  402aeb:	e9 20 ff ff ff       	jmpq   402a10 <_init+0x20>

0000000000402af0 <_ZSt9terminatev@plt>:
  402af0:	ff 25 8a 25 21 00    	jmpq   *0x21258a(%rip)        # 615080 <_GLOBAL_OFFSET_TABLE_+0x80>
  402af6:	68 0d 00 00 00       	pushq  $0xd
  402afb:	e9 10 ff ff ff       	jmpq   402a10 <_init+0x20>

0000000000402b00 <_ZNKSt7__cxx1112basic_stringIcSt11char_traitsIcESaIcEE7compareEPKc@plt>:
  402b00:	ff 25 82 25 21 00    	jmpq   *0x212582(%rip)        # 615088 <_GLOBAL_OFFSET_TABLE_+0x88>
  402b06:	68 0e 00 00 00       	pushq  $0xe
  402b0b:	e9 00 ff ff ff       	jmpq   402a10 <_init+0x20>

0000000000402b10 <_ZNSt7__cxx1112basic_stringIcSt11char_traitsIcESaIcEE13_S_copy_charsEPcS5_S5_@plt>:
  402b10:	ff 25 7a 25 21 00    	jmpq   *0x21257a(%rip)        # 615090 <_GLOBAL_OFFSET_TABLE_+0x90>
  402b16:	68 0f 00 00 00       	pushq  $0xf
  402b1b:	e9 f0 fe ff ff       	jmpq   402a10 <_init+0x20>

0000000000402b20 <accept@plt>:
  402b20:	ff 25 72 25 21 00    	jmpq   *0x212572(%rip)        # 615098 <_GLOBAL_OFFSET_TABLE_+0x98>
  402b26:	68 10 00 00 00       	pushq  $0x10
  402b2b:	e9 e0 fe ff ff       	jmpq   402a10 <_init+0x20>

0000000000402b30 <recv@plt>:
  402b30:	ff 25 6a 25 21 00    	jmpq   *0x21256a(%rip)        # 6150a0 <_GLOBAL_OFFSET_TABLE_+0xa0>
  402b36:	68 11 00 00 00       	pushq  $0x11
  402b3b:	e9 d0 fe ff ff       	jmpq   402a10 <_init+0x20>

0000000000402b40 <strerror@plt>:
  402b40:	ff 25 62 25 21 00    	jmpq   *0x212562(%rip)        # 6150a8 <_GLOBAL_OFFSET_TABLE_+0xa8>
  402b46:	68 12 00 00 00       	pushq  $0x12
  402b4b:	e9 c0 fe ff ff       	jmpq   402a10 <_init+0x20>

0000000000402b50 <_ZSt17__throw_bad_allocv@plt>:
  402b50:	ff 25 5a 25 21 00    	jmpq   *0x21255a(%rip)        # 6150b0 <_GLOBAL_OFFSET_TABLE_+0xb0>
  402b56:	68 13 00 00 00       	pushq  $0x13
  402b5b:	e9 b0 fe ff ff       	jmpq   402a10 <_init+0x20>

0000000000402b60 <_ZSt25__throw_bad_function_callv@plt>:
  402b60:	ff 25 52 25 21 00    	jmpq   *0x212552(%rip)        # 6150b8 <_GLOBAL_OFFSET_TABLE_+0xb8>
  402b66:	68 14 00 00 00       	pushq  $0x14
  402b6b:	e9 a0 fe ff ff       	jmpq   402a10 <_init+0x20>

0000000000402b70 <__cxa_begin_catch@plt>:
  402b70:	ff 25 4a 25 21 00    	jmpq   *0x21254a(%rip)        # 6150c0 <_GLOBAL_OFFSET_TABLE_+0xc0>
  402b76:	68 15 00 00 00       	pushq  $0x15
  402b7b:	e9 90 fe ff ff       	jmpq   402a10 <_init+0x20>

0000000000402b80 <_ZNKSt7__cxx1112basic_stringIcSt11char_traitsIcESaIcEE5c_strEv@plt>:
  402b80:	ff 25 42 25 21 00    	jmpq   *0x212542(%rip)        # 6150c8 <_GLOBAL_OFFSET_TABLE_+0xc8>
  402b86:	68 16 00 00 00       	pushq  $0x16
  402b8b:	e9 80 fe ff ff       	jmpq   402a10 <_init+0x20>

0000000000402b90 <_ZNSt13runtime_errorC1ERKS_@plt>:
  402b90:	ff 25 3a 25 21 00    	jmpq   *0x21253a(%rip)        # 6150d0 <_GLOBAL_OFFSET_TABLE_+0xd0>
  402b96:	68 17 00 00 00       	pushq  $0x17
  402b9b:	e9 70 fe ff ff       	jmpq   402a10 <_init+0x20>

0000000000402ba0 <_ZNSt7__cxx1112basic_stringIcSt11char_traitsIcESaIcEEC1ERKS4_@plt>:
  402ba0:	ff 25 32 25 21 00    	jmpq   *0x212532(%rip)        # 6150d8 <_GLOBAL_OFFSET_TABLE_+0xd8>
  402ba6:	68 18 00 00 00       	pushq  $0x18
  402bab:	e9 60 fe ff ff       	jmpq   402a10 <_init+0x20>

0000000000402bb0 <_ZNKSt9basic_iosIcSt11char_traitsIcEE5rdbufEv@plt>:
  402bb0:	ff 25 2a 25 21 00    	jmpq   *0x21252a(%rip)        # 6150e0 <_GLOBAL_OFFSET_TABLE_+0xe0>
  402bb6:	68 19 00 00 00       	pushq  $0x19
  402bbb:	e9 50 fe ff ff       	jmpq   402a10 <_init+0x20>

0000000000402bc0 <__cxa_allocate_exception@plt>:
  402bc0:	ff 25 22 25 21 00    	jmpq   *0x212522(%rip)        # 6150e8 <_GLOBAL_OFFSET_TABLE_+0xe8>
  402bc6:	68 1a 00 00 00       	pushq  $0x1a
  402bcb:	e9 40 fe ff ff       	jmpq   402a10 <_init+0x20>

0000000000402bd0 <send@plt>:
  402bd0:	ff 25 1a 25 21 00    	jmpq   *0x21251a(%rip)        # 6150f0 <_GLOBAL_OFFSET_TABLE_+0xf0>
  402bd6:	68 1b 00 00 00       	pushq  $0x1b
  402bdb:	e9 30 fe ff ff       	jmpq   402a10 <_init+0x20>

0000000000402be0 <_ZSt20__throw_length_errorPKc@plt>:
  402be0:	ff 25 12 25 21 00    	jmpq   *0x212512(%rip)        # 6150f8 <_GLOBAL_OFFSET_TABLE_+0xf8>
  402be6:	68 1c 00 00 00       	pushq  $0x1c
  402beb:	e9 20 fe ff ff       	jmpq   402a10 <_init+0x20>

0000000000402bf0 <_ZNSt15basic_streambufIcSt11char_traitsIcEE6sbumpcEv@plt>:
  402bf0:	ff 25 0a 25 21 00    	jmpq   *0x21250a(%rip)        # 615100 <_GLOBAL_OFFSET_TABLE_+0x100>
  402bf6:	68 1d 00 00 00       	pushq  $0x1d
  402bfb:	e9 10 fe ff ff       	jmpq   402a10 <_init+0x20>

0000000000402c00 <pthread_create@plt>:
  402c00:	ff 25 02 25 21 00    	jmpq   *0x212502(%rip)        # 615108 <_GLOBAL_OFFSET_TABLE_+0x108>
  402c06:	68 1e 00 00 00       	pushq  $0x1e
  402c0b:	e9 00 fe ff ff       	jmpq   402a10 <_init+0x20>

0000000000402c10 <_ZNSt7__cxx1112basic_stringIcSt11char_traitsIcESaIcEEC1EOS4_@plt>:
  402c10:	ff 25 fa 24 21 00    	jmpq   *0x2124fa(%rip)        # 615110 <_GLOBAL_OFFSET_TABLE_+0x110>
  402c16:	68 1f 00 00 00       	pushq  $0x1f
  402c1b:	e9 f0 fd ff ff       	jmpq   402a10 <_init+0x20>

0000000000402c20 <_ZNSt7__cxx1112basic_stringIcSt11char_traitsIcESaIcEED1Ev@plt>:
  402c20:	ff 25 f2 24 21 00    	jmpq   *0x2124f2(%rip)        # 615118 <_GLOBAL_OFFSET_TABLE_+0x118>
  402c26:	68 20 00 00 00       	pushq  $0x20
  402c2b:	e9 e0 fd ff ff       	jmpq   402a10 <_init+0x20>

0000000000402c30 <vsnprintf@plt>:
  402c30:	ff 25 ea 24 21 00    	jmpq   *0x2124ea(%rip)        # 615120 <_GLOBAL_OFFSET_TABLE_+0x120>
  402c36:	68 21 00 00 00       	pushq  $0x21
  402c3b:	e9 d0 fd ff ff       	jmpq   402a10 <_init+0x20>

0000000000402c40 <_ZSt20__throw_system_errori@plt>:
  402c40:	ff 25 e2 24 21 00    	jmpq   *0x2124e2(%rip)        # 615128 <_GLOBAL_OFFSET_TABLE_+0x128>
  402c46:	68 22 00 00 00       	pushq  $0x22
  402c4b:	e9 c0 fd ff ff       	jmpq   402a10 <_init+0x20>

0000000000402c50 <_ZNSt7__cxx1112basic_stringIcSt11char_traitsIcESaIcEE13_M_set_lengthEm@plt>:
  402c50:	ff 25 da 24 21 00    	jmpq   *0x2124da(%rip)        # 615130 <_GLOBAL_OFFSET_TABLE_+0x130>
  402c56:	68 23 00 00 00       	pushq  $0x23
  402c5b:	e9 b0 fd ff ff       	jmpq   402a10 <_init+0x20>

0000000000402c60 <_ZSt18_Rb_tree_incrementPSt18_Rb_tree_node_base@plt>:
  402c60:	ff 25 d2 24 21 00    	jmpq   *0x2124d2(%rip)        # 615138 <_GLOBAL_OFFSET_TABLE_+0x138>
  402c66:	68 24 00 00 00       	pushq  $0x24
  402c6b:	e9 a0 fd ff ff       	jmpq   402a10 <_init+0x20>

0000000000402c70 <_ZSt19__throw_logic_errorPKc@plt>:
  402c70:	ff 25 ca 24 21 00    	jmpq   *0x2124ca(%rip)        # 615140 <_GLOBAL_OFFSET_TABLE_+0x140>
  402c76:	68 25 00 00 00       	pushq  $0x25
  402c7b:	e9 90 fd ff ff       	jmpq   402a10 <_init+0x20>

0000000000402c80 <sscanf@plt>:
  402c80:	ff 25 c2 24 21 00    	jmpq   *0x2124c2(%rip)        # 615148 <_GLOBAL_OFFSET_TABLE_+0x148>
  402c86:	68 26 00 00 00       	pushq  $0x26
  402c8b:	e9 80 fd ff ff       	jmpq   402a10 <_init+0x20>

0000000000402c90 <__cxa_free_exception@plt>:
  402c90:	ff 25 ba 24 21 00    	jmpq   *0x2124ba(%rip)        # 615150 <_GLOBAL_OFFSET_TABLE_+0x150>
  402c96:	68 27 00 00 00       	pushq  $0x27
  402c9b:	e9 70 fd ff ff       	jmpq   402a10 <_init+0x20>

0000000000402ca0 <_ZNSt7__cxx1118basic_stringstreamIcSt11char_traitsIcESaIcEED1Ev@plt>:
  402ca0:	ff 25 b2 24 21 00    	jmpq   *0x2124b2(%rip)        # 615158 <_GLOBAL_OFFSET_TABLE_+0x158>
  402ca6:	68 28 00 00 00       	pushq  $0x28
  402cab:	e9 60 fd ff ff       	jmpq   402a10 <_init+0x20>

0000000000402cb0 <sleep@plt>:
  402cb0:	ff 25 aa 24 21 00    	jmpq   *0x2124aa(%rip)        # 615160 <_GLOBAL_OFFSET_TABLE_+0x160>
  402cb6:	68 29 00 00 00       	pushq  $0x29
  402cbb:	e9 50 fd ff ff       	jmpq   402a10 <_init+0x20>

0000000000402cc0 <pthread_mutex_unlock@plt>:
  402cc0:	ff 25 a2 24 21 00    	jmpq   *0x2124a2(%rip)        # 615168 <_GLOBAL_OFFSET_TABLE_+0x168>
  402cc6:	68 2a 00 00 00       	pushq  $0x2a
  402ccb:	e9 40 fd ff ff       	jmpq   402a10 <_init+0x20>

0000000000402cd0 <_ZNSt7__cxx1118basic_stringstreamIcSt11char_traitsIcESaIcEEC1ESt13_Ios_Openmode@plt>:
  402cd0:	ff 25 9a 24 21 00    	jmpq   *0x21249a(%rip)        # 615170 <_GLOBAL_OFFSET_TABLE_+0x170>
  402cd6:	68 2b 00 00 00       	pushq  $0x2b
  402cdb:	e9 30 fd ff ff       	jmpq   402a10 <_init+0x20>

0000000000402ce0 <_ZNSt7__cxx1112basic_stringIcSt11char_traitsIcESaIcEE13_M_local_dataEv@plt>:
  402ce0:	ff 25 92 24 21 00    	jmpq   *0x212492(%rip)        # 615178 <_GLOBAL_OFFSET_TABLE_+0x178>
  402ce6:	68 2c 00 00 00       	pushq  $0x2c
  402ceb:	e9 20 fd ff ff       	jmpq   402a10 <_init+0x20>

0000000000402cf0 <connect@plt>:
  402cf0:	ff 25 8a 24 21 00    	jmpq   *0x21248a(%rip)        # 615180 <_GLOBAL_OFFSET_TABLE_+0x180>
  402cf6:	68 2d 00 00 00       	pushq  $0x2d
  402cfb:	e9 10 fd ff ff       	jmpq   402a10 <_init+0x20>

0000000000402d00 <_ZNSt7__cxx1112basic_stringIcSt11char_traitsIcESaIcEE7_M_dataEPc@plt>:
  402d00:	ff 25 82 24 21 00    	jmpq   *0x212482(%rip)        # 615188 <_GLOBAL_OFFSET_TABLE_+0x188>
  402d06:	68 2e 00 00 00       	pushq  $0x2e
  402d0b:	e9 00 fd ff ff       	jmpq   402a10 <_init+0x20>

0000000000402d10 <_ZStlsIcSt11char_traitsIcESaIcEERSt13basic_ostreamIT_T0_ES7_RKNSt7__cxx1112basic_stringIS4_S5_T1_EE@plt>:
  402d10:	ff 25 7a 24 21 00    	jmpq   *0x21247a(%rip)        # 615190 <_GLOBAL_OFFSET_TABLE_+0x190>
  402d16:	68 2f 00 00 00       	pushq  $0x2f
  402d1b:	e9 f0 fc ff ff       	jmpq   402a10 <_init+0x20>

0000000000402d20 <pthread_self@plt>:
  402d20:	ff 25 72 24 21 00    	jmpq   *0x212472(%rip)        # 615198 <_GLOBAL_OFFSET_TABLE_+0x198>
  402d26:	68 30 00 00 00       	pushq  $0x30
  402d2b:	e9 e0 fc ff ff       	jmpq   402a10 <_init+0x20>

0000000000402d30 <time@plt>:
  402d30:	ff 25 6a 24 21 00    	jmpq   *0x21246a(%rip)        # 6151a0 <_GLOBAL_OFFSET_TABLE_+0x1a0>
  402d36:	68 31 00 00 00       	pushq  $0x31
  402d3b:	e9 d0 fc ff ff       	jmpq   402a10 <_init+0x20>

0000000000402d40 <_ZNSt6thread15_M_start_threadESt10shared_ptrINS_10_Impl_baseEEPFvvE@plt>:
  402d40:	ff 25 62 24 21 00    	jmpq   *0x212462(%rip)        # 6151a8 <_GLOBAL_OFFSET_TABLE_+0x1a8>
  402d46:	68 32 00 00 00       	pushq  $0x32
  402d4b:	e9 c0 fc ff ff       	jmpq   402a10 <_init+0x20>

0000000000402d50 <_ZdlPv@plt>:
  402d50:	ff 25 5a 24 21 00    	jmpq   *0x21245a(%rip)        # 6151b0 <_GLOBAL_OFFSET_TABLE_+0x1b0>
  402d56:	68 33 00 00 00       	pushq  $0x33
  402d5b:	e9 b0 fc ff ff       	jmpq   402a10 <_init+0x20>

0000000000402d60 <srand@plt>:
  402d60:	ff 25 52 24 21 00    	jmpq   *0x212452(%rip)        # 6151b8 <_GLOBAL_OFFSET_TABLE_+0x1b8>
  402d66:	68 34 00 00 00       	pushq  $0x34
  402d6b:	e9 a0 fc ff ff       	jmpq   402a10 <_init+0x20>

0000000000402d70 <_ZNKSt7__cxx1118basic_stringstreamIcSt11char_traitsIcESaIcEE3strEv@plt>:
  402d70:	ff 25 4a 24 21 00    	jmpq   *0x21244a(%rip)        # 6151c0 <_GLOBAL_OFFSET_TABLE_+0x1c0>
  402d76:	68 35 00 00 00       	pushq  $0x35
  402d7b:	e9 90 fc ff ff       	jmpq   402a10 <_init+0x20>

0000000000402d80 <_Znwm@plt>:
  402d80:	ff 25 42 24 21 00    	jmpq   *0x212442(%rip)        # 6151c8 <_GLOBAL_OFFSET_TABLE_+0x1c8>
  402d86:	68 36 00 00 00       	pushq  $0x36
  402d8b:	e9 80 fc ff ff       	jmpq   402a10 <_init+0x20>

0000000000402d90 <inet_addr@plt>:
  402d90:	ff 25 3a 24 21 00    	jmpq   *0x21243a(%rip)        # 6151d0 <_GLOBAL_OFFSET_TABLE_+0x1d0>
  402d96:	68 37 00 00 00       	pushq  $0x37
  402d9b:	e9 70 fc ff ff       	jmpq   402a10 <_init+0x20>

0000000000402da0 <_ZdlPvm@plt>:
  402da0:	ff 25 32 24 21 00    	jmpq   *0x212432(%rip)        # 6151d8 <_GLOBAL_OFFSET_TABLE_+0x1d8>
  402da6:	68 38 00 00 00       	pushq  $0x38
  402dab:	e9 60 fc ff ff       	jmpq   402a10 <_init+0x20>

0000000000402db0 <_ZNSt13runtime_errorD1Ev@plt>:
  402db0:	ff 25 2a 24 21 00    	jmpq   *0x21242a(%rip)        # 6151e0 <_GLOBAL_OFFSET_TABLE_+0x1e0>
  402db6:	68 39 00 00 00       	pushq  $0x39
  402dbb:	e9 50 fc ff ff       	jmpq   402a10 <_init+0x20>

0000000000402dc0 <_ZNKSt7__cxx1112basic_stringIcSt11char_traitsIcESaIcEE6substrEmm@plt>:
  402dc0:	ff 25 22 24 21 00    	jmpq   *0x212422(%rip)        # 6151e8 <_GLOBAL_OFFSET_TABLE_+0x1e8>
  402dc6:	68 3a 00 00 00       	pushq  $0x3a
  402dcb:	e9 40 fc ff ff       	jmpq   402a10 <_init+0x20>

0000000000402dd0 <_ZSt18_Rb_tree_decrementPSt18_Rb_tree_node_base@plt>:
  402dd0:	ff 25 1a 24 21 00    	jmpq   *0x21241a(%rip)        # 6151f0 <_GLOBAL_OFFSET_TABLE_+0x1f0>
  402dd6:	68 3b 00 00 00       	pushq  $0x3b
  402ddb:	e9 30 fc ff ff       	jmpq   402a10 <_init+0x20>

0000000000402de0 <_ZNSt7__cxx1112basic_stringIcSt11char_traitsIcESaIcEE12_Alloc_hiderC1EPcRKS3_@plt>:
  402de0:	ff 25 12 24 21 00    	jmpq   *0x212412(%rip)        # 6151f8 <_GLOBAL_OFFSET_TABLE_+0x1f8>
  402de6:	68 3c 00 00 00       	pushq  $0x3c
  402deb:	e9 20 fc ff ff       	jmpq   402a10 <_init+0x20>

0000000000402df0 <_ZNSaIcED1Ev@plt>:
  402df0:	ff 25 0a 24 21 00    	jmpq   *0x21240a(%rip)        # 615200 <_GLOBAL_OFFSET_TABLE_+0x200>
  402df6:	68 3d 00 00 00       	pushq  $0x3d
  402dfb:	e9 10 fc ff ff       	jmpq   402a10 <_init+0x20>

0000000000402e00 <_ZNKSt7__cxx1112basic_stringIcSt11char_traitsIcESaIcEE7_M_dataEv@plt>:
  402e00:	ff 25 02 24 21 00    	jmpq   *0x212402(%rip)        # 615208 <_GLOBAL_OFFSET_TABLE_+0x208>
  402e06:	68 3e 00 00 00       	pushq  $0x3e
  402e0b:	e9 00 fc ff ff       	jmpq   402a10 <_init+0x20>

0000000000402e10 <__stack_chk_fail@plt>:
  402e10:	ff 25 fa 23 21 00    	jmpq   *0x2123fa(%rip)        # 615210 <_GLOBAL_OFFSET_TABLE_+0x210>
  402e16:	68 3f 00 00 00       	pushq  $0x3f
  402e1b:	e9 f0 fb ff ff       	jmpq   402a10 <_init+0x20>

0000000000402e20 <listen@plt>:
  402e20:	ff 25 f2 23 21 00    	jmpq   *0x2123f2(%rip)        # 615218 <_GLOBAL_OFFSET_TABLE_+0x218>
  402e26:	68 40 00 00 00       	pushq  $0x40
  402e2b:	e9 e0 fb ff ff       	jmpq   402a10 <_init+0x20>

0000000000402e30 <_ZNSt7__cxx1112basic_stringIcSt11char_traitsIcESaIcEEaSEOS4_@plt>:
  402e30:	ff 25 ea 23 21 00    	jmpq   *0x2123ea(%rip)        # 615220 <_GLOBAL_OFFSET_TABLE_+0x220>
  402e36:	68 41 00 00 00       	pushq  $0x41
  402e3b:	e9 d0 fb ff ff       	jmpq   402a10 <_init+0x20>

0000000000402e40 <_ZNSt7__cxx1112basic_stringIcSt11char_traitsIcESaIcEE10_M_disposeEv@plt>:
  402e40:	ff 25 e2 23 21 00    	jmpq   *0x2123e2(%rip)        # 615228 <_GLOBAL_OFFSET_TABLE_+0x228>
  402e46:	68 42 00 00 00       	pushq  $0x42
  402e4b:	e9 c0 fb ff ff       	jmpq   402a10 <_init+0x20>

0000000000402e50 <__cxa_get_exception_ptr@plt>:
  402e50:	ff 25 da 23 21 00    	jmpq   *0x2123da(%rip)        # 615230 <_GLOBAL_OFFSET_TABLE_+0x230>
  402e56:	68 43 00 00 00       	pushq  $0x43
  402e5b:	e9 b0 fb ff ff       	jmpq   402a10 <_init+0x20>

0000000000402e60 <_ZNKSt7__cxx1112basic_stringIcSt11char_traitsIcESaIcEE4findEcm@plt>:
  402e60:	ff 25 d2 23 21 00    	jmpq   *0x2123d2(%rip)        # 615238 <_GLOBAL_OFFSET_TABLE_+0x238>
  402e66:	68 44 00 00 00       	pushq  $0x44
  402e6b:	e9 a0 fb ff ff       	jmpq   402a10 <_init+0x20>

0000000000402e70 <_ZNSo5writeEPKcl@plt>:
  402e70:	ff 25 ca 23 21 00    	jmpq   *0x2123ca(%rip)        # 615240 <_GLOBAL_OFFSET_TABLE_+0x240>
  402e76:	68 45 00 00 00       	pushq  $0x45
  402e7b:	e9 90 fb ff ff       	jmpq   402a10 <_init+0x20>

0000000000402e80 <_ZNSt7__cxx1112basic_stringIcSt11char_traitsIcESaIcEEC1EPKcRKS3_@plt>:
  402e80:	ff 25 c2 23 21 00    	jmpq   *0x2123c2(%rip)        # 615248 <_GLOBAL_OFFSET_TABLE_+0x248>
  402e86:	68 46 00 00 00       	pushq  $0x46
  402e8b:	e9 80 fb ff ff       	jmpq   402a10 <_init+0x20>

0000000000402e90 <_ZNSt7__cxx1112basic_stringIcSt11char_traitsIcESaIcEEC1Ev@plt>:
  402e90:	ff 25 ba 23 21 00    	jmpq   *0x2123ba(%rip)        # 615250 <_GLOBAL_OFFSET_TABLE_+0x250>
  402e96:	68 47 00 00 00       	pushq  $0x47
  402e9b:	e9 70 fb ff ff       	jmpq   402a10 <_init+0x20>

0000000000402ea0 <strcmp@plt>:
  402ea0:	ff 25 b2 23 21 00    	jmpq   *0x2123b2(%rip)        # 615258 <_GLOBAL_OFFSET_TABLE_+0x258>
  402ea6:	68 48 00 00 00       	pushq  $0x48
  402eab:	e9 60 fb ff ff       	jmpq   402a10 <_init+0x20>

0000000000402eb0 <__cxa_rethrow@plt>:
  402eb0:	ff 25 aa 23 21 00    	jmpq   *0x2123aa(%rip)        # 615260 <_GLOBAL_OFFSET_TABLE_+0x260>
  402eb6:	68 49 00 00 00       	pushq  $0x49
  402ebb:	e9 50 fb ff ff       	jmpq   402a10 <_init+0x20>

0000000000402ec0 <pthread_mutex_lock@plt>:
  402ec0:	ff 25 a2 23 21 00    	jmpq   *0x2123a2(%rip)        # 615268 <_GLOBAL_OFFSET_TABLE_+0x268>
  402ec6:	68 4a 00 00 00       	pushq  $0x4a
  402ecb:	e9 40 fb ff ff       	jmpq   402a10 <_init+0x20>

0000000000402ed0 <_ZNSt15basic_streambufIcSt11char_traitsIcEE5sgetcEv@plt>:
  402ed0:	ff 25 9a 23 21 00    	jmpq   *0x21239a(%rip)        # 615270 <_GLOBAL_OFFSET_TABLE_+0x270>
  402ed6:	68 4b 00 00 00       	pushq  $0x4b
  402edb:	e9 30 fb ff ff       	jmpq   402a10 <_init+0x20>

0000000000402ee0 <_ZNKSt7__cxx1112basic_stringIcSt11char_traitsIcESaIcEE6lengthEv@plt>:
  402ee0:	ff 25 92 23 21 00    	jmpq   *0x212392(%rip)        # 615278 <_GLOBAL_OFFSET_TABLE_+0x278>
  402ee6:	68 4c 00 00 00       	pushq  $0x4c
  402eeb:	e9 20 fb ff ff       	jmpq   402a10 <_init+0x20>

0000000000402ef0 <puts@plt>:
  402ef0:	ff 25 8a 23 21 00    	jmpq   *0x21238a(%rip)        # 615280 <_GLOBAL_OFFSET_TABLE_+0x280>
  402ef6:	68 4d 00 00 00       	pushq  $0x4d
  402efb:	e9 10 fb ff ff       	jmpq   402a10 <_init+0x20>

0000000000402f00 <atoi@plt>:
  402f00:	ff 25 82 23 21 00    	jmpq   *0x212382(%rip)        # 615288 <_GLOBAL_OFFSET_TABLE_+0x288>
  402f06:	68 4e 00 00 00       	pushq  $0x4e
  402f0b:	e9 00 fb ff ff       	jmpq   402a10 <_init+0x20>

0000000000402f10 <_ZNSt13runtime_errorC1ERKNSt7__cxx1112basic_stringIcSt11char_traitsIcESaIcEEE@plt>:
  402f10:	ff 25 7a 23 21 00    	jmpq   *0x21237a(%rip)        # 615290 <_GLOBAL_OFFSET_TABLE_+0x290>
  402f16:	68 4f 00 00 00       	pushq  $0x4f
  402f1b:	e9 f0 fa ff ff       	jmpq   402a10 <_init+0x20>

0000000000402f20 <memmove@plt>:
  402f20:	ff 25 72 23 21 00    	jmpq   *0x212372(%rip)        # 615298 <_GLOBAL_OFFSET_TABLE_+0x298>
  402f26:	68 50 00 00 00       	pushq  $0x50
  402f2b:	e9 e0 fa ff ff       	jmpq   402a10 <_init+0x20>

0000000000402f30 <__cxa_end_catch@plt>:
  402f30:	ff 25 6a 23 21 00    	jmpq   *0x21236a(%rip)        # 6152a0 <_GLOBAL_OFFSET_TABLE_+0x2a0>
  402f36:	68 51 00 00 00       	pushq  $0x51
  402f3b:	e9 d0 fa ff ff       	jmpq   402a10 <_init+0x20>

0000000000402f40 <__gxx_personality_v0@plt>:
  402f40:	ff 25 62 23 21 00    	jmpq   *0x212362(%rip)        # 6152a8 <_GLOBAL_OFFSET_TABLE_+0x2a8>
  402f46:	68 52 00 00 00       	pushq  $0x52
  402f4b:	e9 c0 fa ff ff       	jmpq   402a10 <_init+0x20>

0000000000402f50 <__pthread_key_create@plt>:
  402f50:	ff 25 5a 23 21 00    	jmpq   *0x21235a(%rip)        # 6152b0 <_GLOBAL_OFFSET_TABLE_+0x2b0>
  402f56:	68 53 00 00 00       	pushq  $0x53
  402f5b:	e9 b0 fa ff ff       	jmpq   402a10 <_init+0x20>

0000000000402f60 <_ZNKSt7__cxx1112basic_stringIcSt11char_traitsIcESaIcEE5emptyEv@plt>:
  402f60:	ff 25 52 23 21 00    	jmpq   *0x212352(%rip)        # 6152b8 <_GLOBAL_OFFSET_TABLE_+0x2b8>
  402f66:	68 54 00 00 00       	pushq  $0x54
  402f6b:	e9 a0 fa ff ff       	jmpq   402a10 <_init+0x20>

0000000000402f70 <_ZNSt9basic_iosIcSt11char_traitsIcEE5clearESt12_Ios_Iostate@plt>:
  402f70:	ff 25 4a 23 21 00    	jmpq   *0x21234a(%rip)        # 6152c0 <_GLOBAL_OFFSET_TABLE_+0x2c0>
  402f76:	68 55 00 00 00       	pushq  $0x55
  402f7b:	e9 90 fa ff ff       	jmpq   402a10 <_init+0x20>

0000000000402f80 <_ZNSt6thread4joinEv@plt>:
  402f80:	ff 25 42 23 21 00    	jmpq   *0x212342(%rip)        # 6152c8 <_GLOBAL_OFFSET_TABLE_+0x2c8>
  402f86:	68 56 00 00 00       	pushq  $0x56
  402f8b:	e9 80 fa ff ff       	jmpq   402a10 <_init+0x20>

0000000000402f90 <__cxa_throw@plt>:
  402f90:	ff 25 3a 23 21 00    	jmpq   *0x21233a(%rip)        # 6152d0 <_GLOBAL_OFFSET_TABLE_+0x2d0>
  402f96:	68 57 00 00 00       	pushq  $0x57
  402f9b:	e9 70 fa ff ff       	jmpq   402a10 <_init+0x20>

0000000000402fa0 <_ZNSi5tellgEv@plt>:
  402fa0:	ff 25 32 23 21 00    	jmpq   *0x212332(%rip)        # 6152d8 <_GLOBAL_OFFSET_TABLE_+0x2d8>
  402fa6:	68 58 00 00 00       	pushq  $0x58
  402fab:	e9 60 fa ff ff       	jmpq   402a10 <_init+0x20>

0000000000402fb0 <pthread_equal@plt>:
  402fb0:	ff 25 2a 23 21 00    	jmpq   *0x21232a(%rip)        # 6152e0 <_GLOBAL_OFFSET_TABLE_+0x2e0>
  402fb6:	68 59 00 00 00       	pushq  $0x59
  402fbb:	e9 50 fa ff ff       	jmpq   402a10 <_init+0x20>

0000000000402fc0 <_Unwind_Resume@plt>:
  402fc0:	ff 25 22 23 21 00    	jmpq   *0x212322(%rip)        # 6152e8 <_GLOBAL_OFFSET_TABLE_+0x2e8>
  402fc6:	68 5a 00 00 00       	pushq  $0x5a
  402fcb:	e9 40 fa ff ff       	jmpq   402a10 <_init+0x20>

0000000000402fd0 <_ZNSaIcEC1Ev@plt>:
  402fd0:	ff 25 1a 23 21 00    	jmpq   *0x21231a(%rip)        # 6152f0 <_GLOBAL_OFFSET_TABLE_+0x2f0>
  402fd6:	68 5b 00 00 00       	pushq  $0x5b
  402fdb:	e9 30 fa ff ff       	jmpq   402a10 <_init+0x20>

0000000000402fe0 <setsockopt@plt>:
  402fe0:	ff 25 12 23 21 00    	jmpq   *0x212312(%rip)        # 6152f8 <_GLOBAL_OFFSET_TABLE_+0x2f8>
  402fe6:	68 5c 00 00 00       	pushq  $0x5c
  402feb:	e9 20 fa ff ff       	jmpq   402a10 <_init+0x20>

0000000000402ff0 <_ZNSt7__cxx1112basic_stringIcSt11char_traitsIcESaIcEE9_M_createERmm@plt>:
  402ff0:	ff 25 0a 23 21 00    	jmpq   *0x21230a(%rip)        # 615300 <_GLOBAL_OFFSET_TABLE_+0x300>
  402ff6:	68 5d 00 00 00       	pushq  $0x5d
  402ffb:	e9 10 fa ff ff       	jmpq   402a10 <_init+0x20>

0000000000403000 <_ZNSt14basic_ifstreamIcSt11char_traitsIcEEC1EPKcSt13_Ios_Openmode@plt>:
  403000:	ff 25 02 23 21 00    	jmpq   *0x212302(%rip)        # 615308 <_GLOBAL_OFFSET_TABLE_+0x308>
  403006:	68 5e 00 00 00       	pushq  $0x5e
  40300b:	e9 00 fa ff ff       	jmpq   402a10 <_init+0x20>

0000000000403010 <_ZNKSt9basic_iosIcSt11char_traitsIcEE3eofEv@plt>:
  403010:	ff 25 fa 22 21 00    	jmpq   *0x2122fa(%rip)        # 615310 <_GLOBAL_OFFSET_TABLE_+0x310>
  403016:	68 5f 00 00 00       	pushq  $0x5f
  40301b:	e9 f0 f9 ff ff       	jmpq   402a10 <_init+0x20>

0000000000403020 <__libc_start_main@plt>:
  403020:	ff 25 f2 22 21 00    	jmpq   *0x2122f2(%rip)        # 615318 <_GLOBAL_OFFSET_TABLE_+0x318>
  403026:	68 60 00 00 00       	pushq  $0x60
  40302b:	e9 e0 f9 ff ff       	jmpq   402a10 <_init+0x20>

0000000000403030 <__cxa_pure_virtual@plt>:
  403030:	ff 25 ea 22 21 00    	jmpq   *0x2122ea(%rip)        # 615320 <_GLOBAL_OFFSET_TABLE_+0x320>
  403036:	68 61 00 00 00       	pushq  $0x61
  40303b:	e9 d0 f9 ff ff       	jmpq   402a10 <_init+0x20>

0000000000403040 <_ZNSt7__cxx1112basic_stringIcSt11char_traitsIcESaIcEE6appendEPKc@plt>:
  403040:	ff 25 e2 22 21 00    	jmpq   *0x2122e2(%rip)        # 615328 <_GLOBAL_OFFSET_TABLE_+0x328>
  403046:	68 62 00 00 00       	pushq  $0x62
  40304b:	e9 c0 f9 ff ff       	jmpq   402a10 <_init+0x20>

0000000000403050 <close@plt>:
  403050:	ff 25 da 22 21 00    	jmpq   *0x2122da(%rip)        # 615330 <_GLOBAL_OFFSET_TABLE_+0x330>
  403056:	68 63 00 00 00       	pushq  $0x63
  40305b:	e9 b0 f9 ff ff       	jmpq   402a10 <_init+0x20>

0000000000403060 <_ZNKSt7__cxx1112basic_stringIcSt11char_traitsIcESaIcEE5rfindEcm@plt>:
  403060:	ff 25 d2 22 21 00    	jmpq   *0x2122d2(%rip)        # 615338 <_GLOBAL_OFFSET_TABLE_+0x338>
  403066:	68 64 00 00 00       	pushq  $0x64
  40306b:	e9 a0 f9 ff ff       	jmpq   402a10 <_init+0x20>

0000000000403070 <_ZNSt7__cxx1112basic_stringIcSt11char_traitsIcESaIcEE11_M_capacityEm@plt>:
  403070:	ff 25 ca 22 21 00    	jmpq   *0x2122ca(%rip)        # 615340 <_GLOBAL_OFFSET_TABLE_+0x340>
  403076:	68 65 00 00 00       	pushq  $0x65
  40307b:	e9 90 f9 ff ff       	jmpq   402a10 <_init+0x20>

Disassembly of section .plt.got:

0000000000403080 <.plt.got>:
  403080:	ff 25 72 1f 21 00    	jmpq   *0x211f72(%rip)        # 614ff8 <_DYNAMIC+0x200>
  403086:	66 90                	xchg   %ax,%ax

Disassembly of section .text:

0000000000403090 <_start>:
  403090:	31 ed                	xor    %ebp,%ebp
  403092:	49 89 d1             	mov    %rdx,%r9
  403095:	5e                   	pop    %rsi
  403096:	48 89 e2             	mov    %rsp,%rdx
  403099:	48 83 e4 f0          	and    $0xfffffffffffffff0,%rsp
  40309d:	50                   	push   %rax
  40309e:	54                   	push   %rsp
  40309f:	49 c7 c0 70 de 40 00 	mov    $0x40de70,%r8
  4030a6:	48 c7 c1 00 de 40 00 	mov    $0x40de00,%rcx
  4030ad:	48 c7 c7 86 31 40 00 	mov    $0x403186,%rdi
  4030b4:	e8 67 ff ff ff       	callq  403020 <__libc_start_main@plt>
  4030b9:	f4                   	hlt    
  4030ba:	66 0f 1f 44 00 00    	nopw   0x0(%rax,%rax,1)

00000000004030c0 <deregister_tm_clones>:
  4030c0:	b8 67 53 61 00       	mov    $0x615367,%eax
  4030c5:	55                   	push   %rbp
  4030c6:	48 2d 60 53 61 00    	sub    $0x615360,%rax
  4030cc:	48 83 f8 0e          	cmp    $0xe,%rax
  4030d0:	48 89 e5             	mov    %rsp,%rbp
  4030d3:	76 1b                	jbe    4030f0 <deregister_tm_clones+0x30>
  4030d5:	b8 00 00 00 00       	mov    $0x0,%eax
  4030da:	48 85 c0             	test   %rax,%rax
  4030dd:	74 11                	je     4030f0 <deregister_tm_clones+0x30>
  4030df:	5d                   	pop    %rbp
  4030e0:	bf 60 53 61 00       	mov    $0x615360,%edi
  4030e5:	ff e0                	jmpq   *%rax
  4030e7:	66 0f 1f 84 00 00 00 	nopw   0x0(%rax,%rax,1)
  4030ee:	00 00 
  4030f0:	5d                   	pop    %rbp
  4030f1:	c3                   	retq   
  4030f2:	0f 1f 40 00          	nopl   0x0(%rax)
  4030f6:	66 2e 0f 1f 84 00 00 	nopw   %cs:0x0(%rax,%rax,1)
  4030fd:	00 00 00 

0000000000403100 <register_tm_clones>:
  403100:	be 60 53 61 00       	mov    $0x615360,%esi
  403105:	55                   	push   %rbp
  403106:	48 81 ee 60 53 61 00 	sub    $0x615360,%rsi
  40310d:	48 c1 fe 03          	sar    $0x3,%rsi
  403111:	48 89 e5             	mov    %rsp,%rbp
  403114:	48 89 f0             	mov    %rsi,%rax
  403117:	48 c1 e8 3f          	shr    $0x3f,%rax
  40311b:	48 01 c6             	add    %rax,%rsi
  40311e:	48 d1 fe             	sar    %rsi
  403121:	74 15                	je     403138 <register_tm_clones+0x38>
  403123:	b8 00 00 00 00       	mov    $0x0,%eax
  403128:	48 85 c0             	test   %rax,%rax
  40312b:	74 0b                	je     403138 <register_tm_clones+0x38>
  40312d:	5d                   	pop    %rbp
  40312e:	bf 60 53 61 00       	mov    $0x615360,%edi
  403133:	ff e0                	jmpq   *%rax
  403135:	0f 1f 00             	nopl   (%rax)
  403138:	5d                   	pop    %rbp
  403139:	c3                   	retq   
  40313a:	66 0f 1f 44 00 00    	nopw   0x0(%rax,%rax,1)

0000000000403140 <__do_global_dtors_aux>:
  403140:	80 3d e1 22 21 00 00 	cmpb   $0x0,0x2122e1(%rip)        # 615428 <completed.7585>
  403147:	75 11                	jne    40315a <__do_global_dtors_aux+0x1a>
  403149:	55                   	push   %rbp
  40314a:	48 89 e5             	mov    %rsp,%rbp
  40314d:	e8 6e ff ff ff       	callq  4030c0 <deregister_tm_clones>
  403152:	5d                   	pop    %rbp
  403153:	c6 05 ce 22 21 00 01 	movb   $0x1,0x2122ce(%rip)        # 615428 <completed.7585>
  40315a:	f3 c3                	repz retq 
  40315c:	0f 1f 40 00          	nopl   0x0(%rax)

0000000000403160 <frame_dummy>:
  403160:	bf f0 4d 61 00       	mov    $0x614df0,%edi
  403165:	48 83 3f 00          	cmpq   $0x0,(%rdi)
  403169:	75 05                	jne    403170 <frame_dummy+0x10>
  40316b:	eb 93                	jmp    403100 <register_tm_clones>
  40316d:	0f 1f 00             	nopl   (%rax)
  403170:	b8 00 00 00 00       	mov    $0x0,%eax
  403175:	48 85 c0             	test   %rax,%rax
  403178:	74 f1                	je     40316b <frame_dummy+0xb>
  40317a:	55                   	push   %rbp
  40317b:	48 89 e5             	mov    %rsp,%rbp
  40317e:	ff d0                	callq  *%rax
  403180:	5d                   	pop    %rbp
  403181:	e9 7a ff ff ff       	jmpq   403100 <register_tm_clones>

0000000000403186 <main>:
  403186:	55                   	push   %rbp
  403187:	48 89 e5             	mov    %rsp,%rbp
  40318a:	41 57                	push   %r15
  40318c:	41 56                	push   %r14
  40318e:	41 55                	push   %r13
  403190:	41 54                	push   %r12
  403192:	53                   	push   %rbx
  403193:	48 81 ec 78 04 00 00 	sub    $0x478,%rsp
  40319a:	89 bd 8c fb ff ff    	mov    %edi,-0x474(%rbp)
  4031a0:	48 89 b5 80 fb ff ff 	mov    %rsi,-0x480(%rbp)
  4031a7:	64 48 8b 04 25 28 00 	mov    %fs:0x28,%rax
  4031ae:	00 00 
  4031b0:	48 89 45 c8          	mov    %rax,-0x38(%rbp)
  4031b4:	31 c0                	xor    %eax,%eax
  4031b6:	c7 85 94 fb ff ff 00 	movl   $0x0,-0x46c(%rbp)
  4031bd:	00 00 00 
  4031c0:	e8 f2 3f 00 00       	callq  4071b7 <_Z8net_initv>
  4031c5:	48 8b 85 80 fb ff ff 	mov    -0x480(%rbp),%rax
  4031cc:	48 8b 40 08          	mov    0x8(%rax),%rax
  4031d0:	48 89 85 a8 fb ff ff 	mov    %rax,-0x458(%rbp)
  4031d7:	48 8b 85 80 fb ff ff 	mov    -0x480(%rbp),%rax
  4031de:	48 83 c0 10          	add    $0x10,%rax
  4031e2:	48 8b 00             	mov    (%rax),%rax
  4031e5:	48 89 c7             	mov    %rax,%rdi
  4031e8:	e8 13 fd ff ff       	callq  402f00 <atoi@plt>
  4031ed:	89 85 98 fb ff ff    	mov    %eax,-0x468(%rbp)
  4031f3:	8b 95 98 fb ff ff    	mov    -0x468(%rbp),%edx
  4031f9:	48 8b 85 a8 fb ff ff 	mov    -0x458(%rbp),%rax
  403200:	89 d6                	mov    %edx,%esi
  403202:	48 89 c7             	mov    %rax,%rdi
  403205:	e8 b2 40 00 00       	callq  4072bc <_Z17create_connectionPKci>
  40320a:	89 85 9c fb ff ff    	mov    %eax,-0x464(%rbp)
  403210:	bf 00 00 00 00       	mov    $0x0,%edi
  403215:	e8 16 fb ff ff       	callq  402d30 <time@plt>
  40321a:	89 c7                	mov    %eax,%edi
  40321c:	e8 3f fb ff ff       	callq  402d60 <srand@plt>
  403221:	e8 ba f8 ff ff       	callq  402ae0 <rand@plt>
  403226:	89 c1                	mov    %eax,%ecx
  403228:	ba 89 b5 f8 14       	mov    $0x14f8b589,%edx
  40322d:	89 c8                	mov    %ecx,%eax
  40322f:	f7 ea                	imul   %edx
  403231:	c1 fa 0d             	sar    $0xd,%edx
  403234:	89 c8                	mov    %ecx,%eax
  403236:	c1 f8 1f             	sar    $0x1f,%eax
  403239:	29 c2                	sub    %eax,%edx
  40323b:	89 d0                	mov    %edx,%eax
  40323d:	69 c0 a0 86 01 00    	imul   $0x186a0,%eax,%eax
  403243:	29 c1                	sub    %eax,%ecx
  403245:	89 c8                	mov    %ecx,%eax
  403247:	89 85 a0 fb ff ff    	mov    %eax,-0x460(%rbp)
  40324d:	8b 85 a0 fb ff ff    	mov    -0x460(%rbp),%eax
  403253:	89 c6                	mov    %eax,%esi
  403255:	bf 87 de 40 00       	mov    $0x40de87,%edi
  40325a:	b8 00 00 00 00       	mov    $0x0,%eax
  40325f:	e8 ec f7 ff ff       	callq  402a50 <printf@plt>
  403264:	48 8d 85 90 fc ff ff 	lea    -0x370(%rbp),%rax
  40326b:	48 89 c7             	mov    %rax,%rdi
  40326e:	e8 e1 0d 00 00       	callq  404054 <_ZNSt3mapINSt7__cxx1112basic_stringIcSt11char_traitsIcESaIcEEES5_St4lessIS5_ESaISt4pairIKS5_S5_EEEC1Ev>
  403273:	48 8d 95 90 fc ff ff 	lea    -0x370(%rbp),%rdx
  40327a:	8b 85 9c fb ff ff    	mov    -0x464(%rbp),%eax
  403280:	41 b8 00 00 00 00    	mov    $0x0,%r8d
  403286:	b9 00 00 00 00       	mov    $0x0,%ecx
  40328b:	be 93 de 40 00       	mov    $0x40de93,%esi
  403290:	89 c7                	mov    %eax,%edi
  403292:	e8 4a 41 00 00       	callq  4073e1 <_Z13write_requestiPKcSt3mapINSt7__cxx1112basic_stringIcSt11char_traitsIcESaIcEEES7_St4lessIS7_ESaISt4pairIKS7_S7_EEEPKvi>
  403297:	48 8d 85 90 fc ff ff 	lea    -0x370(%rbp),%rax
  40329e:	48 89 c7             	mov    %rax,%rdi
  4032a1:	e8 e4 09 00 00       	callq  403c8a <_ZNSt3mapINSt7__cxx1112basic_stringIcSt11char_traitsIcESaIcEEES5_St4lessIS5_ESaISt4pairIKS5_S5_EEED1Ev>
  4032a6:	48 8d 85 d0 fb ff ff 	lea    -0x430(%rbp),%rax
  4032ad:	48 89 c7             	mov    %rax,%rdi
  4032b0:	e8 9f 0d 00 00       	callq  404054 <_ZNSt3mapINSt7__cxx1112basic_stringIcSt11char_traitsIcESaIcEEES5_St4lessIS5_ESaISt4pairIKS5_S5_EEEC1Ev>
  4032b5:	48 8d 85 b0 fb ff ff 	lea    -0x450(%rbp),%rax
  4032bc:	48 89 c7             	mov    %rax,%rdi
  4032bf:	e8 02 0e 00 00       	callq  4040c6 <_ZNSt6vectorIhSaIhEEC1Ev>
  4032c4:	48 8d 95 b0 fb ff ff 	lea    -0x450(%rbp),%rdx
  4032cb:	48 8d 8d d0 fb ff ff 	lea    -0x430(%rbp),%rcx
  4032d2:	8b 85 9c fb ff ff    	mov    -0x464(%rbp),%eax
  4032d8:	48 89 ce             	mov    %rcx,%rsi
  4032db:	89 c7                	mov    %eax,%edi
  4032dd:	e8 d3 4d 00 00       	callq  4080b5 <_Z13read_responseiRSt3mapINSt7__cxx1112basic_stringIcSt11char_traitsIcESaIcEEES5_St4lessIS5_ESaISt4pairIKS5_S5_EEERSt6vectorIhSaIhEE>
  4032e2:	48 8d 85 90 fc ff ff 	lea    -0x370(%rbp),%rax
  4032e9:	48 89 c7             	mov    %rax,%rdi
  4032ec:	e8 df fc ff ff       	callq  402fd0 <_ZNSaIcEC1Ev@plt>
  4032f1:	48 8d 95 90 fc ff ff 	lea    -0x370(%rbp),%rdx
  4032f8:	48 8d 85 e0 fc ff ff 	lea    -0x320(%rbp),%rax
  4032ff:	be a4 de 40 00       	mov    $0x40dea4,%esi
  403304:	48 89 c7             	mov    %rax,%rdi
  403307:	e8 74 fb ff ff       	callq  402e80 <_ZNSt7__cxx1112basic_stringIcSt11char_traitsIcESaIcEEC1EPKcRKS3_@plt>
  40330c:	48 8d 95 e0 fc ff ff 	lea    -0x320(%rbp),%rdx
  403313:	48 8d 85 d0 fb ff ff 	lea    -0x430(%rbp),%rax
  40331a:	48 89 d6             	mov    %rdx,%rsi
  40331d:	48 89 c7             	mov    %rax,%rdi
  403320:	e8 2b 0e 00 00       	callq  404150 <_ZNSt3mapINSt7__cxx1112basic_stringIcSt11char_traitsIcESaIcEEES5_St4lessIS5_ESaISt4pairIKS5_S5_EEEixEOS5_>
  403325:	48 89 c2             	mov    %rax,%rdx
  403328:	48 8d 85 c0 fc ff ff 	lea    -0x340(%rbp),%rax
  40332f:	48 89 d6             	mov    %rdx,%rsi
  403332:	48 89 c7             	mov    %rax,%rdi
  403335:	e8 66 f8 ff ff       	callq  402ba0 <_ZNSt7__cxx1112basic_stringIcSt11char_traitsIcESaIcEEC1ERKS4_@plt>
  40333a:	48 8d 85 e0 fc ff ff 	lea    -0x320(%rbp),%rax
  403341:	48 89 c7             	mov    %rax,%rdi
  403344:	e8 d7 f8 ff ff       	callq  402c20 <_ZNSt7__cxx1112basic_stringIcSt11char_traitsIcESaIcEED1Ev@plt>
  403349:	48 8d 85 90 fc ff ff 	lea    -0x370(%rbp),%rax
  403350:	48 89 c7             	mov    %rax,%rdi
  403353:	e8 98 fa ff ff       	callq  402df0 <_ZNSaIcED1Ev@plt>
  403358:	48 8d 85 c0 fc ff ff 	lea    -0x340(%rbp),%rax
  40335f:	48 89 c7             	mov    %rax,%rdi
  403362:	e8 19 f8 ff ff       	callq  402b80 <_ZNKSt7__cxx1112basic_stringIcSt11char_traitsIcESaIcEE5c_strEv@plt>
  403367:	48 89 c7             	mov    %rax,%rdi
  40336a:	e8 91 fb ff ff       	callq  402f00 <atoi@plt>
  40336f:	89 85 a4 fb ff ff    	mov    %eax,-0x45c(%rbp)
  403375:	8b 85 a4 fb ff ff    	mov    -0x45c(%rbp),%eax
  40337b:	89 c6                	mov    %eax,%esi
  40337d:	bf af de 40 00       	mov    $0x40deaf,%edi
  403382:	b8 00 00 00 00       	mov    $0x0,%eax
  403387:	e8 c4 f6 ff ff       	callq  402a50 <printf@plt>
  40338c:	48 8d 85 c0 fc ff ff 	lea    -0x340(%rbp),%rax
  403393:	be ba de 40 00       	mov    $0x40deba,%esi
  403398:	48 89 c7             	mov    %rax,%rdi
  40339b:	e8 03 0f 00 00       	callq  4042a3 <_ZSteqIcSt11char_traitsIcESaIcEEbRKNSt7__cxx1112basic_stringIT_T0_T1_EEPKS5_>
  4033a0:	84 c0                	test   %al,%al
  4033a2:	0f 84 f1 00 00 00    	je     403499 <main+0x313>
  4033a8:	bf c6 de 40 00       	mov    $0x40dec6,%edi
  4033ad:	e8 3e fb ff ff       	callq  402ef0 <puts@plt>
  4033b2:	48 8d 85 00 fd ff ff 	lea    -0x300(%rbp),%rax
  4033b9:	ba 58 53 61 00       	mov    $0x615358,%edx
  4033be:	be d2 de 40 00       	mov    $0x40ded2,%esi
  4033c3:	48 89 c7             	mov    %rax,%rdi
  4033c6:	e8 f7 08 00 00       	callq  403cc2 <_ZNSt4pairIKNSt7__cxx1112basic_stringIcSt11char_traitsIcESaIcEEES5_EC1IRA11_KcRA4_cvEEOT_OT0_>
  4033cb:	48 8d 85 00 fd ff ff 	lea    -0x300(%rbp),%rax
  4033d2:	48 89 85 60 fb ff ff 	mov    %rax,-0x4a0(%rbp)
  4033d9:	48 c7 85 68 fb ff ff 	movq   $0x1,-0x498(%rbp)
  4033e0:	01 00 00 00 
  4033e4:	48 8d 85 90 fc ff ff 	lea    -0x370(%rbp),%rax
  4033eb:	48 89 c7             	mov    %rax,%rdi
  4033ee:	e8 db 0e 00 00       	callq  4042ce <_ZNSaISt4pairIKNSt7__cxx1112basic_stringIcSt11char_traitsIcESaIcEEES5_EEC1Ev>
  4033f3:	4c 8d 85 90 fc ff ff 	lea    -0x370(%rbp),%r8
  4033fa:	48 8d 95 60 fc ff ff 	lea    -0x3a0(%rbp),%rdx
  403401:	48 8b 8d 60 fb ff ff 	mov    -0x4a0(%rbp),%rcx
  403408:	48 8b 9d 68 fb ff ff 	mov    -0x498(%rbp),%rbx
  40340f:	48 89 ce             	mov    %rcx,%rsi
  403412:	48 89 df             	mov    %rbx,%rdi
  403415:	48 89 df             	mov    %rbx,%rdi
  403418:	48 8d 85 00 fc ff ff 	lea    -0x400(%rbp),%rax
  40341f:	48 89 d1             	mov    %rdx,%rcx
  403422:	48 89 fa             	mov    %rdi,%rdx
  403425:	48 89 c7             	mov    %rax,%rdi
  403428:	e8 33 0f 00 00       	callq  404360 <_ZNSt3mapINSt7__cxx1112basic_stringIcSt11char_traitsIcESaIcEEES5_St4lessIS5_ESaISt4pairIKS5_S5_EEEC1ESt16initializer_listISA_ERKS7_RKSB_>
  40342d:	48 8d 95 00 fc ff ff 	lea    -0x400(%rbp),%rdx
  403434:	8b 85 9c fb ff ff    	mov    -0x464(%rbp),%eax
  40343a:	41 b8 00 00 00 00    	mov    $0x0,%r8d
  403440:	b9 00 00 00 00       	mov    $0x0,%ecx
  403445:	be dd de 40 00       	mov    $0x40dedd,%esi
  40344a:	89 c7                	mov    %eax,%edi
  40344c:	e8 90 3f 00 00       	callq  4073e1 <_Z13write_requestiPKcSt3mapINSt7__cxx1112basic_stringIcSt11char_traitsIcESaIcEEES7_St4lessIS7_ESaISt4pairIKS7_S7_EEEPKvi>
  403451:	48 8d 85 00 fc ff ff 	lea    -0x400(%rbp),%rax
  403458:	48 89 c7             	mov    %rax,%rdi
  40345b:	e8 2a 08 00 00       	callq  403c8a <_ZNSt3mapINSt7__cxx1112basic_stringIcSt11char_traitsIcESaIcEEES5_St4lessIS5_ESaISt4pairIKS5_S5_EEED1Ev>
  403460:	48 8d 85 90 fc ff ff 	lea    -0x370(%rbp),%rax
  403467:	48 89 c7             	mov    %rax,%rdi
  40346a:	e8 7b 0e 00 00       	callq  4042ea <_ZNSaISt4pairIKNSt7__cxx1112basic_stringIcSt11char_traitsIcESaIcEEES5_EED1Ev>
  40346f:	48 8d 9d 00 fd ff ff 	lea    -0x300(%rbp),%rbx
  403476:	48 83 c3 40          	add    $0x40,%rbx
  40347a:	48 8d 85 00 fd ff ff 	lea    -0x300(%rbp),%rax
  403481:	48 39 c3             	cmp    %rax,%rbx
  403484:	0f 84 ae 04 00 00    	je     403938 <main+0x7b2>
  40348a:	90                   	nop
  40348b:	48 83 eb 40          	sub    $0x40,%rbx
  40348f:	48 89 df             	mov    %rbx,%rdi
  403492:	e8 25 09 00 00       	callq  403dbc <_ZNSt4pairIKNSt7__cxx1112basic_stringIcSt11char_traitsIcESaIcEEES5_ED1Ev>
  403497:	eb e1                	jmp    40347a <main+0x2f4>
  403499:	48 8d 85 c0 fc ff ff 	lea    -0x340(%rbp),%rax
  4034a0:	be df de 40 00       	mov    $0x40dedf,%esi
  4034a5:	48 89 c7             	mov    %rax,%rdi
  4034a8:	e8 f6 0d 00 00       	callq  4042a3 <_ZSteqIcSt11char_traitsIcESaIcEEbRKNSt7__cxx1112basic_stringIT_T0_T1_EEPKS5_>
  4034ad:	84 c0                	test   %al,%al
  4034af:	0f 84 34 01 00 00    	je     4035e9 <main+0x463>
  4034b5:	bf eb de 40 00       	mov    $0x40deeb,%edi
  4034ba:	e8 31 fa ff ff       	callq  402ef0 <puts@plt>
  4034bf:	48 8b 85 80 fb ff ff 	mov    -0x480(%rbp),%rax
  4034c6:	48 8b 08             	mov    (%rax),%rcx
  4034c9:	48 8d 85 c0 fd ff ff 	lea    -0x240(%rbp),%rax
  4034d0:	ba 04 00 00 00       	mov    $0x4,%edx
  4034d5:	48 89 ce             	mov    %rcx,%rsi
  4034d8:	48 89 c7             	mov    %rax,%rdi
  4034db:	e8 20 fb ff ff       	callq  403000 <_ZNSt14basic_ifstreamIcSt11char_traitsIcEEC1EPKcSt13_Ios_Openmode@plt>
  4034e0:	48 8d 85 00 fc ff ff 	lea    -0x400(%rbp),%rax
  4034e7:	48 89 c7             	mov    %rax,%rdi
  4034ea:	e8 b5 0f 00 00       	callq  4044a4 <_ZNSaIhEC1Ev>
  4034ef:	48 8d 85 90 fc ff ff 	lea    -0x370(%rbp),%rax
  4034f6:	48 89 c7             	mov    %rax,%rdi
  4034f9:	e8 f6 08 00 00       	callq  403df4 <_ZNSt19istreambuf_iteratorIcSt11char_traitsIcEEC1Ev>
  4034fe:	48 8d 95 c0 fd ff ff 	lea    -0x240(%rbp),%rdx
  403505:	48 8d 85 30 fc ff ff 	lea    -0x3d0(%rbp),%rax
  40350c:	48 89 d6             	mov    %rdx,%rsi
  40350f:	48 89 c7             	mov    %rax,%rdi
  403512:	e8 35 0f 00 00       	callq  40444c <_ZNSt19istreambuf_iteratorIcSt11char_traitsIcEEC1ERSi>
  403517:	4c 8d 85 00 fc ff ff 	lea    -0x400(%rbp),%r8
  40351e:	48 8b 8d 90 fc ff ff 	mov    -0x370(%rbp),%rcx
  403525:	48 8b bd 98 fc ff ff 	mov    -0x368(%rbp),%rdi
  40352c:	48 8b b5 30 fc ff ff 	mov    -0x3d0(%rbp),%rsi
  403533:	48 8b 95 38 fc ff ff 	mov    -0x3c8(%rbp),%rdx
  40353a:	48 8d 85 60 fc ff ff 	lea    -0x3a0(%rbp),%rax
  403541:	4d 89 c1             	mov    %r8,%r9
  403544:	49 89 f8             	mov    %rdi,%r8
  403547:	48 89 c7             	mov    %rax,%rdi
  40354a:	e8 8d 0f 00 00       	callq  4044dc <_ZNSt6vectorIhSaIhEEC1ISt19istreambuf_iteratorIcSt11char_traitsIcEEvEET_S7_RKS0_>
  40354f:	48 8d 85 00 fc ff ff 	lea    -0x400(%rbp),%rax
  403556:	48 89 c7             	mov    %rax,%rdi
  403559:	e8 62 0f 00 00       	callq  4044c0 <_ZNSaIhED1Ev>
  40355e:	48 8d 85 60 fc ff ff 	lea    -0x3a0(%rbp),%rax
  403565:	48 89 c7             	mov    %rax,%rdi
  403568:	e8 47 10 00 00       	callq  4045b4 <_ZNKSt6vectorIhSaIhEE4sizeEv>
  40356d:	89 85 88 fb ff ff    	mov    %eax,-0x478(%rbp)
  403573:	48 8d 85 60 fc ff ff 	lea    -0x3a0(%rbp),%rax
  40357a:	48 89 c7             	mov    %rax,%rdi
  40357d:	e8 0e 10 00 00       	callq  404590 <_ZNSt6vectorIhSaIhEE4dataEv>
  403582:	48 89 c3             	mov    %rax,%rbx
  403585:	48 8d 85 90 fc ff ff 	lea    -0x370(%rbp),%rax
  40358c:	48 89 c7             	mov    %rax,%rdi
  40358f:	e8 c0 0a 00 00       	callq  404054 <_ZNSt3mapINSt7__cxx1112basic_stringIcSt11char_traitsIcESaIcEEES5_St4lessIS5_ESaISt4pairIKS5_S5_EEEC1Ev>
  403594:	48 8d 95 90 fc ff ff 	lea    -0x370(%rbp),%rdx
  40359b:	8b 85 9c fb ff ff    	mov    -0x464(%rbp),%eax
  4035a1:	44 8b 85 88 fb ff ff 	mov    -0x478(%rbp),%r8d
  4035a8:	48 89 d9             	mov    %rbx,%rcx
  4035ab:	be dd de 40 00       	mov    $0x40dedd,%esi
  4035b0:	89 c7                	mov    %eax,%edi
  4035b2:	e8 2a 3e 00 00       	callq  4073e1 <_Z13write_requestiPKcSt3mapINSt7__cxx1112basic_stringIcSt11char_traitsIcESaIcEEES7_St4lessIS7_ESaISt4pairIKS7_S7_EEEPKvi>
  4035b7:	48 8d 85 90 fc ff ff 	lea    -0x370(%rbp),%rax
  4035be:	48 89 c7             	mov    %rax,%rdi
  4035c1:	e8 c4 06 00 00       	callq  403c8a <_ZNSt3mapINSt7__cxx1112basic_stringIcSt11char_traitsIcESaIcEEES5_St4lessIS5_ESaISt4pairIKS5_S5_EEED1Ev>
  4035c6:	48 8d 85 60 fc ff ff 	lea    -0x3a0(%rbp),%rax
  4035cd:	48 89 c7             	mov    %rax,%rdi
  4035d0:	e8 0d 0b 00 00       	callq  4040e2 <_ZNSt6vectorIhSaIhEED1Ev>
  4035d5:	48 8d 85 c0 fd ff ff 	lea    -0x240(%rbp),%rax
  4035dc:	48 89 c7             	mov    %rax,%rdi
  4035df:	e8 ec f4 ff ff       	callq  402ad0 <_ZNSt14basic_ifstreamIcSt11char_traitsIcEED1Ev@plt>
  4035e4:	e9 50 03 00 00       	jmpq   403939 <main+0x7b3>
  4035e9:	83 bd a4 fb ff ff 00 	cmpl   $0x0,-0x45c(%rbp)
  4035f0:	0f 84 fe 02 00 00    	je     4038f4 <main+0x76e>
  4035f6:	8b 85 a4 fb ff ff    	mov    -0x45c(%rbp),%eax
  4035fc:	3b 85 a0 fb ff ff    	cmp    -0x460(%rbp),%eax
  403602:	0f 85 ee 00 00 00    	jne    4036f6 <main+0x570>
  403608:	48 8d 85 40 fd ff ff 	lea    -0x2c0(%rbp),%rax
  40360f:	ba f7 de 40 00       	mov    $0x40def7,%edx
  403614:	be f9 de 40 00       	mov    $0x40def9,%esi
  403619:	48 89 c7             	mov    %rax,%rdi
  40361c:	e8 23 08 00 00       	callq  403e44 <_ZNSt4pairIKNSt7__cxx1112basic_stringIcSt11char_traitsIcESaIcEEES5_EC1IRA8_KcRA2_S9_vEEOT_OT0_>
  403621:	48 8d 85 40 fd ff ff 	lea    -0x2c0(%rbp),%rax
  403628:	48 89 85 70 fb ff ff 	mov    %rax,-0x490(%rbp)
  40362f:	48 c7 85 78 fb ff ff 	movq   $0x1,-0x488(%rbp)
  403636:	01 00 00 00 
  40363a:	48 8d 85 90 fc ff ff 	lea    -0x370(%rbp),%rax
  403641:	48 89 c7             	mov    %rax,%rdi
  403644:	e8 85 0c 00 00       	callq  4042ce <_ZNSaISt4pairIKNSt7__cxx1112basic_stringIcSt11char_traitsIcESaIcEEES5_EEC1Ev>
  403649:	4c 8d 85 90 fc ff ff 	lea    -0x370(%rbp),%r8
  403650:	48 8d 95 60 fc ff ff 	lea    -0x3a0(%rbp),%rdx
  403657:	48 8b 8d 70 fb ff ff 	mov    -0x490(%rbp),%rcx
  40365e:	48 8b 9d 78 fb ff ff 	mov    -0x488(%rbp),%rbx
  403665:	48 89 ce             	mov    %rcx,%rsi
  403668:	48 89 df             	mov    %rbx,%rdi
  40366b:	48 89 df             	mov    %rbx,%rdi
  40366e:	48 8d 85 30 fc ff ff 	lea    -0x3d0(%rbp),%rax
  403675:	48 89 d1             	mov    %rdx,%rcx
  403678:	48 89 fa             	mov    %rdi,%rdx
  40367b:	48 89 c7             	mov    %rax,%rdi
  40367e:	e8 dd 0c 00 00       	callq  404360 <_ZNSt3mapINSt7__cxx1112basic_stringIcSt11char_traitsIcESaIcEEES5_St4lessIS5_ESaISt4pairIKS5_S5_EEEC1ESt16initializer_listISA_ERKS7_RKSB_>
  403683:	48 8d 95 30 fc ff ff 	lea    -0x3d0(%rbp),%rdx
  40368a:	8b 85 9c fb ff ff    	mov    -0x464(%rbp),%eax
  403690:	41 b8 00 00 00 00    	mov    $0x0,%r8d
  403696:	b9 00 00 00 00       	mov    $0x0,%ecx
  40369b:	be 93 de 40 00       	mov    $0x40de93,%esi
  4036a0:	89 c7                	mov    %eax,%edi
  4036a2:	e8 3a 3d 00 00       	callq  4073e1 <_Z13write_requestiPKcSt3mapINSt7__cxx1112basic_stringIcSt11char_traitsIcESaIcEEES7_St4lessIS7_ESaISt4pairIKS7_S7_EEEPKvi>
  4036a7:	48 8d 85 30 fc ff ff 	lea    -0x3d0(%rbp),%rax
  4036ae:	48 89 c7             	mov    %rax,%rdi
  4036b1:	e8 d4 05 00 00       	callq  403c8a <_ZNSt3mapINSt7__cxx1112basic_stringIcSt11char_traitsIcESaIcEEES5_St4lessIS5_ESaISt4pairIKS5_S5_EEED1Ev>
  4036b6:	48 8d 85 90 fc ff ff 	lea    -0x370(%rbp),%rax
  4036bd:	48 89 c7             	mov    %rax,%rdi
  4036c0:	e8 25 0c 00 00       	callq  4042ea <_ZNSaISt4pairIKNSt7__cxx1112basic_stringIcSt11char_traitsIcESaIcEEES5_EED1Ev>
  4036c5:	48 8d 9d 40 fd ff ff 	lea    -0x2c0(%rbp),%rbx
  4036cc:	48 83 c3 40          	add    $0x40,%rbx
  4036d0:	48 8d 85 40 fd ff ff 	lea    -0x2c0(%rbp),%rax
  4036d7:	48 39 c3             	cmp    %rax,%rbx
  4036da:	74 0f                	je     4036eb <main+0x565>
  4036dc:	90                   	nop
  4036dd:	48 83 eb 40          	sub    $0x40,%rbx
  4036e1:	48 89 df             	mov    %rbx,%rdi
  4036e4:	e8 d3 06 00 00       	callq  403dbc <_ZNSt4pairIKNSt7__cxx1112basic_stringIcSt11char_traitsIcESaIcEEES5_ED1Ev>
  4036e9:	eb e5                	jmp    4036d0 <main+0x54a>
  4036eb:	90                   	nop
  4036ec:	bb 00 00 00 00       	mov    $0x0,%ebx
  4036f1:	e9 48 02 00 00       	jmpq   40393e <main+0x7b8>
  4036f6:	8b 85 a4 fb ff ff    	mov    -0x45c(%rbp),%eax
  4036fc:	3b 85 a0 fb ff ff    	cmp    -0x460(%rbp),%eax
  403702:	0f 86 d6 00 00 00    	jbe    4037de <main+0x658>
  403708:	48 8d 85 80 fd ff ff 	lea    -0x280(%rbp),%rax
  40370f:	ba 01 df 40 00       	mov    $0x40df01,%edx
  403714:	be f9 de 40 00       	mov    $0x40def9,%esi
  403719:	48 89 c7             	mov    %rax,%rdi
  40371c:	e8 23 07 00 00       	callq  403e44 <_ZNSt4pairIKNSt7__cxx1112basic_stringIcSt11char_traitsIcESaIcEEES5_EC1IRA8_KcRA2_S9_vEEOT_OT0_>
  403721:	48 8d 85 80 fd ff ff 	lea    -0x280(%rbp),%rax
  403728:	49 89 c6             	mov    %rax,%r14
  40372b:	41 bf 01 00 00 00    	mov    $0x1,%r15d
  403731:	48 8d 85 90 fc ff ff 	lea    -0x370(%rbp),%rax
  403738:	48 89 c7             	mov    %rax,%rdi
  40373b:	e8 8e 0b 00 00       	callq  4042ce <_ZNSaISt4pairIKNSt7__cxx1112basic_stringIcSt11char_traitsIcESaIcEEES5_EEC1Ev>
  403740:	4c 8d 85 90 fc ff ff 	lea    -0x370(%rbp),%r8
  403747:	48 8d 95 30 fc ff ff 	lea    -0x3d0(%rbp),%rdx
  40374e:	4c 89 f6             	mov    %r14,%rsi
  403751:	4c 89 ff             	mov    %r15,%rdi
  403754:	4c 89 f1             	mov    %r14,%rcx
  403757:	4c 89 fb             	mov    %r15,%rbx
  40375a:	48 89 df             	mov    %rbx,%rdi
  40375d:	48 8d 85 60 fc ff ff 	lea    -0x3a0(%rbp),%rax
  403764:	48 89 d1             	mov    %rdx,%rcx
  403767:	48 89 fa             	mov    %rdi,%rdx
  40376a:	48 89 c7             	mov    %rax,%rdi
  40376d:	e8 ee 0b 00 00       	callq  404360 <_ZNSt3mapINSt7__cxx1112basic_stringIcSt11char_traitsIcESaIcEEES5_St4lessIS5_ESaISt4pairIKS5_S5_EEEC1ESt16initializer_listISA_ERKS7_RKSB_>
  403772:	48 8d 95 60 fc ff ff 	lea    -0x3a0(%rbp),%rdx
  403779:	8b 85 9c fb ff ff    	mov    -0x464(%rbp),%eax
  40377f:	41 b8 00 00 00 00    	mov    $0x0,%r8d
  403785:	b9 00 00 00 00       	mov    $0x0,%ecx
  40378a:	be 93 de 40 00       	mov    $0x40de93,%esi
  40378f:	89 c7                	mov    %eax,%edi
  403791:	e8 4b 3c 00 00       	callq  4073e1 <_Z13write_requestiPKcSt3mapINSt7__cxx1112basic_stringIcSt11char_traitsIcESaIcEEES7_St4lessIS7_ESaISt4pairIKS7_S7_EEEPKvi>
  403796:	48 8d 85 60 fc ff ff 	lea    -0x3a0(%rbp),%rax
  40379d:	48 89 c7             	mov    %rax,%rdi
  4037a0:	e8 e5 04 00 00       	callq  403c8a <_ZNSt3mapINSt7__cxx1112basic_stringIcSt11char_traitsIcESaIcEEES5_St4lessIS5_ESaISt4pairIKS5_S5_EEED1Ev>
  4037a5:	48 8d 85 90 fc ff ff 	lea    -0x370(%rbp),%rax
  4037ac:	48 89 c7             	mov    %rax,%rdi
  4037af:	e8 36 0b 00 00       	callq  4042ea <_ZNSaISt4pairIKNSt7__cxx1112basic_stringIcSt11char_traitsIcESaIcEEES5_EED1Ev>
  4037b4:	48 8d 9d 80 fd ff ff 	lea    -0x280(%rbp),%rbx
  4037bb:	48 83 c3 40          	add    $0x40,%rbx
  4037bf:	48 8d 85 80 fd ff ff 	lea    -0x280(%rbp),%rax
  4037c6:	48 39 c3             	cmp    %rax,%rbx
  4037c9:	0f 84 f3 00 00 00    	je     4038c2 <main+0x73c>
  4037cf:	90                   	nop
  4037d0:	48 83 eb 40          	sub    $0x40,%rbx
  4037d4:	48 89 df             	mov    %rbx,%rdi
  4037d7:	e8 e0 05 00 00       	callq  403dbc <_ZNSt4pairIKNSt7__cxx1112basic_stringIcSt11char_traitsIcESaIcEEES5_ED1Ev>
  4037dc:	eb e1                	jmp    4037bf <main+0x639>
  4037de:	8b 85 a4 fb ff ff    	mov    -0x45c(%rbp),%eax
  4037e4:	3b 85 a0 fb ff ff    	cmp    -0x460(%rbp),%eax
  4037ea:	0f 83 d6 00 00 00    	jae    4038c6 <main+0x740>
  4037f0:	48 8d 85 c0 fd ff ff 	lea    -0x240(%rbp),%rax
  4037f7:	ba 03 df 40 00       	mov    $0x40df03,%edx
  4037fc:	be f9 de 40 00       	mov    $0x40def9,%esi
  403801:	48 89 c7             	mov    %rax,%rdi
  403804:	e8 43 07 00 00       	callq  403f4c <_ZNSt4pairIKNSt7__cxx1112basic_stringIcSt11char_traitsIcESaIcEEES5_EC1IRA8_KcRA3_S9_vEEOT_OT0_>
  403809:	48 8d 85 c0 fd ff ff 	lea    -0x240(%rbp),%rax
  403810:	49 89 c4             	mov    %rax,%r12
  403813:	41 bd 01 00 00 00    	mov    $0x1,%r13d
  403819:	48 8d 85 60 fc ff ff 	lea    -0x3a0(%rbp),%rax
  403820:	48 89 c7             	mov    %rax,%rdi
  403823:	e8 a6 0a 00 00       	callq  4042ce <_ZNSaISt4pairIKNSt7__cxx1112basic_stringIcSt11char_traitsIcESaIcEEES5_EEC1Ev>
  403828:	4c 8d 85 60 fc ff ff 	lea    -0x3a0(%rbp),%r8
  40382f:	48 8d 95 30 fc ff ff 	lea    -0x3d0(%rbp),%rdx
  403836:	4c 89 e6             	mov    %r12,%rsi
  403839:	4c 89 ef             	mov    %r13,%rdi
  40383c:	4c 89 e1             	mov    %r12,%rcx
  40383f:	4c 89 eb             	mov    %r13,%rbx
  403842:	48 89 df             	mov    %rbx,%rdi
  403845:	48 8d 85 90 fc ff ff 	lea    -0x370(%rbp),%rax
  40384c:	48 89 d1             	mov    %rdx,%rcx
  40384f:	48 89 fa             	mov    %rdi,%rdx
  403852:	48 89 c7             	mov    %rax,%rdi
  403855:	e8 06 0b 00 00       	callq  404360 <_ZNSt3mapINSt7__cxx1112basic_stringIcSt11char_traitsIcESaIcEEES5_St4lessIS5_ESaISt4pairIKS5_S5_EEEC1ESt16initializer_listISA_ERKS7_RKSB_>
  40385a:	48 8d 95 90 fc ff ff 	lea    -0x370(%rbp),%rdx
  403861:	8b 85 9c fb ff ff    	mov    -0x464(%rbp),%eax
  403867:	41 b8 00 00 00 00    	mov    $0x0,%r8d
  40386d:	b9 00 00 00 00       	mov    $0x0,%ecx
  403872:	be 93 de 40 00       	mov    $0x40de93,%esi
  403877:	89 c7                	mov    %eax,%edi
  403879:	e8 63 3b 00 00       	callq  4073e1 <_Z13write_requestiPKcSt3mapINSt7__cxx1112basic_stringIcSt11char_traitsIcESaIcEEES7_St4lessIS7_ESaISt4pairIKS7_S7_EEEPKvi>
  40387e:	48 8d 85 90 fc ff ff 	lea    -0x370(%rbp),%rax
  403885:	48 89 c7             	mov    %rax,%rdi
  403888:	e8 fd 03 00 00       	callq  403c8a <_ZNSt3mapINSt7__cxx1112basic_stringIcSt11char_traitsIcESaIcEEES5_St4lessIS5_ESaISt4pairIKS5_S5_EEED1Ev>
  40388d:	48 8d 85 60 fc ff ff 	lea    -0x3a0(%rbp),%rax
  403894:	48 89 c7             	mov    %rax,%rdi
  403897:	e8 4e 0a 00 00       	callq  4042ea <_ZNSaISt4pairIKNSt7__cxx1112basic_stringIcSt11char_traitsIcESaIcEEES5_EED1Ev>
  40389c:	48 8d 9d c0 fd ff ff 	lea    -0x240(%rbp),%rbx
  4038a3:	48 83 c3 40          	add    $0x40,%rbx
  4038a7:	48 8d 85 c0 fd ff ff 	lea    -0x240(%rbp),%rax
  4038ae:	48 39 c3             	cmp    %rax,%rbx
  4038b1:	74 12                	je     4038c5 <main+0x73f>
  4038b3:	90                   	nop
  4038b4:	48 83 eb 40          	sub    $0x40,%rbx
  4038b8:	48 89 df             	mov    %rbx,%rdi
  4038bb:	e8 fc 04 00 00       	callq  403dbc <_ZNSt4pairIKNSt7__cxx1112basic_stringIcSt11char_traitsIcESaIcEEES5_ED1Ev>
  4038c0:	eb e5                	jmp    4038a7 <main+0x721>
  4038c2:	90                   	nop
  4038c3:	eb 01                	jmp    4038c6 <main+0x740>
  4038c5:	90                   	nop
  4038c6:	83 85 94 fb ff ff 01 	addl   $0x1,-0x46c(%rbp)
  4038cd:	83 bd 94 fb ff ff 11 	cmpl   $0x11,-0x46c(%rbp)
  4038d4:	75 63                	jne    403939 <main+0x7b3>
  4038d6:	8b 85 9c fb ff ff    	mov    -0x464(%rbp),%eax
  4038dc:	89 c7                	mov    %eax,%edi
  4038de:	e8 86 3a 00 00       	callq  407369 <_Z16close_connectioni>
  4038e3:	bf 2c 01 00 00       	mov    $0x12c,%edi
  4038e8:	e8 c3 f3 ff ff       	callq  402cb0 <sleep@plt>
  4038ed:	bb 01 00 00 00       	mov    $0x1,%ebx
  4038f2:	eb 4a                	jmp    40393e <main+0x7b8>
  4038f4:	48 8d 85 90 fc ff ff 	lea    -0x370(%rbp),%rax
  4038fb:	48 89 c7             	mov    %rax,%rdi
  4038fe:	e8 51 07 00 00       	callq  404054 <_ZNSt3mapINSt7__cxx1112basic_stringIcSt11char_traitsIcESaIcEEES5_St4lessIS5_ESaISt4pairIKS5_S5_EEEC1Ev>
  403903:	48 8d 95 90 fc ff ff 	lea    -0x370(%rbp),%rdx
  40390a:	8b 85 9c fb ff ff    	mov    -0x464(%rbp),%eax
  403910:	41 b8 00 00 00 00    	mov    $0x0,%r8d
  403916:	b9 00 00 00 00       	mov    $0x0,%ecx
  40391b:	be dd de 40 00       	mov    $0x40dedd,%esi
  403920:	89 c7                	mov    %eax,%edi
  403922:	e8 ba 3a 00 00       	callq  4073e1 <_Z13write_requestiPKcSt3mapINSt7__cxx1112basic_stringIcSt11char_traitsIcESaIcEEES7_St4lessIS7_ESaISt4pairIKS7_S7_EEEPKvi>
  403927:	48 8d 85 90 fc ff ff 	lea    -0x370(%rbp),%rax
  40392e:	48 89 c7             	mov    %rax,%rdi
  403931:	e8 54 03 00 00       	callq  403c8a <_ZNSt3mapINSt7__cxx1112basic_stringIcSt11char_traitsIcESaIcEEES5_St4lessIS5_ESaISt4pairIKS5_S5_EEED1Ev>
  403936:	eb 01                	jmp    403939 <main+0x7b3>
  403938:	90                   	nop
  403939:	bb 02 00 00 00       	mov    $0x2,%ebx
  40393e:	48 8d 85 c0 fc ff ff 	lea    -0x340(%rbp),%rax
  403945:	48 89 c7             	mov    %rax,%rdi
  403948:	e8 d3 f2 ff ff       	callq  402c20 <_ZNSt7__cxx1112basic_stringIcSt11char_traitsIcESaIcEED1Ev@plt>
  40394d:	85 db                	test   %ebx,%ebx
  40394f:	74 07                	je     403958 <main+0x7d2>
  403951:	83 fb 02             	cmp    $0x2,%ebx
  403954:	74 10                	je     403966 <main+0x7e0>
  403956:	eb 07                	jmp    40395f <main+0x7d9>
  403958:	bb 00 00 00 00       	mov    $0x0,%ebx
  40395d:	eb 0d                	jmp    40396c <main+0x7e6>
  40395f:	bb 01 00 00 00       	mov    $0x1,%ebx
  403964:	eb 06                	jmp    40396c <main+0x7e6>
  403966:	90                   	nop
  403967:	bb 02 00 00 00       	mov    $0x2,%ebx
  40396c:	48 8d 85 b0 fb ff ff 	lea    -0x450(%rbp),%rax
  403973:	48 89 c7             	mov    %rax,%rdi
  403976:	e8 67 07 00 00       	callq  4040e2 <_ZNSt6vectorIhSaIhEED1Ev>
  40397b:	85 db                	test   %ebx,%ebx
  40397d:	74 07                	je     403986 <main+0x800>
  40397f:	83 fb 02             	cmp    $0x2,%ebx
  403982:	74 10                	je     403994 <main+0x80e>
  403984:	eb 07                	jmp    40398d <main+0x807>
  403986:	bb 00 00 00 00       	mov    $0x0,%ebx
  40398b:	eb 0d                	jmp    40399a <main+0x814>
  40398d:	bb 01 00 00 00       	mov    $0x1,%ebx
  403992:	eb 06                	jmp    40399a <main+0x814>
  403994:	90                   	nop
  403995:	bb 02 00 00 00       	mov    $0x2,%ebx
  40399a:	48 8d 85 d0 fb ff ff 	lea    -0x430(%rbp),%rax
  4039a1:	48 89 c7             	mov    %rax,%rdi
  4039a4:	e8 e1 02 00 00       	callq  403c8a <_ZNSt3mapINSt7__cxx1112basic_stringIcSt11char_traitsIcESaIcEEES5_St4lessIS5_ESaISt4pairIKS5_S5_EEED1Ev>
  4039a9:	85 db                	test   %ebx,%ebx
  4039ab:	74 0f                	je     4039bc <main+0x836>
  4039ad:	83 fb 02             	cmp    $0x2,%ebx
  4039b0:	0f 85 3d f8 ff ff    	jne    4031f3 <main+0x6d>
  4039b6:	90                   	nop
  4039b7:	e9 ea f8 ff ff       	jmpq   4032a6 <main+0x120>
  4039bc:	b8 00 00 00 00       	mov    $0x0,%eax
  4039c1:	48 8b 4d c8          	mov    -0x38(%rbp),%rcx
  4039c5:	64 48 33 0c 25 28 00 	xor    %fs:0x28,%rcx
  4039cc:	00 00 
  4039ce:	0f 84 49 02 00 00    	je     403c1d <main+0xa97>
  4039d4:	e9 3f 02 00 00       	jmpq   403c18 <main+0xa92>
  4039d9:	48 89 c3             	mov    %rax,%rbx
  4039dc:	48 8d 85 90 fc ff ff 	lea    -0x370(%rbp),%rax
  4039e3:	48 89 c7             	mov    %rax,%rdi
  4039e6:	e8 9f 02 00 00       	callq  403c8a <_ZNSt3mapINSt7__cxx1112basic_stringIcSt11char_traitsIcESaIcEEES5_St4lessIS5_ESaISt4pairIKS5_S5_EEED1Ev>
  4039eb:	48 89 d8             	mov    %rbx,%rax
  4039ee:	48 89 c7             	mov    %rax,%rdi
  4039f1:	e8 ca f5 ff ff       	callq  402fc0 <_Unwind_Resume@plt>
  4039f6:	48 89 c3             	mov    %rax,%rbx
  4039f9:	48 8d 85 e0 fc ff ff 	lea    -0x320(%rbp),%rax
  403a00:	48 89 c7             	mov    %rax,%rdi
  403a03:	e8 18 f2 ff ff       	callq  402c20 <_ZNSt7__cxx1112basic_stringIcSt11char_traitsIcESaIcEED1Ev@plt>
  403a08:	eb 03                	jmp    403a0d <main+0x887>
  403a0a:	48 89 c3             	mov    %rax,%rbx
  403a0d:	48 8d 85 90 fc ff ff 	lea    -0x370(%rbp),%rax
  403a14:	48 89 c7             	mov    %rax,%rdi
  403a17:	e8 d4 f3 ff ff       	callq  402df0 <_ZNSaIcED1Ev@plt>
  403a1c:	e9 ce 01 00 00       	jmpq   403bef <main+0xa69>
  403a21:	48 89 c3             	mov    %rax,%rbx
  403a24:	48 8d 85 00 fc ff ff 	lea    -0x400(%rbp),%rax
  403a2b:	48 89 c7             	mov    %rax,%rdi
  403a2e:	e8 57 02 00 00       	callq  403c8a <_ZNSt3mapINSt7__cxx1112basic_stringIcSt11char_traitsIcESaIcEEES5_St4lessIS5_ESaISt4pairIKS5_S5_EEED1Ev>
  403a33:	eb 03                	jmp    403a38 <main+0x8b2>
  403a35:	48 89 c3             	mov    %rax,%rbx
  403a38:	48 8d 85 90 fc ff ff 	lea    -0x370(%rbp),%rax
  403a3f:	48 89 c7             	mov    %rax,%rdi
  403a42:	e8 a3 08 00 00       	callq  4042ea <_ZNSaISt4pairIKNSt7__cxx1112basic_stringIcSt11char_traitsIcESaIcEEES5_EED1Ev>
  403a47:	49 89 dc             	mov    %rbx,%r12
  403a4a:	48 8d 9d 00 fd ff ff 	lea    -0x300(%rbp),%rbx
  403a51:	48 83 c3 40          	add    $0x40,%rbx
  403a55:	48 8d 85 00 fd ff ff 	lea    -0x300(%rbp),%rax
  403a5c:	48 39 c3             	cmp    %rax,%rbx
  403a5f:	74 0f                	je     403a70 <main+0x8ea>
  403a61:	90                   	nop
  403a62:	48 83 eb 40          	sub    $0x40,%rbx
  403a66:	48 89 df             	mov    %rbx,%rdi
  403a69:	e8 4e 03 00 00       	callq  403dbc <_ZNSt4pairIKNSt7__cxx1112basic_stringIcSt11char_traitsIcESaIcEEES5_ED1Ev>
  403a6e:	eb e5                	jmp    403a55 <main+0x8cf>
  403a70:	90                   	nop
  403a71:	4c 89 e3             	mov    %r12,%rbx
  403a74:	e9 62 01 00 00       	jmpq   403bdb <main+0xa55>
  403a79:	48 89 c3             	mov    %rax,%rbx
  403a7c:	48 8d 85 00 fc ff ff 	lea    -0x400(%rbp),%rax
  403a83:	48 89 c7             	mov    %rax,%rdi
  403a86:	e8 35 0a 00 00       	callq  4044c0 <_ZNSaIhED1Ev>
  403a8b:	eb 21                	jmp    403aae <main+0x928>
  403a8d:	48 89 c3             	mov    %rax,%rbx
  403a90:	48 8d 85 90 fc ff ff 	lea    -0x370(%rbp),%rax
  403a97:	48 89 c7             	mov    %rax,%rdi
  403a9a:	e8 eb 01 00 00       	callq  403c8a <_ZNSt3mapINSt7__cxx1112basic_stringIcSt11char_traitsIcESaIcEEES5_St4lessIS5_ESaISt4pairIKS5_S5_EEED1Ev>
  403a9f:	48 8d 85 60 fc ff ff 	lea    -0x3a0(%rbp),%rax
  403aa6:	48 89 c7             	mov    %rax,%rdi
  403aa9:	e8 34 06 00 00       	callq  4040e2 <_ZNSt6vectorIhSaIhEED1Ev>
  403aae:	48 8d 85 c0 fd ff ff 	lea    -0x240(%rbp),%rax
  403ab5:	48 89 c7             	mov    %rax,%rdi
  403ab8:	e8 13 f0 ff ff       	callq  402ad0 <_ZNSt14basic_ifstreamIcSt11char_traitsIcEED1Ev@plt>
  403abd:	e9 19 01 00 00       	jmpq   403bdb <main+0xa55>
  403ac2:	48 89 c3             	mov    %rax,%rbx
  403ac5:	48 8d 85 30 fc ff ff 	lea    -0x3d0(%rbp),%rax
  403acc:	48 89 c7             	mov    %rax,%rdi
  403acf:	e8 b6 01 00 00       	callq  403c8a <_ZNSt3mapINSt7__cxx1112basic_stringIcSt11char_traitsIcESaIcEEES5_St4lessIS5_ESaISt4pairIKS5_S5_EEED1Ev>
  403ad4:	eb 03                	jmp    403ad9 <main+0x953>
  403ad6:	48 89 c3             	mov    %rax,%rbx
  403ad9:	48 8d 85 90 fc ff ff 	lea    -0x370(%rbp),%rax
  403ae0:	48 89 c7             	mov    %rax,%rdi
  403ae3:	e8 02 08 00 00       	callq  4042ea <_ZNSaISt4pairIKNSt7__cxx1112basic_stringIcSt11char_traitsIcESaIcEEES5_EED1Ev>
  403ae8:	49 89 dc             	mov    %rbx,%r12
  403aeb:	48 8d 9d 40 fd ff ff 	lea    -0x2c0(%rbp),%rbx
  403af2:	48 83 c3 40          	add    $0x40,%rbx
  403af6:	48 8d 85 40 fd ff ff 	lea    -0x2c0(%rbp),%rax
  403afd:	48 39 c3             	cmp    %rax,%rbx
  403b00:	74 0f                	je     403b11 <main+0x98b>
  403b02:	90                   	nop
  403b03:	48 83 eb 40          	sub    $0x40,%rbx
  403b07:	48 89 df             	mov    %rbx,%rdi
  403b0a:	e8 ad 02 00 00       	callq  403dbc <_ZNSt4pairIKNSt7__cxx1112basic_stringIcSt11char_traitsIcESaIcEEES5_ED1Ev>
  403b0f:	eb e5                	jmp    403af6 <main+0x970>
  403b11:	90                   	nop
  403b12:	4c 89 e3             	mov    %r12,%rbx
  403b15:	e9 c1 00 00 00       	jmpq   403bdb <main+0xa55>
  403b1a:	48 89 c3             	mov    %rax,%rbx
  403b1d:	48 8d 85 60 fc ff ff 	lea    -0x3a0(%rbp),%rax
  403b24:	48 89 c7             	mov    %rax,%rdi
  403b27:	e8 5e 01 00 00       	callq  403c8a <_ZNSt3mapINSt7__cxx1112basic_stringIcSt11char_traitsIcESaIcEEES5_St4lessIS5_ESaISt4pairIKS5_S5_EEED1Ev>
  403b2c:	eb 03                	jmp    403b31 <main+0x9ab>
  403b2e:	48 89 c3             	mov    %rax,%rbx
  403b31:	48 8d 85 90 fc ff ff 	lea    -0x370(%rbp),%rax
  403b38:	48 89 c7             	mov    %rax,%rdi
  403b3b:	e8 aa 07 00 00       	callq  4042ea <_ZNSaISt4pairIKNSt7__cxx1112basic_stringIcSt11char_traitsIcESaIcEEES5_EED1Ev>
  403b40:	49 89 dc             	mov    %rbx,%r12
  403b43:	48 8d 9d 80 fd ff ff 	lea    -0x280(%rbp),%rbx
  403b4a:	48 83 c3 40          	add    $0x40,%rbx
  403b4e:	48 8d 85 80 fd ff ff 	lea    -0x280(%rbp),%rax
  403b55:	48 39 c3             	cmp    %rax,%rbx
  403b58:	74 0f                	je     403b69 <main+0x9e3>
  403b5a:	90                   	nop
  403b5b:	48 83 eb 40          	sub    $0x40,%rbx
  403b5f:	48 89 df             	mov    %rbx,%rdi
  403b62:	e8 55 02 00 00       	callq  403dbc <_ZNSt4pairIKNSt7__cxx1112basic_stringIcSt11char_traitsIcESaIcEEES5_ED1Ev>
  403b67:	eb e5                	jmp    403b4e <main+0x9c8>
  403b69:	90                   	nop
  403b6a:	4c 89 e3             	mov    %r12,%rbx
  403b6d:	eb 6c                	jmp    403bdb <main+0xa55>
  403b6f:	48 89 c3             	mov    %rax,%rbx
  403b72:	48 8d 85 90 fc ff ff 	lea    -0x370(%rbp),%rax
  403b79:	48 89 c7             	mov    %rax,%rdi
  403b7c:	e8 09 01 00 00       	callq  403c8a <_ZNSt3mapINSt7__cxx1112basic_stringIcSt11char_traitsIcESaIcEEES5_St4lessIS5_ESaISt4pairIKS5_S5_EEED1Ev>
  403b81:	eb 03                	jmp    403b86 <main+0xa00>
  403b83:	48 89 c3             	mov    %rax,%rbx
  403b86:	48 8d 85 60 fc ff ff 	lea    -0x3a0(%rbp),%rax
  403b8d:	48 89 c7             	mov    %rax,%rdi
  403b90:	e8 55 07 00 00       	callq  4042ea <_ZNSaISt4pairIKNSt7__cxx1112basic_stringIcSt11char_traitsIcESaIcEEES5_EED1Ev>
  403b95:	49 89 dc             	mov    %rbx,%r12
  403b98:	48 8d 9d c0 fd ff ff 	lea    -0x240(%rbp),%rbx
  403b9f:	48 83 c3 40          	add    $0x40,%rbx
  403ba3:	48 8d 85 c0 fd ff ff 	lea    -0x240(%rbp),%rax
  403baa:	48 39 c3             	cmp    %rax,%rbx
  403bad:	74 0f                	je     403bbe <main+0xa38>
  403baf:	90                   	nop
  403bb0:	48 83 eb 40          	sub    $0x40,%rbx
  403bb4:	48 89 df             	mov    %rbx,%rdi
  403bb7:	e8 00 02 00 00       	callq  403dbc <_ZNSt4pairIKNSt7__cxx1112basic_stringIcSt11char_traitsIcESaIcEEES5_ED1Ev>
  403bbc:	eb e5                	jmp    403ba3 <main+0xa1d>
  403bbe:	90                   	nop
  403bbf:	4c 89 e3             	mov    %r12,%rbx
  403bc2:	eb 17                	jmp    403bdb <main+0xa55>
  403bc4:	48 89 c3             	mov    %rax,%rbx
  403bc7:	48 8d 85 90 fc ff ff 	lea    -0x370(%rbp),%rax
  403bce:	48 89 c7             	mov    %rax,%rdi
  403bd1:	e8 b4 00 00 00       	callq  403c8a <_ZNSt3mapINSt7__cxx1112basic_stringIcSt11char_traitsIcESaIcEEES5_St4lessIS5_ESaISt4pairIKS5_S5_EEED1Ev>
  403bd6:	eb 03                	jmp    403bdb <main+0xa55>
  403bd8:	48 89 c3             	mov    %rax,%rbx
  403bdb:	48 8d 85 c0 fc ff ff 	lea    -0x340(%rbp),%rax
  403be2:	48 89 c7             	mov    %rax,%rdi
  403be5:	e8 36 f0 ff ff       	callq  402c20 <_ZNSt7__cxx1112basic_stringIcSt11char_traitsIcESaIcEED1Ev@plt>
  403bea:	eb 03                	jmp    403bef <main+0xa69>
  403bec:	48 89 c3             	mov    %rax,%rbx
  403bef:	48 8d 85 b0 fb ff ff 	lea    -0x450(%rbp),%rax
  403bf6:	48 89 c7             	mov    %rax,%rdi
  403bf9:	e8 e4 04 00 00       	callq  4040e2 <_ZNSt6vectorIhSaIhEED1Ev>
  403bfe:	48 8d 85 d0 fb ff ff 	lea    -0x430(%rbp),%rax
  403c05:	48 89 c7             	mov    %rax,%rdi
  403c08:	e8 7d 00 00 00       	callq  403c8a <_ZNSt3mapINSt7__cxx1112basic_stringIcSt11char_traitsIcESaIcEEES5_St4lessIS5_ESaISt4pairIKS5_S5_EEED1Ev>
  403c0d:	48 89 d8             	mov    %rbx,%rax
  403c10:	48 89 c7             	mov    %rax,%rdi
  403c13:	e8 a8 f3 ff ff       	callq  402fc0 <_Unwind_Resume@plt>
  403c18:	e8 f3 f1 ff ff       	callq  402e10 <__stack_chk_fail@plt>
  403c1d:	48 81 c4 78 04 00 00 	add    $0x478,%rsp
  403c24:	5b                   	pop    %rbx
  403c25:	41 5c                	pop    %r12
  403c27:	41 5d                	pop    %r13
  403c29:	41 5e                	pop    %r14
  403c2b:	41 5f                	pop    %r15
  403c2d:	5d                   	pop    %rbp
  403c2e:	c3                   	retq   

0000000000403c2f <_ZNSt11char_traitsIcE12to_char_typeERKi>:
  403c2f:	55                   	push   %rbp
  403c30:	48 89 e5             	mov    %rsp,%rbp
  403c33:	48 89 7d f8          	mov    %rdi,-0x8(%rbp)
  403c37:	48 8b 45 f8          	mov    -0x8(%rbp),%rax
  403c3b:	8b 00                	mov    (%rax),%eax
  403c3d:	5d                   	pop    %rbp
  403c3e:	c3                   	retq   

0000000000403c3f <_ZNSt11char_traitsIcE11eq_int_typeERKiS2_>:
  403c3f:	55                   	push   %rbp
  403c40:	48 89 e5             	mov    %rsp,%rbp
  403c43:	48 89 7d f8          	mov    %rdi,-0x8(%rbp)
  403c47:	48 89 75 f0          	mov    %rsi,-0x10(%rbp)
  403c4b:	48 8b 45 f8          	mov    -0x8(%rbp),%rax
  403c4f:	8b 10                	mov    (%rax),%edx
  403c51:	48 8b 45 f0          	mov    -0x10(%rbp),%rax
  403c55:	8b 00                	mov    (%rax),%eax
  403c57:	39 c2                	cmp    %eax,%edx
  403c59:	0f 94 c0             	sete   %al
  403c5c:	5d                   	pop    %rbp
  403c5d:	c3                   	retq   

0000000000403c5e <_ZNSt11char_traitsIcE3eofEv>:
  403c5e:	55                   	push   %rbp
  403c5f:	48 89 e5             	mov    %rsp,%rbp
  403c62:	b8 ff ff ff ff       	mov    $0xffffffff,%eax
  403c67:	5d                   	pop    %rbp
  403c68:	c3                   	retq   

0000000000403c69 <_ZnwmPv>:
  403c69:	55                   	push   %rbp
  403c6a:	48 89 e5             	mov    %rsp,%rbp
  403c6d:	48 89 7d f8          	mov    %rdi,-0x8(%rbp)
  403c71:	48 89 75 f0          	mov    %rsi,-0x10(%rbp)
  403c75:	48 8b 45 f0          	mov    -0x10(%rbp),%rax
  403c79:	5d                   	pop    %rbp
  403c7a:	c3                   	retq   

0000000000403c7b <_ZdlPvS_>:
  403c7b:	55                   	push   %rbp
  403c7c:	48 89 e5             	mov    %rsp,%rbp
  403c7f:	48 89 7d f8          	mov    %rdi,-0x8(%rbp)
  403c83:	48 89 75 f0          	mov    %rsi,-0x10(%rbp)
  403c87:	90                   	nop
  403c88:	5d                   	pop    %rbp
  403c89:	c3                   	retq   

0000000000403c8a <_ZNSt3mapINSt7__cxx1112basic_stringIcSt11char_traitsIcESaIcEEES5_St4lessIS5_ESaISt4pairIKS5_S5_EEED1Ev>:
  403c8a:	55                   	push   %rbp
  403c8b:	48 89 e5             	mov    %rsp,%rbp
  403c8e:	48 83 ec 10          	sub    $0x10,%rsp
  403c92:	48 89 7d f8          	mov    %rdi,-0x8(%rbp)
  403c96:	48 8b 45 f8          	mov    -0x8(%rbp),%rax
  403c9a:	48 89 c7             	mov    %rax,%rdi
  403c9d:	e8 ea 03 00 00       	callq  40408c <_ZNSt8_Rb_treeINSt7__cxx1112basic_stringIcSt11char_traitsIcESaIcEEESt4pairIKS5_S5_ESt10_Select1stIS8_ESt4lessIS5_ESaIS8_EED1Ev>
  403ca2:	90                   	nop
  403ca3:	c9                   	leaveq 
  403ca4:	c3                   	retq   

0000000000403ca5 <_ZSt7forwardIRA11_KcEOT_RNSt16remove_referenceIS3_E4typeE>:
  403ca5:	55                   	push   %rbp
  403ca6:	48 89 e5             	mov    %rsp,%rbp
  403ca9:	48 89 7d f8          	mov    %rdi,-0x8(%rbp)
  403cad:	48 8b 45 f8          	mov    -0x8(%rbp),%rax
  403cb1:	5d                   	pop    %rbp
  403cb2:	c3                   	retq   

0000000000403cb3 <_ZSt7forwardIRA4_cEOT_RNSt16remove_referenceIS2_E4typeE>:
  403cb3:	55                   	push   %rbp
  403cb4:	48 89 e5             	mov    %rsp,%rbp
  403cb7:	48 89 7d f8          	mov    %rdi,-0x8(%rbp)
  403cbb:	48 8b 45 f8          	mov    -0x8(%rbp),%rax
  403cbf:	5d                   	pop    %rbp
  403cc0:	c3                   	retq   
  403cc1:	90                   	nop

0000000000403cc2 <_ZNSt4pairIKNSt7__cxx1112basic_stringIcSt11char_traitsIcESaIcEEES5_EC1IRA11_KcRA4_cvEEOT_OT0_>:
  403cc2:	55                   	push   %rbp
  403cc3:	48 89 e5             	mov    %rsp,%rbp
  403cc6:	53                   	push   %rbx
  403cc7:	48 83 ec 38          	sub    $0x38,%rsp
  403ccb:	48 89 7d d8          	mov    %rdi,-0x28(%rbp)
  403ccf:	48 89 75 d0          	mov    %rsi,-0x30(%rbp)
  403cd3:	48 89 55 c8          	mov    %rdx,-0x38(%rbp)
  403cd7:	64 48 8b 04 25 28 00 	mov    %fs:0x28,%rax
  403cde:	00 00 
  403ce0:	48 89 45 e8          	mov    %rax,-0x18(%rbp)
  403ce4:	31 c0                	xor    %eax,%eax
  403ce6:	48 8d 45 e7          	lea    -0x19(%rbp),%rax
  403cea:	48 89 c7             	mov    %rax,%rdi
  403ced:	e8 de f2 ff ff       	callq  402fd0 <_ZNSaIcEC1Ev@plt>
  403cf2:	48 8b 45 d0          	mov    -0x30(%rbp),%rax
  403cf6:	48 89 c7             	mov    %rax,%rdi
  403cf9:	e8 a7 ff ff ff       	callq  403ca5 <_ZSt7forwardIRA11_KcEOT_RNSt16remove_referenceIS3_E4typeE>
  403cfe:	48 89 c1             	mov    %rax,%rcx
  403d01:	48 8b 45 d8          	mov    -0x28(%rbp),%rax
  403d05:	48 8d 55 e7          	lea    -0x19(%rbp),%rdx
  403d09:	48 89 ce             	mov    %rcx,%rsi
  403d0c:	48 89 c7             	mov    %rax,%rdi
  403d0f:	e8 6c f1 ff ff       	callq  402e80 <_ZNSt7__cxx1112basic_stringIcSt11char_traitsIcESaIcEEC1EPKcRKS3_@plt>
  403d14:	48 8d 45 e7          	lea    -0x19(%rbp),%rax
  403d18:	48 89 c7             	mov    %rax,%rdi
  403d1b:	e8 d0 f0 ff ff       	callq  402df0 <_ZNSaIcED1Ev@plt>
  403d20:	48 8d 45 e7          	lea    -0x19(%rbp),%rax
  403d24:	48 89 c7             	mov    %rax,%rdi
  403d27:	e8 a4 f2 ff ff       	callq  402fd0 <_ZNSaIcEC1Ev@plt>
  403d2c:	48 8b 45 c8          	mov    -0x38(%rbp),%rax
  403d30:	48 89 c7             	mov    %rax,%rdi
  403d33:	e8 7b ff ff ff       	callq  403cb3 <_ZSt7forwardIRA4_cEOT_RNSt16remove_referenceIS2_E4typeE>
  403d38:	48 89 c6             	mov    %rax,%rsi
  403d3b:	48 8b 45 d8          	mov    -0x28(%rbp),%rax
  403d3f:	48 8d 48 20          	lea    0x20(%rax),%rcx
  403d43:	48 8d 45 e7          	lea    -0x19(%rbp),%rax
  403d47:	48 89 c2             	mov    %rax,%rdx
  403d4a:	48 89 cf             	mov    %rcx,%rdi
  403d4d:	e8 2e f1 ff ff       	callq  402e80 <_ZNSt7__cxx1112basic_stringIcSt11char_traitsIcESaIcEEC1EPKcRKS3_@plt>
  403d52:	48 8d 45 e7          	lea    -0x19(%rbp),%rax
  403d56:	48 89 c7             	mov    %rax,%rdi
  403d59:	e8 92 f0 ff ff       	callq  402df0 <_ZNSaIcED1Ev@plt>
  403d5e:	90                   	nop
  403d5f:	48 8b 45 e8          	mov    -0x18(%rbp),%rax
  403d63:	64 48 33 04 25 28 00 	xor    %fs:0x28,%rax
  403d6a:	00 00 
  403d6c:	74 47                	je     403db5 <_ZNSt4pairIKNSt7__cxx1112basic_stringIcSt11char_traitsIcESaIcEEES5_EC1IRA11_KcRA4_cvEEOT_OT0_+0xf3>
  403d6e:	eb 40                	jmp    403db0 <_ZNSt4pairIKNSt7__cxx1112basic_stringIcSt11char_traitsIcESaIcEEES5_EC1IRA11_KcRA4_cvEEOT_OT0_+0xee>
  403d70:	48 89 c3             	mov    %rax,%rbx
  403d73:	48 8d 45 e7          	lea    -0x19(%rbp),%rax
  403d77:	48 89 c7             	mov    %rax,%rdi
  403d7a:	e8 71 f0 ff ff       	callq  402df0 <_ZNSaIcED1Ev@plt>
  403d7f:	48 89 d8             	mov    %rbx,%rax
  403d82:	48 89 c7             	mov    %rax,%rdi
  403d85:	e8 36 f2 ff ff       	callq  402fc0 <_Unwind_Resume@plt>
  403d8a:	48 89 c3             	mov    %rax,%rbx
  403d8d:	48 8d 45 e7          	lea    -0x19(%rbp),%rax
  403d91:	48 89 c7             	mov    %rax,%rdi
  403d94:	e8 57 f0 ff ff       	callq  402df0 <_ZNSaIcED1Ev@plt>
  403d99:	48 8b 45 d8          	mov    -0x28(%rbp),%rax
  403d9d:	48 89 c7             	mov    %rax,%rdi
  403da0:	e8 7b ee ff ff       	callq  402c20 <_ZNSt7__cxx1112basic_stringIcSt11char_traitsIcESaIcEED1Ev@plt>
  403da5:	48 89 d8             	mov    %rbx,%rax
  403da8:	48 89 c7             	mov    %rax,%rdi
  403dab:	e8 10 f2 ff ff       	callq  402fc0 <_Unwind_Resume@plt>
  403db0:	e8 5b f0 ff ff       	callq  402e10 <__stack_chk_fail@plt>
  403db5:	48 83 c4 38          	add    $0x38,%rsp
  403db9:	5b                   	pop    %rbx
  403dba:	5d                   	pop    %rbp
  403dbb:	c3                   	retq   

0000000000403dbc <_ZNSt4pairIKNSt7__cxx1112basic_stringIcSt11char_traitsIcESaIcEEES5_ED1Ev>:
  403dbc:	55                   	push   %rbp
  403dbd:	48 89 e5             	mov    %rsp,%rbp
  403dc0:	48 83 ec 10          	sub    $0x10,%rsp
  403dc4:	48 89 7d f8          	mov    %rdi,-0x8(%rbp)
  403dc8:	48 8b 45 f8          	mov    -0x8(%rbp),%rax
  403dcc:	48 83 c0 20          	add    $0x20,%rax
  403dd0:	48 89 c7             	mov    %rax,%rdi
  403dd3:	e8 48 ee ff ff       	callq  402c20 <_ZNSt7__cxx1112basic_stringIcSt11char_traitsIcESaIcEED1Ev@plt>
  403dd8:	48 8b 45 f8          	mov    -0x8(%rbp),%rax
  403ddc:	48 89 c7             	mov    %rax,%rdi
  403ddf:	e8 3c ee ff ff       	callq  402c20 <_ZNSt7__cxx1112basic_stringIcSt11char_traitsIcESaIcEED1Ev@plt>
  403de4:	90                   	nop
  403de5:	c9                   	leaveq 
  403de6:	c3                   	retq   
  403de7:	90                   	nop

0000000000403de8 <_ZNSt8iteratorISt18input_iterator_tagclPccEC1Ev>:
  403de8:	55                   	push   %rbp
  403de9:	48 89 e5             	mov    %rsp,%rbp
  403dec:	48 89 7d f8          	mov    %rdi,-0x8(%rbp)
  403df0:	90                   	nop
  403df1:	5d                   	pop    %rbp
  403df2:	c3                   	retq   
  403df3:	90                   	nop

0000000000403df4 <_ZNSt19istreambuf_iteratorIcSt11char_traitsIcEEC1Ev>:
  403df4:	55                   	push   %rbp
  403df5:	48 89 e5             	mov    %rsp,%rbp
  403df8:	48 83 ec 10          	sub    $0x10,%rsp
  403dfc:	48 89 7d f8          	mov    %rdi,-0x8(%rbp)
  403e00:	48 8b 45 f8          	mov    -0x8(%rbp),%rax
  403e04:	48 89 c7             	mov    %rax,%rdi
  403e07:	e8 dc ff ff ff       	callq  403de8 <_ZNSt8iteratorISt18input_iterator_tagclPccEC1Ev>
  403e0c:	48 8b 45 f8          	mov    -0x8(%rbp),%rax
  403e10:	48 c7 00 00 00 00 00 	movq   $0x0,(%rax)
  403e17:	e8 42 fe ff ff       	callq  403c5e <_ZNSt11char_traitsIcE3eofEv>
  403e1c:	89 c2                	mov    %eax,%edx
  403e1e:	48 8b 45 f8          	mov    -0x8(%rbp),%rax
  403e22:	89 50 08             	mov    %edx,0x8(%rax)
  403e25:	90                   	nop
  403e26:	c9                   	leaveq 
  403e27:	c3                   	retq   

0000000000403e28 <_ZSt7forwardIRA8_KcEOT_RNSt16remove_referenceIS3_E4typeE>:
  403e28:	55                   	push   %rbp
  403e29:	48 89 e5             	mov    %rsp,%rbp
  403e2c:	48 89 7d f8          	mov    %rdi,-0x8(%rbp)
  403e30:	48 8b 45 f8          	mov    -0x8(%rbp),%rax
  403e34:	5d                   	pop    %rbp
  403e35:	c3                   	retq   

0000000000403e36 <_ZSt7forwardIRA2_KcEOT_RNSt16remove_referenceIS3_E4typeE>:
  403e36:	55                   	push   %rbp
  403e37:	48 89 e5             	mov    %rsp,%rbp
  403e3a:	48 89 7d f8          	mov    %rdi,-0x8(%rbp)
  403e3e:	48 8b 45 f8          	mov    -0x8(%rbp),%rax
  403e42:	5d                   	pop    %rbp
  403e43:	c3                   	retq   

0000000000403e44 <_ZNSt4pairIKNSt7__cxx1112basic_stringIcSt11char_traitsIcESaIcEEES5_EC1IRA8_KcRA2_S9_vEEOT_OT0_>:
  403e44:	55                   	push   %rbp
  403e45:	48 89 e5             	mov    %rsp,%rbp
  403e48:	53                   	push   %rbx
  403e49:	48 83 ec 38          	sub    $0x38,%rsp
  403e4d:	48 89 7d d8          	mov    %rdi,-0x28(%rbp)
  403e51:	48 89 75 d0          	mov    %rsi,-0x30(%rbp)
  403e55:	48 89 55 c8          	mov    %rdx,-0x38(%rbp)
  403e59:	64 48 8b 04 25 28 00 	mov    %fs:0x28,%rax
  403e60:	00 00 
  403e62:	48 89 45 e8          	mov    %rax,-0x18(%rbp)
  403e66:	31 c0                	xor    %eax,%eax
  403e68:	48 8d 45 e7          	lea    -0x19(%rbp),%rax
  403e6c:	48 89 c7             	mov    %rax,%rdi
  403e6f:	e8 5c f1 ff ff       	callq  402fd0 <_ZNSaIcEC1Ev@plt>
  403e74:	48 8b 45 d0          	mov    -0x30(%rbp),%rax
  403e78:	48 89 c7             	mov    %rax,%rdi
  403e7b:	e8 a8 ff ff ff       	callq  403e28 <_ZSt7forwardIRA8_KcEOT_RNSt16remove_referenceIS3_E4typeE>
  403e80:	48 89 c1             	mov    %rax,%rcx
  403e83:	48 8b 45 d8          	mov    -0x28(%rbp),%rax
  403e87:	48 8d 55 e7          	lea    -0x19(%rbp),%rdx
  403e8b:	48 89 ce             	mov    %rcx,%rsi
  403e8e:	48 89 c7             	mov    %rax,%rdi
  403e91:	e8 ea ef ff ff       	callq  402e80 <_ZNSt7__cxx1112basic_stringIcSt11char_traitsIcESaIcEEC1EPKcRKS3_@plt>
  403e96:	48 8d 45 e7          	lea    -0x19(%rbp),%rax
  403e9a:	48 89 c7             	mov    %rax,%rdi
  403e9d:	e8 4e ef ff ff       	callq  402df0 <_ZNSaIcED1Ev@plt>
  403ea2:	48 8d 45 e7          	lea    -0x19(%rbp),%rax
  403ea6:	48 89 c7             	mov    %rax,%rdi
  403ea9:	e8 22 f1 ff ff       	callq  402fd0 <_ZNSaIcEC1Ev@plt>
  403eae:	48 8b 45 c8          	mov    -0x38(%rbp),%rax
  403eb2:	48 89 c7             	mov    %rax,%rdi
  403eb5:	e8 7c ff ff ff       	callq  403e36 <_ZSt7forwardIRA2_KcEOT_RNSt16remove_referenceIS3_E4typeE>
  403eba:	48 89 c6             	mov    %rax,%rsi
  403ebd:	48 8b 45 d8          	mov    -0x28(%rbp),%rax
  403ec1:	48 8d 48 20          	lea    0x20(%rax),%rcx
  403ec5:	48 8d 45 e7          	lea    -0x19(%rbp),%rax
  403ec9:	48 89 c2             	mov    %rax,%rdx
  403ecc:	48 89 cf             	mov    %rcx,%rdi
  403ecf:	e8 ac ef ff ff       	callq  402e80 <_ZNSt7__cxx1112basic_stringIcSt11char_traitsIcESaIcEEC1EPKcRKS3_@plt>
  403ed4:	48 8d 45 e7          	lea    -0x19(%rbp),%rax
  403ed8:	48 89 c7             	mov    %rax,%rdi
  403edb:	e8 10 ef ff ff       	callq  402df0 <_ZNSaIcED1Ev@plt>
  403ee0:	90                   	nop
  403ee1:	48 8b 45 e8          	mov    -0x18(%rbp),%rax
  403ee5:	64 48 33 04 25 28 00 	xor    %fs:0x28,%rax
  403eec:	00 00 
  403eee:	74 47                	je     403f37 <_ZNSt4pairIKNSt7__cxx1112basic_stringIcSt11char_traitsIcESaIcEEES5_EC1IRA8_KcRA2_S9_vEEOT_OT0_+0xf3>
  403ef0:	eb 40                	jmp    403f32 <_ZNSt4pairIKNSt7__cxx1112basic_stringIcSt11char_traitsIcESaIcEEES5_EC1IRA8_KcRA2_S9_vEEOT_OT0_+0xee>
  403ef2:	48 89 c3             	mov    %rax,%rbx
  403ef5:	48 8d 45 e7          	lea    -0x19(%rbp),%rax
  403ef9:	48 89 c7             	mov    %rax,%rdi
  403efc:	e8 ef ee ff ff       	callq  402df0 <_ZNSaIcED1Ev@plt>
  403f01:	48 89 d8             	mov    %rbx,%rax
  403f04:	48 89 c7             	mov    %rax,%rdi
  403f07:	e8 b4 f0 ff ff       	callq  402fc0 <_Unwind_Resume@plt>
  403f0c:	48 89 c3             	mov    %rax,%rbx
  403f0f:	48 8d 45 e7          	lea    -0x19(%rbp),%rax
  403f13:	48 89 c7             	mov    %rax,%rdi
  403f16:	e8 d5 ee ff ff       	callq  402df0 <_ZNSaIcED1Ev@plt>
  403f1b:	48 8b 45 d8          	mov    -0x28(%rbp),%rax
  403f1f:	48 89 c7             	mov    %rax,%rdi
  403f22:	e8 f9 ec ff ff       	callq  402c20 <_ZNSt7__cxx1112basic_stringIcSt11char_traitsIcESaIcEED1Ev@plt>
  403f27:	48 89 d8             	mov    %rbx,%rax
  403f2a:	48 89 c7             	mov    %rax,%rdi
  403f2d:	e8 8e f0 ff ff       	callq  402fc0 <_Unwind_Resume@plt>
  403f32:	e8 d9 ee ff ff       	callq  402e10 <__stack_chk_fail@plt>
  403f37:	48 83 c4 38          	add    $0x38,%rsp
  403f3b:	5b                   	pop    %rbx
  403f3c:	5d                   	pop    %rbp
  403f3d:	c3                   	retq   

0000000000403f3e <_ZSt7forwardIRA3_KcEOT_RNSt16remove_referenceIS3_E4typeE>:
  403f3e:	55                   	push   %rbp
  403f3f:	48 89 e5             	mov    %rsp,%rbp
  403f42:	48 89 7d f8          	mov    %rdi,-0x8(%rbp)
  403f46:	48 8b 45 f8          	mov    -0x8(%rbp),%rax
  403f4a:	5d                   	pop    %rbp
  403f4b:	c3                   	retq   

0000000000403f4c <_ZNSt4pairIKNSt7__cxx1112basic_stringIcSt11char_traitsIcESaIcEEES5_EC1IRA8_KcRA3_S9_vEEOT_OT0_>:
  403f4c:	55                   	push   %rbp
  403f4d:	48 89 e5             	mov    %rsp,%rbp
  403f50:	53                   	push   %rbx
  403f51:	48 83 ec 38          	sub    $0x38,%rsp
  403f55:	48 89 7d d8          	mov    %rdi,-0x28(%rbp)
  403f59:	48 89 75 d0          	mov    %rsi,-0x30(%rbp)
  403f5d:	48 89 55 c8          	mov    %rdx,-0x38(%rbp)
  403f61:	64 48 8b 04 25 28 00 	mov    %fs:0x28,%rax
  403f68:	00 00 
  403f6a:	48 89 45 e8          	mov    %rax,-0x18(%rbp)
  403f6e:	31 c0                	xor    %eax,%eax
  403f70:	48 8d 45 e7          	lea    -0x19(%rbp),%rax
  403f74:	48 89 c7             	mov    %rax,%rdi
  403f77:	e8 54 f0 ff ff       	callq  402fd0 <_ZNSaIcEC1Ev@plt>
  403f7c:	48 8b 45 d0          	mov    -0x30(%rbp),%rax
  403f80:	48 89 c7             	mov    %rax,%rdi
  403f83:	e8 a0 fe ff ff       	callq  403e28 <_ZSt7forwardIRA8_KcEOT_RNSt16remove_referenceIS3_E4typeE>
  403f88:	48 89 c1             	mov    %rax,%rcx
  403f8b:	48 8b 45 d8          	mov    -0x28(%rbp),%rax
  403f8f:	48 8d 55 e7          	lea    -0x19(%rbp),%rdx
  403f93:	48 89 ce             	mov    %rcx,%rsi
  403f96:	48 89 c7             	mov    %rax,%rdi
  403f99:	e8 e2 ee ff ff       	callq  402e80 <_ZNSt7__cxx1112basic_stringIcSt11char_traitsIcESaIcEEC1EPKcRKS3_@plt>
  403f9e:	48 8d 45 e7          	lea    -0x19(%rbp),%rax
  403fa2:	48 89 c7             	mov    %rax,%rdi
  403fa5:	e8 46 ee ff ff       	callq  402df0 <_ZNSaIcED1Ev@plt>
  403faa:	48 8d 45 e7          	lea    -0x19(%rbp),%rax
  403fae:	48 89 c7             	mov    %rax,%rdi
  403fb1:	e8 1a f0 ff ff       	callq  402fd0 <_ZNSaIcEC1Ev@plt>
  403fb6:	48 8b 45 c8          	mov    -0x38(%rbp),%rax
  403fba:	48 89 c7             	mov    %rax,%rdi
  403fbd:	e8 7c ff ff ff       	callq  403f3e <_ZSt7forwardIRA3_KcEOT_RNSt16remove_referenceIS3_E4typeE>
  403fc2:	48 89 c6             	mov    %rax,%rsi
  403fc5:	48 8b 45 d8          	mov    -0x28(%rbp),%rax
  403fc9:	48 8d 48 20          	lea    0x20(%rax),%rcx
  403fcd:	48 8d 45 e7          	lea    -0x19(%rbp),%rax
  403fd1:	48 89 c2             	mov    %rax,%rdx
  403fd4:	48 89 cf             	mov    %rcx,%rdi
  403fd7:	e8 a4 ee ff ff       	callq  402e80 <_ZNSt7__cxx1112basic_stringIcSt11char_traitsIcESaIcEEC1EPKcRKS3_@plt>
  403fdc:	48 8d 45 e7          	lea    -0x19(%rbp),%rax
  403fe0:	48 89 c7             	mov    %rax,%rdi
  403fe3:	e8 08 ee ff ff       	callq  402df0 <_ZNSaIcED1Ev@plt>
  403fe8:	90                   	nop
  403fe9:	48 8b 45 e8          	mov    -0x18(%rbp),%rax
  403fed:	64 48 33 04 25 28 00 	xor    %fs:0x28,%rax
  403ff4:	00 00 
  403ff6:	74 47                	je     40403f <_ZNSt4pairIKNSt7__cxx1112basic_stringIcSt11char_traitsIcESaIcEEES5_EC1IRA8_KcRA3_S9_vEEOT_OT0_+0xf3>
  403ff8:	eb 40                	jmp    40403a <_ZNSt4pairIKNSt7__cxx1112basic_stringIcSt11char_traitsIcESaIcEEES5_EC1IRA8_KcRA3_S9_vEEOT_OT0_+0xee>
  403ffa:	48 89 c3             	mov    %rax,%rbx
  403ffd:	48 8d 45 e7          	lea    -0x19(%rbp),%rax
  404001:	48 89 c7             	mov    %rax,%rdi
  404004:	e8 e7 ed ff ff       	callq  402df0 <_ZNSaIcED1Ev@plt>
  404009:	48 89 d8             	mov    %rbx,%rax
  40400c:	48 89 c7             	mov    %rax,%rdi
  40400f:	e8 ac ef ff ff       	callq  402fc0 <_Unwind_Resume@plt>
  404014:	48 89 c3             	mov    %rax,%rbx
  404017:	48 8d 45 e7          	lea    -0x19(%rbp),%rax
  40401b:	48 89 c7             	mov    %rax,%rdi
  40401e:	e8 cd ed ff ff       	callq  402df0 <_ZNSaIcED1Ev@plt>
  404023:	48 8b 45 d8          	mov    -0x28(%rbp),%rax
  404027:	48 89 c7             	mov    %rax,%rdi
  40402a:	e8 f1 eb ff ff       	callq  402c20 <_ZNSt7__cxx1112basic_stringIcSt11char_traitsIcESaIcEED1Ev@plt>
  40402f:	48 89 d8             	mov    %rbx,%rax
  404032:	48 89 c7             	mov    %rax,%rdi
  404035:	e8 86 ef ff ff       	callq  402fc0 <_Unwind_Resume@plt>
  40403a:	e8 d1 ed ff ff       	callq  402e10 <__stack_chk_fail@plt>
  40403f:	48 83 c4 38          	add    $0x38,%rsp
  404043:	5b                   	pop    %rbx
  404044:	5d                   	pop    %rbp
  404045:	c3                   	retq   

0000000000404046 <_ZSt4moveIRNSt7__cxx1112basic_stringIcSt11char_traitsIcESaIcEEEEONSt16remove_referenceIT_E4typeEOS8_>:
  404046:	55                   	push   %rbp
  404047:	48 89 e5             	mov    %rsp,%rbp
  40404a:	48 89 7d f8          	mov    %rdi,-0x8(%rbp)
  40404e:	48 8b 45 f8          	mov    -0x8(%rbp),%rax
  404052:	5d                   	pop    %rbp
  404053:	c3                   	retq   

0000000000404054 <_ZNSt3mapINSt7__cxx1112basic_stringIcSt11char_traitsIcESaIcEEES5_St4lessIS5_ESaISt4pairIKS5_S5_EEEC1Ev>:
  404054:	55                   	push   %rbp
  404055:	48 89 e5             	mov    %rsp,%rbp
  404058:	48 83 ec 10          	sub    $0x10,%rsp
  40405c:	48 89 7d f8          	mov    %rdi,-0x8(%rbp)
  404060:	48 8b 45 f8          	mov    -0x8(%rbp),%rax
  404064:	48 89 c7             	mov    %rax,%rdi
  404067:	e8 6a 05 00 00       	callq  4045d6 <_ZNSt8_Rb_treeINSt7__cxx1112basic_stringIcSt11char_traitsIcESaIcEEESt4pairIKS5_S5_ESt10_Select1stIS8_ESt4lessIS5_ESaIS8_EEC1Ev>
  40406c:	90                   	nop
  40406d:	c9                   	leaveq 
  40406e:	c3                   	retq   
  40406f:	90                   	nop

0000000000404070 <_ZNSt8_Rb_treeINSt7__cxx1112basic_stringIcSt11char_traitsIcESaIcEEESt4pairIKS5_S5_ESt10_Select1stIS8_ESt4lessIS5_ESaIS8_EE13_Rb_tree_implISC_Lb1EED1Ev>:
  404070:	55                   	push   %rbp
  404071:	48 89 e5             	mov    %rsp,%rbp
  404074:	48 83 ec 10          	sub    $0x10,%rsp
  404078:	48 89 7d f8          	mov    %rdi,-0x8(%rbp)
  40407c:	48 8b 45 f8          	mov    -0x8(%rbp),%rax
  404080:	48 89 c7             	mov    %rax,%rdi
  404083:	e8 6a 05 00 00       	callq  4045f2 <_ZNSaISt13_Rb_tree_nodeISt4pairIKNSt7__cxx1112basic_stringIcSt11char_traitsIcESaIcEEES6_EEED1Ev>
  404088:	90                   	nop
  404089:	c9                   	leaveq 
  40408a:	c3                   	retq   
  40408b:	90                   	nop

000000000040408c <_ZNSt8_Rb_treeINSt7__cxx1112basic_stringIcSt11char_traitsIcESaIcEEESt4pairIKS5_S5_ESt10_Select1stIS8_ESt4lessIS5_ESaIS8_EED1Ev>:
  40408c:	55                   	push   %rbp
  40408d:	48 89 e5             	mov    %rsp,%rbp
  404090:	48 83 ec 10          	sub    $0x10,%rsp
  404094:	48 89 7d f8          	mov    %rdi,-0x8(%rbp)
  404098:	48 8b 45 f8          	mov    -0x8(%rbp),%rax
  40409c:	48 89 c7             	mov    %rax,%rdi
  40409f:	e8 d0 05 00 00       	callq  404674 <_ZNSt8_Rb_treeINSt7__cxx1112basic_stringIcSt11char_traitsIcESaIcEEESt4pairIKS5_S5_ESt10_Select1stIS8_ESt4lessIS5_ESaIS8_EE8_M_beginEv>
  4040a4:	48 89 c2             	mov    %rax,%rdx
  4040a7:	48 8b 45 f8          	mov    -0x8(%rbp),%rax
  4040ab:	48 89 d6             	mov    %rdx,%rsi
  4040ae:	48 89 c7             	mov    %rax,%rdi
  4040b1:	e8 58 05 00 00       	callq  40460e <_ZNSt8_Rb_treeINSt7__cxx1112basic_stringIcSt11char_traitsIcESaIcEEESt4pairIKS5_S5_ESt10_Select1stIS8_ESt4lessIS5_ESaIS8_EE8_M_eraseEPSt13_Rb_tree_nodeIS8_E>
  4040b6:	48 8b 45 f8          	mov    -0x8(%rbp),%rax
  4040ba:	48 89 c7             	mov    %rax,%rdi
  4040bd:	e8 ae ff ff ff       	callq  404070 <_ZNSt8_Rb_treeINSt7__cxx1112basic_stringIcSt11char_traitsIcESaIcEEESt4pairIKS5_S5_ESt10_Select1stIS8_ESt4lessIS5_ESaIS8_EE13_Rb_tree_implISC_Lb1EED1Ev>
  4040c2:	90                   	nop
  4040c3:	c9                   	leaveq 
  4040c4:	c3                   	retq   
  4040c5:	90                   	nop

00000000004040c6 <_ZNSt6vectorIhSaIhEEC1Ev>:
  4040c6:	55                   	push   %rbp
  4040c7:	48 89 e5             	mov    %rsp,%rbp
  4040ca:	48 83 ec 10          	sub    $0x10,%rsp
  4040ce:	48 89 7d f8          	mov    %rdi,-0x8(%rbp)
  4040d2:	48 8b 45 f8          	mov    -0x8(%rbp),%rax
  4040d6:	48 89 c7             	mov    %rax,%rdi
  4040d9:	e8 c4 05 00 00       	callq  4046a2 <_ZNSt12_Vector_baseIhSaIhEEC1Ev>
  4040de:	90                   	nop
  4040df:	c9                   	leaveq 
  4040e0:	c3                   	retq   
  4040e1:	90                   	nop

00000000004040e2 <_ZNSt6vectorIhSaIhEED1Ev>:
  4040e2:	55                   	push   %rbp
  4040e3:	48 89 e5             	mov    %rsp,%rbp
  4040e6:	48 83 ec 10          	sub    $0x10,%rsp
  4040ea:	48 89 7d f8          	mov    %rdi,-0x8(%rbp)
  4040ee:	48 8b 45 f8          	mov    -0x8(%rbp),%rax
  4040f2:	48 89 c7             	mov    %rax,%rdi
  4040f5:	e8 10 06 00 00       	callq  40470a <_ZNSt12_Vector_baseIhSaIhEE19_M_get_Tp_allocatorEv>
  4040fa:	48 89 c2             	mov    %rax,%rdx
  4040fd:	48 8b 45 f8          	mov    -0x8(%rbp),%rax
  404101:	48 8b 48 08          	mov    0x8(%rax),%rcx
  404105:	48 8b 45 f8          	mov    -0x8(%rbp),%rax
  404109:	48 8b 00             	mov    (%rax),%rax
  40410c:	48 89 ce             	mov    %rcx,%rsi
  40410f:	48 89 c7             	mov    %rax,%rdi
  404112:	e8 01 06 00 00       	callq  404718 <_ZSt8_DestroyIPhhEvT_S1_RSaIT0_E>
  404117:	48 8b 45 f8          	mov    -0x8(%rbp),%rax
  40411b:	48 89 c7             	mov    %rax,%rdi
  40411e:	e8 9b 05 00 00       	callq  4046be <_ZNSt12_Vector_baseIhSaIhEED1Ev>
  404123:	90                   	nop
  404124:	c9                   	leaveq 
  404125:	c3                   	retq   

0000000000404126 <_ZNKSt4lessINSt7__cxx1112basic_stringIcSt11char_traitsIcESaIcEEEEclERKS5_S8_>:
  404126:	55                   	push   %rbp
  404127:	48 89 e5             	mov    %rsp,%rbp
  40412a:	48 83 ec 20          	sub    $0x20,%rsp
  40412e:	48 89 7d f8          	mov    %rdi,-0x8(%rbp)
  404132:	48 89 75 f0          	mov    %rsi,-0x10(%rbp)
  404136:	48 89 55 e8          	mov    %rdx,-0x18(%rbp)
  40413a:	48 8b 55 e8          	mov    -0x18(%rbp),%rdx
  40413e:	48 8b 45 f0          	mov    -0x10(%rbp),%rax
  404142:	48 89 d6             	mov    %rdx,%rsi
  404145:	48 89 c7             	mov    %rax,%rdi
  404148:	e8 96 06 00 00       	callq  4047e3 <_ZStltIcSt11char_traitsIcESaIcEEbRKNSt7__cxx1112basic_stringIT_T0_T1_EESA_>
  40414d:	c9                   	leaveq 
  40414e:	c3                   	retq   
  40414f:	90                   	nop

0000000000404150 <_ZNSt3mapINSt7__cxx1112basic_stringIcSt11char_traitsIcESaIcEEES5_St4lessIS5_ESaISt4pairIKS5_S5_EEEixEOS5_>:
  404150:	55                   	push   %rbp
  404151:	48 89 e5             	mov    %rsp,%rbp
  404154:	41 55                	push   %r13
  404156:	41 54                	push   %r12
  404158:	53                   	push   %rbx
  404159:	48 83 ec 68          	sub    $0x68,%rsp
  40415d:	48 89 7d 88          	mov    %rdi,-0x78(%rbp)
  404161:	48 89 75 80          	mov    %rsi,-0x80(%rbp)
  404165:	64 48 8b 04 25 28 00 	mov    %fs:0x28,%rax
  40416c:	00 00 
  40416e:	48 89 45 d8          	mov    %rax,-0x28(%rbp)
  404172:	31 c0                	xor    %eax,%eax
  404174:	48 8b 55 80          	mov    -0x80(%rbp),%rdx
  404178:	48 8b 45 88          	mov    -0x78(%rbp),%rax
  40417c:	48 89 d6             	mov    %rdx,%rsi
  40417f:	48 89 c7             	mov    %rax,%rdi
  404182:	e8 bb 05 00 00       	callq  404742 <_ZNSt3mapINSt7__cxx1112basic_stringIcSt11char_traitsIcESaIcEEES5_St4lessIS5_ESaISt4pairIKS5_S5_EEE11lower_boundERS9_>
  404187:	48 89 45 a0          	mov    %rax,-0x60(%rbp)
  40418b:	bb 00 00 00 00       	mov    $0x0,%ebx
  404190:	48 8b 45 88          	mov    -0x78(%rbp),%rax
  404194:	48 89 c7             	mov    %rax,%rdi
  404197:	e8 cc 05 00 00       	callq  404768 <_ZNSt3mapINSt7__cxx1112basic_stringIcSt11char_traitsIcESaIcEEES5_St4lessIS5_ESaISt4pairIKS5_S5_EEE3endEv>
  40419c:	48 89 45 b0          	mov    %rax,-0x50(%rbp)
  4041a0:	41 bc 01 00 00 00    	mov    $0x1,%r12d
  4041a6:	48 8d 55 b0          	lea    -0x50(%rbp),%rdx
  4041aa:	48 8d 45 a0          	lea    -0x60(%rbp),%rax
  4041ae:	48 89 d6             	mov    %rdx,%rsi
  4041b1:	48 89 c7             	mov    %rax,%rdi
  4041b4:	e8 c9 05 00 00       	callq  404782 <_ZNKSt17_Rb_tree_iteratorISt4pairIKNSt7__cxx1112basic_stringIcSt11char_traitsIcESaIcEEES6_EEeqERKS9_>
  4041b9:	84 c0                	test   %al,%al
  4041bb:	75 3a                	jne    4041f7 <_ZNSt3mapINSt7__cxx1112basic_stringIcSt11char_traitsIcESaIcEEES5_St4lessIS5_ESaISt4pairIKS5_S5_EEEixEOS5_+0xa7>
  4041bd:	48 8d 45 a0          	lea    -0x60(%rbp),%rax
  4041c1:	48 89 c7             	mov    %rax,%rdi
  4041c4:	e8 fd 05 00 00       	callq  4047c6 <_ZNKSt17_Rb_tree_iteratorISt4pairIKNSt7__cxx1112basic_stringIcSt11char_traitsIcESaIcEEES6_EEdeEv>
  4041c9:	49 89 c5             	mov    %rax,%r13
  4041cc:	48 8b 45 88          	mov    -0x78(%rbp),%rax
  4041d0:	48 89 c7             	mov    %rax,%rdi
  4041d3:	e8 cc 05 00 00       	callq  4047a4 <_ZNKSt3mapINSt7__cxx1112basic_stringIcSt11char_traitsIcESaIcEEES5_St4lessIS5_ESaISt4pairIKS5_S5_EEE8key_compEv>
  4041d8:	bb 01 00 00 00       	mov    $0x1,%ebx
  4041dd:	48 8b 4d 80          	mov    -0x80(%rbp),%rcx
  4041e1:	48 8d 45 9e          	lea    -0x62(%rbp),%rax
  4041e5:	4c 89 ea             	mov    %r13,%rdx
  4041e8:	48 89 ce             	mov    %rcx,%rsi
  4041eb:	48 89 c7             	mov    %rax,%rdi
  4041ee:	e8 33 ff ff ff       	callq  404126 <_ZNKSt4lessINSt7__cxx1112basic_stringIcSt11char_traitsIcESaIcEEEEclERKS5_S8_>
  4041f3:	84 c0                	test   %al,%al
  4041f5:	74 07                	je     4041fe <_ZNSt3mapINSt7__cxx1112basic_stringIcSt11char_traitsIcESaIcEEES5_St4lessIS5_ESaISt4pairIKS5_S5_EEEixEOS5_+0xae>
  4041f7:	b8 01 00 00 00       	mov    $0x1,%eax
  4041fc:	eb 05                	jmp    404203 <_ZNSt3mapINSt7__cxx1112basic_stringIcSt11char_traitsIcESaIcEEES5_St4lessIS5_ESaISt4pairIKS5_S5_EEEixEOS5_+0xb3>
  4041fe:	b8 00 00 00 00       	mov    $0x0,%eax
  404203:	84 db                	test   %bl,%bl
  404205:	45 84 e4             	test   %r12b,%r12b
  404208:	84 c0                	test   %al,%al
  40420a:	74 58                	je     404264 <_ZNSt3mapINSt7__cxx1112basic_stringIcSt11char_traitsIcESaIcEEES5_St4lessIS5_ESaISt4pairIKS5_S5_EEEixEOS5_+0x114>
  40420c:	48 8b 45 80          	mov    -0x80(%rbp),%rax
  404210:	48 89 c7             	mov    %rax,%rdi
  404213:	e8 2e fe ff ff       	callq  404046 <_ZSt4moveIRNSt7__cxx1112basic_stringIcSt11char_traitsIcESaIcEEEEONSt16remove_referenceIT_E4typeEOS8_>
  404218:	48 89 c2             	mov    %rax,%rdx
  40421b:	48 8d 45 c0          	lea    -0x40(%rbp),%rax
  40421f:	48 89 d6             	mov    %rdx,%rsi
  404222:	48 89 c7             	mov    %rax,%rdi
  404225:	e8 16 07 00 00       	callq  404940 <_ZSt16forward_as_tupleIINSt7__cxx1112basic_stringIcSt11char_traitsIcESaIcEEEEESt5tupleIIDpOT_EES9_>
  40422a:	48 8d 55 a0          	lea    -0x60(%rbp),%rdx
  40422e:	48 8d 45 d0          	lea    -0x30(%rbp),%rax
  404232:	48 89 d6             	mov    %rdx,%rsi
  404235:	48 89 c7             	mov    %rax,%rdi
  404238:	e8 37 07 00 00       	callq  404974 <_ZNSt23_Rb_tree_const_iteratorISt4pairIKNSt7__cxx1112basic_stringIcSt11char_traitsIcESaIcEEES6_EEC1ERKSt17_Rb_tree_iteratorIS8_E>
  40423d:	48 8b 45 88          	mov    -0x78(%rbp),%rax
  404241:	48 8d 4d 9f          	lea    -0x61(%rbp),%rcx
  404245:	48 8d 55 c0          	lea    -0x40(%rbp),%rdx
  404249:	48 8b 75 d0          	mov    -0x30(%rbp),%rsi
  40424d:	49 89 c8             	mov    %rcx,%r8
  404250:	48 89 d1             	mov    %rdx,%rcx
  404253:	ba 84 de 40 00       	mov    $0x40de84,%edx
  404258:	48 89 c7             	mov    %rax,%rdi
  40425b:	e8 5c 07 00 00       	callq  4049bc <_ZNSt8_Rb_treeINSt7__cxx1112basic_stringIcSt11char_traitsIcESaIcEEESt4pairIKS5_S5_ESt10_Select1stIS8_ESt4lessIS5_ESaIS8_EE22_M_emplace_hint_uniqueIIRKSt21piecewise_construct_tSt5tupleIIOS5_EESJ_IIEEEEESt17_Rb_tree_iteratorIS8_ESt23_Rb_tree_const_iteratorIS8_EDpOT_>
  404260:	48 89 45 a0          	mov    %rax,-0x60(%rbp)
  404264:	48 8d 45 a0          	lea    -0x60(%rbp),%rax
  404268:	48 89 c7             	mov    %rax,%rdi
  40426b:	e8 56 05 00 00       	callq  4047c6 <_ZNKSt17_Rb_tree_iteratorISt4pairIKNSt7__cxx1112basic_stringIcSt11char_traitsIcESaIcEEES6_EEdeEv>
  404270:	48 83 c0 20          	add    $0x20,%rax
  404274:	48 8b 5d d8          	mov    -0x28(%rbp),%rbx
  404278:	64 48 33 1c 25 28 00 	xor    %fs:0x28,%rbx
  40427f:	00 00 
  404281:	74 15                	je     404298 <_ZNSt3mapINSt7__cxx1112basic_stringIcSt11char_traitsIcESaIcEEES5_St4lessIS5_ESaISt4pairIKS5_S5_EEEixEOS5_+0x148>
  404283:	eb 0e                	jmp    404293 <_ZNSt3mapINSt7__cxx1112basic_stringIcSt11char_traitsIcESaIcEEES5_St4lessIS5_ESaISt4pairIKS5_S5_EEEixEOS5_+0x143>
  404285:	84 db                	test   %bl,%bl
  404287:	45 84 e4             	test   %r12b,%r12b
  40428a:	90                   	nop
  40428b:	48 89 c7             	mov    %rax,%rdi
  40428e:	e8 2d ed ff ff       	callq  402fc0 <_Unwind_Resume@plt>
  404293:	e8 78 eb ff ff       	callq  402e10 <__stack_chk_fail@plt>
  404298:	48 83 c4 68          	add    $0x68,%rsp
  40429c:	5b                   	pop    %rbx
  40429d:	41 5c                	pop    %r12
  40429f:	41 5d                	pop    %r13
  4042a1:	5d                   	pop    %rbp
  4042a2:	c3                   	retq   

00000000004042a3 <_ZSteqIcSt11char_traitsIcESaIcEEbRKNSt7__cxx1112basic_stringIT_T0_T1_EEPKS5_>:
  4042a3:	55                   	push   %rbp
  4042a4:	48 89 e5             	mov    %rsp,%rbp
  4042a7:	48 83 ec 10          	sub    $0x10,%rsp
  4042ab:	48 89 7d f8          	mov    %rdi,-0x8(%rbp)
  4042af:	48 89 75 f0          	mov    %rsi,-0x10(%rbp)
  4042b3:	48 8b 55 f0          	mov    -0x10(%rbp),%rdx
  4042b7:	48 8b 45 f8          	mov    -0x8(%rbp),%rax
  4042bb:	48 89 d6             	mov    %rdx,%rsi
  4042be:	48 89 c7             	mov    %rax,%rdi
  4042c1:	e8 3a e8 ff ff       	callq  402b00 <_ZNKSt7__cxx1112basic_stringIcSt11char_traitsIcESaIcEE7compareEPKc@plt>
  4042c6:	85 c0                	test   %eax,%eax
  4042c8:	0f 94 c0             	sete   %al
  4042cb:	c9                   	leaveq 
  4042cc:	c3                   	retq   
  4042cd:	90                   	nop

00000000004042ce <_ZNSaISt4pairIKNSt7__cxx1112basic_stringIcSt11char_traitsIcESaIcEEES5_EEC1Ev>:
  4042ce:	55                   	push   %rbp
  4042cf:	48 89 e5             	mov    %rsp,%rbp
  4042d2:	48 83 ec 10          	sub    $0x10,%rsp
  4042d6:	48 89 7d f8          	mov    %rdi,-0x8(%rbp)
  4042da:	48 8b 45 f8          	mov    -0x8(%rbp),%rax
  4042de:	48 89 c7             	mov    %rax,%rdi
  4042e1:	e8 10 08 00 00       	callq  404af6 <_ZN9__gnu_cxx13new_allocatorISt4pairIKNSt7__cxx1112basic_stringIcSt11char_traitsIcESaIcEEES7_EEC1Ev>
  4042e6:	90                   	nop
  4042e7:	c9                   	leaveq 
  4042e8:	c3                   	retq   
  4042e9:	90                   	nop

00000000004042ea <_ZNSaISt4pairIKNSt7__cxx1112basic_stringIcSt11char_traitsIcESaIcEEES5_EED1Ev>:
  4042ea:	55                   	push   %rbp
  4042eb:	48 89 e5             	mov    %rsp,%rbp
  4042ee:	48 83 ec 10          	sub    $0x10,%rsp
  4042f2:	48 89 7d f8          	mov    %rdi,-0x8(%rbp)
  4042f6:	48 8b 45 f8          	mov    -0x8(%rbp),%rax
  4042fa:	48 89 c7             	mov    %rax,%rdi
  4042fd:	e8 00 08 00 00       	callq  404b02 <_ZN9__gnu_cxx13new_allocatorISt4pairIKNSt7__cxx1112basic_stringIcSt11char_traitsIcESaIcEEES7_EED1Ev>
  404302:	90                   	nop
  404303:	c9                   	leaveq 
  404304:	c3                   	retq   
  404305:	90                   	nop

0000000000404306 <_ZNKSt16initializer_listISt4pairIKNSt7__cxx1112basic_stringIcSt11char_traitsIcESaIcEEES6_EE5beginEv>:
  404306:	55                   	push   %rbp
  404307:	48 89 e5             	mov    %rsp,%rbp
  40430a:	48 89 7d f8          	mov    %rdi,-0x8(%rbp)
  40430e:	48 8b 45 f8          	mov    -0x8(%rbp),%rax
  404312:	48 8b 00             	mov    (%rax),%rax
  404315:	5d                   	pop    %rbp
  404316:	c3                   	retq   
  404317:	90                   	nop

0000000000404318 <_ZNKSt16initializer_listISt4pairIKNSt7__cxx1112basic_stringIcSt11char_traitsIcESaIcEEES6_EE4sizeEv>:
  404318:	55                   	push   %rbp
  404319:	48 89 e5             	mov    %rsp,%rbp
  40431c:	48 89 7d f8          	mov    %rdi,-0x8(%rbp)
  404320:	48 8b 45 f8          	mov    -0x8(%rbp),%rax
  404324:	48 8b 40 08          	mov    0x8(%rax),%rax
  404328:	5d                   	pop    %rbp
  404329:	c3                   	retq   

000000000040432a <_ZNKSt16initializer_listISt4pairIKNSt7__cxx1112basic_stringIcSt11char_traitsIcESaIcEEES6_EE3endEv>:
  40432a:	55                   	push   %rbp
  40432b:	48 89 e5             	mov    %rsp,%rbp
  40432e:	53                   	push   %rbx
  40432f:	48 83 ec 18          	sub    $0x18,%rsp
  404333:	48 89 7d e8          	mov    %rdi,-0x18(%rbp)
  404337:	48 8b 45 e8          	mov    -0x18(%rbp),%rax
  40433b:	48 89 c7             	mov    %rax,%rdi
  40433e:	e8 c3 ff ff ff       	callq  404306 <_ZNKSt16initializer_listISt4pairIKNSt7__cxx1112basic_stringIcSt11char_traitsIcESaIcEEES6_EE5beginEv>
  404343:	48 89 c3             	mov    %rax,%rbx
  404346:	48 8b 45 e8          	mov    -0x18(%rbp),%rax
  40434a:	48 89 c7             	mov    %rax,%rdi
  40434d:	e8 c6 ff ff ff       	callq  404318 <_ZNKSt16initializer_listISt4pairIKNSt7__cxx1112basic_stringIcSt11char_traitsIcESaIcEEES6_EE4sizeEv>
  404352:	48 c1 e0 06          	shl    $0x6,%rax
  404356:	48 01 d8             	add    %rbx,%rax
  404359:	48 83 c4 18          	add    $0x18,%rsp
  40435d:	5b                   	pop    %rbx
  40435e:	5d                   	pop    %rbp
  40435f:	c3                   	retq   

0000000000404360 <_ZNSt3mapINSt7__cxx1112basic_stringIcSt11char_traitsIcESaIcEEES5_St4lessIS5_ESaISt4pairIKS5_S5_EEEC1ESt16initializer_listISA_ERKS7_RKSB_>:
  404360:	55                   	push   %rbp
  404361:	48 89 e5             	mov    %rsp,%rbp
  404364:	53                   	push   %rbx
  404365:	48 83 ec 48          	sub    $0x48,%rsp
  404369:	48 89 7d d8          	mov    %rdi,-0x28(%rbp)
  40436d:	48 89 f0             	mov    %rsi,%rax
  404370:	48 89 d6             	mov    %rdx,%rsi
  404373:	48 89 f2             	mov    %rsi,%rdx
  404376:	48 89 45 c0          	mov    %rax,-0x40(%rbp)
  40437a:	48 89 55 c8          	mov    %rdx,-0x38(%rbp)
  40437e:	48 89 4d d0          	mov    %rcx,-0x30(%rbp)
  404382:	4c 89 45 b8          	mov    %r8,-0x48(%rbp)
  404386:	64 48 8b 04 25 28 00 	mov    %fs:0x28,%rax
  40438d:	00 00 
  40438f:	48 89 45 e8          	mov    %rax,-0x18(%rbp)
  404393:	31 c0                	xor    %eax,%eax
  404395:	48 8b 55 b8          	mov    -0x48(%rbp),%rdx
  404399:	48 8d 45 e7          	lea    -0x19(%rbp),%rax
  40439d:	48 89 d6             	mov    %rdx,%rsi
  4043a0:	48 89 c7             	mov    %rax,%rdi
  4043a3:	e8 66 07 00 00       	callq  404b0e <_ZNSaISt4pairIKNSt7__cxx1112basic_stringIcSt11char_traitsIcESaIcEEES5_EEC1ERKS8_>
  4043a8:	48 8b 45 d8          	mov    -0x28(%rbp),%rax
  4043ac:	48 8d 55 e7          	lea    -0x19(%rbp),%rdx
  4043b0:	48 8b 4d d0          	mov    -0x30(%rbp),%rcx
  4043b4:	48 89 ce             	mov    %rcx,%rsi
  4043b7:	48 89 c7             	mov    %rax,%rdi
  4043ba:	e8 75 07 00 00       	callq  404b34 <_ZNSt8_Rb_treeINSt7__cxx1112basic_stringIcSt11char_traitsIcESaIcEEESt4pairIKS5_S5_ESt10_Select1stIS8_ESt4lessIS5_ESaIS8_EEC1ERKSC_RKSD_>
  4043bf:	48 8d 45 e7          	lea    -0x19(%rbp),%rax
  4043c3:	48 89 c7             	mov    %rax,%rdi
  4043c6:	e8 1f ff ff ff       	callq  4042ea <_ZNSaISt4pairIKNSt7__cxx1112basic_stringIcSt11char_traitsIcESaIcEEES5_EED1Ev>
  4043cb:	48 8d 45 c0          	lea    -0x40(%rbp),%rax
  4043cf:	48 89 c7             	mov    %rax,%rdi
  4043d2:	e8 53 ff ff ff       	callq  40432a <_ZNKSt16initializer_listISt4pairIKNSt7__cxx1112basic_stringIcSt11char_traitsIcESaIcEEES6_EE3endEv>
  4043d7:	48 89 c3             	mov    %rax,%rbx
  4043da:	48 8d 45 c0          	lea    -0x40(%rbp),%rax
  4043de:	48 89 c7             	mov    %rax,%rdi
  4043e1:	e8 20 ff ff ff       	callq  404306 <_ZNKSt16initializer_listISt4pairIKNSt7__cxx1112basic_stringIcSt11char_traitsIcESaIcEEES6_EE5beginEv>
  4043e6:	48 89 c1             	mov    %rax,%rcx
  4043e9:	48 8b 45 d8          	mov    -0x28(%rbp),%rax
  4043ed:	48 89 da             	mov    %rbx,%rdx
  4043f0:	48 89 ce             	mov    %rcx,%rsi
  4043f3:	48 89 c7             	mov    %rax,%rdi
  4043f6:	e8 cb 07 00 00       	callq  404bc6 <_ZNSt8_Rb_treeINSt7__cxx1112basic_stringIcSt11char_traitsIcESaIcEEESt4pairIKS5_S5_ESt10_Select1stIS8_ESt4lessIS5_ESaIS8_EE16_M_insert_uniqueIPKS8_EEvT_SI_>
  4043fb:	eb 34                	jmp    404431 <_ZNSt3mapINSt7__cxx1112basic_stringIcSt11char_traitsIcESaIcEEES5_St4lessIS5_ESaISt4pairIKS5_S5_EEEC1ESt16initializer_listISA_ERKS7_RKSB_+0xd1>
  4043fd:	48 89 c3             	mov    %rax,%rbx
  404400:	48 8d 45 e7          	lea    -0x19(%rbp),%rax
  404404:	48 89 c7             	mov    %rax,%rdi
  404407:	e8 de fe ff ff       	callq  4042ea <_ZNSaISt4pairIKNSt7__cxx1112basic_stringIcSt11char_traitsIcESaIcEEES5_EED1Ev>
  40440c:	48 89 d8             	mov    %rbx,%rax
  40440f:	48 89 c7             	mov    %rax,%rdi
  404412:	e8 a9 eb ff ff       	callq  402fc0 <_Unwind_Resume@plt>
  404417:	48 89 c3             	mov    %rax,%rbx
  40441a:	48 8b 45 d8          	mov    -0x28(%rbp),%rax
  40441e:	48 89 c7             	mov    %rax,%rdi
  404421:	e8 66 fc ff ff       	callq  40408c <_ZNSt8_Rb_treeINSt7__cxx1112basic_stringIcSt11char_traitsIcESaIcEEESt4pairIKS5_S5_ESt10_Select1stIS8_ESt4lessIS5_ESaIS8_EED1Ev>
  404426:	48 89 d8             	mov    %rbx,%rax
  404429:	48 89 c7             	mov    %rax,%rdi
  40442c:	e8 8f eb ff ff       	callq  402fc0 <_Unwind_Resume@plt>
  404431:	48 8b 45 e8          	mov    -0x18(%rbp),%rax
  404435:	64 48 33 04 25 28 00 	xor    %fs:0x28,%rax
  40443c:	00 00 
  40443e:	74 05                	je     404445 <_ZNSt3mapINSt7__cxx1112basic_stringIcSt11char_traitsIcESaIcEEES5_St4lessIS5_ESaISt4pairIKS5_S5_EEEC1ESt16initializer_listISA_ERKS7_RKSB_+0xe5>
  404440:	e8 cb e9 ff ff       	callq  402e10 <__stack_chk_fail@plt>
  404445:	48 83 c4 48          	add    $0x48,%rsp
  404449:	5b                   	pop    %rbx
  40444a:	5d                   	pop    %rbp
  40444b:	c3                   	retq   

000000000040444c <_ZNSt19istreambuf_iteratorIcSt11char_traitsIcEEC1ERSi>:
  40444c:	55                   	push   %rbp
  40444d:	48 89 e5             	mov    %rsp,%rbp
  404450:	48 83 ec 10          	sub    $0x10,%rsp
  404454:	48 89 7d f8          	mov    %rdi,-0x8(%rbp)
  404458:	48 89 75 f0          	mov    %rsi,-0x10(%rbp)
  40445c:	48 8b 45 f8          	mov    -0x8(%rbp),%rax
  404460:	48 89 c7             	mov    %rax,%rdi
  404463:	e8 80 f9 ff ff       	callq  403de8 <_ZNSt8iteratorISt18input_iterator_tagclPccEC1Ev>
  404468:	48 8b 45 f0          	mov    -0x10(%rbp),%rax
  40446c:	48 8b 00             	mov    (%rax),%rax
  40446f:	48 83 e8 18          	sub    $0x18,%rax
  404473:	48 8b 00             	mov    (%rax),%rax
  404476:	48 89 c2             	mov    %rax,%rdx
  404479:	48 8b 45 f0          	mov    -0x10(%rbp),%rax
  40447d:	48 01 d0             	add    %rdx,%rax
  404480:	48 89 c7             	mov    %rax,%rdi
  404483:	e8 28 e7 ff ff       	callq  402bb0 <_ZNKSt9basic_iosIcSt11char_traitsIcEE5rdbufEv@plt>
  404488:	48 89 c2             	mov    %rax,%rdx
  40448b:	48 8b 45 f8          	mov    -0x8(%rbp),%rax
  40448f:	48 89 10             	mov    %rdx,(%rax)
  404492:	e8 c7 f7 ff ff       	callq  403c5e <_ZNSt11char_traitsIcE3eofEv>
  404497:	89 c2                	mov    %eax,%edx
  404499:	48 8b 45 f8          	mov    -0x8(%rbp),%rax
  40449d:	89 50 08             	mov    %edx,0x8(%rax)
  4044a0:	90                   	nop
  4044a1:	c9                   	leaveq 
  4044a2:	c3                   	retq   
  4044a3:	90                   	nop

00000000004044a4 <_ZNSaIhEC1Ev>:
  4044a4:	55                   	push   %rbp
  4044a5:	48 89 e5             	mov    %rsp,%rbp
  4044a8:	48 83 ec 10          	sub    $0x10,%rsp
  4044ac:	48 89 7d f8          	mov    %rdi,-0x8(%rbp)
  4044b0:	48 8b 45 f8          	mov    -0x8(%rbp),%rax
  4044b4:	48 89 c7             	mov    %rax,%rdi
  4044b7:	e8 a4 07 00 00       	callq  404c60 <_ZN9__gnu_cxx13new_allocatorIhEC1Ev>
  4044bc:	90                   	nop
  4044bd:	c9                   	leaveq 
  4044be:	c3                   	retq   
  4044bf:	90                   	nop

00000000004044c0 <_ZNSaIhED1Ev>:
  4044c0:	55                   	push   %rbp
  4044c1:	48 89 e5             	mov    %rsp,%rbp
  4044c4:	48 83 ec 10          	sub    $0x10,%rsp
  4044c8:	48 89 7d f8          	mov    %rdi,-0x8(%rbp)
  4044cc:	48 8b 45 f8          	mov    -0x8(%rbp),%rax
  4044d0:	48 89 c7             	mov    %rax,%rdi
  4044d3:	e8 94 07 00 00       	callq  404c6c <_ZN9__gnu_cxx13new_allocatorIhED1Ev>
  4044d8:	90                   	nop
  4044d9:	c9                   	leaveq 
  4044da:	c3                   	retq   
  4044db:	90                   	nop

00000000004044dc <_ZNSt6vectorIhSaIhEEC1ISt19istreambuf_iteratorIcSt11char_traitsIcEEvEET_S7_RKS0_>:
  4044dc:	55                   	push   %rbp
  4044dd:	48 89 e5             	mov    %rsp,%rbp
  4044e0:	53                   	push   %rbx
  4044e1:	48 83 ec 48          	sub    $0x48,%rsp
  4044e5:	48 89 7d d8          	mov    %rdi,-0x28(%rbp)
  4044e9:	48 89 f0             	mov    %rsi,%rax
  4044ec:	48 89 d6             	mov    %rdx,%rsi
  4044ef:	48 89 f2             	mov    %rsi,%rdx
  4044f2:	48 89 45 c0          	mov    %rax,-0x40(%rbp)
  4044f6:	48 89 55 c8          	mov    %rdx,-0x38(%rbp)
  4044fa:	48 89 c8             	mov    %rcx,%rax
  4044fd:	4c 89 c1             	mov    %r8,%rcx
  404500:	48 89 ca             	mov    %rcx,%rdx
  404503:	48 89 45 b0          	mov    %rax,-0x50(%rbp)
  404507:	48 89 55 b8          	mov    %rdx,-0x48(%rbp)
  40450b:	4c 89 4d d0          	mov    %r9,-0x30(%rbp)
  40450f:	64 48 8b 04 25 28 00 	mov    %fs:0x28,%rax
  404516:	00 00 
  404518:	48 89 45 e8          	mov    %rax,-0x18(%rbp)
  40451c:	31 c0                	xor    %eax,%eax
  40451e:	48 8b 45 d8          	mov    -0x28(%rbp),%rax
  404522:	48 8b 55 d0          	mov    -0x30(%rbp),%rdx
  404526:	48 89 d6             	mov    %rdx,%rsi
  404529:	48 89 c7             	mov    %rax,%rdi
  40452c:	e8 47 07 00 00       	callq  404c78 <_ZNSt12_Vector_baseIhSaIhEEC1ERKS0_>
  404531:	48 8b 4d b0          	mov    -0x50(%rbp),%rcx
  404535:	48 8b 7d b8          	mov    -0x48(%rbp),%rdi
  404539:	48 8b 75 c0          	mov    -0x40(%rbp),%rsi
  40453d:	48 8b 55 c8          	mov    -0x38(%rbp),%rdx
  404541:	48 8b 45 d8          	mov    -0x28(%rbp),%rax
  404545:	48 83 ec 08          	sub    $0x8,%rsp
  404549:	53                   	push   %rbx
  40454a:	49 89 f8             	mov    %rdi,%r8
  40454d:	48 89 c7             	mov    %rax,%rdi
  404550:	e8 49 07 00 00       	callq  404c9e <_ZNSt6vectorIhSaIhEE22_M_initialize_dispatchISt19istreambuf_iteratorIcSt11char_traitsIcEEEEvT_S7_St12__false_type>
  404555:	48 83 c4 10          	add    $0x10,%rsp
  404559:	90                   	nop
  40455a:	48 8b 45 e8          	mov    -0x18(%rbp),%rax
  40455e:	64 48 33 04 25 28 00 	xor    %fs:0x28,%rax
  404565:	00 00 
  404567:	74 21                	je     40458a <_ZNSt6vectorIhSaIhEEC1ISt19istreambuf_iteratorIcSt11char_traitsIcEEvEET_S7_RKS0_+0xae>
  404569:	eb 1a                	jmp    404585 <_ZNSt6vectorIhSaIhEEC1ISt19istreambuf_iteratorIcSt11char_traitsIcEEvEET_S7_RKS0_+0xa9>
  40456b:	48 89 c3             	mov    %rax,%rbx
  40456e:	48 8b 45 d8          	mov    -0x28(%rbp),%rax
  404572:	48 89 c7             	mov    %rax,%rdi
  404575:	e8 44 01 00 00       	callq  4046be <_ZNSt12_Vector_baseIhSaIhEED1Ev>
  40457a:	48 89 d8             	mov    %rbx,%rax
  40457d:	48 89 c7             	mov    %rax,%rdi
  404580:	e8 3b ea ff ff       	callq  402fc0 <_Unwind_Resume@plt>
  404585:	e8 86 e8 ff ff       	callq  402e10 <__stack_chk_fail@plt>
  40458a:	48 8b 5d f8          	mov    -0x8(%rbp),%rbx
  40458e:	c9                   	leaveq 
  40458f:	c3                   	retq   

0000000000404590 <_ZNSt6vectorIhSaIhEE4dataEv>:
  404590:	55                   	push   %rbp
  404591:	48 89 e5             	mov    %rsp,%rbp
  404594:	48 83 ec 10          	sub    $0x10,%rsp
  404598:	48 89 7d f8          	mov    %rdi,-0x8(%rbp)
  40459c:	48 8b 45 f8          	mov    -0x8(%rbp),%rax
  4045a0:	48 8b 10             	mov    (%rax),%rdx
  4045a3:	48 8b 45 f8          	mov    -0x8(%rbp),%rax
  4045a7:	48 89 d6             	mov    %rdx,%rsi
  4045aa:	48 89 c7             	mov    %rax,%rdi
  4045ad:	e8 6a 07 00 00       	callq  404d1c <_ZNKSt6vectorIhSaIhEE11_M_data_ptrIhEEPT_S4_>
  4045b2:	c9                   	leaveq 
  4045b3:	c3                   	retq   

00000000004045b4 <_ZNKSt6vectorIhSaIhEE4sizeEv>:
  4045b4:	55                   	push   %rbp
  4045b5:	48 89 e5             	mov    %rsp,%rbp
  4045b8:	48 89 7d f8          	mov    %rdi,-0x8(%rbp)
  4045bc:	48 8b 45 f8          	mov    -0x8(%rbp),%rax
  4045c0:	48 8b 40 08          	mov    0x8(%rax),%rax
  4045c4:	48 89 c2             	mov    %rax,%rdx
  4045c7:	48 8b 45 f8          	mov    -0x8(%rbp),%rax
  4045cb:	48 8b 00             	mov    (%rax),%rax
  4045ce:	48 29 c2             	sub    %rax,%rdx
  4045d1:	48 89 d0             	mov    %rdx,%rax
  4045d4:	5d                   	pop    %rbp
  4045d5:	c3                   	retq   

00000000004045d6 <_ZNSt8_Rb_treeINSt7__cxx1112basic_stringIcSt11char_traitsIcESaIcEEESt4pairIKS5_S5_ESt10_Select1stIS8_ESt4lessIS5_ESaIS8_EEC1Ev>:
  4045d6:	55                   	push   %rbp
  4045d7:	48 89 e5             	mov    %rsp,%rbp
  4045da:	48 83 ec 10          	sub    $0x10,%rsp
  4045de:	48 89 7d f8          	mov    %rdi,-0x8(%rbp)
  4045e2:	48 8b 45 f8          	mov    -0x8(%rbp),%rax
  4045e6:	48 89 c7             	mov    %rax,%rdi
  4045e9:	e8 40 07 00 00       	callq  404d2e <_ZNSt8_Rb_treeINSt7__cxx1112basic_stringIcSt11char_traitsIcESaIcEEESt4pairIKS5_S5_ESt10_Select1stIS8_ESt4lessIS5_ESaIS8_EE13_Rb_tree_implISC_Lb1EEC1Ev>
  4045ee:	90                   	nop
  4045ef:	c9                   	leaveq 
  4045f0:	c3                   	retq   
  4045f1:	90                   	nop

00000000004045f2 <_ZNSaISt13_Rb_tree_nodeISt4pairIKNSt7__cxx1112basic_stringIcSt11char_traitsIcESaIcEEES6_EEED1Ev>:
  4045f2:	55                   	push   %rbp
  4045f3:	48 89 e5             	mov    %rsp,%rbp
  4045f6:	48 83 ec 10          	sub    $0x10,%rsp
  4045fa:	48 89 7d f8          	mov    %rdi,-0x8(%rbp)
  4045fe:	48 8b 45 f8          	mov    -0x8(%rbp),%rax
  404602:	48 89 c7             	mov    %rax,%rdi
  404605:	e8 86 07 00 00       	callq  404d90 <_ZN9__gnu_cxx13new_allocatorISt13_Rb_tree_nodeISt4pairIKNSt7__cxx1112basic_stringIcSt11char_traitsIcESaIcEEES8_EEED1Ev>
  40460a:	90                   	nop
  40460b:	c9                   	leaveq 
  40460c:	c3                   	retq   
  40460d:	90                   	nop

000000000040460e <_ZNSt8_Rb_treeINSt7__cxx1112basic_stringIcSt11char_traitsIcESaIcEEESt4pairIKS5_S5_ESt10_Select1stIS8_ESt4lessIS5_ESaIS8_EE8_M_eraseEPSt13_Rb_tree_nodeIS8_E>:
  40460e:	55                   	push   %rbp
  40460f:	48 89 e5             	mov    %rsp,%rbp
  404612:	48 83 ec 20          	sub    $0x20,%rsp
  404616:	48 89 7d e8          	mov    %rdi,-0x18(%rbp)
  40461a:	48 89 75 e0          	mov    %rsi,-0x20(%rbp)
  40461e:	48 83 7d e0 00       	cmpq   $0x0,-0x20(%rbp)
  404623:	74 4b                	je     404670 <_ZNSt8_Rb_treeINSt7__cxx1112basic_stringIcSt11char_traitsIcESaIcEEESt4pairIKS5_S5_ESt10_Select1stIS8_ESt4lessIS5_ESaIS8_EE8_M_eraseEPSt13_Rb_tree_nodeIS8_E+0x62>
  404625:	48 8b 45 e0          	mov    -0x20(%rbp),%rax
  404629:	48 89 c7             	mov    %rax,%rdi
  40462c:	e8 6a 07 00 00       	callq  404d9b <_ZNSt8_Rb_treeINSt7__cxx1112basic_stringIcSt11char_traitsIcESaIcEEESt4pairIKS5_S5_ESt10_Select1stIS8_ESt4lessIS5_ESaIS8_EE8_S_rightEPSt18_Rb_tree_node_base>
  404631:	48 89 c2             	mov    %rax,%rdx
  404634:	48 8b 45 e8          	mov    -0x18(%rbp),%rax
  404638:	48 89 d6             	mov    %rdx,%rsi
  40463b:	48 89 c7             	mov    %rax,%rdi
  40463e:	e8 cb ff ff ff       	callq  40460e <_ZNSt8_Rb_treeINSt7__cxx1112basic_stringIcSt11char_traitsIcESaIcEEESt4pairIKS5_S5_ESt10_Select1stIS8_ESt4lessIS5_ESaIS8_EE8_M_eraseEPSt13_Rb_tree_nodeIS8_E>
  404643:	48 8b 45 e0          	mov    -0x20(%rbp),%rax
  404647:	48 89 c7             	mov    %rax,%rdi
  40464a:	e8 5e 07 00 00       	callq  404dad <_ZNSt8_Rb_treeINSt7__cxx1112basic_stringIcSt11char_traitsIcESaIcEEESt4pairIKS5_S5_ESt10_Select1stIS8_ESt4lessIS5_ESaIS8_EE7_S_leftEPSt18_Rb_tree_node_base>
  40464f:	48 89 45 f8          	mov    %rax,-0x8(%rbp)
  404653:	48 8b 55 e0          	mov    -0x20(%rbp),%rdx
  404657:	48 8b 45 e8          	mov    -0x18(%rbp),%rax
  40465b:	48 89 d6             	mov    %rdx,%rsi
  40465e:	48 89 c7             	mov    %rax,%rdi
  404661:	e8 5a 07 00 00       	callq  404dc0 <_ZNSt8_Rb_treeINSt7__cxx1112basic_stringIcSt11char_traitsIcESaIcEEESt4pairIKS5_S5_ESt10_Select1stIS8_ESt4lessIS5_ESaIS8_EE12_M_drop_nodeEPSt13_Rb_tree_nodeIS8_E>
  404666:	48 8b 45 f8          	mov    -0x8(%rbp),%rax
  40466a:	48 89 45 e0          	mov    %rax,-0x20(%rbp)
  40466e:	eb ae                	jmp    40461e <_ZNSt8_Rb_treeINSt7__cxx1112basic_stringIcSt11char_traitsIcESaIcEEESt4pairIKS5_S5_ESt10_Select1stIS8_ESt4lessIS5_ESaIS8_EE8_M_eraseEPSt13_Rb_tree_nodeIS8_E+0x10>
  404670:	90                   	nop
  404671:	c9                   	leaveq 
  404672:	c3                   	retq   
  404673:	90                   	nop

0000000000404674 <_ZNSt8_Rb_treeINSt7__cxx1112basic_stringIcSt11char_traitsIcESaIcEEESt4pairIKS5_S5_ESt10_Select1stIS8_ESt4lessIS5_ESaIS8_EE8_M_beginEv>:
  404674:	55                   	push   %rbp
  404675:	48 89 e5             	mov    %rsp,%rbp
  404678:	48 89 7d f8          	mov    %rdi,-0x8(%rbp)
  40467c:	48 8b 45 f8          	mov    -0x8(%rbp),%rax
  404680:	48 8b 40 10          	mov    0x10(%rax),%rax
  404684:	5d                   	pop    %rbp
  404685:	c3                   	retq   

0000000000404686 <_ZNSt12_Vector_baseIhSaIhEE12_Vector_implD1Ev>:
  404686:	55                   	push   %rbp
  404687:	48 89 e5             	mov    %rsp,%rbp
  40468a:	48 83 ec 10          	sub    $0x10,%rsp
  40468e:	48 89 7d f8          	mov    %rdi,-0x8(%rbp)
  404692:	48 8b 45 f8          	mov    -0x8(%rbp),%rax
  404696:	48 89 c7             	mov    %rax,%rdi
  404699:	e8 22 fe ff ff       	callq  4044c0 <_ZNSaIhED1Ev>
  40469e:	90                   	nop
  40469f:	c9                   	leaveq 
  4046a0:	c3                   	retq   
  4046a1:	90                   	nop

00000000004046a2 <_ZNSt12_Vector_baseIhSaIhEEC1Ev>:
  4046a2:	55                   	push   %rbp
  4046a3:	48 89 e5             	mov    %rsp,%rbp
  4046a6:	48 83 ec 10          	sub    $0x10,%rsp
  4046aa:	48 89 7d f8          	mov    %rdi,-0x8(%rbp)
  4046ae:	48 8b 45 f8          	mov    -0x8(%rbp),%rax
  4046b2:	48 89 c7             	mov    %rax,%rdi
  4046b5:	e8 40 07 00 00       	callq  404dfa <_ZNSt12_Vector_baseIhSaIhEE12_Vector_implC1Ev>
  4046ba:	90                   	nop
  4046bb:	c9                   	leaveq 
  4046bc:	c3                   	retq   
  4046bd:	90                   	nop

00000000004046be <_ZNSt12_Vector_baseIhSaIhEED1Ev>:
  4046be:	55                   	push   %rbp
  4046bf:	48 89 e5             	mov    %rsp,%rbp
  4046c2:	48 83 ec 10          	sub    $0x10,%rsp
  4046c6:	48 89 7d f8          	mov    %rdi,-0x8(%rbp)
  4046ca:	48 8b 45 f8          	mov    -0x8(%rbp),%rax
  4046ce:	48 8b 40 10          	mov    0x10(%rax),%rax
  4046d2:	48 89 c2             	mov    %rax,%rdx
  4046d5:	48 8b 45 f8          	mov    -0x8(%rbp),%rax
  4046d9:	48 8b 00             	mov    (%rax),%rax
  4046dc:	48 29 c2             	sub    %rax,%rdx
  4046df:	48 89 d0             	mov    %rdx,%rax
  4046e2:	48 89 c2             	mov    %rax,%rdx
  4046e5:	48 8b 45 f8          	mov    -0x8(%rbp),%rax
  4046e9:	48 8b 08             	mov    (%rax),%rcx
  4046ec:	48 8b 45 f8          	mov    -0x8(%rbp),%rax
  4046f0:	48 89 ce             	mov    %rcx,%rsi
  4046f3:	48 89 c7             	mov    %rax,%rdi
  4046f6:	e8 3d 07 00 00       	callq  404e38 <_ZNSt12_Vector_baseIhSaIhEE13_M_deallocateEPhm>
  4046fb:	48 8b 45 f8          	mov    -0x8(%rbp),%rax
  4046ff:	48 89 c7             	mov    %rax,%rdi
  404702:	e8 7f ff ff ff       	callq  404686 <_ZNSt12_Vector_baseIhSaIhEE12_Vector_implD1Ev>
  404707:	90                   	nop
  404708:	c9                   	leaveq 
  404709:	c3                   	retq   

000000000040470a <_ZNSt12_Vector_baseIhSaIhEE19_M_get_Tp_allocatorEv>:
  40470a:	55                   	push   %rbp
  40470b:	48 89 e5             	mov    %rsp,%rbp
  40470e:	48 89 7d f8          	mov    %rdi,-0x8(%rbp)
  404712:	48 8b 45 f8          	mov    -0x8(%rbp),%rax
  404716:	5d                   	pop    %rbp
  404717:	c3                   	retq   

0000000000404718 <_ZSt8_DestroyIPhhEvT_S1_RSaIT0_E>:
  404718:	55                   	push   %rbp
  404719:	48 89 e5             	mov    %rsp,%rbp
  40471c:	48 83 ec 20          	sub    $0x20,%rsp
  404720:	48 89 7d f8          	mov    %rdi,-0x8(%rbp)
  404724:	48 89 75 f0          	mov    %rsi,-0x10(%rbp)
  404728:	48 89 55 e8          	mov    %rdx,-0x18(%rbp)
  40472c:	48 8b 55 f0          	mov    -0x10(%rbp),%rdx
  404730:	48 8b 45 f8          	mov    -0x8(%rbp),%rax
  404734:	48 89 d6             	mov    %rdx,%rsi
  404737:	48 89 c7             	mov    %rax,%rdi
  40473a:	e8 2e 07 00 00       	callq  404e6d <_ZSt8_DestroyIPhEvT_S1_>
  40473f:	90                   	nop
  404740:	c9                   	leaveq 
  404741:	c3                   	retq   

0000000000404742 <_ZNSt3mapINSt7__cxx1112basic_stringIcSt11char_traitsIcESaIcEEES5_St4lessIS5_ESaISt4pairIKS5_S5_EEE11lower_boundERS9_>:
  404742:	55                   	push   %rbp
  404743:	48 89 e5             	mov    %rsp,%rbp
  404746:	48 83 ec 10          	sub    $0x10,%rsp
  40474a:	48 89 7d f8          	mov    %rdi,-0x8(%rbp)
  40474e:	48 89 75 f0          	mov    %rsi,-0x10(%rbp)
  404752:	48 8b 45 f8          	mov    -0x8(%rbp),%rax
  404756:	48 8b 55 f0          	mov    -0x10(%rbp),%rdx
  40475a:	48 89 d6             	mov    %rdx,%rsi
  40475d:	48 89 c7             	mov    %rax,%rdi
  404760:	e8 2f 07 00 00       	callq  404e94 <_ZNSt8_Rb_treeINSt7__cxx1112basic_stringIcSt11char_traitsIcESaIcEEESt4pairIKS5_S5_ESt10_Select1stIS8_ESt4lessIS5_ESaIS8_EE11lower_boundERS7_>
  404765:	c9                   	leaveq 
  404766:	c3                   	retq   
  404767:	90                   	nop

0000000000404768 <_ZNSt3mapINSt7__cxx1112basic_stringIcSt11char_traitsIcESaIcEEES5_St4lessIS5_ESaISt4pairIKS5_S5_EEE3endEv>:
  404768:	55                   	push   %rbp
  404769:	48 89 e5             	mov    %rsp,%rbp
  40476c:	48 83 ec 10          	sub    $0x10,%rsp
  404770:	48 89 7d f8          	mov    %rdi,-0x8(%rbp)
  404774:	48 8b 45 f8          	mov    -0x8(%rbp),%rax
  404778:	48 89 c7             	mov    %rax,%rdi
  40477b:	e8 60 07 00 00       	callq  404ee0 <_ZNSt8_Rb_treeINSt7__cxx1112basic_stringIcSt11char_traitsIcESaIcEEESt4pairIKS5_S5_ESt10_Select1stIS8_ESt4lessIS5_ESaIS8_EE3endEv>
  404780:	c9                   	leaveq 
  404781:	c3                   	retq   

0000000000404782 <_ZNKSt17_Rb_tree_iteratorISt4pairIKNSt7__cxx1112basic_stringIcSt11char_traitsIcESaIcEEES6_EEeqERKS9_>:
  404782:	55                   	push   %rbp
  404783:	48 89 e5             	mov    %rsp,%rbp
  404786:	48 89 7d f8          	mov    %rdi,-0x8(%rbp)
  40478a:	48 89 75 f0          	mov    %rsi,-0x10(%rbp)
  40478e:	48 8b 45 f8          	mov    -0x8(%rbp),%rax
  404792:	48 8b 10             	mov    (%rax),%rdx
  404795:	48 8b 45 f0          	mov    -0x10(%rbp),%rax
  404799:	48 8b 00             	mov    (%rax),%rax
  40479c:	48 39 c2             	cmp    %rax,%rdx
  40479f:	0f 94 c0             	sete   %al
  4047a2:	5d                   	pop    %rbp
  4047a3:	c3                   	retq   

00000000004047a4 <_ZNKSt3mapINSt7__cxx1112basic_stringIcSt11char_traitsIcESaIcEEES5_St4lessIS5_ESaISt4pairIKS5_S5_EEE8key_compEv>:
  4047a4:	55                   	push   %rbp
  4047a5:	48 89 e5             	mov    %rsp,%rbp
  4047a8:	53                   	push   %rbx
  4047a9:	48 83 ec 18          	sub    $0x18,%rsp
  4047ad:	48 89 7d e8          	mov    %rdi,-0x18(%rbp)
  4047b1:	48 8b 45 e8          	mov    -0x18(%rbp),%rax
  4047b5:	48 89 c7             	mov    %rax,%rdi
  4047b8:	e8 6f 07 00 00       	callq  404f2c <_ZNKSt8_Rb_treeINSt7__cxx1112basic_stringIcSt11char_traitsIcESaIcEEESt4pairIKS5_S5_ESt10_Select1stIS8_ESt4lessIS5_ESaIS8_EE8key_compEv>
  4047bd:	89 d8                	mov    %ebx,%eax
  4047bf:	48 83 c4 18          	add    $0x18,%rsp
  4047c3:	5b                   	pop    %rbx
  4047c4:	5d                   	pop    %rbp
  4047c5:	c3                   	retq   

00000000004047c6 <_ZNKSt17_Rb_tree_iteratorISt4pairIKNSt7__cxx1112basic_stringIcSt11char_traitsIcESaIcEEES6_EEdeEv>:
  4047c6:	55                   	push   %rbp
  4047c7:	48 89 e5             	mov    %rsp,%rbp
  4047ca:	48 83 ec 10          	sub    $0x10,%rsp
  4047ce:	48 89 7d f8          	mov    %rdi,-0x8(%rbp)
  4047d2:	48 8b 45 f8          	mov    -0x8(%rbp),%rax
  4047d6:	48 8b 00             	mov    (%rax),%rax
  4047d9:	48 89 c7             	mov    %rax,%rdi
  4047dc:	e8 55 07 00 00       	callq  404f36 <_ZNSt13_Rb_tree_nodeISt4pairIKNSt7__cxx1112basic_stringIcSt11char_traitsIcESaIcEEES6_EE9_M_valptrEv>
  4047e1:	c9                   	leaveq 
  4047e2:	c3                   	retq   

00000000004047e3 <_ZStltIcSt11char_traitsIcESaIcEEbRKNSt7__cxx1112basic_stringIT_T0_T1_EESA_>:
  4047e3:	55                   	push   %rbp
  4047e4:	48 89 e5             	mov    %rsp,%rbp
  4047e7:	48 83 ec 10          	sub    $0x10,%rsp
  4047eb:	48 89 7d f8          	mov    %rdi,-0x8(%rbp)
  4047ef:	48 89 75 f0          	mov    %rsi,-0x10(%rbp)
  4047f3:	48 8b 55 f0          	mov    -0x10(%rbp),%rdx
  4047f7:	48 8b 45 f8          	mov    -0x8(%rbp),%rax
  4047fb:	48 89 d6             	mov    %rdx,%rsi
  4047fe:	48 89 c7             	mov    %rax,%rdi
  404801:	e8 1a e2 ff ff       	callq  402a20 <_ZNKSt7__cxx1112basic_stringIcSt11char_traitsIcESaIcEE7compareERKS4_@plt>
  404806:	c1 e8 1f             	shr    $0x1f,%eax
  404809:	c9                   	leaveq 
  40480a:	c3                   	retq   

000000000040480b <_ZSt7forwardINSt7__cxx1112basic_stringIcSt11char_traitsIcESaIcEEEEOT_RNSt16remove_referenceIS6_E4typeE>:
  40480b:	55                   	push   %rbp
  40480c:	48 89 e5             	mov    %rsp,%rbp
  40480f:	48 89 7d f8          	mov    %rdi,-0x8(%rbp)
  404813:	48 8b 45 f8          	mov    -0x8(%rbp),%rax
  404817:	5d                   	pop    %rbp
  404818:	c3                   	retq   
  404819:	90                   	nop

000000000040481a <_ZNSt10_Head_baseILm0EONSt7__cxx1112basic_stringIcSt11char_traitsIcESaIcEEELb0EEC1IS5_EEOT_>:
  40481a:	55                   	push   %rbp
  40481b:	48 89 e5             	mov    %rsp,%rbp
  40481e:	48 83 ec 10          	sub    $0x10,%rsp
  404822:	48 89 7d f8          	mov    %rdi,-0x8(%rbp)
  404826:	48 89 75 f0          	mov    %rsi,-0x10(%rbp)
  40482a:	48 8b 45 f0          	mov    -0x10(%rbp),%rax
  40482e:	48 89 c7             	mov    %rax,%rdi
  404831:	e8 d5 ff ff ff       	callq  40480b <_ZSt7forwardINSt7__cxx1112basic_stringIcSt11char_traitsIcESaIcEEEEOT_RNSt16remove_referenceIS6_E4typeE>
  404836:	48 89 c2             	mov    %rax,%rdx
  404839:	48 8b 45 f8          	mov    -0x8(%rbp),%rax
  40483d:	48 89 10             	mov    %rdx,(%rax)
  404840:	90                   	nop
  404841:	c9                   	leaveq 
  404842:	c3                   	retq   
  404843:	90                   	nop

0000000000404844 <_ZNSt11_Tuple_implILm0EIONSt7__cxx1112basic_stringIcSt11char_traitsIcESaIcEEEEEC1IS5_EEOT_>:
  404844:	55                   	push   %rbp
  404845:	48 89 e5             	mov    %rsp,%rbp
  404848:	48 83 ec 10          	sub    $0x10,%rsp
  40484c:	48 89 7d f8          	mov    %rdi,-0x8(%rbp)
  404850:	48 89 75 f0          	mov    %rsi,-0x10(%rbp)
  404854:	48 8b 45 f0          	mov    -0x10(%rbp),%rax
  404858:	48 89 c7             	mov    %rax,%rdi
  40485b:	e8 ab ff ff ff       	callq  40480b <_ZSt7forwardINSt7__cxx1112basic_stringIcSt11char_traitsIcESaIcEEEEOT_RNSt16remove_referenceIS6_E4typeE>
  404860:	48 89 c2             	mov    %rax,%rdx
  404863:	48 8b 45 f8          	mov    -0x8(%rbp),%rax
  404867:	48 89 d6             	mov    %rdx,%rsi
  40486a:	48 89 c7             	mov    %rax,%rdi
  40486d:	e8 a8 ff ff ff       	callq  40481a <_ZNSt10_Head_baseILm0EONSt7__cxx1112basic_stringIcSt11char_traitsIcESaIcEEELb0EEC1IS5_EEOT_>
  404872:	90                   	nop
  404873:	c9                   	leaveq 
  404874:	c3                   	retq   
  404875:	90                   	nop

0000000000404876 <_ZNSt5tupleIIONSt7__cxx1112basic_stringIcSt11char_traitsIcESaIcEEEEEC1IIS5_EvEEDpOT_>:
  404876:	55                   	push   %rbp
  404877:	48 89 e5             	mov    %rsp,%rbp
  40487a:	48 83 ec 10          	sub    $0x10,%rsp
  40487e:	48 89 7d f8          	mov    %rdi,-0x8(%rbp)
  404882:	48 89 75 f0          	mov    %rsi,-0x10(%rbp)
  404886:	48 8b 45 f0          	mov    -0x10(%rbp),%rax
  40488a:	48 89 c7             	mov    %rax,%rdi
  40488d:	e8 79 ff ff ff       	callq  40480b <_ZSt7forwardINSt7__cxx1112basic_stringIcSt11char_traitsIcESaIcEEEEOT_RNSt16remove_referenceIS6_E4typeE>
  404892:	48 89 c2             	mov    %rax,%rdx
  404895:	48 8b 45 f8          	mov    -0x8(%rbp),%rax
  404899:	48 89 d6             	mov    %rdx,%rsi
  40489c:	48 89 c7             	mov    %rax,%rdi
  40489f:	e8 a0 ff ff ff       	callq  404844 <_ZNSt11_Tuple_implILm0EIONSt7__cxx1112basic_stringIcSt11char_traitsIcESaIcEEEEEC1IS5_EEOT_>
  4048a4:	90                   	nop
  4048a5:	c9                   	leaveq 
  4048a6:	c3                   	retq   

00000000004048a7 <_ZNSt10_Head_baseILm0EONSt7__cxx1112basic_stringIcSt11char_traitsIcESaIcEEELb0EE7_M_headERS7_>:
  4048a7:	55                   	push   %rbp
  4048a8:	48 89 e5             	mov    %rsp,%rbp
  4048ab:	48 89 7d f8          	mov    %rdi,-0x8(%rbp)
  4048af:	48 8b 45 f8          	mov    -0x8(%rbp),%rax
  4048b3:	48 8b 00             	mov    (%rax),%rax
  4048b6:	5d                   	pop    %rbp
  4048b7:	c3                   	retq   

00000000004048b8 <_ZNSt11_Tuple_implILm0EIONSt7__cxx1112basic_stringIcSt11char_traitsIcESaIcEEEEE7_M_headERS7_>:
  4048b8:	55                   	push   %rbp
  4048b9:	48 89 e5             	mov    %rsp,%rbp
  4048bc:	48 83 ec 10          	sub    $0x10,%rsp
  4048c0:	48 89 7d f8          	mov    %rdi,-0x8(%rbp)
  4048c4:	48 8b 45 f8          	mov    -0x8(%rbp),%rax
  4048c8:	48 89 c7             	mov    %rax,%rdi
  4048cb:	e8 d7 ff ff ff       	callq  4048a7 <_ZNSt10_Head_baseILm0EONSt7__cxx1112basic_stringIcSt11char_traitsIcESaIcEEELb0EE7_M_headERS7_>
  4048d0:	c9                   	leaveq 
  4048d1:	c3                   	retq   

00000000004048d2 <_ZSt7forwardIONSt7__cxx1112basic_stringIcSt11char_traitsIcESaIcEEEEOT_RNSt16remove_referenceIS7_E4typeE>:
  4048d2:	55                   	push   %rbp
  4048d3:	48 89 e5             	mov    %rsp,%rbp
  4048d6:	48 89 7d f8          	mov    %rdi,-0x8(%rbp)
  4048da:	48 8b 45 f8          	mov    -0x8(%rbp),%rax
  4048de:	5d                   	pop    %rbp
  4048df:	c3                   	retq   

00000000004048e0 <_ZNSt11_Tuple_implILm0EIONSt7__cxx1112basic_stringIcSt11char_traitsIcESaIcEEEEEC1EOS7_>:
  4048e0:	55                   	push   %rbp
  4048e1:	48 89 e5             	mov    %rsp,%rbp
  4048e4:	48 83 ec 10          	sub    $0x10,%rsp
  4048e8:	48 89 7d f8          	mov    %rdi,-0x8(%rbp)
  4048ec:	48 89 75 f0          	mov    %rsi,-0x10(%rbp)
  4048f0:	48 8b 45 f0          	mov    -0x10(%rbp),%rax
  4048f4:	48 89 c7             	mov    %rax,%rdi
  4048f7:	e8 bc ff ff ff       	callq  4048b8 <_ZNSt11_Tuple_implILm0EIONSt7__cxx1112basic_stringIcSt11char_traitsIcESaIcEEEEE7_M_headERS7_>
  4048fc:	48 89 c7             	mov    %rax,%rdi
  4048ff:	e8 ce ff ff ff       	callq  4048d2 <_ZSt7forwardIONSt7__cxx1112basic_stringIcSt11char_traitsIcESaIcEEEEOT_RNSt16remove_referenceIS7_E4typeE>
  404904:	48 89 c2             	mov    %rax,%rdx
  404907:	48 8b 45 f8          	mov    -0x8(%rbp),%rax
  40490b:	48 89 d6             	mov    %rdx,%rsi
  40490e:	48 89 c7             	mov    %rax,%rdi
  404911:	e8 04 ff ff ff       	callq  40481a <_ZNSt10_Head_baseILm0EONSt7__cxx1112basic_stringIcSt11char_traitsIcESaIcEEELb0EEC1IS5_EEOT_>
  404916:	90                   	nop
  404917:	c9                   	leaveq 
  404918:	c3                   	retq   
  404919:	90                   	nop

000000000040491a <_ZNSt5tupleIIONSt7__cxx1112basic_stringIcSt11char_traitsIcESaIcEEEEEC1EOS7_>:
  40491a:	55                   	push   %rbp
  40491b:	48 89 e5             	mov    %rsp,%rbp
  40491e:	48 83 ec 10          	sub    $0x10,%rsp
  404922:	48 89 7d f8          	mov    %rdi,-0x8(%rbp)
  404926:	48 89 75 f0          	mov    %rsi,-0x10(%rbp)
  40492a:	48 8b 55 f0          	mov    -0x10(%rbp),%rdx
  40492e:	48 8b 45 f8          	mov    -0x8(%rbp),%rax
  404932:	48 89 d6             	mov    %rdx,%rsi
  404935:	48 89 c7             	mov    %rax,%rdi
  404938:	e8 a3 ff ff ff       	callq  4048e0 <_ZNSt11_Tuple_implILm0EIONSt7__cxx1112basic_stringIcSt11char_traitsIcESaIcEEEEEC1EOS7_>
  40493d:	90                   	nop
  40493e:	c9                   	leaveq 
  40493f:	c3                   	retq   

0000000000404940 <_ZSt16forward_as_tupleIINSt7__cxx1112basic_stringIcSt11char_traitsIcESaIcEEEEESt5tupleIIDpOT_EES9_>:
  404940:	55                   	push   %rbp
  404941:	48 89 e5             	mov    %rsp,%rbp
  404944:	48 83 ec 10          	sub    $0x10,%rsp
  404948:	48 89 7d f8          	mov    %rdi,-0x8(%rbp)
  40494c:	48 89 75 f0          	mov    %rsi,-0x10(%rbp)
  404950:	48 8b 45 f0          	mov    -0x10(%rbp),%rax
  404954:	48 89 c7             	mov    %rax,%rdi
  404957:	e8 af fe ff ff       	callq  40480b <_ZSt7forwardINSt7__cxx1112basic_stringIcSt11char_traitsIcESaIcEEEEOT_RNSt16remove_referenceIS6_E4typeE>
  40495c:	48 89 c2             	mov    %rax,%rdx
  40495f:	48 8b 45 f8          	mov    -0x8(%rbp),%rax
  404963:	48 89 d6             	mov    %rdx,%rsi
  404966:	48 89 c7             	mov    %rax,%rdi
  404969:	e8 08 ff ff ff       	callq  404876 <_ZNSt5tupleIIONSt7__cxx1112basic_stringIcSt11char_traitsIcESaIcEEEEEC1IIS5_EvEEDpOT_>
  40496e:	48 8b 45 f8          	mov    -0x8(%rbp),%rax
  404972:	c9                   	leaveq 
  404973:	c3                   	retq   

0000000000404974 <_ZNSt23_Rb_tree_const_iteratorISt4pairIKNSt7__cxx1112basic_stringIcSt11char_traitsIcESaIcEEES6_EEC1ERKSt17_Rb_tree_iteratorIS8_E>:
  404974:	55                   	push   %rbp
  404975:	48 89 e5             	mov    %rsp,%rbp
  404978:	48 89 7d f8          	mov    %rdi,-0x8(%rbp)
  40497c:	48 89 75 f0          	mov    %rsi,-0x10(%rbp)
  404980:	48 8b 45 f0          	mov    -0x10(%rbp),%rax
  404984:	48 8b 10             	mov    (%rax),%rdx
  404987:	48 8b 45 f8          	mov    -0x8(%rbp),%rax
  40498b:	48 89 10             	mov    %rdx,(%rax)
  40498e:	90                   	nop
  40498f:	5d                   	pop    %rbp
  404990:	c3                   	retq   

0000000000404991 <_ZSt7forwardIRKSt21piecewise_construct_tEOT_RNSt16remove_referenceIS3_E4typeE>:
  404991:	55                   	push   %rbp
  404992:	48 89 e5             	mov    %rsp,%rbp
  404995:	48 89 7d f8          	mov    %rdi,-0x8(%rbp)
  404999:	48 8b 45 f8          	mov    -0x8(%rbp),%rax
  40499d:	5d                   	pop    %rbp
  40499e:	c3                   	retq   

000000000040499f <_ZSt7forwardISt5tupleIIONSt7__cxx1112basic_stringIcSt11char_traitsIcESaIcEEEEEEOT_RNSt16remove_referenceIS9_E4typeE>:
  40499f:	55                   	push   %rbp
  4049a0:	48 89 e5             	mov    %rsp,%rbp
  4049a3:	48 89 7d f8          	mov    %rdi,-0x8(%rbp)
  4049a7:	48 8b 45 f8          	mov    -0x8(%rbp),%rax
  4049ab:	5d                   	pop    %rbp
  4049ac:	c3                   	retq   

00000000004049ad <_ZSt7forwardISt5tupleIIEEEOT_RNSt16remove_referenceIS2_E4typeE>:
  4049ad:	55                   	push   %rbp
  4049ae:	48 89 e5             	mov    %rsp,%rbp
  4049b1:	48 89 7d f8          	mov    %rdi,-0x8(%rbp)
  4049b5:	48 8b 45 f8          	mov    -0x8(%rbp),%rax
  4049b9:	5d                   	pop    %rbp
  4049ba:	c3                   	retq   
  4049bb:	90                   	nop

00000000004049bc <_ZNSt8_Rb_treeINSt7__cxx1112basic_stringIcSt11char_traitsIcESaIcEEESt4pairIKS5_S5_ESt10_Select1stIS8_ESt4lessIS5_ESaIS8_EE22_M_emplace_hint_uniqueIIRKSt21piecewise_construct_tSt5tupleIIOS5_EESJ_IIEEEEESt17_Rb_tree_iteratorIS8_ESt23_Rb_tree_const_iteratorIS8_EDpOT_>:
  4049bc:	55                   	push   %rbp
  4049bd:	48 89 e5             	mov    %rsp,%rbp
  4049c0:	41 54                	push   %r12
  4049c2:	53                   	push   %rbx
  4049c3:	48 83 ec 60          	sub    $0x60,%rsp
  4049c7:	48 89 7d b8          	mov    %rdi,-0x48(%rbp)
  4049cb:	48 89 75 b0          	mov    %rsi,-0x50(%rbp)
  4049cf:	48 89 55 a8          	mov    %rdx,-0x58(%rbp)
  4049d3:	48 89 4d a0          	mov    %rcx,-0x60(%rbp)
  4049d7:	4c 89 45 98          	mov    %r8,-0x68(%rbp)
  4049db:	64 48 8b 04 25 28 00 	mov    %fs:0x28,%rax
  4049e2:	00 00 
  4049e4:	48 89 45 e8          	mov    %rax,-0x18(%rbp)
  4049e8:	31 c0                	xor    %eax,%eax
  4049ea:	48 8b 45 98          	mov    -0x68(%rbp),%rax
  4049ee:	48 89 c7             	mov    %rax,%rdi
  4049f1:	e8 b7 ff ff ff       	callq  4049ad <_ZSt7forwardISt5tupleIIEEEOT_RNSt16remove_referenceIS2_E4typeE>
  4049f6:	49 89 c4             	mov    %rax,%r12
  4049f9:	48 8b 45 a0          	mov    -0x60(%rbp),%rax
  4049fd:	48 89 c7             	mov    %rax,%rdi
  404a00:	e8 9a ff ff ff       	callq  40499f <_ZSt7forwardISt5tupleIIONSt7__cxx1112basic_stringIcSt11char_traitsIcESaIcEEEEEEOT_RNSt16remove_referenceIS9_E4typeE>
  404a05:	48 89 c3             	mov    %rax,%rbx
  404a08:	48 8b 45 a8          	mov    -0x58(%rbp),%rax
  404a0c:	48 89 c7             	mov    %rax,%rdi
  404a0f:	e8 7d ff ff ff       	callq  404991 <_ZSt7forwardIRKSt21piecewise_construct_tEOT_RNSt16remove_referenceIS3_E4typeE>
  404a14:	48 89 c6             	mov    %rax,%rsi
  404a17:	48 8b 45 b8          	mov    -0x48(%rbp),%rax
  404a1b:	4c 89 e1             	mov    %r12,%rcx
  404a1e:	48 89 da             	mov    %rbx,%rdx
  404a21:	48 89 c7             	mov    %rax,%rdi
  404a24:	e8 2b 05 00 00       	callq  404f54 <_ZNSt8_Rb_treeINSt7__cxx1112basic_stringIcSt11char_traitsIcESaIcEEESt4pairIKS5_S5_ESt10_Select1stIS8_ESt4lessIS5_ESaIS8_EE14_M_create_nodeIIRKSt21piecewise_construct_tSt5tupleIIOS5_EESJ_IIEEEEEPSt13_Rb_tree_nodeIS8_EDpOT_>
  404a29:	48 89 45 c8          	mov    %rax,-0x38(%rbp)
  404a2d:	48 8b 45 c8          	mov    -0x38(%rbp),%rax
  404a31:	48 89 c7             	mov    %rax,%rdi
  404a34:	e8 fd 09 00 00       	callq  405436 <_ZNSt8_Rb_treeINSt7__cxx1112basic_stringIcSt11char_traitsIcESaIcEEESt4pairIKS5_S5_ESt10_Select1stIS8_ESt4lessIS5_ESaIS8_EE6_S_keyEPKSt13_Rb_tree_nodeIS8_E>
  404a39:	48 89 c2             	mov    %rax,%rdx
  404a3c:	48 8b 4d b0          	mov    -0x50(%rbp),%rcx
  404a40:	48 8b 45 b8          	mov    -0x48(%rbp),%rax
  404a44:	48 89 ce             	mov    %rcx,%rsi
  404a47:	48 89 c7             	mov    %rax,%rdi
  404a4a:	e8 4b 06 00 00       	callq  40509a <_ZNSt8_Rb_treeINSt7__cxx1112basic_stringIcSt11char_traitsIcESaIcEEESt4pairIKS5_S5_ESt10_Select1stIS8_ESt4lessIS5_ESaIS8_EE29_M_get_insert_hint_unique_posESt23_Rb_tree_const_iteratorIS8_ERS7_>
  404a4f:	48 89 45 d0          	mov    %rax,-0x30(%rbp)
  404a53:	48 89 55 d8          	mov    %rdx,-0x28(%rbp)
  404a57:	48 8b 45 d8          	mov    -0x28(%rbp),%rax
  404a5b:	48 85 c0             	test   %rax,%rax
  404a5e:	74 1a                	je     404a7a <_ZNSt8_Rb_treeINSt7__cxx1112basic_stringIcSt11char_traitsIcESaIcEEESt4pairIKS5_S5_ESt10_Select1stIS8_ESt4lessIS5_ESaIS8_EE22_M_emplace_hint_uniqueIIRKSt21piecewise_construct_tSt5tupleIIOS5_EESJ_IIEEEEESt17_Rb_tree_iteratorIS8_ESt23_Rb_tree_const_iteratorIS8_EDpOT_+0xbe>
  404a60:	48 8b 55 d8          	mov    -0x28(%rbp),%rdx
  404a64:	48 8b 75 d0          	mov    -0x30(%rbp),%rsi
  404a68:	48 8b 4d c8          	mov    -0x38(%rbp),%rcx
  404a6c:	48 8b 45 b8          	mov    -0x48(%rbp),%rax
  404a70:	48 89 c7             	mov    %rax,%rdi
  404a73:	e8 0e 0a 00 00       	callq  405486 <_ZNSt8_Rb_treeINSt7__cxx1112basic_stringIcSt11char_traitsIcESaIcEEESt4pairIKS5_S5_ESt10_Select1stIS8_ESt4lessIS5_ESaIS8_EE14_M_insert_nodeEPSt18_Rb_tree_node_baseSG_PSt13_Rb_tree_nodeIS8_E>
  404a78:	eb 2a                	jmp    404aa4 <_ZNSt8_Rb_treeINSt7__cxx1112basic_stringIcSt11char_traitsIcESaIcEEESt4pairIKS5_S5_ESt10_Select1stIS8_ESt4lessIS5_ESaIS8_EE22_M_emplace_hint_uniqueIIRKSt21piecewise_construct_tSt5tupleIIOS5_EESJ_IIEEEEESt17_Rb_tree_iteratorIS8_ESt23_Rb_tree_const_iteratorIS8_EDpOT_+0xe8>
  404a7a:	48 8b 55 c8          	mov    -0x38(%rbp),%rdx
  404a7e:	48 8b 45 b8          	mov    -0x48(%rbp),%rax
  404a82:	48 89 d6             	mov    %rdx,%rsi
  404a85:	48 89 c7             	mov    %rax,%rdi
  404a88:	e8 33 03 00 00       	callq  404dc0 <_ZNSt8_Rb_treeINSt7__cxx1112basic_stringIcSt11char_traitsIcESaIcEEESt4pairIKS5_S5_ESt10_Select1stIS8_ESt4lessIS5_ESaIS8_EE12_M_drop_nodeEPSt13_Rb_tree_nodeIS8_E>
  404a8d:	48 8b 55 d0          	mov    -0x30(%rbp),%rdx
  404a91:	48 8d 45 c0          	lea    -0x40(%rbp),%rax
  404a95:	48 89 d6             	mov    %rdx,%rsi
  404a98:	48 89 c7             	mov    %rax,%rdi
  404a9b:	e8 cc 0a 00 00       	callq  40556c <_ZNSt17_Rb_tree_iteratorISt4pairIKNSt7__cxx1112basic_stringIcSt11char_traitsIcESaIcEEES6_EEC1EPSt18_Rb_tree_node_base>
  404aa0:	48 8b 45 c0          	mov    -0x40(%rbp),%rax
  404aa4:	48 8b 5d e8          	mov    -0x18(%rbp),%rbx
  404aa8:	64 48 33 1c 25 28 00 	xor    %fs:0x28,%rbx
  404aaf:	00 00 
  404ab1:	74 3a                	je     404aed <_ZNSt8_Rb_treeINSt7__cxx1112basic_stringIcSt11char_traitsIcESaIcEEESt4pairIKS5_S5_ESt10_Select1stIS8_ESt4lessIS5_ESaIS8_EE22_M_emplace_hint_uniqueIIRKSt21piecewise_construct_tSt5tupleIIOS5_EESJ_IIEEEEESt17_Rb_tree_iteratorIS8_ESt23_Rb_tree_const_iteratorIS8_EDpOT_+0x131>
  404ab3:	eb 33                	jmp    404ae8 <_ZNSt8_Rb_treeINSt7__cxx1112basic_stringIcSt11char_traitsIcESaIcEEESt4pairIKS5_S5_ESt10_Select1stIS8_ESt4lessIS5_ESaIS8_EE22_M_emplace_hint_uniqueIIRKSt21piecewise_construct_tSt5tupleIIOS5_EESJ_IIEEEEESt17_Rb_tree_iteratorIS8_ESt23_Rb_tree_const_iteratorIS8_EDpOT_+0x12c>
  404ab5:	48 89 c7             	mov    %rax,%rdi
  404ab8:	e8 b3 e0 ff ff       	callq  402b70 <__cxa_begin_catch@plt>
  404abd:	48 8b 55 c8          	mov    -0x38(%rbp),%rdx
  404ac1:	48 8b 45 b8          	mov    -0x48(%rbp),%rax
  404ac5:	48 89 d6             	mov    %rdx,%rsi
  404ac8:	48 89 c7             	mov    %rax,%rdi
  404acb:	e8 f0 02 00 00       	callq  404dc0 <_ZNSt8_Rb_treeINSt7__cxx1112basic_stringIcSt11char_traitsIcESaIcEEESt4pairIKS5_S5_ESt10_Select1stIS8_ESt4lessIS5_ESaIS8_EE12_M_drop_nodeEPSt13_Rb_tree_nodeIS8_E>
  404ad0:	e8 db e3 ff ff       	callq  402eb0 <__cxa_rethrow@plt>
  404ad5:	48 89 c3             	mov    %rax,%rbx
  404ad8:	e8 53 e4 ff ff       	callq  402f30 <__cxa_end_catch@plt>
  404add:	48 89 d8             	mov    %rbx,%rax
  404ae0:	48 89 c7             	mov    %rax,%rdi
  404ae3:	e8 d8 e4 ff ff       	callq  402fc0 <_Unwind_Resume@plt>
  404ae8:	e8 23 e3 ff ff       	callq  402e10 <__stack_chk_fail@plt>
  404aed:	48 83 c4 60          	add    $0x60,%rsp
  404af1:	5b                   	pop    %rbx
  404af2:	41 5c                	pop    %r12
  404af4:	5d                   	pop    %rbp
  404af5:	c3                   	retq   

0000000000404af6 <_ZN9__gnu_cxx13new_allocatorISt4pairIKNSt7__cxx1112basic_stringIcSt11char_traitsIcESaIcEEES7_EEC1Ev>:
  404af6:	55                   	push   %rbp
  404af7:	48 89 e5             	mov    %rsp,%rbp
  404afa:	48 89 7d f8          	mov    %rdi,-0x8(%rbp)
  404afe:	90                   	nop
  404aff:	5d                   	pop    %rbp
  404b00:	c3                   	retq   
  404b01:	90                   	nop

0000000000404b02 <_ZN9__gnu_cxx13new_allocatorISt4pairIKNSt7__cxx1112basic_stringIcSt11char_traitsIcESaIcEEES7_EED1Ev>:
  404b02:	55                   	push   %rbp
  404b03:	48 89 e5             	mov    %rsp,%rbp
  404b06:	48 89 7d f8          	mov    %rdi,-0x8(%rbp)
  404b0a:	90                   	nop
  404b0b:	5d                   	pop    %rbp
  404b0c:	c3                   	retq   
  404b0d:	90                   	nop

0000000000404b0e <_ZNSaISt4pairIKNSt7__cxx1112basic_stringIcSt11char_traitsIcESaIcEEES5_EEC1ERKS8_>:
  404b0e:	55                   	push   %rbp
  404b0f:	48 89 e5             	mov    %rsp,%rbp
  404b12:	48 83 ec 10          	sub    $0x10,%rsp
  404b16:	48 89 7d f8          	mov    %rdi,-0x8(%rbp)
  404b1a:	48 89 75 f0          	mov    %rsi,-0x10(%rbp)
  404b1e:	48 8b 55 f0          	mov    -0x10(%rbp),%rdx
  404b22:	48 8b 45 f8          	mov    -0x8(%rbp),%rax
  404b26:	48 89 d6             	mov    %rdx,%rsi
  404b29:	48 89 c7             	mov    %rax,%rdi
  404b2c:	e8 55 0a 00 00       	callq  405586 <_ZN9__gnu_cxx13new_allocatorISt4pairIKNSt7__cxx1112basic_stringIcSt11char_traitsIcESaIcEEES7_EEC1ERKSA_>
  404b31:	90                   	nop
  404b32:	c9                   	leaveq 
  404b33:	c3                   	retq   

0000000000404b34 <_ZNSt8_Rb_treeINSt7__cxx1112basic_stringIcSt11char_traitsIcESaIcEEESt4pairIKS5_S5_ESt10_Select1stIS8_ESt4lessIS5_ESaIS8_EEC1ERKSC_RKSD_>:
  404b34:	55                   	push   %rbp
  404b35:	48 89 e5             	mov    %rsp,%rbp
  404b38:	53                   	push   %rbx
  404b39:	48 83 ec 38          	sub    $0x38,%rsp
  404b3d:	48 89 7d d8          	mov    %rdi,-0x28(%rbp)
  404b41:	48 89 75 d0          	mov    %rsi,-0x30(%rbp)
  404b45:	48 89 55 c8          	mov    %rdx,-0x38(%rbp)
  404b49:	64 48 8b 04 25 28 00 	mov    %fs:0x28,%rax
  404b50:	00 00 
  404b52:	48 89 45 e8          	mov    %rax,-0x18(%rbp)
  404b56:	31 c0                	xor    %eax,%eax
  404b58:	48 8b 55 c8          	mov    -0x38(%rbp),%rdx
  404b5c:	48 8d 45 e7          	lea    -0x19(%rbp),%rax
  404b60:	48 89 d6             	mov    %rdx,%rsi
  404b63:	48 89 c7             	mov    %rax,%rdi
  404b66:	e8 2b 0a 00 00       	callq  405596 <_ZNSaISt13_Rb_tree_nodeISt4pairIKNSt7__cxx1112basic_stringIcSt11char_traitsIcESaIcEEES6_EEEC1IS8_EERKSaIT_E>
  404b6b:	48 8b 45 d8          	mov    -0x28(%rbp),%rax
  404b6f:	48 8d 55 e7          	lea    -0x19(%rbp),%rdx
  404b73:	48 8b 4d d0          	mov    -0x30(%rbp),%rcx
  404b77:	48 89 ce             	mov    %rcx,%rsi
  404b7a:	48 89 c7             	mov    %rax,%rdi
  404b7d:	e8 42 0a 00 00       	callq  4055c4 <_ZNSt8_Rb_treeINSt7__cxx1112basic_stringIcSt11char_traitsIcESaIcEEESt4pairIKS5_S5_ESt10_Select1stIS8_ESt4lessIS5_ESaIS8_EE13_Rb_tree_implISC_Lb1EEC1ERKSC_OSaISt13_Rb_tree_nodeIS8_EE>
  404b82:	48 8d 45 e7          	lea    -0x19(%rbp),%rax
  404b86:	48 89 c7             	mov    %rax,%rdi
  404b89:	e8 64 fa ff ff       	callq  4045f2 <_ZNSaISt13_Rb_tree_nodeISt4pairIKNSt7__cxx1112basic_stringIcSt11char_traitsIcESaIcEEES6_EEED1Ev>
  404b8e:	90                   	nop
  404b8f:	48 8b 45 e8          	mov    -0x18(%rbp),%rax
  404b93:	64 48 33 04 25 28 00 	xor    %fs:0x28,%rax
  404b9a:	00 00 
  404b9c:	74 21                	je     404bbf <_ZNSt8_Rb_treeINSt7__cxx1112basic_stringIcSt11char_traitsIcESaIcEEESt4pairIKS5_S5_ESt10_Select1stIS8_ESt4lessIS5_ESaIS8_EEC1ERKSC_RKSD_+0x8b>
  404b9e:	eb 1a                	jmp    404bba <_ZNSt8_Rb_treeINSt7__cxx1112basic_stringIcSt11char_traitsIcESaIcEEESt4pairIKS5_S5_ESt10_Select1stIS8_ESt4lessIS5_ESaIS8_EEC1ERKSC_RKSD_+0x86>
  404ba0:	48 89 c3             	mov    %rax,%rbx
  404ba3:	48 8d 45 e7          	lea    -0x19(%rbp),%rax
  404ba7:	48 89 c7             	mov    %rax,%rdi
  404baa:	e8 43 fa ff ff       	callq  4045f2 <_ZNSaISt13_Rb_tree_nodeISt4pairIKNSt7__cxx1112basic_stringIcSt11char_traitsIcESaIcEEES6_EEED1Ev>
  404baf:	48 89 d8             	mov    %rbx,%rax
  404bb2:	48 89 c7             	mov    %rax,%rdi
  404bb5:	e8 06 e4 ff ff       	callq  402fc0 <_Unwind_Resume@plt>
  404bba:	e8 51 e2 ff ff       	callq  402e10 <__stack_chk_fail@plt>
  404bbf:	48 83 c4 38          	add    $0x38,%rsp
  404bc3:	5b                   	pop    %rbx
  404bc4:	5d                   	pop    %rbp
  404bc5:	c3                   	retq   

0000000000404bc6 <_ZNSt8_Rb_treeINSt7__cxx1112basic_stringIcSt11char_traitsIcESaIcEEESt4pairIKS5_S5_ESt10_Select1stIS8_ESt4lessIS5_ESaIS8_EE16_M_insert_uniqueIPKS8_EEvT_SI_>:
  404bc6:	55                   	push   %rbp
  404bc7:	48 89 e5             	mov    %rsp,%rbp
  404bca:	48 83 ec 50          	sub    $0x50,%rsp
  404bce:	48 89 7d c8          	mov    %rdi,-0x38(%rbp)
  404bd2:	48 89 75 c0          	mov    %rsi,-0x40(%rbp)
  404bd6:	48 89 55 b8          	mov    %rdx,-0x48(%rbp)
  404bda:	64 48 8b 04 25 28 00 	mov    %fs:0x28,%rax
  404be1:	00 00 
  404be3:	48 89 45 f8          	mov    %rax,-0x8(%rbp)
  404be7:	31 c0                	xor    %eax,%eax
  404be9:	48 8b 55 c8          	mov    -0x38(%rbp),%rdx
  404bed:	48 8d 45 d0          	lea    -0x30(%rbp),%rax
  404bf1:	48 89 d6             	mov    %rdx,%rsi
  404bf4:	48 89 c7             	mov    %rax,%rdi
  404bf7:	e8 44 0a 00 00       	callq  405640 <_ZNSt8_Rb_treeINSt7__cxx1112basic_stringIcSt11char_traitsIcESaIcEEESt4pairIKS5_S5_ESt10_Select1stIS8_ESt4lessIS5_ESaIS8_EE11_Alloc_nodeC1ERSE_>
  404bfc:	48 8b 45 c0          	mov    -0x40(%rbp),%rax
  404c00:	48 3b 45 b8          	cmp    -0x48(%rbp),%rax
  404c04:	74 42                	je     404c48 <_ZNSt8_Rb_treeINSt7__cxx1112basic_stringIcSt11char_traitsIcESaIcEEESt4pairIKS5_S5_ESt10_Select1stIS8_ESt4lessIS5_ESaIS8_EE16_M_insert_uniqueIPKS8_EEvT_SI_+0x82>
  404c06:	48 8b 45 c8          	mov    -0x38(%rbp),%rax
  404c0a:	48 89 c7             	mov    %rax,%rdi
  404c0d:	e8 ce 02 00 00       	callq  404ee0 <_ZNSt8_Rb_treeINSt7__cxx1112basic_stringIcSt11char_traitsIcESaIcEEESt4pairIKS5_S5_ESt10_Select1stIS8_ESt4lessIS5_ESaIS8_EE3endEv>
  404c12:	48 89 45 e0          	mov    %rax,-0x20(%rbp)
  404c16:	48 8d 55 e0          	lea    -0x20(%rbp),%rdx
  404c1a:	48 8d 45 f0          	lea    -0x10(%rbp),%rax
  404c1e:	48 89 d6             	mov    %rdx,%rsi
  404c21:	48 89 c7             	mov    %rax,%rdi
  404c24:	e8 4b fd ff ff       	callq  404974 <_ZNSt23_Rb_tree_const_iteratorISt4pairIKNSt7__cxx1112basic_stringIcSt11char_traitsIcESaIcEEES6_EEC1ERKSt17_Rb_tree_iteratorIS8_E>
  404c29:	48 8d 4d d0          	lea    -0x30(%rbp),%rcx
  404c2d:	48 8b 55 c0          	mov    -0x40(%rbp),%rdx
  404c31:	48 8b 75 f0          	mov    -0x10(%rbp),%rsi
  404c35:	48 8b 45 c8          	mov    -0x38(%rbp),%rax
  404c39:	48 89 c7             	mov    %rax,%rdi
  404c3c:	e8 27 0a 00 00       	callq  405668 <_ZNSt8_Rb_treeINSt7__cxx1112basic_stringIcSt11char_traitsIcESaIcEEESt4pairIKS5_S5_ESt10_Select1stIS8_ESt4lessIS5_ESaIS8_EE17_M_insert_unique_IRKS8_NSE_11_Alloc_nodeEEESt17_Rb_tree_iteratorIS8_ESt23_Rb_tree_const_iteratorIS8_EOT_RT0_>
  404c41:	48 83 45 c0 40       	addq   $0x40,-0x40(%rbp)
  404c46:	eb b4                	jmp    404bfc <_ZNSt8_Rb_treeINSt7__cxx1112basic_stringIcSt11char_traitsIcESaIcEEESt4pairIKS5_S5_ESt10_Select1stIS8_ESt4lessIS5_ESaIS8_EE16_M_insert_uniqueIPKS8_EEvT_SI_+0x36>
  404c48:	90                   	nop
  404c49:	48 8b 45 f8          	mov    -0x8(%rbp),%rax
  404c4d:	64 48 33 04 25 28 00 	xor    %fs:0x28,%rax
  404c54:	00 00 
  404c56:	74 05                	je     404c5d <_ZNSt8_Rb_treeINSt7__cxx1112basic_stringIcSt11char_traitsIcESaIcEEESt4pairIKS5_S5_ESt10_Select1stIS8_ESt4lessIS5_ESaIS8_EE16_M_insert_uniqueIPKS8_EEvT_SI_+0x97>
  404c58:	e8 b3 e1 ff ff       	callq  402e10 <__stack_chk_fail@plt>
  404c5d:	c9                   	leaveq 
  404c5e:	c3                   	retq   
  404c5f:	90                   	nop

0000000000404c60 <_ZN9__gnu_cxx13new_allocatorIhEC1Ev>:
  404c60:	55                   	push   %rbp
  404c61:	48 89 e5             	mov    %rsp,%rbp
  404c64:	48 89 7d f8          	mov    %rdi,-0x8(%rbp)
  404c68:	90                   	nop
  404c69:	5d                   	pop    %rbp
  404c6a:	c3                   	retq   
  404c6b:	90                   	nop

0000000000404c6c <_ZN9__gnu_cxx13new_allocatorIhED1Ev>:
  404c6c:	55                   	push   %rbp
  404c6d:	48 89 e5             	mov    %rsp,%rbp
  404c70:	48 89 7d f8          	mov    %rdi,-0x8(%rbp)
  404c74:	90                   	nop
  404c75:	5d                   	pop    %rbp
  404c76:	c3                   	retq   
  404c77:	90                   	nop

0000000000404c78 <_ZNSt12_Vector_baseIhSaIhEEC1ERKS0_>:
  404c78:	55                   	push   %rbp
  404c79:	48 89 e5             	mov    %rsp,%rbp
  404c7c:	48 83 ec 10          	sub    $0x10,%rsp
  404c80:	48 89 7d f8          	mov    %rdi,-0x8(%rbp)
  404c84:	48 89 75 f0          	mov    %rsi,-0x10(%rbp)
  404c88:	48 8b 45 f8          	mov    -0x8(%rbp),%rax
  404c8c:	48 8b 55 f0          	mov    -0x10(%rbp),%rdx
  404c90:	48 89 d6             	mov    %rdx,%rsi
  404c93:	48 89 c7             	mov    %rax,%rdi
  404c96:	e8 8b 0a 00 00       	callq  405726 <_ZNSt12_Vector_baseIhSaIhEE12_Vector_implC1ERKS0_>
  404c9b:	90                   	nop
  404c9c:	c9                   	leaveq 
  404c9d:	c3                   	retq   

0000000000404c9e <_ZNSt6vectorIhSaIhEE22_M_initialize_dispatchISt19istreambuf_iteratorIcSt11char_traitsIcEEEEvT_S7_St12__false_type>:
  404c9e:	55                   	push   %rbp
  404c9f:	48 89 e5             	mov    %rsp,%rbp
  404ca2:	48 83 ec 40          	sub    $0x40,%rsp
  404ca6:	48 89 7d e8          	mov    %rdi,-0x18(%rbp)
  404caa:	48 89 f0             	mov    %rsi,%rax
  404cad:	48 89 d6             	mov    %rdx,%rsi
  404cb0:	48 89 f2             	mov    %rsi,%rdx
  404cb3:	48 89 45 d0          	mov    %rax,-0x30(%rbp)
  404cb7:	48 89 55 d8          	mov    %rdx,-0x28(%rbp)
  404cbb:	48 89 c8             	mov    %rcx,%rax
  404cbe:	4c 89 c1             	mov    %r8,%rcx
  404cc1:	48 89 ca             	mov    %rcx,%rdx
  404cc4:	48 89 45 c0          	mov    %rax,-0x40(%rbp)
  404cc8:	48 89 55 c8          	mov    %rdx,-0x38(%rbp)
  404ccc:	64 48 8b 04 25 28 00 	mov    %fs:0x28,%rax
  404cd3:	00 00 
  404cd5:	48 89 45 f8          	mov    %rax,-0x8(%rbp)
  404cd9:	31 c0                	xor    %eax,%eax
  404cdb:	48 8b 4d c0          	mov    -0x40(%rbp),%rcx
  404cdf:	48 8b 7d c8          	mov    -0x38(%rbp),%rdi
  404ce3:	48 8b 75 d0          	mov    -0x30(%rbp),%rsi
  404ce7:	48 8b 55 d8          	mov    -0x28(%rbp),%rdx
  404ceb:	48 8b 45 e8          	mov    -0x18(%rbp),%rax
  404cef:	48 83 ec 08          	sub    $0x8,%rsp
  404cf3:	41 51                	push   %r9
  404cf5:	49 89 f8             	mov    %rdi,%r8
  404cf8:	48 89 c7             	mov    %rax,%rdi
  404cfb:	e8 70 0a 00 00       	callq  405770 <_ZNSt6vectorIhSaIhEE19_M_range_initializeISt19istreambuf_iteratorIcSt11char_traitsIcEEEEvT_S7_St18input_iterator_tag>
  404d00:	48 83 c4 10          	add    $0x10,%rsp
  404d04:	90                   	nop
  404d05:	48 8b 45 f8          	mov    -0x8(%rbp),%rax
  404d09:	64 48 33 04 25 28 00 	xor    %fs:0x28,%rax
  404d10:	00 00 
  404d12:	74 05                	je     404d19 <_ZNSt6vectorIhSaIhEE22_M_initialize_dispatchISt19istreambuf_iteratorIcSt11char_traitsIcEEEEvT_S7_St12__false_type+0x7b>
  404d14:	e8 f7 e0 ff ff       	callq  402e10 <__stack_chk_fail@plt>
  404d19:	c9                   	leaveq 
  404d1a:	c3                   	retq   
  404d1b:	90                   	nop

0000000000404d1c <_ZNKSt6vectorIhSaIhEE11_M_data_ptrIhEEPT_S4_>:
  404d1c:	55                   	push   %rbp
  404d1d:	48 89 e5             	mov    %rsp,%rbp
  404d20:	48 89 7d f8          	mov    %rdi,-0x8(%rbp)
  404d24:	48 89 75 f0          	mov    %rsi,-0x10(%rbp)
  404d28:	48 8b 45 f0          	mov    -0x10(%rbp),%rax
  404d2c:	5d                   	pop    %rbp
  404d2d:	c3                   	retq   

0000000000404d2e <_ZNSt8_Rb_treeINSt7__cxx1112basic_stringIcSt11char_traitsIcESaIcEEESt4pairIKS5_S5_ESt10_Select1stIS8_ESt4lessIS5_ESaIS8_EE13_Rb_tree_implISC_Lb1EEC1Ev>:
  404d2e:	55                   	push   %rbp
  404d2f:	48 89 e5             	mov    %rsp,%rbp
  404d32:	48 83 ec 10          	sub    $0x10,%rsp
  404d36:	48 89 7d f8          	mov    %rdi,-0x8(%rbp)
  404d3a:	48 8b 45 f8          	mov    -0x8(%rbp),%rax
  404d3e:	48 89 c7             	mov    %rax,%rdi
  404d41:	e8 c6 0a 00 00       	callq  40580c <_ZNSaISt13_Rb_tree_nodeISt4pairIKNSt7__cxx1112basic_stringIcSt11char_traitsIcESaIcEEES6_EEEC1Ev>
  404d46:	48 8b 45 f8          	mov    -0x8(%rbp),%rax
  404d4a:	c7 40 08 00 00 00 00 	movl   $0x0,0x8(%rax)
  404d51:	48 8b 45 f8          	mov    -0x8(%rbp),%rax
  404d55:	48 c7 40 10 00 00 00 	movq   $0x0,0x10(%rax)
  404d5c:	00 
  404d5d:	48 8b 45 f8          	mov    -0x8(%rbp),%rax
  404d61:	48 c7 40 18 00 00 00 	movq   $0x0,0x18(%rax)
  404d68:	00 
  404d69:	48 8b 45 f8          	mov    -0x8(%rbp),%rax
  404d6d:	48 c7 40 20 00 00 00 	movq   $0x0,0x20(%rax)
  404d74:	00 
  404d75:	48 8b 45 f8          	mov    -0x8(%rbp),%rax
  404d79:	48 c7 40 28 00 00 00 	movq   $0x0,0x28(%rax)
  404d80:	00 
  404d81:	48 8b 45 f8          	mov    -0x8(%rbp),%rax
  404d85:	48 89 c7             	mov    %rax,%rdi
  404d88:	e8 9b 0a 00 00       	callq  405828 <_ZNSt8_Rb_treeINSt7__cxx1112basic_stringIcSt11char_traitsIcESaIcEEESt4pairIKS5_S5_ESt10_Select1stIS8_ESt4lessIS5_ESaIS8_EE13_Rb_tree_implISC_Lb1EE13_M_initializeEv>
  404d8d:	90                   	nop
  404d8e:	c9                   	leaveq 
  404d8f:	c3                   	retq   

0000000000404d90 <_ZN9__gnu_cxx13new_allocatorISt13_Rb_tree_nodeISt4pairIKNSt7__cxx1112basic_stringIcSt11char_traitsIcESaIcEEES8_EEED1Ev>:
  404d90:	55                   	push   %rbp
  404d91:	48 89 e5             	mov    %rsp,%rbp
  404d94:	48 89 7d f8          	mov    %rdi,-0x8(%rbp)
  404d98:	90                   	nop
  404d99:	5d                   	pop    %rbp
  404d9a:	c3                   	retq   

0000000000404d9b <_ZNSt8_Rb_treeINSt7__cxx1112basic_stringIcSt11char_traitsIcESaIcEEESt4pairIKS5_S5_ESt10_Select1stIS8_ESt4lessIS5_ESaIS8_EE8_S_rightEPSt18_Rb_tree_node_base>:
  404d9b:	55                   	push   %rbp
  404d9c:	48 89 e5             	mov    %rsp,%rbp
  404d9f:	48 89 7d f8          	mov    %rdi,-0x8(%rbp)
  404da3:	48 8b 45 f8          	mov    -0x8(%rbp),%rax
  404da7:	48 8b 40 18          	mov    0x18(%rax),%rax
  404dab:	5d                   	pop    %rbp
  404dac:	c3                   	retq   

0000000000404dad <_ZNSt8_Rb_treeINSt7__cxx1112basic_stringIcSt11char_traitsIcESaIcEEESt4pairIKS5_S5_ESt10_Select1stIS8_ESt4lessIS5_ESaIS8_EE7_S_leftEPSt18_Rb_tree_node_base>:
  404dad:	55                   	push   %rbp
  404dae:	48 89 e5             	mov    %rsp,%rbp
  404db1:	48 89 7d f8          	mov    %rdi,-0x8(%rbp)
  404db5:	48 8b 45 f8          	mov    -0x8(%rbp),%rax
  404db9:	48 8b 40 10          	mov    0x10(%rax),%rax
  404dbd:	5d                   	pop    %rbp
  404dbe:	c3                   	retq   
  404dbf:	90                   	nop

0000000000404dc0 <_ZNSt8_Rb_treeINSt7__cxx1112basic_stringIcSt11char_traitsIcESaIcEEESt4pairIKS5_S5_ESt10_Select1stIS8_ESt4lessIS5_ESaIS8_EE12_M_drop_nodeEPSt13_Rb_tree_nodeIS8_E>:
  404dc0:	55                   	push   %rbp
  404dc1:	48 89 e5             	mov    %rsp,%rbp
  404dc4:	48 83 ec 10          	sub    $0x10,%rsp
  404dc8:	48 89 7d f8          	mov    %rdi,-0x8(%rbp)
  404dcc:	48 89 75 f0          	mov    %rsi,-0x10(%rbp)
  404dd0:	48 8b 55 f0          	mov    -0x10(%rbp),%rdx
  404dd4:	48 8b 45 f8          	mov    -0x8(%rbp),%rax
  404dd8:	48 89 d6             	mov    %rdx,%rsi
  404ddb:	48 89 c7             	mov    %rax,%rdi
  404dde:	e8 87 0a 00 00       	callq  40586a <_ZNSt8_Rb_treeINSt7__cxx1112basic_stringIcSt11char_traitsIcESaIcEEESt4pairIKS5_S5_ESt10_Select1stIS8_ESt4lessIS5_ESaIS8_EE15_M_destroy_nodeEPSt13_Rb_tree_nodeIS8_E>
  404de3:	48 8b 55 f0          	mov    -0x10(%rbp),%rdx
  404de7:	48 8b 45 f8          	mov    -0x8(%rbp),%rax
  404deb:	48 89 d6             	mov    %rdx,%rsi
  404dee:	48 89 c7             	mov    %rax,%rdi
  404df1:	e8 b4 0a 00 00       	callq  4058aa <_ZNSt8_Rb_treeINSt7__cxx1112basic_stringIcSt11char_traitsIcESaIcEEESt4pairIKS5_S5_ESt10_Select1stIS8_ESt4lessIS5_ESaIS8_EE11_M_put_nodeEPSt13_Rb_tree_nodeIS8_E>
  404df6:	90                   	nop
  404df7:	c9                   	leaveq 
  404df8:	c3                   	retq   
  404df9:	90                   	nop

0000000000404dfa <_ZNSt12_Vector_baseIhSaIhEE12_Vector_implC1Ev>:
  404dfa:	55                   	push   %rbp
  404dfb:	48 89 e5             	mov    %rsp,%rbp
  404dfe:	48 83 ec 10          	sub    $0x10,%rsp
  404e02:	48 89 7d f8          	mov    %rdi,-0x8(%rbp)
  404e06:	48 8b 45 f8          	mov    -0x8(%rbp),%rax
  404e0a:	48 89 c7             	mov    %rax,%rdi
  404e0d:	e8 92 f6 ff ff       	callq  4044a4 <_ZNSaIhEC1Ev>
  404e12:	48 8b 45 f8          	mov    -0x8(%rbp),%rax
  404e16:	48 c7 00 00 00 00 00 	movq   $0x0,(%rax)
  404e1d:	48 8b 45 f8          	mov    -0x8(%rbp),%rax
  404e21:	48 c7 40 08 00 00 00 	movq   $0x0,0x8(%rax)
  404e28:	00 
  404e29:	48 8b 45 f8          	mov    -0x8(%rbp),%rax
  404e2d:	48 c7 40 10 00 00 00 	movq   $0x0,0x10(%rax)
  404e34:	00 
  404e35:	90                   	nop
  404e36:	c9                   	leaveq 
  404e37:	c3                   	retq   

0000000000404e38 <_ZNSt12_Vector_baseIhSaIhEE13_M_deallocateEPhm>:
  404e38:	55                   	push   %rbp
  404e39:	48 89 e5             	mov    %rsp,%rbp
  404e3c:	48 83 ec 20          	sub    $0x20,%rsp
  404e40:	48 89 7d f8          	mov    %rdi,-0x8(%rbp)
  404e44:	48 89 75 f0          	mov    %rsi,-0x10(%rbp)
  404e48:	48 89 55 e8          	mov    %rdx,-0x18(%rbp)
  404e4c:	48 83 7d f0 00       	cmpq   $0x0,-0x10(%rbp)
  404e51:	74 17                	je     404e6a <_ZNSt12_Vector_baseIhSaIhEE13_M_deallocateEPhm+0x32>
  404e53:	48 8b 45 f8          	mov    -0x8(%rbp),%rax
  404e57:	48 8b 55 e8          	mov    -0x18(%rbp),%rdx
  404e5b:	48 8b 4d f0          	mov    -0x10(%rbp),%rcx
  404e5f:	48 89 ce             	mov    %rcx,%rsi
  404e62:	48 89 c7             	mov    %rax,%rdi
  404e65:	e8 76 0a 00 00       	callq  4058e0 <_ZNSt16allocator_traitsISaIhEE10deallocateERS0_Phm>
  404e6a:	90                   	nop
  404e6b:	c9                   	leaveq 
  404e6c:	c3                   	retq   

0000000000404e6d <_ZSt8_DestroyIPhEvT_S1_>:
  404e6d:	55                   	push   %rbp
  404e6e:	48 89 e5             	mov    %rsp,%rbp
  404e71:	48 83 ec 10          	sub    $0x10,%rsp
  404e75:	48 89 7d f8          	mov    %rdi,-0x8(%rbp)
  404e79:	48 89 75 f0          	mov    %rsi,-0x10(%rbp)
  404e7d:	48 8b 55 f0          	mov    -0x10(%rbp),%rdx
  404e81:	48 8b 45 f8          	mov    -0x8(%rbp),%rax
  404e85:	48 89 d6             	mov    %rdx,%rsi
  404e88:	48 89 c7             	mov    %rax,%rdi
  404e8b:	e8 7e 0a 00 00       	callq  40590e <_ZNSt12_Destroy_auxILb1EE9__destroyIPhEEvT_S3_>
  404e90:	90                   	nop
  404e91:	c9                   	leaveq 
  404e92:	c3                   	retq   
  404e93:	90                   	nop

0000000000404e94 <_ZNSt8_Rb_treeINSt7__cxx1112basic_stringIcSt11char_traitsIcESaIcEEESt4pairIKS5_S5_ESt10_Select1stIS8_ESt4lessIS5_ESaIS8_EE11lower_boundERS7_>:
  404e94:	55                   	push   %rbp
  404e95:	48 89 e5             	mov    %rsp,%rbp
  404e98:	53                   	push   %rbx
  404e99:	48 83 ec 18          	sub    $0x18,%rsp
  404e9d:	48 89 7d e8          	mov    %rdi,-0x18(%rbp)
  404ea1:	48 89 75 e0          	mov    %rsi,-0x20(%rbp)
  404ea5:	48 8b 45 e8          	mov    -0x18(%rbp),%rax
  404ea9:	48 89 c7             	mov    %rax,%rdi
  404eac:	e8 6d 0a 00 00       	callq  40591e <_ZNSt8_Rb_treeINSt7__cxx1112basic_stringIcSt11char_traitsIcESaIcEEESt4pairIKS5_S5_ESt10_Select1stIS8_ESt4lessIS5_ESaIS8_EE6_M_endEv>
  404eb1:	48 89 c3             	mov    %rax,%rbx
  404eb4:	48 8b 45 e8          	mov    -0x18(%rbp),%rax
  404eb8:	48 89 c7             	mov    %rax,%rdi
  404ebb:	e8 b4 f7 ff ff       	callq  404674 <_ZNSt8_Rb_treeINSt7__cxx1112basic_stringIcSt11char_traitsIcESaIcEEESt4pairIKS5_S5_ESt10_Select1stIS8_ESt4lessIS5_ESaIS8_EE8_M_beginEv>
  404ec0:	48 89 c6             	mov    %rax,%rsi
  404ec3:	48 8b 55 e0          	mov    -0x20(%rbp),%rdx
  404ec7:	48 8b 45 e8          	mov    -0x18(%rbp),%rax
  404ecb:	48 89 d1             	mov    %rdx,%rcx
  404ece:	48 89 da             	mov    %rbx,%rdx
  404ed1:	48 89 c7             	mov    %rax,%rdi
  404ed4:	e8 57 0a 00 00       	callq  405930 <_ZNSt8_Rb_treeINSt7__cxx1112basic_stringIcSt11char_traitsIcESaIcEEESt4pairIKS5_S5_ESt10_Select1stIS8_ESt4lessIS5_ESaIS8_EE14_M_lower_boundEPSt13_Rb_tree_nodeIS8_ESH_RS7_>
  404ed9:	48 83 c4 18          	add    $0x18,%rsp
  404edd:	5b                   	pop    %rbx
  404ede:	5d                   	pop    %rbp
  404edf:	c3                   	retq   

0000000000404ee0 <_ZNSt8_Rb_treeINSt7__cxx1112basic_stringIcSt11char_traitsIcESaIcEEESt4pairIKS5_S5_ESt10_Select1stIS8_ESt4lessIS5_ESaIS8_EE3endEv>:
  404ee0:	55                   	push   %rbp
  404ee1:	48 89 e5             	mov    %rsp,%rbp
  404ee4:	48 83 ec 20          	sub    $0x20,%rsp
  404ee8:	48 89 7d e8          	mov    %rdi,-0x18(%rbp)
  404eec:	64 48 8b 04 25 28 00 	mov    %fs:0x28,%rax
  404ef3:	00 00 
  404ef5:	48 89 45 f8          	mov    %rax,-0x8(%rbp)
  404ef9:	31 c0                	xor    %eax,%eax
  404efb:	48 8b 45 e8          	mov    -0x18(%rbp),%rax
  404eff:	48 8d 50 08          	lea    0x8(%rax),%rdx
  404f03:	48 8d 45 f0          	lea    -0x10(%rbp),%rax
  404f07:	48 89 d6             	mov    %rdx,%rsi
  404f0a:	48 89 c7             	mov    %rax,%rdi
  404f0d:	e8 5a 06 00 00       	callq  40556c <_ZNSt17_Rb_tree_iteratorISt4pairIKNSt7__cxx1112basic_stringIcSt11char_traitsIcESaIcEEES6_EEC1EPSt18_Rb_tree_node_base>
  404f12:	48 8b 45 f0          	mov    -0x10(%rbp),%rax
  404f16:	48 8b 4d f8          	mov    -0x8(%rbp),%rcx
  404f1a:	64 48 33 0c 25 28 00 	xor    %fs:0x28,%rcx
  404f21:	00 00 
  404f23:	74 05                	je     404f2a <_ZNSt8_Rb_treeINSt7__cxx1112basic_stringIcSt11char_traitsIcESaIcEEESt4pairIKS5_S5_ESt10_Select1stIS8_ESt4lessIS5_ESaIS8_EE3endEv+0x4a>
  404f25:	e8 e6 de ff ff       	callq  402e10 <__stack_chk_fail@plt>
  404f2a:	c9                   	leaveq 
  404f2b:	c3                   	retq   

0000000000404f2c <_ZNKSt8_Rb_treeINSt7__cxx1112basic_stringIcSt11char_traitsIcESaIcEEESt4pairIKS5_S5_ESt10_Select1stIS8_ESt4lessIS5_ESaIS8_EE8key_compEv>:
  404f2c:	55                   	push   %rbp
  404f2d:	48 89 e5             	mov    %rsp,%rbp
  404f30:	48 89 7d f8          	mov    %rdi,-0x8(%rbp)
  404f34:	5d                   	pop    %rbp
  404f35:	c3                   	retq   

0000000000404f36 <_ZNSt13_Rb_tree_nodeISt4pairIKNSt7__cxx1112basic_stringIcSt11char_traitsIcESaIcEEES6_EE9_M_valptrEv>:
  404f36:	55                   	push   %rbp
  404f37:	48 89 e5             	mov    %rsp,%rbp
  404f3a:	48 83 ec 10          	sub    $0x10,%rsp
  404f3e:	48 89 7d f8          	mov    %rdi,-0x8(%rbp)
  404f42:	48 8b 45 f8          	mov    -0x8(%rbp),%rax
  404f46:	48 83 c0 20          	add    $0x20,%rax
  404f4a:	48 89 c7             	mov    %rax,%rdi
  404f4d:	e8 8e 0a 00 00       	callq  4059e0 <_ZN9__gnu_cxx16__aligned_membufISt4pairIKNSt7__cxx1112basic_stringIcSt11char_traitsIcESaIcEEES7_EE6_M_ptrEv>
  404f52:	c9                   	leaveq 
  404f53:	c3                   	retq   

0000000000404f54 <_ZNSt8_Rb_treeINSt7__cxx1112basic_stringIcSt11char_traitsIcESaIcEEESt4pairIKS5_S5_ESt10_Select1stIS8_ESt4lessIS5_ESaIS8_EE14_M_create_nodeIIRKSt21piecewise_construct_tSt5tupleIIOS5_EESJ_IIEEEEEPSt13_Rb_tree_nodeIS8_EDpOT_>:
  404f54:	55                   	push   %rbp
  404f55:	48 89 e5             	mov    %rsp,%rbp
  404f58:	41 54                	push   %r12
  404f5a:	53                   	push   %rbx
  404f5b:	48 83 ec 30          	sub    $0x30,%rsp
  404f5f:	48 89 7d d8          	mov    %rdi,-0x28(%rbp)
  404f63:	48 89 75 d0          	mov    %rsi,-0x30(%rbp)
  404f67:	48 89 55 c8          	mov    %rdx,-0x38(%rbp)
  404f6b:	48 89 4d c0          	mov    %rcx,-0x40(%rbp)
  404f6f:	48 8b 45 d8          	mov    -0x28(%rbp),%rax
  404f73:	48 89 c7             	mov    %rax,%rdi
  404f76:	e8 7f 0a 00 00       	callq  4059fa <_ZNSt8_Rb_treeINSt7__cxx1112basic_stringIcSt11char_traitsIcESaIcEEESt4pairIKS5_S5_ESt10_Select1stIS8_ESt4lessIS5_ESaIS8_EE11_M_get_nodeEv>
  404f7b:	48 89 45 e8          	mov    %rax,-0x18(%rbp)
  404f7f:	48 8b 45 c0          	mov    -0x40(%rbp),%rax
  404f83:	48 89 c7             	mov    %rax,%rdi
  404f86:	e8 22 fa ff ff       	callq  4049ad <_ZSt7forwardISt5tupleIIEEEOT_RNSt16remove_referenceIS2_E4typeE>
  404f8b:	49 89 c4             	mov    %rax,%r12
  404f8e:	48 8b 45 c8          	mov    -0x38(%rbp),%rax
  404f92:	48 89 c7             	mov    %rax,%rdi
  404f95:	e8 05 fa ff ff       	callq  40499f <_ZSt7forwardISt5tupleIIONSt7__cxx1112basic_stringIcSt11char_traitsIcESaIcEEEEEEOT_RNSt16remove_referenceIS9_E4typeE>
  404f9a:	48 89 c3             	mov    %rax,%rbx
  404f9d:	48 8b 45 d0          	mov    -0x30(%rbp),%rax
  404fa1:	48 89 c7             	mov    %rax,%rdi
  404fa4:	e8 e8 f9 ff ff       	callq  404991 <_ZSt7forwardIRKSt21piecewise_construct_tEOT_RNSt16remove_referenceIS3_E4typeE>
  404fa9:	48 89 c2             	mov    %rax,%rdx
  404fac:	48 8b 75 e8          	mov    -0x18(%rbp),%rsi
  404fb0:	48 8b 45 d8          	mov    -0x28(%rbp),%rax
  404fb4:	4d 89 e0             	mov    %r12,%r8
  404fb7:	48 89 d9             	mov    %rbx,%rcx
  404fba:	48 89 c7             	mov    %rax,%rdi
  404fbd:	e8 a4 0a 00 00       	callq  405a66 <_ZNSt8_Rb_treeINSt7__cxx1112basic_stringIcSt11char_traitsIcESaIcEEESt4pairIKS5_S5_ESt10_Select1stIS8_ESt4lessIS5_ESaIS8_EE17_M_construct_nodeIIRKSt21piecewise_construct_tSt5tupleIIOS5_EESJ_IIEEEEEvPSt13_Rb_tree_nodeIS8_EDpOT_>
  404fc2:	48 8b 45 e8          	mov    -0x18(%rbp),%rax
  404fc6:	48 83 c4 30          	add    $0x30,%rsp
  404fca:	5b                   	pop    %rbx
  404fcb:	41 5c                	pop    %r12
  404fcd:	5d                   	pop    %rbp
  404fce:	c3                   	retq   

0000000000404fcf <_ZSt7forwardIRPSt18_Rb_tree_node_baseEOT_RNSt16remove_referenceIS3_E4typeE>:
  404fcf:	55                   	push   %rbp
  404fd0:	48 89 e5             	mov    %rsp,%rbp
  404fd3:	48 89 7d f8          	mov    %rdi,-0x8(%rbp)
  404fd7:	48 8b 45 f8          	mov    -0x8(%rbp),%rax
  404fdb:	5d                   	pop    %rbp
  404fdc:	c3                   	retq   
  404fdd:	90                   	nop

0000000000404fde <_ZNSt4pairIPSt18_Rb_tree_node_baseS1_EC1IRS1_vEERKS1_OT_>:
  404fde:	55                   	push   %rbp
  404fdf:	48 89 e5             	mov    %rsp,%rbp
  404fe2:	48 83 ec 20          	sub    $0x20,%rsp
  404fe6:	48 89 7d f8          	mov    %rdi,-0x8(%rbp)
  404fea:	48 89 75 f0          	mov    %rsi,-0x10(%rbp)
  404fee:	48 89 55 e8          	mov    %rdx,-0x18(%rbp)
  404ff2:	48 8b 45 f0          	mov    -0x10(%rbp),%rax
  404ff6:	48 8b 10             	mov    (%rax),%rdx
  404ff9:	48 8b 45 f8          	mov    -0x8(%rbp),%rax
  404ffd:	48 89 10             	mov    %rdx,(%rax)
  405000:	48 8b 45 e8          	mov    -0x18(%rbp),%rax
  405004:	48 89 c7             	mov    %rax,%rdi
  405007:	e8 c3 ff ff ff       	callq  404fcf <_ZSt7forwardIRPSt18_Rb_tree_node_baseEOT_RNSt16remove_referenceIS3_E4typeE>
  40500c:	48 8b 10             	mov    (%rax),%rdx
  40500f:	48 8b 45 f8          	mov    -0x8(%rbp),%rax
  405013:	48 89 50 08          	mov    %rdx,0x8(%rax)
  405017:	90                   	nop
  405018:	c9                   	leaveq 
  405019:	c3                   	retq   

000000000040501a <_ZNSt4pairIPSt18_Rb_tree_node_baseS1_EC1IRS1_S4_vEEOT_OT0_>:
  40501a:	55                   	push   %rbp
  40501b:	48 89 e5             	mov    %rsp,%rbp
  40501e:	48 83 ec 20          	sub    $0x20,%rsp
  405022:	48 89 7d f8          	mov    %rdi,-0x8(%rbp)
  405026:	48 89 75 f0          	mov    %rsi,-0x10(%rbp)
  40502a:	48 89 55 e8          	mov    %rdx,-0x18(%rbp)
  40502e:	48 8b 45 f0          	mov    -0x10(%rbp),%rax
  405032:	48 89 c7             	mov    %rax,%rdi
  405035:	e8 95 ff ff ff       	callq  404fcf <_ZSt7forwardIRPSt18_Rb_tree_node_baseEOT_RNSt16remove_referenceIS3_E4typeE>
  40503a:	48 8b 10             	mov    (%rax),%rdx
  40503d:	48 8b 45 f8          	mov    -0x8(%rbp),%rax
  405041:	48 89 10             	mov    %rdx,(%rax)
  405044:	48 8b 45 e8          	mov    -0x18(%rbp),%rax
  405048:	48 89 c7             	mov    %rax,%rdi
  40504b:	e8 7f ff ff ff       	callq  404fcf <_ZSt7forwardIRPSt18_Rb_tree_node_baseEOT_RNSt16remove_referenceIS3_E4typeE>
  405050:	48 8b 10             	mov    (%rax),%rdx
  405053:	48 8b 45 f8          	mov    -0x8(%rbp),%rax
  405057:	48 89 50 08          	mov    %rdx,0x8(%rax)
  40505b:	90                   	nop
  40505c:	c9                   	leaveq 
  40505d:	c3                   	retq   

000000000040505e <_ZNSt4pairIPSt18_Rb_tree_node_baseS1_EC1IRS1_vEEOT_RKS1_>:
  40505e:	55                   	push   %rbp
  40505f:	48 89 e5             	mov    %rsp,%rbp
  405062:	48 83 ec 20          	sub    $0x20,%rsp
  405066:	48 89 7d f8          	mov    %rdi,-0x8(%rbp)
  40506a:	48 89 75 f0          	mov    %rsi,-0x10(%rbp)
  40506e:	48 89 55 e8          	mov    %rdx,-0x18(%rbp)
  405072:	48 8b 45 f0          	mov    -0x10(%rbp),%rax
  405076:	48 89 c7             	mov    %rax,%rdi
  405079:	e8 51 ff ff ff       	callq  404fcf <_ZSt7forwardIRPSt18_Rb_tree_node_baseEOT_RNSt16remove_referenceIS3_E4typeE>
  40507e:	48 8b 10             	mov    (%rax),%rdx
  405081:	48 8b 45 f8          	mov    -0x8(%rbp),%rax
  405085:	48 89 10             	mov    %rdx,(%rax)
  405088:	48 8b 45 e8          	mov    -0x18(%rbp),%rax
  40508c:	48 8b 10             	mov    (%rax),%rdx
  40508f:	48 8b 45 f8          	mov    -0x8(%rbp),%rax
  405093:	48 89 50 08          	mov    %rdx,0x8(%rax)
  405097:	90                   	nop
  405098:	c9                   	leaveq 
  405099:	c3                   	retq   

000000000040509a <_ZNSt8_Rb_treeINSt7__cxx1112basic_stringIcSt11char_traitsIcESaIcEEESt4pairIKS5_S5_ESt10_Select1stIS8_ESt4lessIS5_ESaIS8_EE29_M_get_insert_hint_unique_posESt23_Rb_tree_const_iteratorIS8_ERS7_>:
  40509a:	55                   	push   %rbp
  40509b:	48 89 e5             	mov    %rsp,%rbp
  40509e:	53                   	push   %rbx
  40509f:	48 83 ec 68          	sub    $0x68,%rsp
  4050a3:	48 89 7d a8          	mov    %rdi,-0x58(%rbp)
  4050a7:	48 89 75 a0          	mov    %rsi,-0x60(%rbp)
  4050ab:	48 89 55 98          	mov    %rdx,-0x68(%rbp)
  4050af:	64 48 8b 04 25 28 00 	mov    %fs:0x28,%rax
  4050b6:	00 00 
  4050b8:	48 89 45 e8          	mov    %rax,-0x18(%rbp)
  4050bc:	31 c0                	xor    %eax,%eax
  4050be:	48 8d 45 a0          	lea    -0x60(%rbp),%rax
  4050c2:	48 89 c7             	mov    %rax,%rdi
  4050c5:	e8 7c 0a 00 00       	callq  405b46 <_ZNKSt23_Rb_tree_const_iteratorISt4pairIKNSt7__cxx1112basic_stringIcSt11char_traitsIcESaIcEEES6_EE13_M_const_castEv>
  4050ca:	48 89 45 b0          	mov    %rax,-0x50(%rbp)
  4050ce:	48 8b 5d b0          	mov    -0x50(%rbp),%rbx
  4050d2:	48 8b 45 a8          	mov    -0x58(%rbp),%rax
  4050d6:	48 89 c7             	mov    %rax,%rdi
  4050d9:	e8 40 08 00 00       	callq  40591e <_ZNSt8_Rb_treeINSt7__cxx1112basic_stringIcSt11char_traitsIcESaIcEEESt4pairIKS5_S5_ESt10_Select1stIS8_ESt4lessIS5_ESaIS8_EE6_M_endEv>
  4050de:	48 39 c3             	cmp    %rax,%rbx
  4050e1:	0f 94 c0             	sete   %al
  4050e4:	84 c0                	test   %al,%al
  4050e6:	0f 84 a1 00 00 00    	je     40518d <_ZNSt8_Rb_treeINSt7__cxx1112basic_stringIcSt11char_traitsIcESaIcEEESt4pairIKS5_S5_ESt10_Select1stIS8_ESt4lessIS5_ESaIS8_EE29_M_get_insert_hint_unique_posESt23_Rb_tree_const_iteratorIS8_ERS7_+0xf3>
  4050ec:	48 8b 45 a8          	mov    -0x58(%rbp),%rax
  4050f0:	48 89 c7             	mov    %rax,%rdi
  4050f3:	e8 9a 0a 00 00       	callq  405b92 <_ZNKSt8_Rb_treeINSt7__cxx1112basic_stringIcSt11char_traitsIcESaIcEEESt4pairIKS5_S5_ESt10_Select1stIS8_ESt4lessIS5_ESaIS8_EE4sizeEv>
  4050f8:	48 85 c0             	test   %rax,%rax
  4050fb:	74 38                	je     405135 <_ZNSt8_Rb_treeINSt7__cxx1112basic_stringIcSt11char_traitsIcESaIcEEESt4pairIKS5_S5_ESt10_Select1stIS8_ESt4lessIS5_ESaIS8_EE29_M_get_insert_hint_unique_posESt23_Rb_tree_const_iteratorIS8_ERS7_+0x9b>
  4050fd:	48 8b 45 a8          	mov    -0x58(%rbp),%rax
  405101:	48 89 c7             	mov    %rax,%rdi
  405104:	e8 9b 0a 00 00       	callq  405ba4 <_ZNSt8_Rb_treeINSt7__cxx1112basic_stringIcSt11char_traitsIcESaIcEEESt4pairIKS5_S5_ESt10_Select1stIS8_ESt4lessIS5_ESaIS8_EE12_M_rightmostEv>
  405109:	48 8b 00             	mov    (%rax),%rax
  40510c:	48 89 c7             	mov    %rax,%rdi
  40510f:	e8 a2 0a 00 00       	callq  405bb6 <_ZNSt8_Rb_treeINSt7__cxx1112basic_stringIcSt11char_traitsIcESaIcEEESt4pairIKS5_S5_ESt10_Select1stIS8_ESt4lessIS5_ESaIS8_EE6_S_keyEPKSt18_Rb_tree_node_base>
  405114:	48 89 c1             	mov    %rax,%rcx
  405117:	48 8b 45 a8          	mov    -0x58(%rbp),%rax
  40511b:	48 8b 55 98          	mov    -0x68(%rbp),%rdx
  40511f:	48 89 ce             	mov    %rcx,%rsi
  405122:	48 89 c7             	mov    %rax,%rdi
  405125:	e8 fc ef ff ff       	callq  404126 <_ZNKSt4lessINSt7__cxx1112basic_stringIcSt11char_traitsIcESaIcEEEEclERKS5_S8_>
  40512a:	84 c0                	test   %al,%al
  40512c:	74 07                	je     405135 <_ZNSt8_Rb_treeINSt7__cxx1112basic_stringIcSt11char_traitsIcESaIcEEESt4pairIKS5_S5_ESt10_Select1stIS8_ESt4lessIS5_ESaIS8_EE29_M_get_insert_hint_unique_posESt23_Rb_tree_const_iteratorIS8_ERS7_+0x9b>
  40512e:	b8 01 00 00 00       	mov    $0x1,%eax
  405133:	eb 05                	jmp    40513a <_ZNSt8_Rb_treeINSt7__cxx1112basic_stringIcSt11char_traitsIcESaIcEEESt4pairIKS5_S5_ESt10_Select1stIS8_ESt4lessIS5_ESaIS8_EE29_M_get_insert_hint_unique_posESt23_Rb_tree_const_iteratorIS8_ERS7_+0xa0>
  405135:	b8 00 00 00 00       	mov    $0x0,%eax
  40513a:	84 c0                	test   %al,%al
  40513c:	74 37                	je     405175 <_ZNSt8_Rb_treeINSt7__cxx1112basic_stringIcSt11char_traitsIcESaIcEEESt4pairIKS5_S5_ESt10_Select1stIS8_ESt4lessIS5_ESaIS8_EE29_M_get_insert_hint_unique_posESt23_Rb_tree_const_iteratorIS8_ERS7_+0xdb>
  40513e:	48 8b 45 a8          	mov    -0x58(%rbp),%rax
  405142:	48 89 c7             	mov    %rax,%rdi
  405145:	e8 5a 0a 00 00       	callq  405ba4 <_ZNSt8_Rb_treeINSt7__cxx1112basic_stringIcSt11char_traitsIcESaIcEEESt4pairIKS5_S5_ESt10_Select1stIS8_ESt4lessIS5_ESaIS8_EE12_M_rightmostEv>
  40514a:	48 89 c2             	mov    %rax,%rdx
  40514d:	48 c7 45 c8 00 00 00 	movq   $0x0,-0x38(%rbp)
  405154:	00 
  405155:	48 8d 4d c8          	lea    -0x38(%rbp),%rcx
  405159:	48 8d 45 d0          	lea    -0x30(%rbp),%rax
  40515d:	48 89 ce             	mov    %rcx,%rsi
  405160:	48 89 c7             	mov    %rax,%rdi
  405163:	e8 76 fe ff ff       	callq  404fde <_ZNSt4pairIPSt18_Rb_tree_node_baseS1_EC1IRS1_vEERKS1_OT_>
  405168:	48 8b 45 d0          	mov    -0x30(%rbp),%rax
  40516c:	48 8b 55 d8          	mov    -0x28(%rbp),%rdx
  405170:	e9 a6 02 00 00       	jmpq   40541b <_ZNSt8_Rb_treeINSt7__cxx1112basic_stringIcSt11char_traitsIcESaIcEEESt4pairIKS5_S5_ESt10_Select1stIS8_ESt4lessIS5_ESaIS8_EE29_M_get_insert_hint_unique_posESt23_Rb_tree_const_iteratorIS8_ERS7_+0x381>
  405175:	48 8b 55 98          	mov    -0x68(%rbp),%rdx
  405179:	48 8b 45 a8          	mov    -0x58(%rbp),%rax
  40517d:	48 89 d6             	mov    %rdx,%rsi
  405180:	48 89 c7             	mov    %rax,%rdi
  405183:	e8 d0 0a 00 00       	callq  405c58 <_ZNSt8_Rb_treeINSt7__cxx1112basic_stringIcSt11char_traitsIcESaIcEEESt4pairIKS5_S5_ESt10_Select1stIS8_ESt4lessIS5_ESaIS8_EE24_M_get_insert_unique_posERS7_>
  405188:	e9 8e 02 00 00       	jmpq   40541b <_ZNSt8_Rb_treeINSt7__cxx1112basic_stringIcSt11char_traitsIcESaIcEEESt4pairIKS5_S5_ESt10_Select1stIS8_ESt4lessIS5_ESaIS8_EE29_M_get_insert_hint_unique_posESt23_Rb_tree_const_iteratorIS8_ERS7_+0x381>
  40518d:	48 8b 45 b0          	mov    -0x50(%rbp),%rax
  405191:	48 89 c7             	mov    %rax,%rdi
  405194:	e8 1d 0a 00 00       	callq  405bb6 <_ZNSt8_Rb_treeINSt7__cxx1112basic_stringIcSt11char_traitsIcESaIcEEESt4pairIKS5_S5_ESt10_Select1stIS8_ESt4lessIS5_ESaIS8_EE6_S_keyEPKSt18_Rb_tree_node_base>
  405199:	48 89 c2             	mov    %rax,%rdx
  40519c:	48 8b 45 a8          	mov    -0x58(%rbp),%rax
  4051a0:	48 8b 4d 98          	mov    -0x68(%rbp),%rcx
  4051a4:	48 89 ce             	mov    %rcx,%rsi
  4051a7:	48 89 c7             	mov    %rax,%rdi
  4051aa:	e8 77 ef ff ff       	callq  404126 <_ZNKSt4lessINSt7__cxx1112basic_stringIcSt11char_traitsIcESaIcEEEEclERKS5_S8_>
  4051af:	84 c0                	test   %al,%al
  4051b1:	0f 84 11 01 00 00    	je     4052c8 <_ZNSt8_Rb_treeINSt7__cxx1112basic_stringIcSt11char_traitsIcESaIcEEESt4pairIKS5_S5_ESt10_Select1stIS8_ESt4lessIS5_ESaIS8_EE29_M_get_insert_hint_unique_posESt23_Rb_tree_const_iteratorIS8_ERS7_+0x22e>
  4051b7:	48 8b 45 b0          	mov    -0x50(%rbp),%rax
  4051bb:	48 89 45 c0          	mov    %rax,-0x40(%rbp)
  4051bf:	48 8b 5d b0          	mov    -0x50(%rbp),%rbx
  4051c3:	48 8b 45 a8          	mov    -0x58(%rbp),%rax
  4051c7:	48 89 c7             	mov    %rax,%rdi
  4051ca:	e8 19 0c 00 00       	callq  405de8 <_ZNSt8_Rb_treeINSt7__cxx1112basic_stringIcSt11char_traitsIcESaIcEEESt4pairIKS5_S5_ESt10_Select1stIS8_ESt4lessIS5_ESaIS8_EE11_M_leftmostEv>
  4051cf:	48 8b 00             	mov    (%rax),%rax
  4051d2:	48 39 c3             	cmp    %rax,%rbx
  4051d5:	0f 94 c0             	sete   %al
  4051d8:	84 c0                	test   %al,%al
  4051da:	74 3d                	je     405219 <_ZNSt8_Rb_treeINSt7__cxx1112basic_stringIcSt11char_traitsIcESaIcEEESt4pairIKS5_S5_ESt10_Select1stIS8_ESt4lessIS5_ESaIS8_EE29_M_get_insert_hint_unique_posESt23_Rb_tree_const_iteratorIS8_ERS7_+0x17f>
  4051dc:	48 8b 45 a8          	mov    -0x58(%rbp),%rax
  4051e0:	48 89 c7             	mov    %rax,%rdi
  4051e3:	e8 00 0c 00 00       	callq  405de8 <_ZNSt8_Rb_treeINSt7__cxx1112basic_stringIcSt11char_traitsIcESaIcEEESt4pairIKS5_S5_ESt10_Select1stIS8_ESt4lessIS5_ESaIS8_EE11_M_leftmostEv>
  4051e8:	48 89 c3             	mov    %rax,%rbx
  4051eb:	48 8b 45 a8          	mov    -0x58(%rbp),%rax
  4051ef:	48 89 c7             	mov    %rax,%rdi
  4051f2:	e8 f1 0b 00 00       	callq  405de8 <_ZNSt8_Rb_treeINSt7__cxx1112basic_stringIcSt11char_traitsIcESaIcEEESt4pairIKS5_S5_ESt10_Select1stIS8_ESt4lessIS5_ESaIS8_EE11_M_leftmostEv>
  4051f7:	48 89 c1             	mov    %rax,%rcx
  4051fa:	48 8d 45 d0          	lea    -0x30(%rbp),%rax
  4051fe:	48 89 da             	mov    %rbx,%rdx
  405201:	48 89 ce             	mov    %rcx,%rsi
  405204:	48 89 c7             	mov    %rax,%rdi
  405207:	e8 0e fe ff ff       	callq  40501a <_ZNSt4pairIPSt18_Rb_tree_node_baseS1_EC1IRS1_S4_vEEOT_OT0_>
  40520c:	48 8b 45 d0          	mov    -0x30(%rbp),%rax
  405210:	48 8b 55 d8          	mov    -0x28(%rbp),%rdx
  405214:	e9 02 02 00 00       	jmpq   40541b <_ZNSt8_Rb_treeINSt7__cxx1112basic_stringIcSt11char_traitsIcESaIcEEESt4pairIKS5_S5_ESt10_Select1stIS8_ESt4lessIS5_ESaIS8_EE29_M_get_insert_hint_unique_posESt23_Rb_tree_const_iteratorIS8_ERS7_+0x381>
  405219:	48 8d 45 c0          	lea    -0x40(%rbp),%rax
  40521d:	48 89 c7             	mov    %rax,%rdi
  405220:	e8 d5 0b 00 00       	callq  405dfa <_ZNSt17_Rb_tree_iteratorISt4pairIKNSt7__cxx1112basic_stringIcSt11char_traitsIcESaIcEEES6_EEmmEv>
  405225:	48 8b 00             	mov    (%rax),%rax
  405228:	48 89 c7             	mov    %rax,%rdi
  40522b:	e8 86 09 00 00       	callq  405bb6 <_ZNSt8_Rb_treeINSt7__cxx1112basic_stringIcSt11char_traitsIcESaIcEEESt4pairIKS5_S5_ESt10_Select1stIS8_ESt4lessIS5_ESaIS8_EE6_S_keyEPKSt18_Rb_tree_node_base>
  405230:	48 89 c1             	mov    %rax,%rcx
  405233:	48 8b 45 a8          	mov    -0x58(%rbp),%rax
  405237:	48 8b 55 98          	mov    -0x68(%rbp),%rdx
  40523b:	48 89 ce             	mov    %rcx,%rsi
  40523e:	48 89 c7             	mov    %rax,%rdi
  405241:	e8 e0 ee ff ff       	callq  404126 <_ZNKSt4lessINSt7__cxx1112basic_stringIcSt11char_traitsIcESaIcEEEEclERKS5_S8_>
  405246:	84 c0                	test   %al,%al
  405248:	74 66                	je     4052b0 <_ZNSt8_Rb_treeINSt7__cxx1112basic_stringIcSt11char_traitsIcESaIcEEESt4pairIKS5_S5_ESt10_Select1stIS8_ESt4lessIS5_ESaIS8_EE29_M_get_insert_hint_unique_posESt23_Rb_tree_const_iteratorIS8_ERS7_+0x216>
  40524a:	48 8b 45 c0          	mov    -0x40(%rbp),%rax
  40524e:	48 89 c7             	mov    %rax,%rdi
  405251:	e8 45 fb ff ff       	callq  404d9b <_ZNSt8_Rb_treeINSt7__cxx1112basic_stringIcSt11char_traitsIcESaIcEEESt4pairIKS5_S5_ESt10_Select1stIS8_ESt4lessIS5_ESaIS8_EE8_S_rightEPSt18_Rb_tree_node_base>
  405256:	48 85 c0             	test   %rax,%rax
  405259:	0f 94 c0             	sete   %al
  40525c:	84 c0                	test   %al,%al
  40525e:	74 2c                	je     40528c <_ZNSt8_Rb_treeINSt7__cxx1112basic_stringIcSt11char_traitsIcESaIcEEESt4pairIKS5_S5_ESt10_Select1stIS8_ESt4lessIS5_ESaIS8_EE29_M_get_insert_hint_unique_posESt23_Rb_tree_const_iteratorIS8_ERS7_+0x1f2>
  405260:	48 c7 45 c8 00 00 00 	movq   $0x0,-0x38(%rbp)
  405267:	00 
  405268:	48 8d 55 c0          	lea    -0x40(%rbp),%rdx
  40526c:	48 8d 4d c8          	lea    -0x38(%rbp),%rcx
  405270:	48 8d 45 d0          	lea    -0x30(%rbp),%rax
  405274:	48 89 ce             	mov    %rcx,%rsi
  405277:	48 89 c7             	mov    %rax,%rdi
  40527a:	e8 5f fd ff ff       	callq  404fde <_ZNSt4pairIPSt18_Rb_tree_node_baseS1_EC1IRS1_vEERKS1_OT_>
  40527f:	48 8b 45 d0          	mov    -0x30(%rbp),%rax
  405283:	48 8b 55 d8          	mov    -0x28(%rbp),%rdx
  405287:	e9 8f 01 00 00       	jmpq   40541b <_ZNSt8_Rb_treeINSt7__cxx1112basic_stringIcSt11char_traitsIcESaIcEEESt4pairIKS5_S5_ESt10_Select1stIS8_ESt4lessIS5_ESaIS8_EE29_M_get_insert_hint_unique_posESt23_Rb_tree_const_iteratorIS8_ERS7_+0x381>
  40528c:	48 8d 55 b0          	lea    -0x50(%rbp),%rdx
  405290:	48 8d 4d b0          	lea    -0x50(%rbp),%rcx
  405294:	48 8d 45 d0          	lea    -0x30(%rbp),%rax
  405298:	48 89 ce             	mov    %rcx,%rsi
  40529b:	48 89 c7             	mov    %rax,%rdi
  40529e:	e8 77 fd ff ff       	callq  40501a <_ZNSt4pairIPSt18_Rb_tree_node_baseS1_EC1IRS1_S4_vEEOT_OT0_>
  4052a3:	48 8b 45 d0          	mov    -0x30(%rbp),%rax
  4052a7:	48 8b 55 d8          	mov    -0x28(%rbp),%rdx
  4052ab:	e9 6b 01 00 00       	jmpq   40541b <_ZNSt8_Rb_treeINSt7__cxx1112basic_stringIcSt11char_traitsIcESaIcEEESt4pairIKS5_S5_ESt10_Select1stIS8_ESt4lessIS5_ESaIS8_EE29_M_get_insert_hint_unique_posESt23_Rb_tree_const_iteratorIS8_ERS7_+0x381>
  4052b0:	48 8b 55 98          	mov    -0x68(%rbp),%rdx
  4052b4:	48 8b 45 a8          	mov    -0x58(%rbp),%rax
  4052b8:	48 89 d6             	mov    %rdx,%rsi
  4052bb:	48 89 c7             	mov    %rax,%rdi
  4052be:	e8 95 09 00 00       	callq  405c58 <_ZNSt8_Rb_treeINSt7__cxx1112basic_stringIcSt11char_traitsIcESaIcEEESt4pairIKS5_S5_ESt10_Select1stIS8_ESt4lessIS5_ESaIS8_EE24_M_get_insert_unique_posERS7_>
  4052c3:	e9 53 01 00 00       	jmpq   40541b <_ZNSt8_Rb_treeINSt7__cxx1112basic_stringIcSt11char_traitsIcESaIcEEESt4pairIKS5_S5_ESt10_Select1stIS8_ESt4lessIS5_ESaIS8_EE29_M_get_insert_hint_unique_posESt23_Rb_tree_const_iteratorIS8_ERS7_+0x381>
  4052c8:	48 8b 45 b0          	mov    -0x50(%rbp),%rax
  4052cc:	48 89 c7             	mov    %rax,%rdi
  4052cf:	e8 e2 08 00 00       	callq  405bb6 <_ZNSt8_Rb_treeINSt7__cxx1112basic_stringIcSt11char_traitsIcESaIcEEESt4pairIKS5_S5_ESt10_Select1stIS8_ESt4lessIS5_ESaIS8_EE6_S_keyEPKSt18_Rb_tree_node_base>
  4052d4:	48 89 c1             	mov    %rax,%rcx
  4052d7:	48 8b 45 a8          	mov    -0x58(%rbp),%rax
  4052db:	48 8b 55 98          	mov    -0x68(%rbp),%rdx
  4052df:	48 89 ce             	mov    %rcx,%rsi
  4052e2:	48 89 c7             	mov    %rax,%rdi
  4052e5:	e8 3c ee ff ff       	callq  404126 <_ZNKSt4lessINSt7__cxx1112basic_stringIcSt11char_traitsIcESaIcEEEEclERKS5_S8_>
  4052ea:	84 c0                	test   %al,%al
  4052ec:	0f 84 02 01 00 00    	je     4053f4 <_ZNSt8_Rb_treeINSt7__cxx1112basic_stringIcSt11char_traitsIcESaIcEEESt4pairIKS5_S5_ESt10_Select1stIS8_ESt4lessIS5_ESaIS8_EE29_M_get_insert_hint_unique_posESt23_Rb_tree_const_iteratorIS8_ERS7_+0x35a>
  4052f2:	48 8b 45 b0          	mov    -0x50(%rbp),%rax
  4052f6:	48 89 45 c0          	mov    %rax,-0x40(%rbp)
  4052fa:	48 8b 5d b0          	mov    -0x50(%rbp),%rbx
  4052fe:	48 8b 45 a8          	mov    -0x58(%rbp),%rax
  405302:	48 89 c7             	mov    %rax,%rdi
  405305:	e8 9a 08 00 00       	callq  405ba4 <_ZNSt8_Rb_treeINSt7__cxx1112basic_stringIcSt11char_traitsIcESaIcEEESt4pairIKS5_S5_ESt10_Select1stIS8_ESt4lessIS5_ESaIS8_EE12_M_rightmostEv>
  40530a:	48 8b 00             	mov    (%rax),%rax
  40530d:	48 39 c3             	cmp    %rax,%rbx
  405310:	0f 94 c0             	sete   %al
  405313:	84 c0                	test   %al,%al
  405315:	74 37                	je     40534e <_ZNSt8_Rb_treeINSt7__cxx1112basic_stringIcSt11char_traitsIcESaIcEEESt4pairIKS5_S5_ESt10_Select1stIS8_ESt4lessIS5_ESaIS8_EE29_M_get_insert_hint_unique_posESt23_Rb_tree_const_iteratorIS8_ERS7_+0x2b4>
  405317:	48 8b 45 a8          	mov    -0x58(%rbp),%rax
  40531b:	48 89 c7             	mov    %rax,%rdi
  40531e:	e8 81 08 00 00       	callq  405ba4 <_ZNSt8_Rb_treeINSt7__cxx1112basic_stringIcSt11char_traitsIcESaIcEEESt4pairIKS5_S5_ESt10_Select1stIS8_ESt4lessIS5_ESaIS8_EE12_M_rightmostEv>
  405323:	48 89 c2             	mov    %rax,%rdx
  405326:	48 c7 45 c8 00 00 00 	movq   $0x0,-0x38(%rbp)
  40532d:	00 
  40532e:	48 8d 4d c8          	lea    -0x38(%rbp),%rcx
  405332:	48 8d 45 d0          	lea    -0x30(%rbp),%rax
  405336:	48 89 ce             	mov    %rcx,%rsi
  405339:	48 89 c7             	mov    %rax,%rdi
  40533c:	e8 9d fc ff ff       	callq  404fde <_ZNSt4pairIPSt18_Rb_tree_node_baseS1_EC1IRS1_vEERKS1_OT_>
  405341:	48 8b 45 d0          	mov    -0x30(%rbp),%rax
  405345:	48 8b 55 d8          	mov    -0x28(%rbp),%rdx
  405349:	e9 cd 00 00 00       	jmpq   40541b <_ZNSt8_Rb_treeINSt7__cxx1112basic_stringIcSt11char_traitsIcESaIcEEESt4pairIKS5_S5_ESt10_Select1stIS8_ESt4lessIS5_ESaIS8_EE29_M_get_insert_hint_unique_posESt23_Rb_tree_const_iteratorIS8_ERS7_+0x381>
  40534e:	48 8d 45 c0          	lea    -0x40(%rbp),%rax
  405352:	48 89 c7             	mov    %rax,%rdi
  405355:	e8 cc 0a 00 00       	callq  405e26 <_ZNSt17_Rb_tree_iteratorISt4pairIKNSt7__cxx1112basic_stringIcSt11char_traitsIcESaIcEEES6_EEppEv>
  40535a:	48 8b 00             	mov    (%rax),%rax
  40535d:	48 89 c7             	mov    %rax,%rdi
  405360:	e8 51 08 00 00       	callq  405bb6 <_ZNSt8_Rb_treeINSt7__cxx1112basic_stringIcSt11char_traitsIcESaIcEEESt4pairIKS5_S5_ESt10_Select1stIS8_ESt4lessIS5_ESaIS8_EE6_S_keyEPKSt18_Rb_tree_node_base>
  405365:	48 89 c2             	mov    %rax,%rdx
  405368:	48 8b 45 a8          	mov    -0x58(%rbp),%rax
  40536c:	48 8b 4d 98          	mov    -0x68(%rbp),%rcx
  405370:	48 89 ce             	mov    %rcx,%rsi
  405373:	48 89 c7             	mov    %rax,%rdi
  405376:	e8 ab ed ff ff       	callq  404126 <_ZNKSt4lessINSt7__cxx1112basic_stringIcSt11char_traitsIcESaIcEEEEclERKS5_S8_>
  40537b:	84 c0                	test   %al,%al
  40537d:	74 60                	je     4053df <_ZNSt8_Rb_treeINSt7__cxx1112basic_stringIcSt11char_traitsIcESaIcEEESt4pairIKS5_S5_ESt10_Select1stIS8_ESt4lessIS5_ESaIS8_EE29_M_get_insert_hint_unique_posESt23_Rb_tree_const_iteratorIS8_ERS7_+0x345>
  40537f:	48 8b 45 b0          	mov    -0x50(%rbp),%rax
  405383:	48 89 c7             	mov    %rax,%rdi
  405386:	e8 10 fa ff ff       	callq  404d9b <_ZNSt8_Rb_treeINSt7__cxx1112basic_stringIcSt11char_traitsIcESaIcEEESt4pairIKS5_S5_ESt10_Select1stIS8_ESt4lessIS5_ESaIS8_EE8_S_rightEPSt18_Rb_tree_node_base>
  40538b:	48 85 c0             	test   %rax,%rax
  40538e:	0f 94 c0             	sete   %al
  405391:	84 c0                	test   %al,%al
  405393:	74 29                	je     4053be <_ZNSt8_Rb_treeINSt7__cxx1112basic_stringIcSt11char_traitsIcESaIcEEESt4pairIKS5_S5_ESt10_Select1stIS8_ESt4lessIS5_ESaIS8_EE29_M_get_insert_hint_unique_posESt23_Rb_tree_const_iteratorIS8_ERS7_+0x324>
  405395:	48 c7 45 c8 00 00 00 	movq   $0x0,-0x38(%rbp)
  40539c:	00 
  40539d:	48 8d 55 b0          	lea    -0x50(%rbp),%rdx
  4053a1:	48 8d 4d c8          	lea    -0x38(%rbp),%rcx
  4053a5:	48 8d 45 d0          	lea    -0x30(%rbp),%rax
  4053a9:	48 89 ce             	mov    %rcx,%rsi
  4053ac:	48 89 c7             	mov    %rax,%rdi
  4053af:	e8 2a fc ff ff       	callq  404fde <_ZNSt4pairIPSt18_Rb_tree_node_baseS1_EC1IRS1_vEERKS1_OT_>
  4053b4:	48 8b 45 d0          	mov    -0x30(%rbp),%rax
  4053b8:	48 8b 55 d8          	mov    -0x28(%rbp),%rdx
  4053bc:	eb 5d                	jmp    40541b <_ZNSt8_Rb_treeINSt7__cxx1112basic_stringIcSt11char_traitsIcESaIcEEESt4pairIKS5_S5_ESt10_Select1stIS8_ESt4lessIS5_ESaIS8_EE29_M_get_insert_hint_unique_posESt23_Rb_tree_const_iteratorIS8_ERS7_+0x381>
  4053be:	48 8d 55 c0          	lea    -0x40(%rbp),%rdx
  4053c2:	48 8d 4d c0          	lea    -0x40(%rbp),%rcx
  4053c6:	48 8d 45 d0          	lea    -0x30(%rbp),%rax
  4053ca:	48 89 ce             	mov    %rcx,%rsi
  4053cd:	48 89 c7             	mov    %rax,%rdi
  4053d0:	e8 45 fc ff ff       	callq  40501a <_ZNSt4pairIPSt18_Rb_tree_node_baseS1_EC1IRS1_S4_vEEOT_OT0_>
  4053d5:	48 8b 45 d0          	mov    -0x30(%rbp),%rax
  4053d9:	48 8b 55 d8          	mov    -0x28(%rbp),%rdx
  4053dd:	eb 3c                	jmp    40541b <_ZNSt8_Rb_treeINSt7__cxx1112basic_stringIcSt11char_traitsIcESaIcEEESt4pairIKS5_S5_ESt10_Select1stIS8_ESt4lessIS5_ESaIS8_EE29_M_get_insert_hint_unique_posESt23_Rb_tree_const_iteratorIS8_ERS7_+0x381>
  4053df:	48 8b 55 98          	mov    -0x68(%rbp),%rdx
  4053e3:	48 8b 45 a8          	mov    -0x58(%rbp),%rax
  4053e7:	48 89 d6             	mov    %rdx,%rsi
  4053ea:	48 89 c7             	mov    %rax,%rdi
  4053ed:	e8 66 08 00 00       	callq  405c58 <_ZNSt8_Rb_treeINSt7__cxx1112basic_stringIcSt11char_traitsIcESaIcEEESt4pairIKS5_S5_ESt10_Select1stIS8_ESt4lessIS5_ESaIS8_EE24_M_get_insert_unique_posERS7_>
  4053f2:	eb 27                	jmp    40541b <_ZNSt8_Rb_treeINSt7__cxx1112basic_stringIcSt11char_traitsIcESaIcEEESt4pairIKS5_S5_ESt10_Select1stIS8_ESt4lessIS5_ESaIS8_EE29_M_get_insert_hint_unique_posESt23_Rb_tree_const_iteratorIS8_ERS7_+0x381>
  4053f4:	48 c7 45 c8 00 00 00 	movq   $0x0,-0x38(%rbp)
  4053fb:	00 
  4053fc:	48 8d 55 c8          	lea    -0x38(%rbp),%rdx
  405400:	48 8d 4d b0          	lea    -0x50(%rbp),%rcx
  405404:	48 8d 45 d0          	lea    -0x30(%rbp),%rax
  405408:	48 89 ce             	mov    %rcx,%rsi
  40540b:	48 89 c7             	mov    %rax,%rdi
  40540e:	e8 4b fc ff ff       	callq  40505e <_ZNSt4pairIPSt18_Rb_tree_node_baseS1_EC1IRS1_vEEOT_RKS1_>
  405413:	48 8b 45 d0          	mov    -0x30(%rbp),%rax
  405417:	48 8b 55 d8          	mov    -0x28(%rbp),%rdx
  40541b:	48 8b 5d e8          	mov    -0x18(%rbp),%rbx
  40541f:	64 48 33 1c 25 28 00 	xor    %fs:0x28,%rbx
  405426:	00 00 
  405428:	74 05                	je     40542f <_ZNSt8_Rb_treeINSt7__cxx1112basic_stringIcSt11char_traitsIcESaIcEEESt4pairIKS5_S5_ESt10_Select1stIS8_ESt4lessIS5_ESaIS8_EE29_M_get_insert_hint_unique_posESt23_Rb_tree_const_iteratorIS8_ERS7_+0x395>
  40542a:	e8 e1 d9 ff ff       	callq  402e10 <__stack_chk_fail@plt>
  40542f:	48 83 c4 68          	add    $0x68,%rsp
  405433:	5b                   	pop    %rbx
  405434:	5d                   	pop    %rbp
  405435:	c3                   	retq   

0000000000405436 <_ZNSt8_Rb_treeINSt7__cxx1112basic_stringIcSt11char_traitsIcESaIcEEESt4pairIKS5_S5_ESt10_Select1stIS8_ESt4lessIS5_ESaIS8_EE6_S_keyEPKSt13_Rb_tree_nodeIS8_E>:
  405436:	55                   	push   %rbp
  405437:	48 89 e5             	mov    %rsp,%rbp
  40543a:	48 83 ec 20          	sub    $0x20,%rsp
  40543e:	48 89 7d e8          	mov    %rdi,-0x18(%rbp)
  405442:	64 48 8b 04 25 28 00 	mov    %fs:0x28,%rax
  405449:	00 00 
  40544b:	48 89 45 f8          	mov    %rax,-0x8(%rbp)
  40544f:	31 c0                	xor    %eax,%eax
  405451:	48 8b 45 e8          	mov    -0x18(%rbp),%rax
  405455:	48 89 c7             	mov    %rax,%rdi
  405458:	e8 f4 09 00 00       	callq  405e51 <_ZNSt8_Rb_treeINSt7__cxx1112basic_stringIcSt11char_traitsIcESaIcEEESt4pairIKS5_S5_ESt10_Select1stIS8_ESt4lessIS5_ESaIS8_EE8_S_valueEPKSt13_Rb_tree_nodeIS8_E>
  40545d:	48 89 c2             	mov    %rax,%rdx
  405460:	48 8d 45 f7          	lea    -0x9(%rbp),%rax
  405464:	48 89 d6             	mov    %rdx,%rsi
  405467:	48 89 c7             	mov    %rax,%rdi
  40546a:	e8 fd 09 00 00       	callq  405e6c <_ZNKSt10_Select1stISt4pairIKNSt7__cxx1112basic_stringIcSt11char_traitsIcESaIcEEES6_EEclERKS8_>
  40546f:	48 8b 4d f8          	mov    -0x8(%rbp),%rcx
  405473:	64 48 33 0c 25 28 00 	xor    %fs:0x28,%rcx
  40547a:	00 00 
  40547c:	74 05                	je     405483 <_ZNSt8_Rb_treeINSt7__cxx1112basic_stringIcSt11char_traitsIcESaIcEEESt4pairIKS5_S5_ESt10_Select1stIS8_ESt4lessIS5_ESaIS8_EE6_S_keyEPKSt13_Rb_tree_nodeIS8_E+0x4d>
  40547e:	e8 8d d9 ff ff       	callq  402e10 <__stack_chk_fail@plt>
  405483:	c9                   	leaveq 
  405484:	c3                   	retq   
  405485:	90                   	nop

0000000000405486 <_ZNSt8_Rb_treeINSt7__cxx1112basic_stringIcSt11char_traitsIcESaIcEEESt4pairIKS5_S5_ESt10_Select1stIS8_ESt4lessIS5_ESaIS8_EE14_M_insert_nodeEPSt18_Rb_tree_node_baseSG_PSt13_Rb_tree_nodeIS8_E>:
  405486:	55                   	push   %rbp
  405487:	48 89 e5             	mov    %rsp,%rbp
  40548a:	53                   	push   %rbx
  40548b:	48 83 ec 48          	sub    $0x48,%rsp
  40548f:	48 89 7d c8          	mov    %rdi,-0x38(%rbp)
  405493:	48 89 75 c0          	mov    %rsi,-0x40(%rbp)
  405497:	48 89 55 b8          	mov    %rdx,-0x48(%rbp)
  40549b:	48 89 4d b0          	mov    %rcx,-0x50(%rbp)
  40549f:	64 48 8b 04 25 28 00 	mov    %fs:0x28,%rax
  4054a6:	00 00 
  4054a8:	48 89 45 e8          	mov    %rax,-0x18(%rbp)
  4054ac:	31 c0                	xor    %eax,%eax
  4054ae:	48 83 7d c0 00       	cmpq   $0x0,-0x40(%rbp)
  4054b3:	75 46                	jne    4054fb <_ZNSt8_Rb_treeINSt7__cxx1112basic_stringIcSt11char_traitsIcESaIcEEESt4pairIKS5_S5_ESt10_Select1stIS8_ESt4lessIS5_ESaIS8_EE14_M_insert_nodeEPSt18_Rb_tree_node_baseSG_PSt13_Rb_tree_nodeIS8_E+0x75>
  4054b5:	48 8b 45 c8          	mov    -0x38(%rbp),%rax
  4054b9:	48 89 c7             	mov    %rax,%rdi
  4054bc:	e8 5d 04 00 00       	callq  40591e <_ZNSt8_Rb_treeINSt7__cxx1112basic_stringIcSt11char_traitsIcESaIcEEESt4pairIKS5_S5_ESt10_Select1stIS8_ESt4lessIS5_ESaIS8_EE6_M_endEv>
  4054c1:	48 3b 45 b8          	cmp    -0x48(%rbp),%rax
  4054c5:	74 34                	je     4054fb <_ZNSt8_Rb_treeINSt7__cxx1112basic_stringIcSt11char_traitsIcESaIcEEESt4pairIKS5_S5_ESt10_Select1stIS8_ESt4lessIS5_ESaIS8_EE14_M_insert_nodeEPSt18_Rb_tree_node_baseSG_PSt13_Rb_tree_nodeIS8_E+0x75>
  4054c7:	48 8b 45 b8          	mov    -0x48(%rbp),%rax
  4054cb:	48 89 c7             	mov    %rax,%rdi
  4054ce:	e8 e3 06 00 00       	callq  405bb6 <_ZNSt8_Rb_treeINSt7__cxx1112basic_stringIcSt11char_traitsIcESaIcEEESt4pairIKS5_S5_ESt10_Select1stIS8_ESt4lessIS5_ESaIS8_EE6_S_keyEPKSt18_Rb_tree_node_base>
  4054d3:	48 89 c3             	mov    %rax,%rbx
  4054d6:	48 8b 45 b0          	mov    -0x50(%rbp),%rax
  4054da:	48 89 c7             	mov    %rax,%rdi
  4054dd:	e8 54 ff ff ff       	callq  405436 <_ZNSt8_Rb_treeINSt7__cxx1112basic_stringIcSt11char_traitsIcESaIcEEESt4pairIKS5_S5_ESt10_Select1stIS8_ESt4lessIS5_ESaIS8_EE6_S_keyEPKSt13_Rb_tree_nodeIS8_E>
  4054e2:	48 89 c1             	mov    %rax,%rcx
  4054e5:	48 8b 45 c8          	mov    -0x38(%rbp),%rax
  4054e9:	48 89 da             	mov    %rbx,%rdx
  4054ec:	48 89 ce             	mov    %rcx,%rsi
  4054ef:	48 89 c7             	mov    %rax,%rdi
  4054f2:	e8 2f ec ff ff       	callq  404126 <_ZNKSt4lessINSt7__cxx1112basic_stringIcSt11char_traitsIcESaIcEEEEclERKS5_S8_>
  4054f7:	84 c0                	test   %al,%al
  4054f9:	74 07                	je     405502 <_ZNSt8_Rb_treeINSt7__cxx1112basic_stringIcSt11char_traitsIcESaIcEEESt4pairIKS5_S5_ESt10_Select1stIS8_ESt4lessIS5_ESaIS8_EE14_M_insert_nodeEPSt18_Rb_tree_node_baseSG_PSt13_Rb_tree_nodeIS8_E+0x7c>
  4054fb:	b8 01 00 00 00       	mov    $0x1,%eax
  405500:	eb 05                	jmp    405507 <_ZNSt8_Rb_treeINSt7__cxx1112basic_stringIcSt11char_traitsIcESaIcEEESt4pairIKS5_S5_ESt10_Select1stIS8_ESt4lessIS5_ESaIS8_EE14_M_insert_nodeEPSt18_Rb_tree_node_baseSG_PSt13_Rb_tree_nodeIS8_E+0x81>
  405502:	b8 00 00 00 00       	mov    $0x0,%eax
  405507:	88 45 df             	mov    %al,-0x21(%rbp)
  40550a:	48 8b 45 c8          	mov    -0x38(%rbp),%rax
  40550e:	48 8d 48 08          	lea    0x8(%rax),%rcx
  405512:	0f b6 45 df          	movzbl -0x21(%rbp),%eax
  405516:	48 8b 55 b8          	mov    -0x48(%rbp),%rdx
  40551a:	48 8b 75 b0          	mov    -0x50(%rbp),%rsi
  40551e:	89 c7                	mov    %eax,%edi
  405520:	e8 5b d5 ff ff       	callq  402a80 <_ZSt29_Rb_tree_insert_and_rebalancebPSt18_Rb_tree_node_baseS0_RS_@plt>
  405525:	48 8b 45 c8          	mov    -0x38(%rbp),%rax
  405529:	48 8b 40 28          	mov    0x28(%rax),%rax
  40552d:	48 8d 50 01          	lea    0x1(%rax),%rdx
  405531:	48 8b 45 c8          	mov    -0x38(%rbp),%rax
  405535:	48 89 50 28          	mov    %rdx,0x28(%rax)
  405539:	48 8b 55 b0          	mov    -0x50(%rbp),%rdx
  40553d:	48 8d 45 e0          	lea    -0x20(%rbp),%rax
  405541:	48 89 d6             	mov    %rdx,%rsi
  405544:	48 89 c7             	mov    %rax,%rdi
  405547:	e8 20 00 00 00       	callq  40556c <_ZNSt17_Rb_tree_iteratorISt4pairIKNSt7__cxx1112basic_stringIcSt11char_traitsIcESaIcEEES6_EEC1EPSt18_Rb_tree_node_base>
  40554c:	48 8b 45 e0          	mov    -0x20(%rbp),%rax
  405550:	48 8b 5d e8          	mov    -0x18(%rbp),%rbx
  405554:	64 48 33 1c 25 28 00 	xor    %fs:0x28,%rbx
  40555b:	00 00 
  40555d:	74 05                	je     405564 <_ZNSt8_Rb_treeINSt7__cxx1112basic_stringIcSt11char_traitsIcESaIcEEESt4pairIKS5_S5_ESt10_Select1stIS8_ESt4lessIS5_ESaIS8_EE14_M_insert_nodeEPSt18_Rb_tree_node_baseSG_PSt13_Rb_tree_nodeIS8_E+0xde>
  40555f:	e8 ac d8 ff ff       	callq  402e10 <__stack_chk_fail@plt>
  405564:	48 83 c4 48          	add    $0x48,%rsp
  405568:	5b                   	pop    %rbx
  405569:	5d                   	pop    %rbp
  40556a:	c3                   	retq   
  40556b:	90                   	nop

000000000040556c <_ZNSt17_Rb_tree_iteratorISt4pairIKNSt7__cxx1112basic_stringIcSt11char_traitsIcESaIcEEES6_EEC1EPSt18_Rb_tree_node_base>:
  40556c:	55                   	push   %rbp
  40556d:	48 89 e5             	mov    %rsp,%rbp
  405570:	48 89 7d f8          	mov    %rdi,-0x8(%rbp)
  405574:	48 89 75 f0          	mov    %rsi,-0x10(%rbp)
  405578:	48 8b 45 f8          	mov    -0x8(%rbp),%rax
  40557c:	48 8b 55 f0          	mov    -0x10(%rbp),%rdx
  405580:	48 89 10             	mov    %rdx,(%rax)
  405583:	90                   	nop
  405584:	5d                   	pop    %rbp
  405585:	c3                   	retq   

0000000000405586 <_ZN9__gnu_cxx13new_allocatorISt4pairIKNSt7__cxx1112basic_stringIcSt11char_traitsIcESaIcEEES7_EEC1ERKSA_>:
  405586:	55                   	push   %rbp
  405587:	48 89 e5             	mov    %rsp,%rbp
  40558a:	48 89 7d f8          	mov    %rdi,-0x8(%rbp)
  40558e:	48 89 75 f0          	mov    %rsi,-0x10(%rbp)
  405592:	90                   	nop
  405593:	5d                   	pop    %rbp
  405594:	c3                   	retq   
  405595:	90                   	nop

0000000000405596 <_ZNSaISt13_Rb_tree_nodeISt4pairIKNSt7__cxx1112basic_stringIcSt11char_traitsIcESaIcEEES6_EEEC1IS8_EERKSaIT_E>:
  405596:	55                   	push   %rbp
  405597:	48 89 e5             	mov    %rsp,%rbp
  40559a:	48 83 ec 10          	sub    $0x10,%rsp
  40559e:	48 89 7d f8          	mov    %rdi,-0x8(%rbp)
  4055a2:	48 89 75 f0          	mov    %rsi,-0x10(%rbp)
  4055a6:	48 8b 45 f8          	mov    -0x8(%rbp),%rax
  4055aa:	48 89 c7             	mov    %rax,%rdi
  4055ad:	e8 cc 08 00 00       	callq  405e7e <_ZN9__gnu_cxx13new_allocatorISt13_Rb_tree_nodeISt4pairIKNSt7__cxx1112basic_stringIcSt11char_traitsIcESaIcEEES8_EEEC1Ev>
  4055b2:	90                   	nop
  4055b3:	c9                   	leaveq 
  4055b4:	c3                   	retq   

00000000004055b5 <_ZSt4moveIRSaISt13_Rb_tree_nodeISt4pairIKNSt7__cxx1112basic_stringIcSt11char_traitsIcESaIcEEES7_EEEEONSt16remove_referenceIT_E4typeEOSE_>:
  4055b5:	55                   	push   %rbp
  4055b6:	48 89 e5             	mov    %rsp,%rbp
  4055b9:	48 89 7d f8          	mov    %rdi,-0x8(%rbp)
  4055bd:	48 8b 45 f8          	mov    -0x8(%rbp),%rax
  4055c1:	5d                   	pop    %rbp
  4055c2:	c3                   	retq   
  4055c3:	90                   	nop

00000000004055c4 <_ZNSt8_Rb_treeINSt7__cxx1112basic_stringIcSt11char_traitsIcESaIcEEESt4pairIKS5_S5_ESt10_Select1stIS8_ESt4lessIS5_ESaIS8_EE13_Rb_tree_implISC_Lb1EEC1ERKSC_OSaISt13_Rb_tree_nodeIS8_EE>:
  4055c4:	55                   	push   %rbp
  4055c5:	48 89 e5             	mov    %rsp,%rbp
  4055c8:	48 83 ec 20          	sub    $0x20,%rsp
  4055cc:	48 89 7d f8          	mov    %rdi,-0x8(%rbp)
  4055d0:	48 89 75 f0          	mov    %rsi,-0x10(%rbp)
  4055d4:	48 89 55 e8          	mov    %rdx,-0x18(%rbp)
  4055d8:	48 8b 45 e8          	mov    -0x18(%rbp),%rax
  4055dc:	48 89 c7             	mov    %rax,%rdi
  4055df:	e8 d1 ff ff ff       	callq  4055b5 <_ZSt4moveIRSaISt13_Rb_tree_nodeISt4pairIKNSt7__cxx1112basic_stringIcSt11char_traitsIcESaIcEEES7_EEEEONSt16remove_referenceIT_E4typeEOSE_>
  4055e4:	48 89 c2             	mov    %rax,%rdx
  4055e7:	48 8b 45 f8          	mov    -0x8(%rbp),%rax
  4055eb:	48 89 d6             	mov    %rdx,%rsi
  4055ee:	48 89 c7             	mov    %rax,%rdi
  4055f1:	e8 94 08 00 00       	callq  405e8a <_ZNSaISt13_Rb_tree_nodeISt4pairIKNSt7__cxx1112basic_stringIcSt11char_traitsIcESaIcEEES6_EEEC1ERKSA_>
  4055f6:	48 8b 45 f8          	mov    -0x8(%rbp),%rax
  4055fa:	c7 40 08 00 00 00 00 	movl   $0x0,0x8(%rax)
  405601:	48 8b 45 f8          	mov    -0x8(%rbp),%rax
  405605:	48 c7 40 10 00 00 00 	movq   $0x0,0x10(%rax)
  40560c:	00 
  40560d:	48 8b 45 f8          	mov    -0x8(%rbp),%rax
  405611:	48 c7 40 18 00 00 00 	movq   $0x0,0x18(%rax)
  405618:	00 
  405619:	48 8b 45 f8          	mov    -0x8(%rbp),%rax
  40561d:	48 c7 40 20 00 00 00 	movq   $0x0,0x20(%rax)
  405624:	00 
  405625:	48 8b 45 f8          	mov    -0x8(%rbp),%rax
  405629:	48 c7 40 28 00 00 00 	movq   $0x0,0x28(%rax)
  405630:	00 
  405631:	48 8b 45 f8          	mov    -0x8(%rbp),%rax
  405635:	48 89 c7             	mov    %rax,%rdi
  405638:	e8 eb 01 00 00       	callq  405828 <_ZNSt8_Rb_treeINSt7__cxx1112basic_stringIcSt11char_traitsIcESaIcEEESt4pairIKS5_S5_ESt10_Select1stIS8_ESt4lessIS5_ESaIS8_EE13_Rb_tree_implISC_Lb1EE13_M_initializeEv>
  40563d:	90                   	nop
  40563e:	c9                   	leaveq 
  40563f:	c3                   	retq   

0000000000405640 <_ZNSt8_Rb_treeINSt7__cxx1112basic_stringIcSt11char_traitsIcESaIcEEESt4pairIKS5_S5_ESt10_Select1stIS8_ESt4lessIS5_ESaIS8_EE11_Alloc_nodeC1ERSE_>:
  405640:	55                   	push   %rbp
  405641:	48 89 e5             	mov    %rsp,%rbp
  405644:	48 89 7d f8          	mov    %rdi,-0x8(%rbp)
  405648:	48 89 75 f0          	mov    %rsi,-0x10(%rbp)
  40564c:	48 8b 45 f8          	mov    -0x8(%rbp),%rax
  405650:	48 8b 55 f0          	mov    -0x10(%rbp),%rdx
  405654:	48 89 10             	mov    %rdx,(%rax)
  405657:	90                   	nop
  405658:	5d                   	pop    %rbp
  405659:	c3                   	retq   

000000000040565a <_ZSt7forwardIRKSt4pairIKNSt7__cxx1112basic_stringIcSt11char_traitsIcESaIcEEES6_EEOT_RNSt16remove_referenceISB_E4typeE>:
  40565a:	55                   	push   %rbp
  40565b:	48 89 e5             	mov    %rsp,%rbp
  40565e:	48 89 7d f8          	mov    %rdi,-0x8(%rbp)
  405662:	48 8b 45 f8          	mov    -0x8(%rbp),%rax
  405666:	5d                   	pop    %rbp
  405667:	c3                   	retq   

0000000000405668 <_ZNSt8_Rb_treeINSt7__cxx1112basic_stringIcSt11char_traitsIcESaIcEEESt4pairIKS5_S5_ESt10_Select1stIS8_ESt4lessIS5_ESaIS8_EE17_M_insert_unique_IRKS8_NSE_11_Alloc_nodeEEESt17_Rb_tree_iteratorIS8_ESt23_Rb_tree_const_iteratorIS8_EOT_RT0_>:
  405668:	55                   	push   %rbp
  405669:	48 89 e5             	mov    %rsp,%rbp
  40566c:	48 83 ec 50          	sub    $0x50,%rsp
  405670:	48 89 7d c8          	mov    %rdi,-0x38(%rbp)
  405674:	48 89 75 c0          	mov    %rsi,-0x40(%rbp)
  405678:	48 89 55 b8          	mov    %rdx,-0x48(%rbp)
  40567c:	48 89 4d b0          	mov    %rcx,-0x50(%rbp)
  405680:	64 48 8b 04 25 28 00 	mov    %fs:0x28,%rax
  405687:	00 00 
  405689:	48 89 45 f8          	mov    %rax,-0x8(%rbp)
  40568d:	31 c0                	xor    %eax,%eax
  40568f:	48 8b 55 b8          	mov    -0x48(%rbp),%rdx
  405693:	48 8d 45 d0          	lea    -0x30(%rbp),%rax
  405697:	48 89 d6             	mov    %rdx,%rsi
  40569a:	48 89 c7             	mov    %rax,%rdi
  40569d:	e8 ca 07 00 00       	callq  405e6c <_ZNKSt10_Select1stISt4pairIKNSt7__cxx1112basic_stringIcSt11char_traitsIcESaIcEEES6_EEclERKS8_>
  4056a2:	48 89 c2             	mov    %rax,%rdx
  4056a5:	48 8b 4d c0          	mov    -0x40(%rbp),%rcx
  4056a9:	48 8b 45 c8          	mov    -0x38(%rbp),%rax
  4056ad:	48 89 ce             	mov    %rcx,%rsi
  4056b0:	48 89 c7             	mov    %rax,%rdi
  4056b3:	e8 e2 f9 ff ff       	callq  40509a <_ZNSt8_Rb_treeINSt7__cxx1112basic_stringIcSt11char_traitsIcESaIcEEESt4pairIKS5_S5_ESt10_Select1stIS8_ESt4lessIS5_ESaIS8_EE29_M_get_insert_hint_unique_posESt23_Rb_tree_const_iteratorIS8_ERS7_>
  4056b8:	48 89 45 e0          	mov    %rax,-0x20(%rbp)
  4056bc:	48 89 55 e8          	mov    %rdx,-0x18(%rbp)
  4056c0:	48 8b 45 e8          	mov    -0x18(%rbp),%rax
  4056c4:	48 85 c0             	test   %rax,%rax
  4056c7:	74 2f                	je     4056f8 <_ZNSt8_Rb_treeINSt7__cxx1112basic_stringIcSt11char_traitsIcESaIcEEESt4pairIKS5_S5_ESt10_Select1stIS8_ESt4lessIS5_ESaIS8_EE17_M_insert_unique_IRKS8_NSE_11_Alloc_nodeEEESt17_Rb_tree_iteratorIS8_ESt23_Rb_tree_const_iteratorIS8_EOT_RT0_+0x90>
  4056c9:	48 8b 45 b8          	mov    -0x48(%rbp),%rax
  4056cd:	48 89 c7             	mov    %rax,%rdi
  4056d0:	e8 85 ff ff ff       	callq  40565a <_ZSt7forwardIRKSt4pairIKNSt7__cxx1112basic_stringIcSt11char_traitsIcESaIcEEES6_EEOT_RNSt16remove_referenceISB_E4typeE>
  4056d5:	48 89 c7             	mov    %rax,%rdi
  4056d8:	48 8b 55 e8          	mov    -0x18(%rbp),%rdx
  4056dc:	48 8b 75 e0          	mov    -0x20(%rbp),%rsi
  4056e0:	48 8b 4d b0          	mov    -0x50(%rbp),%rcx
  4056e4:	48 8b 45 c8          	mov    -0x38(%rbp),%rax
  4056e8:	49 89 c8             	mov    %rcx,%r8
  4056eb:	48 89 f9             	mov    %rdi,%rcx
  4056ee:	48 89 c7             	mov    %rax,%rdi
  4056f1:	e8 ba 07 00 00       	callq  405eb0 <_ZNSt8_Rb_treeINSt7__cxx1112basic_stringIcSt11char_traitsIcESaIcEEESt4pairIKS5_S5_ESt10_Select1stIS8_ESt4lessIS5_ESaIS8_EE10_M_insert_IRKS8_NSE_11_Alloc_nodeEEESt17_Rb_tree_iteratorIS8_EPSt18_Rb_tree_node_baseSM_OT_RT0_>
  4056f6:	eb 17                	jmp    40570f <_ZNSt8_Rb_treeINSt7__cxx1112basic_stringIcSt11char_traitsIcESaIcEEESt4pairIKS5_S5_ESt10_Select1stIS8_ESt4lessIS5_ESaIS8_EE17_M_insert_unique_IRKS8_NSE_11_Alloc_nodeEEESt17_Rb_tree_iteratorIS8_ESt23_Rb_tree_const_iteratorIS8_EOT_RT0_+0xa7>
  4056f8:	48 8b 55 e0          	mov    -0x20(%rbp),%rdx
  4056fc:	48 8d 45 d0          	lea    -0x30(%rbp),%rax
  405700:	48 89 d6             	mov    %rdx,%rsi
  405703:	48 89 c7             	mov    %rax,%rdi
  405706:	e8 61 fe ff ff       	callq  40556c <_ZNSt17_Rb_tree_iteratorISt4pairIKNSt7__cxx1112basic_stringIcSt11char_traitsIcESaIcEEES6_EEC1EPSt18_Rb_tree_node_base>
  40570b:	48 8b 45 d0          	mov    -0x30(%rbp),%rax
  40570f:	48 8b 4d f8          	mov    -0x8(%rbp),%rcx
  405713:	64 48 33 0c 25 28 00 	xor    %fs:0x28,%rcx
  40571a:	00 00 
  40571c:	74 05                	je     405723 <_ZNSt8_Rb_treeINSt7__cxx1112basic_stringIcSt11char_traitsIcESaIcEEESt4pairIKS5_S5_ESt10_Select1stIS8_ESt4lessIS5_ESaIS8_EE17_M_insert_unique_IRKS8_NSE_11_Alloc_nodeEEESt17_Rb_tree_iteratorIS8_ESt23_Rb_tree_const_iteratorIS8_EOT_RT0_+0xbb>
  40571e:	e8 ed d6 ff ff       	callq  402e10 <__stack_chk_fail@plt>
  405723:	c9                   	leaveq 
  405724:	c3                   	retq   
  405725:	90                   	nop

0000000000405726 <_ZNSt12_Vector_baseIhSaIhEE12_Vector_implC1ERKS0_>:
  405726:	55                   	push   %rbp
  405727:	48 89 e5             	mov    %rsp,%rbp
  40572a:	48 83 ec 10          	sub    $0x10,%rsp
  40572e:	48 89 7d f8          	mov    %rdi,-0x8(%rbp)
  405732:	48 89 75 f0          	mov    %rsi,-0x10(%rbp)
  405736:	48 8b 55 f0          	mov    -0x10(%rbp),%rdx
  40573a:	48 8b 45 f8          	mov    -0x8(%rbp),%rax
  40573e:	48 89 d6             	mov    %rdx,%rsi
  405741:	48 89 c7             	mov    %rax,%rdi
  405744:	e8 97 08 00 00       	callq  405fe0 <_ZNSaIhEC1ERKS_>
  405749:	48 8b 45 f8          	mov    -0x8(%rbp),%rax
  40574d:	48 c7 00 00 00 00 00 	movq   $0x0,(%rax)
  405754:	48 8b 45 f8          	mov    -0x8(%rbp),%rax
  405758:	48 c7 40 08 00 00 00 	movq   $0x0,0x8(%rax)
  40575f:	00 
  405760:	48 8b 45 f8          	mov    -0x8(%rbp),%rax
  405764:	48 c7 40 10 00 00 00 	movq   $0x0,0x10(%rax)
  40576b:	00 
  40576c:	90                   	nop
  40576d:	c9                   	leaveq 
  40576e:	c3                   	retq   
  40576f:	90                   	nop

0000000000405770 <_ZNSt6vectorIhSaIhEE19_M_range_initializeISt19istreambuf_iteratorIcSt11char_traitsIcEEEEvT_S7_St18input_iterator_tag>:
  405770:	55                   	push   %rbp
  405771:	48 89 e5             	mov    %rsp,%rbp
  405774:	48 83 ec 40          	sub    $0x40,%rsp
  405778:	48 89 7d e8          	mov    %rdi,-0x18(%rbp)
  40577c:	48 89 f0             	mov    %rsi,%rax
  40577f:	48 89 d6             	mov    %rdx,%rsi
  405782:	48 89 f2             	mov    %rsi,%rdx
  405785:	48 89 45 d0          	mov    %rax,-0x30(%rbp)
  405789:	48 89 55 d8          	mov    %rdx,-0x28(%rbp)
  40578d:	48 89 c8             	mov    %rcx,%rax
  405790:	4c 89 c1             	mov    %r8,%rcx
  405793:	48 89 ca             	mov    %rcx,%rdx
  405796:	48 89 45 c0          	mov    %rax,-0x40(%rbp)
  40579a:	48 89 55 c8          	mov    %rdx,-0x38(%rbp)
  40579e:	64 48 8b 04 25 28 00 	mov    %fs:0x28,%rax
  4057a5:	00 00 
  4057a7:	48 89 45 f8          	mov    %rax,-0x8(%rbp)
  4057ab:	31 c0                	xor    %eax,%eax
  4057ad:	48 8d 55 c0          	lea    -0x40(%rbp),%rdx
  4057b1:	48 8d 45 d0          	lea    -0x30(%rbp),%rax
  4057b5:	48 89 d6             	mov    %rdx,%rsi
  4057b8:	48 89 c7             	mov    %rax,%rdi
  4057bb:	e8 46 08 00 00       	callq  406006 <_ZStneIcSt11char_traitsIcEEbRKSt19istreambuf_iteratorIT_T0_ES7_>
  4057c0:	84 c0                	test   %al,%al
  4057c2:	74 30                	je     4057f4 <_ZNSt6vectorIhSaIhEE19_M_range_initializeISt19istreambuf_iteratorIcSt11char_traitsIcEEEEvT_S7_St18input_iterator_tag+0x84>
  4057c4:	48 8d 45 d0          	lea    -0x30(%rbp),%rax
  4057c8:	48 89 c7             	mov    %rax,%rdi
  4057cb:	e8 9a 08 00 00       	callq  40606a <_ZNKSt19istreambuf_iteratorIcSt11char_traitsIcEEdeEv>
  4057d0:	88 45 f7             	mov    %al,-0x9(%rbp)
  4057d3:	48 8d 55 f7          	lea    -0x9(%rbp),%rdx
  4057d7:	48 8b 45 e8          	mov    -0x18(%rbp),%rax
  4057db:	48 89 d6             	mov    %rdx,%rsi
  4057de:	48 89 c7             	mov    %rax,%rdi
  4057e1:	e8 de 08 00 00       	callq  4060c4 <_ZNSt6vectorIhSaIhEE12emplace_backIIcEEEvDpOT_>
  4057e6:	48 8d 45 d0          	lea    -0x30(%rbp),%rax
  4057ea:	48 89 c7             	mov    %rax,%rdi
  4057ed:	e8 3c 08 00 00       	callq  40602e <_ZNSt19istreambuf_iteratorIcSt11char_traitsIcEEppEv>
  4057f2:	eb b9                	jmp    4057ad <_ZNSt6vectorIhSaIhEE19_M_range_initializeISt19istreambuf_iteratorIcSt11char_traitsIcEEEEvT_S7_St18input_iterator_tag+0x3d>
  4057f4:	90                   	nop
  4057f5:	48 8b 45 f8          	mov    -0x8(%rbp),%rax
  4057f9:	64 48 33 04 25 28 00 	xor    %fs:0x28,%rax
  405800:	00 00 
  405802:	74 05                	je     405809 <_ZNSt6vectorIhSaIhEE19_M_range_initializeISt19istreambuf_iteratorIcSt11char_traitsIcEEEEvT_S7_St18input_iterator_tag+0x99>
  405804:	e8 07 d6 ff ff       	callq  402e10 <__stack_chk_fail@plt>
  405809:	c9                   	leaveq 
  40580a:	c3                   	retq   
  40580b:	90                   	nop

000000000040580c <_ZNSaISt13_Rb_tree_nodeISt4pairIKNSt7__cxx1112basic_stringIcSt11char_traitsIcESaIcEEES6_EEEC1Ev>:
  40580c:	55                   	push   %rbp
  40580d:	48 89 e5             	mov    %rsp,%rbp
  405810:	48 83 ec 10          	sub    $0x10,%rsp
  405814:	48 89 7d f8          	mov    %rdi,-0x8(%rbp)
  405818:	48 8b 45 f8          	mov    -0x8(%rbp),%rax
  40581c:	48 89 c7             	mov    %rax,%rdi
  40581f:	e8 5a 06 00 00       	callq  405e7e <_ZN9__gnu_cxx13new_allocatorISt13_Rb_tree_nodeISt4pairIKNSt7__cxx1112basic_stringIcSt11char_traitsIcESaIcEEES8_EEEC1Ev>
  405824:	90                   	nop
  405825:	c9                   	leaveq 
  405826:	c3                   	retq   
  405827:	90                   	nop

0000000000405828 <_ZNSt8_Rb_treeINSt7__cxx1112basic_stringIcSt11char_traitsIcESaIcEEESt4pairIKS5_S5_ESt10_Select1stIS8_ESt4lessIS5_ESaIS8_EE13_Rb_tree_implISC_Lb1EE13_M_initializeEv>:
  405828:	55                   	push   %rbp
  405829:	48 89 e5             	mov    %rsp,%rbp
  40582c:	48 89 7d f8          	mov    %rdi,-0x8(%rbp)
  405830:	48 8b 45 f8          	mov    -0x8(%rbp),%rax
  405834:	c7 40 08 00 00 00 00 	movl   $0x0,0x8(%rax)
  40583b:	48 8b 45 f8          	mov    -0x8(%rbp),%rax
  40583f:	48 c7 40 10 00 00 00 	movq   $0x0,0x10(%rax)
  405846:	00 
  405847:	48 8b 45 f8          	mov    -0x8(%rbp),%rax
  40584b:	48 8d 50 08          	lea    0x8(%rax),%rdx
  40584f:	48 8b 45 f8          	mov    -0x8(%rbp),%rax
  405853:	48 89 50 18          	mov    %rdx,0x18(%rax)
  405857:	48 8b 45 f8          	mov    -0x8(%rbp),%rax
  40585b:	48 8d 50 08          	lea    0x8(%rax),%rdx
  40585f:	48 8b 45 f8          	mov    -0x8(%rbp),%rax
  405863:	48 89 50 20          	mov    %rdx,0x20(%rax)
  405867:	90                   	nop
  405868:	5d                   	pop    %rbp
  405869:	c3                   	retq   

000000000040586a <_ZNSt8_Rb_treeINSt7__cxx1112basic_stringIcSt11char_traitsIcESaIcEEESt4pairIKS5_S5_ESt10_Select1stIS8_ESt4lessIS5_ESaIS8_EE15_M_destroy_nodeEPSt13_Rb_tree_nodeIS8_E>:
  40586a:	55                   	push   %rbp
  40586b:	48 89 e5             	mov    %rsp,%rbp
  40586e:	53                   	push   %rbx
  40586f:	48 83 ec 18          	sub    $0x18,%rsp
  405873:	48 89 7d e8          	mov    %rdi,-0x18(%rbp)
  405877:	48 89 75 e0          	mov    %rsi,-0x20(%rbp)
  40587b:	48 8b 45 e0          	mov    -0x20(%rbp),%rax
  40587f:	48 89 c7             	mov    %rax,%rdi
  405882:	e8 af f6 ff ff       	callq  404f36 <_ZNSt13_Rb_tree_nodeISt4pairIKNSt7__cxx1112basic_stringIcSt11char_traitsIcESaIcEEES6_EE9_M_valptrEv>
  405887:	48 89 c3             	mov    %rax,%rbx
  40588a:	48 8b 45 e8          	mov    -0x18(%rbp),%rax
  40588e:	48 89 c7             	mov    %rax,%rdi
  405891:	e8 b0 08 00 00       	callq  406146 <_ZNSt8_Rb_treeINSt7__cxx1112basic_stringIcSt11char_traitsIcESaIcEEESt4pairIKS5_S5_ESt10_Select1stIS8_ESt4lessIS5_ESaIS8_EE21_M_get_Node_allocatorEv>
  405896:	48 89 de             	mov    %rbx,%rsi
  405899:	48 89 c7             	mov    %rax,%rdi
  40589c:	e8 b3 08 00 00       	callq  406154 <_ZNSt16allocator_traitsISaISt13_Rb_tree_nodeISt4pairIKNSt7__cxx1112basic_stringIcSt11char_traitsIcESaIcEEES7_EEEE7destroyIS9_EEvRSB_PT_>
  4058a1:	90                   	nop
  4058a2:	48 83 c4 18          	add    $0x18,%rsp
  4058a6:	5b                   	pop    %rbx
  4058a7:	5d                   	pop    %rbp
  4058a8:	c3                   	retq   
  4058a9:	90                   	nop

00000000004058aa <_ZNSt8_Rb_treeINSt7__cxx1112basic_stringIcSt11char_traitsIcESaIcEEESt4pairIKS5_S5_ESt10_Select1stIS8_ESt4lessIS5_ESaIS8_EE11_M_put_nodeEPSt13_Rb_tree_nodeIS8_E>:
  4058aa:	55                   	push   %rbp
  4058ab:	48 89 e5             	mov    %rsp,%rbp
  4058ae:	48 83 ec 10          	sub    $0x10,%rsp
  4058b2:	48 89 7d f8          	mov    %rdi,-0x8(%rbp)
  4058b6:	48 89 75 f0          	mov    %rsi,-0x10(%rbp)
  4058ba:	48 8b 45 f8          	mov    -0x8(%rbp),%rax
  4058be:	48 89 c7             	mov    %rax,%rdi
  4058c1:	e8 80 08 00 00       	callq  406146 <_ZNSt8_Rb_treeINSt7__cxx1112basic_stringIcSt11char_traitsIcESaIcEEESt4pairIKS5_S5_ESt10_Select1stIS8_ESt4lessIS5_ESaIS8_EE21_M_get_Node_allocatorEv>
  4058c6:	48 89 c1             	mov    %rax,%rcx
  4058c9:	48 8b 45 f0          	mov    -0x10(%rbp),%rax
  4058cd:	ba 01 00 00 00       	mov    $0x1,%edx
  4058d2:	48 89 c6             	mov    %rax,%rsi
  4058d5:	48 89 cf             	mov    %rcx,%rdi
  4058d8:	e8 9d 08 00 00       	callq  40617a <_ZNSt16allocator_traitsISaISt13_Rb_tree_nodeISt4pairIKNSt7__cxx1112basic_stringIcSt11char_traitsIcESaIcEEES7_EEEE10deallocateERSB_PSA_m>
  4058dd:	90                   	nop
  4058de:	c9                   	leaveq 
  4058df:	c3                   	retq   

00000000004058e0 <_ZNSt16allocator_traitsISaIhEE10deallocateERS0_Phm>:
  4058e0:	55                   	push   %rbp
  4058e1:	48 89 e5             	mov    %rsp,%rbp
  4058e4:	48 83 ec 20          	sub    $0x20,%rsp
  4058e8:	48 89 7d f8          	mov    %rdi,-0x8(%rbp)
  4058ec:	48 89 75 f0          	mov    %rsi,-0x10(%rbp)
  4058f0:	48 89 55 e8          	mov    %rdx,-0x18(%rbp)
  4058f4:	48 8b 55 e8          	mov    -0x18(%rbp),%rdx
  4058f8:	48 8b 4d f0          	mov    -0x10(%rbp),%rcx
  4058fc:	48 8b 45 f8          	mov    -0x8(%rbp),%rax
  405900:	48 89 ce             	mov    %rcx,%rsi
  405903:	48 89 c7             	mov    %rax,%rdi
  405906:	e8 9d 08 00 00       	callq  4061a8 <_ZN9__gnu_cxx13new_allocatorIhE10deallocateEPhm>
  40590b:	90                   	nop
  40590c:	c9                   	leaveq 
  40590d:	c3                   	retq   

000000000040590e <_ZNSt12_Destroy_auxILb1EE9__destroyIPhEEvT_S3_>:
  40590e:	55                   	push   %rbp
  40590f:	48 89 e5             	mov    %rsp,%rbp
  405912:	48 89 7d f8          	mov    %rdi,-0x8(%rbp)
  405916:	48 89 75 f0          	mov    %rsi,-0x10(%rbp)
  40591a:	90                   	nop
  40591b:	5d                   	pop    %rbp
  40591c:	c3                   	retq   
  40591d:	90                   	nop

000000000040591e <_ZNSt8_Rb_treeINSt7__cxx1112basic_stringIcSt11char_traitsIcESaIcEEESt4pairIKS5_S5_ESt10_Select1stIS8_ESt4lessIS5_ESaIS8_EE6_M_endEv>:
  40591e:	55                   	push   %rbp
  40591f:	48 89 e5             	mov    %rsp,%rbp
  405922:	48 89 7d f8          	mov    %rdi,-0x8(%rbp)
  405926:	48 8b 45 f8          	mov    -0x8(%rbp),%rax
  40592a:	48 83 c0 08          	add    $0x8,%rax
  40592e:	5d                   	pop    %rbp
  40592f:	c3                   	retq   

0000000000405930 <_ZNSt8_Rb_treeINSt7__cxx1112basic_stringIcSt11char_traitsIcESaIcEEESt4pairIKS5_S5_ESt10_Select1stIS8_ESt4lessIS5_ESaIS8_EE14_M_lower_boundEPSt13_Rb_tree_nodeIS8_ESH_RS7_>:
  405930:	55                   	push   %rbp
  405931:	48 89 e5             	mov    %rsp,%rbp
  405934:	48 83 ec 30          	sub    $0x30,%rsp
  405938:	48 89 7d e8          	mov    %rdi,-0x18(%rbp)
  40593c:	48 89 75 e0          	mov    %rsi,-0x20(%rbp)
  405940:	48 89 55 d8          	mov    %rdx,-0x28(%rbp)
  405944:	48 89 4d d0          	mov    %rcx,-0x30(%rbp)
  405948:	64 48 8b 04 25 28 00 	mov    %fs:0x28,%rax
  40594f:	00 00 
  405951:	48 89 45 f8          	mov    %rax,-0x8(%rbp)
  405955:	31 c0                	xor    %eax,%eax
  405957:	48 83 7d e0 00       	cmpq   $0x0,-0x20(%rbp)
  40595c:	74 55                	je     4059b3 <_ZNSt8_Rb_treeINSt7__cxx1112basic_stringIcSt11char_traitsIcESaIcEEESt4pairIKS5_S5_ESt10_Select1stIS8_ESt4lessIS5_ESaIS8_EE14_M_lower_boundEPSt13_Rb_tree_nodeIS8_ESH_RS7_+0x83>
  40595e:	48 8b 45 e0          	mov    -0x20(%rbp),%rax
  405962:	48 89 c7             	mov    %rax,%rdi
  405965:	e8 cc fa ff ff       	callq  405436 <_ZNSt8_Rb_treeINSt7__cxx1112basic_stringIcSt11char_traitsIcESaIcEEESt4pairIKS5_S5_ESt10_Select1stIS8_ESt4lessIS5_ESaIS8_EE6_S_keyEPKSt13_Rb_tree_nodeIS8_E>
  40596a:	48 89 c1             	mov    %rax,%rcx
  40596d:	48 8b 45 e8          	mov    -0x18(%rbp),%rax
  405971:	48 8b 55 d0          	mov    -0x30(%rbp),%rdx
  405975:	48 89 ce             	mov    %rcx,%rsi
  405978:	48 89 c7             	mov    %rax,%rdi
  40597b:	e8 a6 e7 ff ff       	callq  404126 <_ZNKSt4lessINSt7__cxx1112basic_stringIcSt11char_traitsIcESaIcEEEEclERKS5_S8_>
  405980:	83 f0 01             	xor    $0x1,%eax
  405983:	84 c0                	test   %al,%al
  405985:	74 1a                	je     4059a1 <_ZNSt8_Rb_treeINSt7__cxx1112basic_stringIcSt11char_traitsIcESaIcEEESt4pairIKS5_S5_ESt10_Select1stIS8_ESt4lessIS5_ESaIS8_EE14_M_lower_boundEPSt13_Rb_tree_nodeIS8_ESH_RS7_+0x71>
  405987:	48 8b 45 e0          	mov    -0x20(%rbp),%rax
  40598b:	48 89 45 d8          	mov    %rax,-0x28(%rbp)
  40598f:	48 8b 45 e0          	mov    -0x20(%rbp),%rax
  405993:	48 89 c7             	mov    %rax,%rdi
  405996:	e8 12 f4 ff ff       	callq  404dad <_ZNSt8_Rb_treeINSt7__cxx1112basic_stringIcSt11char_traitsIcESaIcEEESt4pairIKS5_S5_ESt10_Select1stIS8_ESt4lessIS5_ESaIS8_EE7_S_leftEPSt18_Rb_tree_node_base>
  40599b:	48 89 45 e0          	mov    %rax,-0x20(%rbp)
  40599f:	eb b6                	jmp    405957 <_ZNSt8_Rb_treeINSt7__cxx1112basic_stringIcSt11char_traitsIcESaIcEEESt4pairIKS5_S5_ESt10_Select1stIS8_ESt4lessIS5_ESaIS8_EE14_M_lower_boundEPSt13_Rb_tree_nodeIS8_ESH_RS7_+0x27>
  4059a1:	48 8b 45 e0          	mov    -0x20(%rbp),%rax
  4059a5:	48 89 c7             	mov    %rax,%rdi
  4059a8:	e8 ee f3 ff ff       	callq  404d9b <_ZNSt8_Rb_treeINSt7__cxx1112basic_stringIcSt11char_traitsIcESaIcEEESt4pairIKS5_S5_ESt10_Select1stIS8_ESt4lessIS5_ESaIS8_EE8_S_rightEPSt18_Rb_tree_node_base>
  4059ad:	48 89 45 e0          	mov    %rax,-0x20(%rbp)
  4059b1:	eb a4                	jmp    405957 <_ZNSt8_Rb_treeINSt7__cxx1112basic_stringIcSt11char_traitsIcESaIcEEESt4pairIKS5_S5_ESt10_Select1stIS8_ESt4lessIS5_ESaIS8_EE14_M_lower_boundEPSt13_Rb_tree_nodeIS8_ESH_RS7_+0x27>
  4059b3:	48 8b 55 d8          	mov    -0x28(%rbp),%rdx
  4059b7:	48 8d 45 f0          	lea    -0x10(%rbp),%rax
  4059bb:	48 89 d6             	mov    %rdx,%rsi
  4059be:	48 89 c7             	mov    %rax,%rdi
  4059c1:	e8 a6 fb ff ff       	callq  40556c <_ZNSt17_Rb_tree_iteratorISt4pairIKNSt7__cxx1112basic_stringIcSt11char_traitsIcESaIcEEES6_EEC1EPSt18_Rb_tree_node_base>
  4059c6:	48 8b 45 f0          	mov    -0x10(%rbp),%rax
  4059ca:	48 8b 4d f8          	mov    -0x8(%rbp),%rcx
  4059ce:	64 48 33 0c 25 28 00 	xor    %fs:0x28,%rcx
  4059d5:	00 00 
  4059d7:	74 05                	je     4059de <_ZNSt8_Rb_treeINSt7__cxx1112basic_stringIcSt11char_traitsIcESaIcEEESt4pairIKS5_S5_ESt10_Select1stIS8_ESt4lessIS5_ESaIS8_EE14_M_lower_boundEPSt13_Rb_tree_nodeIS8_ESH_RS7_+0xae>
  4059d9:	e8 32 d4 ff ff       	callq  402e10 <__stack_chk_fail@plt>
  4059de:	c9                   	leaveq 
  4059df:	c3                   	retq   

00000000004059e0 <_ZN9__gnu_cxx16__aligned_membufISt4pairIKNSt7__cxx1112basic_stringIcSt11char_traitsIcESaIcEEES7_EE6_M_ptrEv>:
  4059e0:	55                   	push   %rbp
  4059e1:	48 89 e5             	mov    %rsp,%rbp
  4059e4:	48 83 ec 10          	sub    $0x10,%rsp
  4059e8:	48 89 7d f8          	mov    %rdi,-0x8(%rbp)
  4059ec:	48 8b 45 f8          	mov    -0x8(%rbp),%rax
  4059f0:	48 89 c7             	mov    %rax,%rdi
  4059f3:	e8 d4 07 00 00       	callq  4061cc <_ZN9__gnu_cxx16__aligned_membufISt4pairIKNSt7__cxx1112basic_stringIcSt11char_traitsIcESaIcEEES7_EE7_M_addrEv>
  4059f8:	c9                   	leaveq 
  4059f9:	c3                   	retq   

00000000004059fa <_ZNSt8_Rb_treeINSt7__cxx1112basic_stringIcSt11char_traitsIcESaIcEEESt4pairIKS5_S5_ESt10_Select1stIS8_ESt4lessIS5_ESaIS8_EE11_M_get_nodeEv>:
  4059fa:	55                   	push   %rbp
  4059fb:	48 89 e5             	mov    %rsp,%rbp
  4059fe:	48 83 ec 10          	sub    $0x10,%rsp
  405a02:	48 89 7d f8          	mov    %rdi,-0x8(%rbp)
  405a06:	48 8b 45 f8          	mov    -0x8(%rbp),%rax
  405a0a:	48 89 c7             	mov    %rax,%rdi
  405a0d:	e8 34 07 00 00       	callq  406146 <_ZNSt8_Rb_treeINSt7__cxx1112basic_stringIcSt11char_traitsIcESaIcEEESt4pairIKS5_S5_ESt10_Select1stIS8_ESt4lessIS5_ESaIS8_EE21_M_get_Node_allocatorEv>
  405a12:	be 01 00 00 00       	mov    $0x1,%esi
  405a17:	48 89 c7             	mov    %rax,%rdi
  405a1a:	e8 bb 07 00 00       	callq  4061da <_ZNSt16allocator_traitsISaISt13_Rb_tree_nodeISt4pairIKNSt7__cxx1112basic_stringIcSt11char_traitsIcESaIcEEES7_EEEE8allocateERSB_m>
  405a1f:	c9                   	leaveq 
  405a20:	c3                   	retq   
  405a21:	90                   	nop

0000000000405a22 <_ZNSt18_Rb_tree_node_baseC1Ev>:
  405a22:	55                   	push   %rbp
  405a23:	48 89 e5             	mov    %rsp,%rbp
  405a26:	48 89 7d f8          	mov    %rdi,-0x8(%rbp)
  405a2a:	90                   	nop
  405a2b:	5d                   	pop    %rbp
  405a2c:	c3                   	retq   
  405a2d:	90                   	nop

0000000000405a2e <_ZN9__gnu_cxx16__aligned_membufISt4pairIKNSt7__cxx1112basic_stringIcSt11char_traitsIcESaIcEEES7_EEC1Ev>:
  405a2e:	55                   	push   %rbp
  405a2f:	48 89 e5             	mov    %rsp,%rbp
  405a32:	48 89 7d f8          	mov    %rdi,-0x8(%rbp)
  405a36:	90                   	nop
  405a37:	5d                   	pop    %rbp
  405a38:	c3                   	retq   
  405a39:	90                   	nop

0000000000405a3a <_ZNSt13_Rb_tree_nodeISt4pairIKNSt7__cxx1112basic_stringIcSt11char_traitsIcESaIcEEES6_EEC1Ev>:
  405a3a:	55                   	push   %rbp
  405a3b:	48 89 e5             	mov    %rsp,%rbp
  405a3e:	48 83 ec 10          	sub    $0x10,%rsp
  405a42:	48 89 7d f8          	mov    %rdi,-0x8(%rbp)
  405a46:	48 8b 45 f8          	mov    -0x8(%rbp),%rax
  405a4a:	48 89 c7             	mov    %rax,%rdi
  405a4d:	e8 d0 ff ff ff       	callq  405a22 <_ZNSt18_Rb_tree_node_baseC1Ev>
  405a52:	48 8b 45 f8          	mov    -0x8(%rbp),%rax
  405a56:	48 83 c0 20          	add    $0x20,%rax
  405a5a:	48 89 c7             	mov    %rax,%rdi
  405a5d:	e8 cc ff ff ff       	callq  405a2e <_ZN9__gnu_cxx16__aligned_membufISt4pairIKNSt7__cxx1112basic_stringIcSt11char_traitsIcESaIcEEES7_EEC1Ev>
  405a62:	90                   	nop
  405a63:	c9                   	leaveq 
  405a64:	c3                   	retq   
  405a65:	90                   	nop

0000000000405a66 <_ZNSt8_Rb_treeINSt7__cxx1112basic_stringIcSt11char_traitsIcESaIcEEESt4pairIKS5_S5_ESt10_Select1stIS8_ESt4lessIS5_ESaIS8_EE17_M_construct_nodeIIRKSt21piecewise_construct_tSt5tupleIIOS5_EESJ_IIEEEEEvPSt13_Rb_tree_nodeIS8_EDpOT_>:
  405a66:	55                   	push   %rbp
  405a67:	48 89 e5             	mov    %rsp,%rbp
  405a6a:	41 56                	push   %r14
  405a6c:	41 55                	push   %r13
  405a6e:	41 54                	push   %r12
  405a70:	53                   	push   %rbx
  405a71:	48 83 ec 30          	sub    $0x30,%rsp
  405a75:	48 89 7d d8          	mov    %rdi,-0x28(%rbp)
  405a79:	48 89 75 d0          	mov    %rsi,-0x30(%rbp)
  405a7d:	48 89 55 c8          	mov    %rdx,-0x38(%rbp)
  405a81:	48 89 4d c0          	mov    %rcx,-0x40(%rbp)
  405a85:	4c 89 45 b8          	mov    %r8,-0x48(%rbp)
  405a89:	48 8b 45 d0          	mov    -0x30(%rbp),%rax
  405a8d:	48 89 c6             	mov    %rax,%rsi
  405a90:	bf 60 00 00 00       	mov    $0x60,%edi
  405a95:	e8 cf e1 ff ff       	callq  403c69 <_ZnwmPv>
  405a9a:	48 85 c0             	test   %rax,%rax
  405a9d:	74 08                	je     405aa7 <_ZNSt8_Rb_treeINSt7__cxx1112basic_stringIcSt11char_traitsIcESaIcEEESt4pairIKS5_S5_ESt10_Select1stIS8_ESt4lessIS5_ESaIS8_EE17_M_construct_nodeIIRKSt21piecewise_construct_tSt5tupleIIOS5_EESJ_IIEEEEEvPSt13_Rb_tree_nodeIS8_EDpOT_+0x41>
  405a9f:	48 89 c7             	mov    %rax,%rdi
  405aa2:	e8 93 ff ff ff       	callq  405a3a <_ZNSt13_Rb_tree_nodeISt4pairIKNSt7__cxx1112basic_stringIcSt11char_traitsIcESaIcEEES6_EEC1Ev>
  405aa7:	48 8b 45 b8          	mov    -0x48(%rbp),%rax
  405aab:	48 89 c7             	mov    %rax,%rdi
  405aae:	e8 fa ee ff ff       	callq  4049ad <_ZSt7forwardISt5tupleIIEEEOT_RNSt16remove_referenceIS2_E4typeE>
  405ab3:	49 89 c6             	mov    %rax,%r14
  405ab6:	48 8b 45 c0          	mov    -0x40(%rbp),%rax
  405aba:	48 89 c7             	mov    %rax,%rdi
  405abd:	e8 dd ee ff ff       	callq  40499f <_ZSt7forwardISt5tupleIIONSt7__cxx1112basic_stringIcSt11char_traitsIcESaIcEEEEEEOT_RNSt16remove_referenceIS9_E4typeE>
  405ac2:	49 89 c5             	mov    %rax,%r13
  405ac5:	48 8b 45 c8          	mov    -0x38(%rbp),%rax
  405ac9:	48 89 c7             	mov    %rax,%rdi
  405acc:	e8 c0 ee ff ff       	callq  404991 <_ZSt7forwardIRKSt21piecewise_construct_tEOT_RNSt16remove_referenceIS3_E4typeE>
  405ad1:	49 89 c4             	mov    %rax,%r12
  405ad4:	48 8b 45 d0          	mov    -0x30(%rbp),%rax
  405ad8:	48 89 c7             	mov    %rax,%rdi
  405adb:	e8 56 f4 ff ff       	callq  404f36 <_ZNSt13_Rb_tree_nodeISt4pairIKNSt7__cxx1112basic_stringIcSt11char_traitsIcESaIcEEES6_EE9_M_valptrEv>
  405ae0:	48 89 c3             	mov    %rax,%rbx
  405ae3:	48 8b 45 d8          	mov    -0x28(%rbp),%rax
  405ae7:	48 89 c7             	mov    %rax,%rdi
  405aea:	e8 57 06 00 00       	callq  406146 <_ZNSt8_Rb_treeINSt7__cxx1112basic_stringIcSt11char_traitsIcESaIcEEESt4pairIKS5_S5_ESt10_Select1stIS8_ESt4lessIS5_ESaIS8_EE21_M_get_Node_allocatorEv>
  405aef:	4d 89 f0             	mov    %r14,%r8
  405af2:	4c 89 e9             	mov    %r13,%rcx
  405af5:	4c 89 e2             	mov    %r12,%rdx
  405af8:	48 89 de             	mov    %rbx,%rsi
  405afb:	48 89 c7             	mov    %rax,%rdi
  405afe:	e8 01 07 00 00       	callq  406204 <_ZNSt16allocator_traitsISaISt13_Rb_tree_nodeISt4pairIKNSt7__cxx1112basic_stringIcSt11char_traitsIcESaIcEEES7_EEEE9constructIS9_IRKSt21piecewise_construct_tSt5tupleIIOS7_EESH_IIEEEEEvRSB_PT_DpOT0_>
  405b03:	eb 33                	jmp    405b38 <_ZNSt8_Rb_treeINSt7__cxx1112basic_stringIcSt11char_traitsIcESaIcEEESt4pairIKS5_S5_ESt10_Select1stIS8_ESt4lessIS5_ESaIS8_EE17_M_construct_nodeIIRKSt21piecewise_construct_tSt5tupleIIOS5_EESJ_IIEEEEEvPSt13_Rb_tree_nodeIS8_EDpOT_+0xd2>
  405b05:	48 89 c7             	mov    %rax,%rdi
  405b08:	e8 63 d0 ff ff       	callq  402b70 <__cxa_begin_catch@plt>
  405b0d:	48 8b 55 d0          	mov    -0x30(%rbp),%rdx
  405b11:	48 8b 45 d8          	mov    -0x28(%rbp),%rax
  405b15:	48 89 d6             	mov    %rdx,%rsi
  405b18:	48 89 c7             	mov    %rax,%rdi
  405b1b:	e8 8a fd ff ff       	callq  4058aa <_ZNSt8_Rb_treeINSt7__cxx1112basic_stringIcSt11char_traitsIcESaIcEEESt4pairIKS5_S5_ESt10_Select1stIS8_ESt4lessIS5_ESaIS8_EE11_M_put_nodeEPSt13_Rb_tree_nodeIS8_E>
  405b20:	e8 8b d3 ff ff       	callq  402eb0 <__cxa_rethrow@plt>
  405b25:	48 89 c3             	mov    %rax,%rbx
  405b28:	e8 03 d4 ff ff       	callq  402f30 <__cxa_end_catch@plt>
  405b2d:	48 89 d8             	mov    %rbx,%rax
  405b30:	48 89 c7             	mov    %rax,%rdi
  405b33:	e8 88 d4 ff ff       	callq  402fc0 <_Unwind_Resume@plt>
  405b38:	48 83 c4 30          	add    $0x30,%rsp
  405b3c:	5b                   	pop    %rbx
  405b3d:	41 5c                	pop    %r12
  405b3f:	41 5d                	pop    %r13
  405b41:	41 5e                	pop    %r14
  405b43:	5d                   	pop    %rbp
  405b44:	c3                   	retq   
  405b45:	90                   	nop

0000000000405b46 <_ZNKSt23_Rb_tree_const_iteratorISt4pairIKNSt7__cxx1112basic_stringIcSt11char_traitsIcESaIcEEES6_EE13_M_const_castEv>:
  405b46:	55                   	push   %rbp
  405b47:	48 89 e5             	mov    %rsp,%rbp
  405b4a:	48 83 ec 20          	sub    $0x20,%rsp
  405b4e:	48 89 7d e8          	mov    %rdi,-0x18(%rbp)
  405b52:	64 48 8b 04 25 28 00 	mov    %fs:0x28,%rax
  405b59:	00 00 
  405b5b:	48 89 45 f8          	mov    %rax,-0x8(%rbp)
  405b5f:	31 c0                	xor    %eax,%eax
  405b61:	48 8b 45 e8          	mov    -0x18(%rbp),%rax
  405b65:	48 8b 10             	mov    (%rax),%rdx
  405b68:	48 8d 45 f0          	lea    -0x10(%rbp),%rax
  405b6c:	48 89 d6             	mov    %rdx,%rsi
  405b6f:	48 89 c7             	mov    %rax,%rdi
  405b72:	e8 f5 f9 ff ff       	callq  40556c <_ZNSt17_Rb_tree_iteratorISt4pairIKNSt7__cxx1112basic_stringIcSt11char_traitsIcESaIcEEES6_EEC1EPSt18_Rb_tree_node_base>
  405b77:	48 8b 45 f0          	mov    -0x10(%rbp),%rax
  405b7b:	48 8b 4d f8          	mov    -0x8(%rbp),%rcx
  405b7f:	64 48 33 0c 25 28 00 	xor    %fs:0x28,%rcx
  405b86:	00 00 
  405b88:	74 05                	je     405b8f <_ZNKSt23_Rb_tree_const_iteratorISt4pairIKNSt7__cxx1112basic_stringIcSt11char_traitsIcESaIcEEES6_EE13_M_const_castEv+0x49>
  405b8a:	e8 81 d2 ff ff       	callq  402e10 <__stack_chk_fail@plt>
  405b8f:	c9                   	leaveq 
  405b90:	c3                   	retq   
  405b91:	90                   	nop

0000000000405b92 <_ZNKSt8_Rb_treeINSt7__cxx1112basic_stringIcSt11char_traitsIcESaIcEEESt4pairIKS5_S5_ESt10_Select1stIS8_ESt4lessIS5_ESaIS8_EE4sizeEv>:
  405b92:	55                   	push   %rbp
  405b93:	48 89 e5             	mov    %rsp,%rbp
  405b96:	48 89 7d f8          	mov    %rdi,-0x8(%rbp)
  405b9a:	48 8b 45 f8          	mov    -0x8(%rbp),%rax
  405b9e:	48 8b 40 28          	mov    0x28(%rax),%rax
  405ba2:	5d                   	pop    %rbp
  405ba3:	c3                   	retq   

0000000000405ba4 <_ZNSt8_Rb_treeINSt7__cxx1112basic_stringIcSt11char_traitsIcESaIcEEESt4pairIKS5_S5_ESt10_Select1stIS8_ESt4lessIS5_ESaIS8_EE12_M_rightmostEv>:
  405ba4:	55                   	push   %rbp
  405ba5:	48 89 e5             	mov    %rsp,%rbp
  405ba8:	48 89 7d f8          	mov    %rdi,-0x8(%rbp)
  405bac:	48 8b 45 f8          	mov    -0x8(%rbp),%rax
  405bb0:	48 83 c0 20          	add    $0x20,%rax
  405bb4:	5d                   	pop    %rbp
  405bb5:	c3                   	retq   

0000000000405bb6 <_ZNSt8_Rb_treeINSt7__cxx1112basic_stringIcSt11char_traitsIcESaIcEEESt4pairIKS5_S5_ESt10_Select1stIS8_ESt4lessIS5_ESaIS8_EE6_S_keyEPKSt18_Rb_tree_node_base>:
  405bb6:	55                   	push   %rbp
  405bb7:	48 89 e5             	mov    %rsp,%rbp
  405bba:	48 83 ec 20          	sub    $0x20,%rsp
  405bbe:	48 89 7d e8          	mov    %rdi,-0x18(%rbp)
  405bc2:	64 48 8b 04 25 28 00 	mov    %fs:0x28,%rax
  405bc9:	00 00 
  405bcb:	48 89 45 f8          	mov    %rax,-0x8(%rbp)
  405bcf:	31 c0                	xor    %eax,%eax
  405bd1:	48 8b 45 e8          	mov    -0x18(%rbp),%rax
  405bd5:	48 89 c7             	mov    %rax,%rdi
  405bd8:	e8 93 06 00 00       	callq  406270 <_ZNSt8_Rb_treeINSt7__cxx1112basic_stringIcSt11char_traitsIcESaIcEEESt4pairIKS5_S5_ESt10_Select1stIS8_ESt4lessIS5_ESaIS8_EE8_S_valueEPKSt18_Rb_tree_node_base>
  405bdd:	48 89 c2             	mov    %rax,%rdx
  405be0:	48 8d 45 f7          	lea    -0x9(%rbp),%rax
  405be4:	48 89 d6             	mov    %rdx,%rsi
  405be7:	48 89 c7             	mov    %rax,%rdi
  405bea:	e8 7d 02 00 00       	callq  405e6c <_ZNKSt10_Select1stISt4pairIKNSt7__cxx1112basic_stringIcSt11char_traitsIcESaIcEEES6_EEclERKS8_>
  405bef:	48 8b 4d f8          	mov    -0x8(%rbp),%rcx
  405bf3:	64 48 33 0c 25 28 00 	xor    %fs:0x28,%rcx
  405bfa:	00 00 
  405bfc:	74 05                	je     405c03 <_ZNSt8_Rb_treeINSt7__cxx1112basic_stringIcSt11char_traitsIcESaIcEEESt4pairIKS5_S5_ESt10_Select1stIS8_ESt4lessIS5_ESaIS8_EE6_S_keyEPKSt18_Rb_tree_node_base+0x4d>
  405bfe:	e8 0d d2 ff ff       	callq  402e10 <__stack_chk_fail@plt>
  405c03:	c9                   	leaveq 
  405c04:	c3                   	retq   

0000000000405c05 <_ZSt7forwardIRPSt13_Rb_tree_nodeISt4pairIKNSt7__cxx1112basic_stringIcSt11char_traitsIcESaIcEEES7_EEEOT_RNSt16remove_referenceISD_E4typeE>:
  405c05:	55                   	push   %rbp
  405c06:	48 89 e5             	mov    %rsp,%rbp
  405c09:	48 89 7d f8          	mov    %rdi,-0x8(%rbp)
  405c0d:	48 8b 45 f8          	mov    -0x8(%rbp),%rax
  405c11:	5d                   	pop    %rbp
  405c12:	c3                   	retq   
  405c13:	90                   	nop

0000000000405c14 <_ZNSt4pairIPSt18_Rb_tree_node_baseS1_EC1IRPSt13_Rb_tree_nodeIS_IKNSt7__cxx1112basic_stringIcSt11char_traitsIcESaIcEEESA_EESF_vEEOT_OT0_>:
  405c14:	55                   	push   %rbp
  405c15:	48 89 e5             	mov    %rsp,%rbp
  405c18:	48 83 ec 20          	sub    $0x20,%rsp
  405c1c:	48 89 7d f8          	mov    %rdi,-0x8(%rbp)
  405c20:	48 89 75 f0          	mov    %rsi,-0x10(%rbp)
  405c24:	48 89 55 e8          	mov    %rdx,-0x18(%rbp)
  405c28:	48 8b 45 f0          	mov    -0x10(%rbp),%rax
  405c2c:	48 89 c7             	mov    %rax,%rdi
  405c2f:	e8 d1 ff ff ff       	callq  405c05 <_ZSt7forwardIRPSt13_Rb_tree_nodeISt4pairIKNSt7__cxx1112basic_stringIcSt11char_traitsIcESaIcEEES7_EEEOT_RNSt16remove_referenceISD_E4typeE>
  405c34:	48 8b 10             	mov    (%rax),%rdx
  405c37:	48 8b 45 f8          	mov    -0x8(%rbp),%rax
  405c3b:	48 89 10             	mov    %rdx,(%rax)
  405c3e:	48 8b 45 e8          	mov    -0x18(%rbp),%rax
  405c42:	48 89 c7             	mov    %rax,%rdi
  405c45:	e8 bb ff ff ff       	callq  405c05 <_ZSt7forwardIRPSt13_Rb_tree_nodeISt4pairIKNSt7__cxx1112basic_stringIcSt11char_traitsIcESaIcEEES7_EEEOT_RNSt16remove_referenceISD_E4typeE>
  405c4a:	48 8b 10             	mov    (%rax),%rdx
  405c4d:	48 8b 45 f8          	mov    -0x8(%rbp),%rax
  405c51:	48 89 50 08          	mov    %rdx,0x8(%rax)
  405c55:	90                   	nop
  405c56:	c9                   	leaveq 
  405c57:	c3                   	retq   

0000000000405c58 <_ZNSt8_Rb_treeINSt7__cxx1112basic_stringIcSt11char_traitsIcESaIcEEESt4pairIKS5_S5_ESt10_Select1stIS8_ESt4lessIS5_ESaIS8_EE24_M_get_insert_unique_posERS7_>:
  405c58:	55                   	push   %rbp
  405c59:	48 89 e5             	mov    %rsp,%rbp
  405c5c:	48 83 ec 60          	sub    $0x60,%rsp
  405c60:	48 89 7d a8          	mov    %rdi,-0x58(%rbp)
  405c64:	48 89 75 a0          	mov    %rsi,-0x60(%rbp)
  405c68:	64 48 8b 04 25 28 00 	mov    %fs:0x28,%rax
  405c6f:	00 00 
  405c71:	48 89 45 f8          	mov    %rax,-0x8(%rbp)
  405c75:	31 c0                	xor    %eax,%eax
  405c77:	48 8b 45 a8          	mov    -0x58(%rbp),%rax
  405c7b:	48 89 c7             	mov    %rax,%rdi
  405c7e:	e8 f1 e9 ff ff       	callq  404674 <_ZNSt8_Rb_treeINSt7__cxx1112basic_stringIcSt11char_traitsIcESaIcEEESt4pairIKS5_S5_ESt10_Select1stIS8_ESt4lessIS5_ESaIS8_EE8_M_beginEv>
  405c83:	48 89 45 c8          	mov    %rax,-0x38(%rbp)
  405c87:	48 8b 45 a8          	mov    -0x58(%rbp),%rax
  405c8b:	48 89 c7             	mov    %rax,%rdi
  405c8e:	e8 8b fc ff ff       	callq  40591e <_ZNSt8_Rb_treeINSt7__cxx1112basic_stringIcSt11char_traitsIcESaIcEEESt4pairIKS5_S5_ESt10_Select1stIS8_ESt4lessIS5_ESaIS8_EE6_M_endEv>
  405c93:	48 89 45 d0          	mov    %rax,-0x30(%rbp)
  405c97:	c6 45 bf 01          	movb   $0x1,-0x41(%rbp)
  405c9b:	48 8b 45 c8          	mov    -0x38(%rbp),%rax
  405c9f:	48 85 c0             	test   %rax,%rax
  405ca2:	74 53                	je     405cf7 <_ZNSt8_Rb_treeINSt7__cxx1112basic_stringIcSt11char_traitsIcESaIcEEESt4pairIKS5_S5_ESt10_Select1stIS8_ESt4lessIS5_ESaIS8_EE24_M_get_insert_unique_posERS7_+0x9f>
  405ca4:	48 8b 45 c8          	mov    -0x38(%rbp),%rax
  405ca8:	48 89 45 d0          	mov    %rax,-0x30(%rbp)
  405cac:	48 8b 45 c8          	mov    -0x38(%rbp),%rax
  405cb0:	48 89 c7             	mov    %rax,%rdi
  405cb3:	e8 7e f7 ff ff       	callq  405436 <_ZNSt8_Rb_treeINSt7__cxx1112basic_stringIcSt11char_traitsIcESaIcEEESt4pairIKS5_S5_ESt10_Select1stIS8_ESt4lessIS5_ESaIS8_EE6_S_keyEPKSt13_Rb_tree_nodeIS8_E>
  405cb8:	48 89 c2             	mov    %rax,%rdx
  405cbb:	48 8b 45 a8          	mov    -0x58(%rbp),%rax
  405cbf:	48 8b 4d a0          	mov    -0x60(%rbp),%rcx
  405cc3:	48 89 ce             	mov    %rcx,%rsi
  405cc6:	48 89 c7             	mov    %rax,%rdi
  405cc9:	e8 58 e4 ff ff       	callq  404126 <_ZNKSt4lessINSt7__cxx1112basic_stringIcSt11char_traitsIcESaIcEEEEclERKS5_S8_>
  405cce:	88 45 bf             	mov    %al,-0x41(%rbp)
  405cd1:	80 7d bf 00          	cmpb   $0x0,-0x41(%rbp)
  405cd5:	74 0e                	je     405ce5 <_ZNSt8_Rb_treeINSt7__cxx1112basic_stringIcSt11char_traitsIcESaIcEEESt4pairIKS5_S5_ESt10_Select1stIS8_ESt4lessIS5_ESaIS8_EE24_M_get_insert_unique_posERS7_+0x8d>
  405cd7:	48 8b 45 c8          	mov    -0x38(%rbp),%rax
  405cdb:	48 89 c7             	mov    %rax,%rdi
  405cde:	e8 ca f0 ff ff       	callq  404dad <_ZNSt8_Rb_treeINSt7__cxx1112basic_stringIcSt11char_traitsIcESaIcEEESt4pairIKS5_S5_ESt10_Select1stIS8_ESt4lessIS5_ESaIS8_EE7_S_leftEPSt18_Rb_tree_node_base>
  405ce3:	eb 0c                	jmp    405cf1 <_ZNSt8_Rb_treeINSt7__cxx1112basic_stringIcSt11char_traitsIcESaIcEEESt4pairIKS5_S5_ESt10_Select1stIS8_ESt4lessIS5_ESaIS8_EE24_M_get_insert_unique_posERS7_+0x99>
  405ce5:	48 8b 45 c8          	mov    -0x38(%rbp),%rax
  405ce9:	48 89 c7             	mov    %rax,%rdi
  405cec:	e8 aa f0 ff ff       	callq  404d9b <_ZNSt8_Rb_treeINSt7__cxx1112basic_stringIcSt11char_traitsIcESaIcEEESt4pairIKS5_S5_ESt10_Select1stIS8_ESt4lessIS5_ESaIS8_EE8_S_rightEPSt18_Rb_tree_node_base>
  405cf1:	48 89 45 c8          	mov    %rax,-0x38(%rbp)
  405cf5:	eb a4                	jmp    405c9b <_ZNSt8_Rb_treeINSt7__cxx1112basic_stringIcSt11char_traitsIcESaIcEEESt4pairIKS5_S5_ESt10_Select1stIS8_ESt4lessIS5_ESaIS8_EE24_M_get_insert_unique_posERS7_+0x43>
  405cf7:	48 8b 55 d0          	mov    -0x30(%rbp),%rdx
  405cfb:	48 8d 45 c0          	lea    -0x40(%rbp),%rax
  405cff:	48 89 d6             	mov    %rdx,%rsi
  405d02:	48 89 c7             	mov    %rax,%rdi
  405d05:	e8 62 f8 ff ff       	callq  40556c <_ZNSt17_Rb_tree_iteratorISt4pairIKNSt7__cxx1112basic_stringIcSt11char_traitsIcESaIcEEES6_EEC1EPSt18_Rb_tree_node_base>
  405d0a:	80 7d bf 00          	cmpb   $0x0,-0x41(%rbp)
  405d0e:	74 54                	je     405d64 <_ZNSt8_Rb_treeINSt7__cxx1112basic_stringIcSt11char_traitsIcESaIcEEESt4pairIKS5_S5_ESt10_Select1stIS8_ESt4lessIS5_ESaIS8_EE24_M_get_insert_unique_posERS7_+0x10c>
  405d10:	48 8b 45 a8          	mov    -0x58(%rbp),%rax
  405d14:	48 89 c7             	mov    %rax,%rdi
  405d17:	e8 6e 05 00 00       	callq  40628a <_ZNSt8_Rb_treeINSt7__cxx1112basic_stringIcSt11char_traitsIcESaIcEEESt4pairIKS5_S5_ESt10_Select1stIS8_ESt4lessIS5_ESaIS8_EE5beginEv>
  405d1c:	48 89 45 e0          	mov    %rax,-0x20(%rbp)
  405d20:	48 8d 55 e0          	lea    -0x20(%rbp),%rdx
  405d24:	48 8d 45 c0          	lea    -0x40(%rbp),%rax
  405d28:	48 89 d6             	mov    %rdx,%rsi
  405d2b:	48 89 c7             	mov    %rax,%rdi
  405d2e:	e8 4f ea ff ff       	callq  404782 <_ZNKSt17_Rb_tree_iteratorISt4pairIKNSt7__cxx1112basic_stringIcSt11char_traitsIcESaIcEEES6_EEeqERKS9_>
  405d33:	84 c0                	test   %al,%al
  405d35:	74 21                	je     405d58 <_ZNSt8_Rb_treeINSt7__cxx1112basic_stringIcSt11char_traitsIcESaIcEEESt4pairIKS5_S5_ESt10_Select1stIS8_ESt4lessIS5_ESaIS8_EE24_M_get_insert_unique_posERS7_+0x100>
  405d37:	48 8d 55 d0          	lea    -0x30(%rbp),%rdx
  405d3b:	48 8d 4d c8          	lea    -0x38(%rbp),%rcx
  405d3f:	48 8d 45 e0          	lea    -0x20(%rbp),%rax
  405d43:	48 89 ce             	mov    %rcx,%rsi
  405d46:	48 89 c7             	mov    %rax,%rdi
  405d49:	e8 c6 fe ff ff       	callq  405c14 <_ZNSt4pairIPSt18_Rb_tree_node_baseS1_EC1IRPSt13_Rb_tree_nodeIS_IKNSt7__cxx1112basic_stringIcSt11char_traitsIcESaIcEEESA_EESF_vEEOT_OT0_>
  405d4e:	48 8b 45 e0          	mov    -0x20(%rbp),%rax
  405d52:	48 8b 55 e8          	mov    -0x18(%rbp),%rdx
  405d56:	eb 7a                	jmp    405dd2 <_ZNSt8_Rb_treeINSt7__cxx1112basic_stringIcSt11char_traitsIcESaIcEEESt4pairIKS5_S5_ESt10_Select1stIS8_ESt4lessIS5_ESaIS8_EE24_M_get_insert_unique_posERS7_+0x17a>
  405d58:	48 8d 45 c0          	lea    -0x40(%rbp),%rax
  405d5c:	48 89 c7             	mov    %rax,%rdi
  405d5f:	e8 96 00 00 00       	callq  405dfa <_ZNSt17_Rb_tree_iteratorISt4pairIKNSt7__cxx1112basic_stringIcSt11char_traitsIcESaIcEEES6_EEmmEv>
  405d64:	48 8b 45 c0          	mov    -0x40(%rbp),%rax
  405d68:	48 89 c7             	mov    %rax,%rdi
  405d6b:	e8 46 fe ff ff       	callq  405bb6 <_ZNSt8_Rb_treeINSt7__cxx1112basic_stringIcSt11char_traitsIcESaIcEEESt4pairIKS5_S5_ESt10_Select1stIS8_ESt4lessIS5_ESaIS8_EE6_S_keyEPKSt18_Rb_tree_node_base>
  405d70:	48 89 c1             	mov    %rax,%rcx
  405d73:	48 8b 45 a8          	mov    -0x58(%rbp),%rax
  405d77:	48 8b 55 a0          	mov    -0x60(%rbp),%rdx
  405d7b:	48 89 ce             	mov    %rcx,%rsi
  405d7e:	48 89 c7             	mov    %rax,%rdi
  405d81:	e8 a0 e3 ff ff       	callq  404126 <_ZNKSt4lessINSt7__cxx1112basic_stringIcSt11char_traitsIcESaIcEEEEclERKS5_S8_>
  405d86:	84 c0                	test   %al,%al
  405d88:	74 21                	je     405dab <_ZNSt8_Rb_treeINSt7__cxx1112basic_stringIcSt11char_traitsIcESaIcEEESt4pairIKS5_S5_ESt10_Select1stIS8_ESt4lessIS5_ESaIS8_EE24_M_get_insert_unique_posERS7_+0x153>
  405d8a:	48 8d 55 d0          	lea    -0x30(%rbp),%rdx
  405d8e:	48 8d 4d c8          	lea    -0x38(%rbp),%rcx
  405d92:	48 8d 45 e0          	lea    -0x20(%rbp),%rax
  405d96:	48 89 ce             	mov    %rcx,%rsi
  405d99:	48 89 c7             	mov    %rax,%rdi
  405d9c:	e8 73 fe ff ff       	callq  405c14 <_ZNSt4pairIPSt18_Rb_tree_node_baseS1_EC1IRPSt13_Rb_tree_nodeIS_IKNSt7__cxx1112basic_stringIcSt11char_traitsIcESaIcEEESA_EESF_vEEOT_OT0_>
  405da1:	48 8b 45 e0          	mov    -0x20(%rbp),%rax
  405da5:	48 8b 55 e8          	mov    -0x18(%rbp),%rdx
  405da9:	eb 27                	jmp    405dd2 <_ZNSt8_Rb_treeINSt7__cxx1112basic_stringIcSt11char_traitsIcESaIcEEESt4pairIKS5_S5_ESt10_Select1stIS8_ESt4lessIS5_ESaIS8_EE24_M_get_insert_unique_posERS7_+0x17a>
  405dab:	48 c7 45 d8 00 00 00 	movq   $0x0,-0x28(%rbp)
  405db2:	00 
  405db3:	48 8d 55 d8          	lea    -0x28(%rbp),%rdx
  405db7:	48 8d 4d c0          	lea    -0x40(%rbp),%rcx
  405dbb:	48 8d 45 e0          	lea    -0x20(%rbp),%rax
  405dbf:	48 89 ce             	mov    %rcx,%rsi
  405dc2:	48 89 c7             	mov    %rax,%rdi
  405dc5:	e8 94 f2 ff ff       	callq  40505e <_ZNSt4pairIPSt18_Rb_tree_node_baseS1_EC1IRS1_vEEOT_RKS1_>
  405dca:	48 8b 45 e0          	mov    -0x20(%rbp),%rax
  405dce:	48 8b 55 e8          	mov    -0x18(%rbp),%rdx
  405dd2:	48 8b 75 f8          	mov    -0x8(%rbp),%rsi
  405dd6:	64 48 33 34 25 28 00 	xor    %fs:0x28,%rsi
  405ddd:	00 00 
  405ddf:	74 05                	je     405de6 <_ZNSt8_Rb_treeINSt7__cxx1112basic_stringIcSt11char_traitsIcESaIcEEESt4pairIKS5_S5_ESt10_Select1stIS8_ESt4lessIS5_ESaIS8_EE24_M_get_insert_unique_posERS7_+0x18e>
  405de1:	e8 2a d0 ff ff       	callq  402e10 <__stack_chk_fail@plt>
  405de6:	c9                   	leaveq 
  405de7:	c3                   	retq   

0000000000405de8 <_ZNSt8_Rb_treeINSt7__cxx1112basic_stringIcSt11char_traitsIcESaIcEEESt4pairIKS5_S5_ESt10_Select1stIS8_ESt4lessIS5_ESaIS8_EE11_M_leftmostEv>:
  405de8:	55                   	push   %rbp
  405de9:	48 89 e5             	mov    %rsp,%rbp
  405dec:	48 89 7d f8          	mov    %rdi,-0x8(%rbp)
  405df0:	48 8b 45 f8          	mov    -0x8(%rbp),%rax
  405df4:	48 83 c0 18          	add    $0x18,%rax
  405df8:	5d                   	pop    %rbp
  405df9:	c3                   	retq   

0000000000405dfa <_ZNSt17_Rb_tree_iteratorISt4pairIKNSt7__cxx1112basic_stringIcSt11char_traitsIcESaIcEEES6_EEmmEv>:
  405dfa:	55                   	push   %rbp
  405dfb:	48 89 e5             	mov    %rsp,%rbp
  405dfe:	48 83 ec 10          	sub    $0x10,%rsp
  405e02:	48 89 7d f8          	mov    %rdi,-0x8(%rbp)
  405e06:	48 8b 45 f8          	mov    -0x8(%rbp),%rax
  405e0a:	48 8b 00             	mov    (%rax),%rax
  405e0d:	48 89 c7             	mov    %rax,%rdi
  405e10:	e8 bb cf ff ff       	callq  402dd0 <_ZSt18_Rb_tree_decrementPSt18_Rb_tree_node_base@plt>
  405e15:	48 89 c2             	mov    %rax,%rdx
  405e18:	48 8b 45 f8          	mov    -0x8(%rbp),%rax
  405e1c:	48 89 10             	mov    %rdx,(%rax)
  405e1f:	48 8b 45 f8          	mov    -0x8(%rbp),%rax
  405e23:	c9                   	leaveq 
  405e24:	c3                   	retq   
  405e25:	90                   	nop

0000000000405e26 <_ZNSt17_Rb_tree_iteratorISt4pairIKNSt7__cxx1112basic_stringIcSt11char_traitsIcESaIcEEES6_EEppEv>:
  405e26:	55                   	push   %rbp
  405e27:	48 89 e5             	mov    %rsp,%rbp
  405e2a:	48 83 ec 10          	sub    $0x10,%rsp
  405e2e:	48 89 7d f8          	mov    %rdi,-0x8(%rbp)
  405e32:	48 8b 45 f8          	mov    -0x8(%rbp),%rax
  405e36:	48 8b 00             	mov    (%rax),%rax
  405e39:	48 89 c7             	mov    %rax,%rdi
  405e3c:	e8 1f ce ff ff       	callq  402c60 <_ZSt18_Rb_tree_incrementPSt18_Rb_tree_node_base@plt>
  405e41:	48 89 c2             	mov    %rax,%rdx
  405e44:	48 8b 45 f8          	mov    -0x8(%rbp),%rax
  405e48:	48 89 10             	mov    %rdx,(%rax)
  405e4b:	48 8b 45 f8          	mov    -0x8(%rbp),%rax
  405e4f:	c9                   	leaveq 
  405e50:	c3                   	retq   

0000000000405e51 <_ZNSt8_Rb_treeINSt7__cxx1112basic_stringIcSt11char_traitsIcESaIcEEESt4pairIKS5_S5_ESt10_Select1stIS8_ESt4lessIS5_ESaIS8_EE8_S_valueEPKSt13_Rb_tree_nodeIS8_E>:
  405e51:	55                   	push   %rbp
  405e52:	48 89 e5             	mov    %rsp,%rbp
  405e55:	48 83 ec 10          	sub    $0x10,%rsp
  405e59:	48 89 7d f8          	mov    %rdi,-0x8(%rbp)
  405e5d:	48 8b 45 f8          	mov    -0x8(%rbp),%rax
  405e61:	48 89 c7             	mov    %rax,%rdi
  405e64:	e8 6d 04 00 00       	callq  4062d6 <_ZNKSt13_Rb_tree_nodeISt4pairIKNSt7__cxx1112basic_stringIcSt11char_traitsIcESaIcEEES6_EE9_M_valptrEv>
  405e69:	c9                   	leaveq 
  405e6a:	c3                   	retq   
  405e6b:	90                   	nop

0000000000405e6c <_ZNKSt10_Select1stISt4pairIKNSt7__cxx1112basic_stringIcSt11char_traitsIcESaIcEEES6_EEclERKS8_>:
  405e6c:	55                   	push   %rbp
  405e6d:	48 89 e5             	mov    %rsp,%rbp
  405e70:	48 89 7d f8          	mov    %rdi,-0x8(%rbp)
  405e74:	48 89 75 f0          	mov    %rsi,-0x10(%rbp)
  405e78:	48 8b 45 f0          	mov    -0x10(%rbp),%rax
  405e7c:	5d                   	pop    %rbp
  405e7d:	c3                   	retq   

0000000000405e7e <_ZN9__gnu_cxx13new_allocatorISt13_Rb_tree_nodeISt4pairIKNSt7__cxx1112basic_stringIcSt11char_traitsIcESaIcEEES8_EEEC1Ev>:
  405e7e:	55                   	push   %rbp
  405e7f:	48 89 e5             	mov    %rsp,%rbp
  405e82:	48 89 7d f8          	mov    %rdi,-0x8(%rbp)
  405e86:	90                   	nop
  405e87:	5d                   	pop    %rbp
  405e88:	c3                   	retq   
  405e89:	90                   	nop

0000000000405e8a <_ZNSaISt13_Rb_tree_nodeISt4pairIKNSt7__cxx1112basic_stringIcSt11char_traitsIcESaIcEEES6_EEEC1ERKSA_>:
  405e8a:	55                   	push   %rbp
  405e8b:	48 89 e5             	mov    %rsp,%rbp
  405e8e:	48 83 ec 10          	sub    $0x10,%rsp
  405e92:	48 89 7d f8          	mov    %rdi,-0x8(%rbp)
  405e96:	48 89 75 f0          	mov    %rsi,-0x10(%rbp)
  405e9a:	48 8b 55 f0          	mov    -0x10(%rbp),%rdx
  405e9e:	48 8b 45 f8          	mov    -0x8(%rbp),%rax
  405ea2:	48 89 d6             	mov    %rdx,%rsi
  405ea5:	48 89 c7             	mov    %rax,%rdi
  405ea8:	e8 47 04 00 00       	callq  4062f4 <_ZN9__gnu_cxx13new_allocatorISt13_Rb_tree_nodeISt4pairIKNSt7__cxx1112basic_stringIcSt11char_traitsIcESaIcEEES8_EEEC1ERKSC_>
  405ead:	90                   	nop
  405eae:	c9                   	leaveq 
  405eaf:	c3                   	retq   

0000000000405eb0 <_ZNSt8_Rb_treeINSt7__cxx1112basic_stringIcSt11char_traitsIcESaIcEEESt4pairIKS5_S5_ESt10_Select1stIS8_ESt4lessIS5_ESaIS8_EE10_M_insert_IRKS8_NSE_11_Alloc_nodeEEESt17_Rb_tree_iteratorIS8_EPSt18_Rb_tree_node_baseSM_OT_RT0_>:
  405eb0:	55                   	push   %rbp
  405eb1:	48 89 e5             	mov    %rsp,%rbp
  405eb4:	41 54                	push   %r12
  405eb6:	53                   	push   %rbx
  405eb7:	48 83 ec 60          	sub    $0x60,%rsp
  405ebb:	48 89 7d b8          	mov    %rdi,-0x48(%rbp)
  405ebf:	48 89 75 b0          	mov    %rsi,-0x50(%rbp)
  405ec3:	48 89 55 a8          	mov    %rdx,-0x58(%rbp)
  405ec7:	48 89 4d a0          	mov    %rcx,-0x60(%rbp)
  405ecb:	4c 89 45 98          	mov    %r8,-0x68(%rbp)
  405ecf:	64 48 8b 04 25 28 00 	mov    %fs:0x28,%rax
  405ed6:	00 00 
  405ed8:	48 89 45 e8          	mov    %rax,-0x18(%rbp)
  405edc:	31 c0                	xor    %eax,%eax
  405ede:	bb 00 00 00 00       	mov    $0x0,%ebx
  405ee3:	48 83 7d b0 00       	cmpq   $0x0,-0x50(%rbp)
  405ee8:	75 52                	jne    405f3c <_ZNSt8_Rb_treeINSt7__cxx1112basic_stringIcSt11char_traitsIcESaIcEEESt4pairIKS5_S5_ESt10_Select1stIS8_ESt4lessIS5_ESaIS8_EE10_M_insert_IRKS8_NSE_11_Alloc_nodeEEESt17_Rb_tree_iteratorIS8_EPSt18_Rb_tree_node_baseSM_OT_RT0_+0x8c>
  405eea:	48 8b 45 b8          	mov    -0x48(%rbp),%rax
  405eee:	48 89 c7             	mov    %rax,%rdi
  405ef1:	e8 28 fa ff ff       	callq  40591e <_ZNSt8_Rb_treeINSt7__cxx1112basic_stringIcSt11char_traitsIcESaIcEEESt4pairIKS5_S5_ESt10_Select1stIS8_ESt4lessIS5_ESaIS8_EE6_M_endEv>
  405ef6:	48 3b 45 a8          	cmp    -0x58(%rbp),%rax
  405efa:	74 40                	je     405f3c <_ZNSt8_Rb_treeINSt7__cxx1112basic_stringIcSt11char_traitsIcESaIcEEESt4pairIKS5_S5_ESt10_Select1stIS8_ESt4lessIS5_ESaIS8_EE10_M_insert_IRKS8_NSE_11_Alloc_nodeEEESt17_Rb_tree_iteratorIS8_EPSt18_Rb_tree_node_baseSM_OT_RT0_+0x8c>
  405efc:	48 8b 45 a8          	mov    -0x58(%rbp),%rax
  405f00:	48 89 c7             	mov    %rax,%rdi
  405f03:	e8 ae fc ff ff       	callq  405bb6 <_ZNSt8_Rb_treeINSt7__cxx1112basic_stringIcSt11char_traitsIcESaIcEEESt4pairIKS5_S5_ESt10_Select1stIS8_ESt4lessIS5_ESaIS8_EE6_S_keyEPKSt18_Rb_tree_node_base>
  405f08:	49 89 c4             	mov    %rax,%r12
  405f0b:	bb 01 00 00 00       	mov    $0x1,%ebx
  405f10:	48 8b 55 a0          	mov    -0x60(%rbp),%rdx
  405f14:	48 8d 45 ce          	lea    -0x32(%rbp),%rax
  405f18:	48 89 d6             	mov    %rdx,%rsi
  405f1b:	48 89 c7             	mov    %rax,%rdi
  405f1e:	e8 49 ff ff ff       	callq  405e6c <_ZNKSt10_Select1stISt4pairIKNSt7__cxx1112basic_stringIcSt11char_traitsIcESaIcEEES6_EEclERKS8_>
  405f23:	48 89 c1             	mov    %rax,%rcx
  405f26:	48 8b 45 b8          	mov    -0x48(%rbp),%rax
  405f2a:	4c 89 e2             	mov    %r12,%rdx
  405f2d:	48 89 ce             	mov    %rcx,%rsi
  405f30:	48 89 c7             	mov    %rax,%rdi
  405f33:	e8 ee e1 ff ff       	callq  404126 <_ZNKSt4lessINSt7__cxx1112basic_stringIcSt11char_traitsIcESaIcEEEEclERKS5_S8_>
  405f38:	84 c0                	test   %al,%al
  405f3a:	74 07                	je     405f43 <_ZNSt8_Rb_treeINSt7__cxx1112basic_stringIcSt11char_traitsIcESaIcEEESt4pairIKS5_S5_ESt10_Select1stIS8_ESt4lessIS5_ESaIS8_EE10_M_insert_IRKS8_NSE_11_Alloc_nodeEEESt17_Rb_tree_iteratorIS8_EPSt18_Rb_tree_node_baseSM_OT_RT0_+0x93>
  405f3c:	b8 01 00 00 00       	mov    $0x1,%eax
  405f41:	eb 05                	jmp    405f48 <_ZNSt8_Rb_treeINSt7__cxx1112basic_stringIcSt11char_traitsIcESaIcEEESt4pairIKS5_S5_ESt10_Select1stIS8_ESt4lessIS5_ESaIS8_EE10_M_insert_IRKS8_NSE_11_Alloc_nodeEEESt17_Rb_tree_iteratorIS8_EPSt18_Rb_tree_node_baseSM_OT_RT0_+0x98>
  405f43:	b8 00 00 00 00       	mov    $0x0,%eax
  405f48:	88 45 cf             	mov    %al,-0x31(%rbp)
  405f4b:	84 db                	test   %bl,%bl
  405f4d:	90                   	nop
  405f4e:	48 8b 45 a0          	mov    -0x60(%rbp),%rax
  405f52:	48 89 c7             	mov    %rax,%rdi
  405f55:	e8 00 f7 ff ff       	callq  40565a <_ZSt7forwardIRKSt4pairIKNSt7__cxx1112basic_stringIcSt11char_traitsIcESaIcEEES6_EEOT_RNSt16remove_referenceISB_E4typeE>
  405f5a:	48 89 c2             	mov    %rax,%rdx
  405f5d:	48 8b 45 98          	mov    -0x68(%rbp),%rax
  405f61:	48 89 d6             	mov    %rdx,%rsi
  405f64:	48 89 c7             	mov    %rax,%rdi
  405f67:	e8 98 03 00 00       	callq  406304 <_ZNKSt8_Rb_treeINSt7__cxx1112basic_stringIcSt11char_traitsIcESaIcEEESt4pairIKS5_S5_ESt10_Select1stIS8_ESt4lessIS5_ESaIS8_EE11_Alloc_nodeclIRKS8_EEPSt13_Rb_tree_nodeIS8_EOT_>
  405f6c:	48 89 45 e0          	mov    %rax,-0x20(%rbp)
  405f70:	48 8b 45 b8          	mov    -0x48(%rbp),%rax
  405f74:	48 8d 48 08          	lea    0x8(%rax),%rcx
  405f78:	0f b6 45 cf          	movzbl -0x31(%rbp),%eax
  405f7c:	48 8b 55 a8          	mov    -0x58(%rbp),%rdx
  405f80:	48 8b 75 e0          	mov    -0x20(%rbp),%rsi
  405f84:	89 c7                	mov    %eax,%edi
  405f86:	e8 f5 ca ff ff       	callq  402a80 <_ZSt29_Rb_tree_insert_and_rebalancebPSt18_Rb_tree_node_baseS0_RS_@plt>
  405f8b:	48 8b 45 b8          	mov    -0x48(%rbp),%rax
  405f8f:	48 8b 40 28          	mov    0x28(%rax),%rax
  405f93:	48 8d 50 01          	lea    0x1(%rax),%rdx
  405f97:	48 8b 45 b8          	mov    -0x48(%rbp),%rax
  405f9b:	48 89 50 28          	mov    %rdx,0x28(%rax)
  405f9f:	48 8b 55 e0          	mov    -0x20(%rbp),%rdx
  405fa3:	48 8d 45 d0          	lea    -0x30(%rbp),%rax
  405fa7:	48 89 d6             	mov    %rdx,%rsi
  405faa:	48 89 c7             	mov    %rax,%rdi
  405fad:	e8 ba f5 ff ff       	callq  40556c <_ZNSt17_Rb_tree_iteratorISt4pairIKNSt7__cxx1112basic_stringIcSt11char_traitsIcESaIcEEES6_EEC1EPSt18_Rb_tree_node_base>
  405fb2:	48 8b 45 d0          	mov    -0x30(%rbp),%rax
  405fb6:	48 8b 5d e8          	mov    -0x18(%rbp),%rbx
  405fba:	64 48 33 1c 25 28 00 	xor    %fs:0x28,%rbx
  405fc1:	00 00 
  405fc3:	74 12                	je     405fd7 <_ZNSt8_Rb_treeINSt7__cxx1112basic_stringIcSt11char_traitsIcESaIcEEESt4pairIKS5_S5_ESt10_Select1stIS8_ESt4lessIS5_ESaIS8_EE10_M_insert_IRKS8_NSE_11_Alloc_nodeEEESt17_Rb_tree_iteratorIS8_EPSt18_Rb_tree_node_baseSM_OT_RT0_+0x127>
  405fc5:	eb 0b                	jmp    405fd2 <_ZNSt8_Rb_treeINSt7__cxx1112basic_stringIcSt11char_traitsIcESaIcEEESt4pairIKS5_S5_ESt10_Select1stIS8_ESt4lessIS5_ESaIS8_EE10_M_insert_IRKS8_NSE_11_Alloc_nodeEEESt17_Rb_tree_iteratorIS8_EPSt18_Rb_tree_node_baseSM_OT_RT0_+0x122>
  405fc7:	84 db                	test   %bl,%bl
  405fc9:	90                   	nop
  405fca:	48 89 c7             	mov    %rax,%rdi
  405fcd:	e8 ee cf ff ff       	callq  402fc0 <_Unwind_Resume@plt>
  405fd2:	e8 39 ce ff ff       	callq  402e10 <__stack_chk_fail@plt>
  405fd7:	48 83 c4 60          	add    $0x60,%rsp
  405fdb:	5b                   	pop    %rbx
  405fdc:	41 5c                	pop    %r12
  405fde:	5d                   	pop    %rbp
  405fdf:	c3                   	retq   

0000000000405fe0 <_ZNSaIhEC1ERKS_>:
  405fe0:	55                   	push   %rbp
  405fe1:	48 89 e5             	mov    %rsp,%rbp
  405fe4:	48 83 ec 10          	sub    $0x10,%rsp
  405fe8:	48 89 7d f8          	mov    %rdi,-0x8(%rbp)
  405fec:	48 89 75 f0          	mov    %rsi,-0x10(%rbp)
  405ff0:	48 8b 55 f0          	mov    -0x10(%rbp),%rdx
  405ff4:	48 8b 45 f8          	mov    -0x8(%rbp),%rax
  405ff8:	48 89 d6             	mov    %rdx,%rsi
  405ffb:	48 89 c7             	mov    %rax,%rdi
  405ffe:	e8 35 03 00 00       	callq  406338 <_ZN9__gnu_cxx13new_allocatorIhEC1ERKS1_>
  406003:	90                   	nop
  406004:	c9                   	leaveq 
  406005:	c3                   	retq   

0000000000406006 <_ZStneIcSt11char_traitsIcEEbRKSt19istreambuf_iteratorIT_T0_ES7_>:
  406006:	55                   	push   %rbp
  406007:	48 89 e5             	mov    %rsp,%rbp
  40600a:	48 83 ec 10          	sub    $0x10,%rsp
  40600e:	48 89 7d f8          	mov    %rdi,-0x8(%rbp)
  406012:	48 89 75 f0          	mov    %rsi,-0x10(%rbp)
  406016:	48 8b 55 f0          	mov    -0x10(%rbp),%rdx
  40601a:	48 8b 45 f8          	mov    -0x8(%rbp),%rax
  40601e:	48 89 d6             	mov    %rdx,%rsi
  406021:	48 89 c7             	mov    %rax,%rdi
  406024:	e8 1f 03 00 00       	callq  406348 <_ZNKSt19istreambuf_iteratorIcSt11char_traitsIcEE5equalERKS2_>
  406029:	83 f0 01             	xor    $0x1,%eax
  40602c:	c9                   	leaveq 
  40602d:	c3                   	retq   

000000000040602e <_ZNSt19istreambuf_iteratorIcSt11char_traitsIcEEppEv>:
  40602e:	55                   	push   %rbp
  40602f:	48 89 e5             	mov    %rsp,%rbp
  406032:	48 83 ec 10          	sub    $0x10,%rsp
  406036:	48 89 7d f8          	mov    %rdi,-0x8(%rbp)
  40603a:	48 8b 45 f8          	mov    -0x8(%rbp),%rax
  40603e:	48 8b 00             	mov    (%rax),%rax
  406041:	48 85 c0             	test   %rax,%rax
  406044:	74 1d                	je     406063 <_ZNSt19istreambuf_iteratorIcSt11char_traitsIcEEppEv+0x35>
  406046:	48 8b 45 f8          	mov    -0x8(%rbp),%rax
  40604a:	48 8b 00             	mov    (%rax),%rax
  40604d:	48 89 c7             	mov    %rax,%rdi
  406050:	e8 9b cb ff ff       	callq  402bf0 <_ZNSt15basic_streambufIcSt11char_traitsIcEE6sbumpcEv@plt>
  406055:	e8 04 dc ff ff       	callq  403c5e <_ZNSt11char_traitsIcE3eofEv>
  40605a:	89 c2                	mov    %eax,%edx
  40605c:	48 8b 45 f8          	mov    -0x8(%rbp),%rax
  406060:	89 50 08             	mov    %edx,0x8(%rax)
  406063:	48 8b 45 f8          	mov    -0x8(%rbp),%rax
  406067:	c9                   	leaveq 
  406068:	c3                   	retq   
  406069:	90                   	nop

000000000040606a <_ZNKSt19istreambuf_iteratorIcSt11char_traitsIcEEdeEv>:
  40606a:	55                   	push   %rbp
  40606b:	48 89 e5             	mov    %rsp,%rbp
  40606e:	48 83 ec 20          	sub    $0x20,%rsp
  406072:	48 89 7d e8          	mov    %rdi,-0x18(%rbp)
  406076:	64 48 8b 04 25 28 00 	mov    %fs:0x28,%rax
  40607d:	00 00 
  40607f:	48 89 45 f8          	mov    %rax,-0x8(%rbp)
  406083:	31 c0                	xor    %eax,%eax
  406085:	48 8b 45 e8          	mov    -0x18(%rbp),%rax
  406089:	48 89 c7             	mov    %rax,%rdi
  40608c:	e8 ef 02 00 00       	callq  406380 <_ZNKSt19istreambuf_iteratorIcSt11char_traitsIcEE6_M_getEv>
  406091:	89 45 f4             	mov    %eax,-0xc(%rbp)
  406094:	48 8d 45 f4          	lea    -0xc(%rbp),%rax
  406098:	48 89 c7             	mov    %rax,%rdi
  40609b:	e8 8f db ff ff       	callq  403c2f <_ZNSt11char_traitsIcE12to_char_typeERKi>
  4060a0:	48 8b 55 f8          	mov    -0x8(%rbp),%rdx
  4060a4:	64 48 33 14 25 28 00 	xor    %fs:0x28,%rdx
  4060ab:	00 00 
  4060ad:	74 05                	je     4060b4 <_ZNKSt19istreambuf_iteratorIcSt11char_traitsIcEEdeEv+0x4a>
  4060af:	e8 5c cd ff ff       	callq  402e10 <__stack_chk_fail@plt>
  4060b4:	c9                   	leaveq 
  4060b5:	c3                   	retq   

00000000004060b6 <_ZSt7forwardIcEOT_RNSt16remove_referenceIS0_E4typeE>:
  4060b6:	55                   	push   %rbp
  4060b7:	48 89 e5             	mov    %rsp,%rbp
  4060ba:	48 89 7d f8          	mov    %rdi,-0x8(%rbp)
  4060be:	48 8b 45 f8          	mov    -0x8(%rbp),%rax
  4060c2:	5d                   	pop    %rbp
  4060c3:	c3                   	retq   

00000000004060c4 <_ZNSt6vectorIhSaIhEE12emplace_backIIcEEEvDpOT_>:
  4060c4:	55                   	push   %rbp
  4060c5:	48 89 e5             	mov    %rsp,%rbp
  4060c8:	48 83 ec 10          	sub    $0x10,%rsp
  4060cc:	48 89 7d f8          	mov    %rdi,-0x8(%rbp)
  4060d0:	48 89 75 f0          	mov    %rsi,-0x10(%rbp)
  4060d4:	48 8b 45 f8          	mov    -0x8(%rbp),%rax
  4060d8:	48 8b 50 08          	mov    0x8(%rax),%rdx
  4060dc:	48 8b 45 f8          	mov    -0x8(%rbp),%rax
  4060e0:	48 8b 40 10          	mov    0x10(%rax),%rax
  4060e4:	48 39 c2             	cmp    %rax,%rdx
  4060e7:	74 3c                	je     406125 <_ZNSt6vectorIhSaIhEE12emplace_backIIcEEEvDpOT_+0x61>
  4060e9:	48 8b 45 f0          	mov    -0x10(%rbp),%rax
  4060ed:	48 89 c7             	mov    %rax,%rdi
  4060f0:	e8 c1 ff ff ff       	callq  4060b6 <_ZSt7forwardIcEOT_RNSt16remove_referenceIS0_E4typeE>
  4060f5:	48 89 c2             	mov    %rax,%rdx
  4060f8:	48 8b 45 f8          	mov    -0x8(%rbp),%rax
  4060fc:	48 8b 48 08          	mov    0x8(%rax),%rcx
  406100:	48 8b 45 f8          	mov    -0x8(%rbp),%rax
  406104:	48 89 ce             	mov    %rcx,%rsi
  406107:	48 89 c7             	mov    %rax,%rdi
  40610a:	e8 2c 03 00 00       	callq  40643b <_ZNSt16allocator_traitsISaIhEE9constructIhIcEEEvRS0_PT_DpOT0_>
  40610f:	48 8b 45 f8          	mov    -0x8(%rbp),%rax
  406113:	48 8b 40 08          	mov    0x8(%rax),%rax
  406117:	48 8d 50 01          	lea    0x1(%rax),%rdx
  40611b:	48 8b 45 f8          	mov    -0x8(%rbp),%rax
  40611f:	48 89 50 08          	mov    %rdx,0x8(%rax)
  406123:	eb 1e                	jmp    406143 <_ZNSt6vectorIhSaIhEE12emplace_backIIcEEEvDpOT_+0x7f>
  406125:	48 8b 45 f0          	mov    -0x10(%rbp),%rax
  406129:	48 89 c7             	mov    %rax,%rdi
  40612c:	e8 85 ff ff ff       	callq  4060b6 <_ZSt7forwardIcEOT_RNSt16remove_referenceIS0_E4typeE>
  406131:	48 89 c2             	mov    %rax,%rdx
  406134:	48 8b 45 f8          	mov    -0x8(%rbp),%rax
  406138:	48 89 d6             	mov    %rdx,%rsi
  40613b:	48 89 c7             	mov    %rax,%rdi
  40613e:	e8 31 03 00 00       	callq  406474 <_ZNSt6vectorIhSaIhEE19_M_emplace_back_auxIIcEEEvDpOT_>
  406143:	90                   	nop
  406144:	c9                   	leaveq 
  406145:	c3                   	retq   

0000000000406146 <_ZNSt8_Rb_treeINSt7__cxx1112basic_stringIcSt11char_traitsIcESaIcEEESt4pairIKS5_S5_ESt10_Select1stIS8_ESt4lessIS5_ESaIS8_EE21_M_get_Node_allocatorEv>:
  406146:	55                   	push   %rbp
  406147:	48 89 e5             	mov    %rsp,%rbp
  40614a:	48 89 7d f8          	mov    %rdi,-0x8(%rbp)
  40614e:	48 8b 45 f8          	mov    -0x8(%rbp),%rax
  406152:	5d                   	pop    %rbp
  406153:	c3                   	retq   

0000000000406154 <_ZNSt16allocator_traitsISaISt13_Rb_tree_nodeISt4pairIKNSt7__cxx1112basic_stringIcSt11char_traitsIcESaIcEEES7_EEEE7destroyIS9_EEvRSB_PT_>:
  406154:	55                   	push   %rbp
  406155:	48 89 e5             	mov    %rsp,%rbp
  406158:	48 83 ec 10          	sub    $0x10,%rsp
  40615c:	48 89 7d f8          	mov    %rdi,-0x8(%rbp)
  406160:	48 89 75 f0          	mov    %rsi,-0x10(%rbp)
  406164:	48 8b 55 f0          	mov    -0x10(%rbp),%rdx
  406168:	48 8b 45 f8          	mov    -0x8(%rbp),%rax
  40616c:	48 89 d6             	mov    %rdx,%rsi
  40616f:	48 89 c7             	mov    %rax,%rdi
  406172:	e8 d1 04 00 00       	callq  406648 <_ZN9__gnu_cxx13new_allocatorISt13_Rb_tree_nodeISt4pairIKNSt7__cxx1112basic_stringIcSt11char_traitsIcESaIcEEES8_EEE7destroyISA_EEvPT_>
  406177:	90                   	nop
  406178:	c9                   	leaveq 
  406179:	c3                   	retq   

000000000040617a <_ZNSt16allocator_traitsISaISt13_Rb_tree_nodeISt4pairIKNSt7__cxx1112basic_stringIcSt11char_traitsIcESaIcEEES7_EEEE10deallocateERSB_PSA_m>:
  40617a:	55                   	push   %rbp
  40617b:	48 89 e5             	mov    %rsp,%rbp
  40617e:	48 83 ec 20          	sub    $0x20,%rsp
  406182:	48 89 7d f8          	mov    %rdi,-0x8(%rbp)
  406186:	48 89 75 f0          	mov    %rsi,-0x10(%rbp)
  40618a:	48 89 55 e8          	mov    %rdx,-0x18(%rbp)
  40618e:	48 8b 55 e8          	mov    -0x18(%rbp),%rdx
  406192:	48 8b 4d f0          	mov    -0x10(%rbp),%rcx
  406196:	48 8b 45 f8          	mov    -0x8(%rbp),%rax
  40619a:	48 89 ce             	mov    %rcx,%rsi
  40619d:	48 89 c7             	mov    %rax,%rdi
  4061a0:	e8 c3 04 00 00       	callq  406668 <_ZN9__gnu_cxx13new_allocatorISt13_Rb_tree_nodeISt4pairIKNSt7__cxx1112basic_stringIcSt11char_traitsIcESaIcEEES8_EEE10deallocateEPSB_m>
  4061a5:	90                   	nop
  4061a6:	c9                   	leaveq 
  4061a7:	c3                   	retq   

00000000004061a8 <_ZN9__gnu_cxx13new_allocatorIhE10deallocateEPhm>:
  4061a8:	55                   	push   %rbp
  4061a9:	48 89 e5             	mov    %rsp,%rbp
  4061ac:	48 83 ec 20          	sub    $0x20,%rsp
  4061b0:	48 89 7d f8          	mov    %rdi,-0x8(%rbp)
  4061b4:	48 89 75 f0          	mov    %rsi,-0x10(%rbp)
  4061b8:	48 89 55 e8          	mov    %rdx,-0x18(%rbp)
  4061bc:	48 8b 45 f0          	mov    -0x10(%rbp),%rax
  4061c0:	48 89 c7             	mov    %rax,%rdi
  4061c3:	e8 88 cb ff ff       	callq  402d50 <_ZdlPv@plt>
  4061c8:	90                   	nop
  4061c9:	c9                   	leaveq 
  4061ca:	c3                   	retq   
  4061cb:	90                   	nop

00000000004061cc <_ZN9__gnu_cxx16__aligned_membufISt4pairIKNSt7__cxx1112basic_stringIcSt11char_traitsIcESaIcEEES7_EE7_M_addrEv>:
  4061cc:	55                   	push   %rbp
  4061cd:	48 89 e5             	mov    %rsp,%rbp
  4061d0:	48 89 7d f8          	mov    %rdi,-0x8(%rbp)
  4061d4:	48 8b 45 f8          	mov    -0x8(%rbp),%rax
  4061d8:	5d                   	pop    %rbp
  4061d9:	c3                   	retq   

00000000004061da <_ZNSt16allocator_traitsISaISt13_Rb_tree_nodeISt4pairIKNSt7__cxx1112basic_stringIcSt11char_traitsIcESaIcEEES7_EEEE8allocateERSB_m>:
  4061da:	55                   	push   %rbp
  4061db:	48 89 e5             	mov    %rsp,%rbp
  4061de:	48 83 ec 10          	sub    $0x10,%rsp
  4061e2:	48 89 7d f8          	mov    %rdi,-0x8(%rbp)
  4061e6:	48 89 75 f0          	mov    %rsi,-0x10(%rbp)
  4061ea:	48 8b 4d f0          	mov    -0x10(%rbp),%rcx
  4061ee:	48 8b 45 f8          	mov    -0x8(%rbp),%rax
  4061f2:	ba 00 00 00 00       	mov    $0x0,%edx
  4061f7:	48 89 ce             	mov    %rcx,%rsi
  4061fa:	48 89 c7             	mov    %rax,%rdi
  4061fd:	e8 8a 04 00 00       	callq  40668c <_ZN9__gnu_cxx13new_allocatorISt13_Rb_tree_nodeISt4pairIKNSt7__cxx1112basic_stringIcSt11char_traitsIcESaIcEEES8_EEE8allocateEmPKv>
  406202:	c9                   	leaveq 
  406203:	c3                   	retq   

0000000000406204 <_ZNSt16allocator_traitsISaISt13_Rb_tree_nodeISt4pairIKNSt7__cxx1112basic_stringIcSt11char_traitsIcESaIcEEES7_EEEE9constructIS9_IRKSt21piecewise_construct_tSt5tupleIIOS7_EESH_IIEEEEEvRSB_PT_DpOT0_>:
  406204:	55                   	push   %rbp
  406205:	48 89 e5             	mov    %rsp,%rbp
  406208:	41 54                	push   %r12
  40620a:	53                   	push   %rbx
  40620b:	48 83 ec 30          	sub    $0x30,%rsp
  40620f:	48 89 7d e8          	mov    %rdi,-0x18(%rbp)
  406213:	48 89 75 e0          	mov    %rsi,-0x20(%rbp)
  406217:	48 89 55 d8          	mov    %rdx,-0x28(%rbp)
  40621b:	48 89 4d d0          	mov    %rcx,-0x30(%rbp)
  40621f:	4c 89 45 c8          	mov    %r8,-0x38(%rbp)
  406223:	48 8b 45 c8          	mov    -0x38(%rbp),%rax
  406227:	48 89 c7             	mov    %rax,%rdi
  40622a:	e8 7e e7 ff ff       	callq  4049ad <_ZSt7forwardISt5tupleIIEEEOT_RNSt16remove_referenceIS2_E4typeE>
  40622f:	49 89 c4             	mov    %rax,%r12
  406232:	48 8b 45 d0          	mov    -0x30(%rbp),%rax
  406236:	48 89 c7             	mov    %rax,%rdi
  406239:	e8 61 e7 ff ff       	callq  40499f <_ZSt7forwardISt5tupleIIONSt7__cxx1112basic_stringIcSt11char_traitsIcESaIcEEEEEEOT_RNSt16remove_referenceIS9_E4typeE>
  40623e:	48 89 c3             	mov    %rax,%rbx
  406241:	48 8b 45 d8          	mov    -0x28(%rbp),%rax
  406245:	48 89 c7             	mov    %rax,%rdi
  406248:	e8 44 e7 ff ff       	callq  404991 <_ZSt7forwardIRKSt21piecewise_construct_tEOT_RNSt16remove_referenceIS3_E4typeE>
  40624d:	48 89 c2             	mov    %rax,%rdx
  406250:	48 8b 75 e0          	mov    -0x20(%rbp),%rsi
  406254:	48 8b 45 e8          	mov    -0x18(%rbp),%rax
  406258:	4d 89 e0             	mov    %r12,%r8
  40625b:	48 89 d9             	mov    %rbx,%rcx
  40625e:	48 89 c7             	mov    %rax,%rdi
  406261:	e8 72 04 00 00       	callq  4066d8 <_ZN9__gnu_cxx13new_allocatorISt13_Rb_tree_nodeISt4pairIKNSt7__cxx1112basic_stringIcSt11char_traitsIcESaIcEEES8_EEE9constructISA_IRKSt21piecewise_construct_tSt5tupleIIOS8_EESH_IIEEEEEvPT_DpOT0_>
  406266:	90                   	nop
  406267:	48 83 c4 30          	add    $0x30,%rsp
  40626b:	5b                   	pop    %rbx
  40626c:	41 5c                	pop    %r12
  40626e:	5d                   	pop    %rbp
  40626f:	c3                   	retq   

0000000000406270 <_ZNSt8_Rb_treeINSt7__cxx1112basic_stringIcSt11char_traitsIcESaIcEEESt4pairIKS5_S5_ESt10_Select1stIS8_ESt4lessIS5_ESaIS8_EE8_S_valueEPKSt18_Rb_tree_node_base>:
  406270:	55                   	push   %rbp
  406271:	48 89 e5             	mov    %rsp,%rbp
  406274:	48 83 ec 10          	sub    $0x10,%rsp
  406278:	48 89 7d f8          	mov    %rdi,-0x8(%rbp)
  40627c:	48 8b 45 f8          	mov    -0x8(%rbp),%rax
  406280:	48 89 c7             	mov    %rax,%rdi
  406283:	e8 4e 00 00 00       	callq  4062d6 <_ZNKSt13_Rb_tree_nodeISt4pairIKNSt7__cxx1112basic_stringIcSt11char_traitsIcESaIcEEES6_EE9_M_valptrEv>
  406288:	c9                   	leaveq 
  406289:	c3                   	retq   

000000000040628a <_ZNSt8_Rb_treeINSt7__cxx1112basic_stringIcSt11char_traitsIcESaIcEEESt4pairIKS5_S5_ESt10_Select1stIS8_ESt4lessIS5_ESaIS8_EE5beginEv>:
  40628a:	55                   	push   %rbp
  40628b:	48 89 e5             	mov    %rsp,%rbp
  40628e:	48 83 ec 20          	sub    $0x20,%rsp
  406292:	48 89 7d e8          	mov    %rdi,-0x18(%rbp)
  406296:	64 48 8b 04 25 28 00 	mov    %fs:0x28,%rax
  40629d:	00 00 
  40629f:	48 89 45 f8          	mov    %rax,-0x8(%rbp)
  4062a3:	31 c0                	xor    %eax,%eax
  4062a5:	48 8b 45 e8          	mov    -0x18(%rbp),%rax
  4062a9:	48 8b 50 18          	mov    0x18(%rax),%rdx
  4062ad:	48 8d 45 f0          	lea    -0x10(%rbp),%rax
  4062b1:	48 89 d6             	mov    %rdx,%rsi
  4062b4:	48 89 c7             	mov    %rax,%rdi
  4062b7:	e8 b0 f2 ff ff       	callq  40556c <_ZNSt17_Rb_tree_iteratorISt4pairIKNSt7__cxx1112basic_stringIcSt11char_traitsIcESaIcEEES6_EEC1EPSt18_Rb_tree_node_base>
  4062bc:	48 8b 45 f0          	mov    -0x10(%rbp),%rax
  4062c0:	48 8b 4d f8          	mov    -0x8(%rbp),%rcx
  4062c4:	64 48 33 0c 25 28 00 	xor    %fs:0x28,%rcx
  4062cb:	00 00 
  4062cd:	74 05                	je     4062d4 <_ZNSt8_Rb_treeINSt7__cxx1112basic_stringIcSt11char_traitsIcESaIcEEESt4pairIKS5_S5_ESt10_Select1stIS8_ESt4lessIS5_ESaIS8_EE5beginEv+0x4a>
  4062cf:	e8 3c cb ff ff       	callq  402e10 <__stack_chk_fail@plt>
  4062d4:	c9                   	leaveq 
  4062d5:	c3                   	retq   

00000000004062d6 <_ZNKSt13_Rb_tree_nodeISt4pairIKNSt7__cxx1112basic_stringIcSt11char_traitsIcESaIcEEES6_EE9_M_valptrEv>:
  4062d6:	55                   	push   %rbp
  4062d7:	48 89 e5             	mov    %rsp,%rbp
  4062da:	48 83 ec 10          	sub    $0x10,%rsp
  4062de:	48 89 7d f8          	mov    %rdi,-0x8(%rbp)
  4062e2:	48 8b 45 f8          	mov    -0x8(%rbp),%rax
  4062e6:	48 83 c0 20          	add    $0x20,%rax
  4062ea:	48 89 c7             	mov    %rax,%rdi
  4062ed:	e8 c4 04 00 00       	callq  4067b6 <_ZNK9__gnu_cxx16__aligned_membufISt4pairIKNSt7__cxx1112basic_stringIcSt11char_traitsIcESaIcEEES7_EE6_M_ptrEv>
  4062f2:	c9                   	leaveq 
  4062f3:	c3                   	retq   

00000000004062f4 <_ZN9__gnu_cxx13new_allocatorISt13_Rb_tree_nodeISt4pairIKNSt7__cxx1112basic_stringIcSt11char_traitsIcESaIcEEES8_EEEC1ERKSC_>:
  4062f4:	55                   	push   %rbp
  4062f5:	48 89 e5             	mov    %rsp,%rbp
  4062f8:	48 89 7d f8          	mov    %rdi,-0x8(%rbp)
  4062fc:	48 89 75 f0          	mov    %rsi,-0x10(%rbp)
  406300:	90                   	nop
  406301:	5d                   	pop    %rbp
  406302:	c3                   	retq   
  406303:	90                   	nop

0000000000406304 <_ZNKSt8_Rb_treeINSt7__cxx1112basic_stringIcSt11char_traitsIcESaIcEEESt4pairIKS5_S5_ESt10_Select1stIS8_ESt4lessIS5_ESaIS8_EE11_Alloc_nodeclIRKS8_EEPSt13_Rb_tree_nodeIS8_EOT_>:
  406304:	55                   	push   %rbp
  406305:	48 89 e5             	mov    %rsp,%rbp
  406308:	48 83 ec 10          	sub    $0x10,%rsp
  40630c:	48 89 7d f8          	mov    %rdi,-0x8(%rbp)
  406310:	48 89 75 f0          	mov    %rsi,-0x10(%rbp)
  406314:	48 8b 45 f0          	mov    -0x10(%rbp),%rax
  406318:	48 89 c7             	mov    %rax,%rdi
  40631b:	e8 3a f3 ff ff       	callq  40565a <_ZSt7forwardIRKSt4pairIKNSt7__cxx1112basic_stringIcSt11char_traitsIcESaIcEEES6_EEOT_RNSt16remove_referenceISB_E4typeE>
  406320:	48 89 c2             	mov    %rax,%rdx
  406323:	48 8b 45 f8          	mov    -0x8(%rbp),%rax
  406327:	48 8b 00             	mov    (%rax),%rax
  40632a:	48 89 d6             	mov    %rdx,%rsi
  40632d:	48 89 c7             	mov    %rax,%rdi
  406330:	e8 9b 04 00 00       	callq  4067d0 <_ZNSt8_Rb_treeINSt7__cxx1112basic_stringIcSt11char_traitsIcESaIcEEESt4pairIKS5_S5_ESt10_Select1stIS8_ESt4lessIS5_ESaIS8_EE14_M_create_nodeIIRKS8_EEEPSt13_Rb_tree_nodeIS8_EDpOT_>
  406335:	c9                   	leaveq 
  406336:	c3                   	retq   
  406337:	90                   	nop

0000000000406338 <_ZN9__gnu_cxx13new_allocatorIhEC1ERKS1_>:
  406338:	55                   	push   %rbp
  406339:	48 89 e5             	mov    %rsp,%rbp
  40633c:	48 89 7d f8          	mov    %rdi,-0x8(%rbp)
  406340:	48 89 75 f0          	mov    %rsi,-0x10(%rbp)
  406344:	90                   	nop
  406345:	5d                   	pop    %rbp
  406346:	c3                   	retq   
  406347:	90                   	nop

0000000000406348 <_ZNKSt19istreambuf_iteratorIcSt11char_traitsIcEE5equalERKS2_>:
  406348:	55                   	push   %rbp
  406349:	48 89 e5             	mov    %rsp,%rbp
  40634c:	53                   	push   %rbx
  40634d:	48 83 ec 18          	sub    $0x18,%rsp
  406351:	48 89 7d e8          	mov    %rdi,-0x18(%rbp)
  406355:	48 89 75 e0          	mov    %rsi,-0x20(%rbp)
  406359:	48 8b 45 e8          	mov    -0x18(%rbp),%rax
  40635d:	48 89 c7             	mov    %rax,%rdi
  406360:	e8 b3 04 00 00       	callq  406818 <_ZNKSt19istreambuf_iteratorIcSt11char_traitsIcEE9_M_at_eofEv>
  406365:	89 c3                	mov    %eax,%ebx
  406367:	48 8b 45 e0          	mov    -0x20(%rbp),%rax
  40636b:	48 89 c7             	mov    %rax,%rdi
  40636e:	e8 a5 04 00 00       	callq  406818 <_ZNKSt19istreambuf_iteratorIcSt11char_traitsIcEE9_M_at_eofEv>
  406373:	38 c3                	cmp    %al,%bl
  406375:	0f 94 c0             	sete   %al
  406378:	48 83 c4 18          	add    $0x18,%rsp
  40637c:	5b                   	pop    %rbx
  40637d:	5d                   	pop    %rbp
  40637e:	c3                   	retq   
  40637f:	90                   	nop

0000000000406380 <_ZNKSt19istreambuf_iteratorIcSt11char_traitsIcEE6_M_getEv>:
  406380:	55                   	push   %rbp
  406381:	48 89 e5             	mov    %rsp,%rbp
  406384:	48 83 ec 20          	sub    $0x20,%rsp
  406388:	48 89 7d e8          	mov    %rdi,-0x18(%rbp)
  40638c:	64 48 8b 04 25 28 00 	mov    %fs:0x28,%rax
  406393:	00 00 
  406395:	48 89 45 f8          	mov    %rax,-0x8(%rbp)
  406399:	31 c0                	xor    %eax,%eax
  40639b:	c7 45 f0 ff ff ff ff 	movl   $0xffffffff,-0x10(%rbp)
  4063a2:	c7 45 f4 ff ff ff ff 	movl   $0xffffffff,-0xc(%rbp)
  4063a9:	48 8b 45 e8          	mov    -0x18(%rbp),%rax
  4063ad:	48 8b 00             	mov    (%rax),%rax
  4063b0:	48 85 c0             	test   %rax,%rax
  4063b3:	74 6d                	je     406422 <_ZNKSt19istreambuf_iteratorIcSt11char_traitsIcEE6_M_getEv+0xa2>
  4063b5:	48 8b 45 e8          	mov    -0x18(%rbp),%rax
  4063b9:	48 8d 50 08          	lea    0x8(%rax),%rdx
  4063bd:	48 8d 45 f0          	lea    -0x10(%rbp),%rax
  4063c1:	48 89 c6             	mov    %rax,%rsi
  4063c4:	48 89 d7             	mov    %rdx,%rdi
  4063c7:	e8 73 d8 ff ff       	callq  403c3f <_ZNSt11char_traitsIcE11eq_int_typeERKiS2_>
  4063cc:	83 f0 01             	xor    $0x1,%eax
  4063cf:	84 c0                	test   %al,%al
  4063d1:	74 0c                	je     4063df <_ZNKSt19istreambuf_iteratorIcSt11char_traitsIcEE6_M_getEv+0x5f>
  4063d3:	48 8b 45 e8          	mov    -0x18(%rbp),%rax
  4063d7:	8b 40 08             	mov    0x8(%rax),%eax
  4063da:	89 45 f4             	mov    %eax,-0xc(%rbp)
  4063dd:	eb 43                	jmp    406422 <_ZNKSt19istreambuf_iteratorIcSt11char_traitsIcEE6_M_getEv+0xa2>
  4063df:	48 8b 45 e8          	mov    -0x18(%rbp),%rax
  4063e3:	48 8b 00             	mov    (%rax),%rax
  4063e6:	48 89 c7             	mov    %rax,%rdi
  4063e9:	e8 e2 ca ff ff       	callq  402ed0 <_ZNSt15basic_streambufIcSt11char_traitsIcEE5sgetcEv@plt>
  4063ee:	89 45 f4             	mov    %eax,-0xc(%rbp)
  4063f1:	48 8d 55 f0          	lea    -0x10(%rbp),%rdx
  4063f5:	48 8d 45 f4          	lea    -0xc(%rbp),%rax
  4063f9:	48 89 d6             	mov    %rdx,%rsi
  4063fc:	48 89 c7             	mov    %rax,%rdi
  4063ff:	e8 3b d8 ff ff       	callq  403c3f <_ZNSt11char_traitsIcE11eq_int_typeERKiS2_>
  406404:	83 f0 01             	xor    $0x1,%eax
  406407:	84 c0                	test   %al,%al
  406409:	74 0c                	je     406417 <_ZNKSt19istreambuf_iteratorIcSt11char_traitsIcEE6_M_getEv+0x97>
  40640b:	8b 55 f4             	mov    -0xc(%rbp),%edx
  40640e:	48 8b 45 e8          	mov    -0x18(%rbp),%rax
  406412:	89 50 08             	mov    %edx,0x8(%rax)
  406415:	eb 0b                	jmp    406422 <_ZNKSt19istreambuf_iteratorIcSt11char_traitsIcEE6_M_getEv+0xa2>
  406417:	48 8b 45 e8          	mov    -0x18(%rbp),%rax
  40641b:	48 c7 00 00 00 00 00 	movq   $0x0,(%rax)
  406422:	8b 45 f4             	mov    -0xc(%rbp),%eax
  406425:	48 8b 4d f8          	mov    -0x8(%rbp),%rcx
  406429:	64 48 33 0c 25 28 00 	xor    %fs:0x28,%rcx
  406430:	00 00 
  406432:	74 05                	je     406439 <_ZNKSt19istreambuf_iteratorIcSt11char_traitsIcEE6_M_getEv+0xb9>
  406434:	e8 d7 c9 ff ff       	callq  402e10 <__stack_chk_fail@plt>
  406439:	c9                   	leaveq 
  40643a:	c3                   	retq   

000000000040643b <_ZNSt16allocator_traitsISaIhEE9constructIhIcEEEvRS0_PT_DpOT0_>:
  40643b:	55                   	push   %rbp
  40643c:	48 89 e5             	mov    %rsp,%rbp
  40643f:	48 83 ec 20          	sub    $0x20,%rsp
  406443:	48 89 7d f8          	mov    %rdi,-0x8(%rbp)
  406447:	48 89 75 f0          	mov    %rsi,-0x10(%rbp)
  40644b:	48 89 55 e8          	mov    %rdx,-0x18(%rbp)
  40644f:	48 8b 45 e8          	mov    -0x18(%rbp),%rax
  406453:	48 89 c7             	mov    %rax,%rdi
  406456:	e8 5b fc ff ff       	callq  4060b6 <_ZSt7forwardIcEOT_RNSt16remove_referenceIS0_E4typeE>
  40645b:	48 89 c2             	mov    %rax,%rdx
  40645e:	48 8b 4d f0          	mov    -0x10(%rbp),%rcx
  406462:	48 8b 45 f8          	mov    -0x8(%rbp),%rax
  406466:	48 89 ce             	mov    %rcx,%rsi
  406469:	48 89 c7             	mov    %rax,%rdi
  40646c:	e8 01 04 00 00       	callq  406872 <_ZN9__gnu_cxx13new_allocatorIhE9constructIhIcEEEvPT_DpOT0_>
  406471:	90                   	nop
  406472:	c9                   	leaveq 
  406473:	c3                   	retq   

0000000000406474 <_ZNSt6vectorIhSaIhEE19_M_emplace_back_auxIIcEEEvDpOT_>:
  406474:	55                   	push   %rbp
  406475:	48 89 e5             	mov    %rsp,%rbp
  406478:	53                   	push   %rbx
  406479:	48 83 ec 38          	sub    $0x38,%rsp
  40647d:	48 89 7d c8          	mov    %rdi,-0x38(%rbp)
  406481:	48 89 75 c0          	mov    %rsi,-0x40(%rbp)
  406485:	48 8b 45 c8          	mov    -0x38(%rbp),%rax
  406489:	ba 06 df 40 00       	mov    $0x40df06,%edx
  40648e:	be 01 00 00 00       	mov    $0x1,%esi
  406493:	48 89 c7             	mov    %rax,%rdi
  406496:	e8 49 04 00 00       	callq  4068e4 <_ZNKSt6vectorIhSaIhEE12_M_check_lenEmPKc>
  40649b:	48 89 45 e0          	mov    %rax,-0x20(%rbp)
  40649f:	48 8b 45 c8          	mov    -0x38(%rbp),%rax
  4064a3:	48 8b 55 e0          	mov    -0x20(%rbp),%rdx
  4064a7:	48 89 d6             	mov    %rdx,%rsi
  4064aa:	48 89 c7             	mov    %rax,%rdi
  4064ad:	e8 1e 05 00 00       	callq  4069d0 <_ZNSt12_Vector_baseIhSaIhEE11_M_allocateEm>
  4064b2:	48 89 45 e8          	mov    %rax,-0x18(%rbp)
  4064b6:	48 8b 45 e8          	mov    -0x18(%rbp),%rax
  4064ba:	48 89 45 d8          	mov    %rax,-0x28(%rbp)
  4064be:	48 8b 45 c0          	mov    -0x40(%rbp),%rax
  4064c2:	48 89 c7             	mov    %rax,%rdi
  4064c5:	e8 ec fb ff ff       	callq  4060b6 <_ZSt7forwardIcEOT_RNSt16remove_referenceIS0_E4typeE>
  4064ca:	48 89 c3             	mov    %rax,%rbx
  4064cd:	48 8b 45 c8          	mov    -0x38(%rbp),%rax
  4064d1:	48 89 c7             	mov    %rax,%rdi
  4064d4:	e8 db e0 ff ff       	callq  4045b4 <_ZNKSt6vectorIhSaIhEE4sizeEv>
  4064d9:	48 89 c2             	mov    %rax,%rdx
  4064dc:	48 8b 45 e8          	mov    -0x18(%rbp),%rax
  4064e0:	48 8d 0c 02          	lea    (%rdx,%rax,1),%rcx
  4064e4:	48 8b 45 c8          	mov    -0x38(%rbp),%rax
  4064e8:	48 89 da             	mov    %rbx,%rdx
  4064eb:	48 89 ce             	mov    %rcx,%rsi
  4064ee:	48 89 c7             	mov    %rax,%rdi
  4064f1:	e8 45 ff ff ff       	callq  40643b <_ZNSt16allocator_traitsISaIhEE9constructIhIcEEEvRS0_PT_DpOT0_>
  4064f6:	48 c7 45 d8 00 00 00 	movq   $0x0,-0x28(%rbp)
  4064fd:	00 
  4064fe:	48 8b 45 c8          	mov    -0x38(%rbp),%rax
  406502:	48 89 c7             	mov    %rax,%rdi
  406505:	e8 00 e2 ff ff       	callq  40470a <_ZNSt12_Vector_baseIhSaIhEE19_M_get_Tp_allocatorEv>
  40650a:	48 89 c1             	mov    %rax,%rcx
  40650d:	48 8b 45 c8          	mov    -0x38(%rbp),%rax
  406511:	48 8b 70 08          	mov    0x8(%rax),%rsi
  406515:	48 8b 45 c8          	mov    -0x38(%rbp),%rax
  406519:	48 8b 00             	mov    (%rax),%rax
  40651c:	48 8b 55 e8          	mov    -0x18(%rbp),%rdx
  406520:	48 89 c7             	mov    %rax,%rdi
  406523:	e8 db 04 00 00       	callq  406a03 <_ZSt34__uninitialized_move_if_noexcept_aIPhS0_SaIhEET0_T_S3_S2_RT1_>
  406528:	48 89 45 d8          	mov    %rax,-0x28(%rbp)
  40652c:	48 83 45 d8 01       	addq   $0x1,-0x28(%rbp)
  406531:	48 8b 45 c8          	mov    -0x38(%rbp),%rax
  406535:	48 89 c7             	mov    %rax,%rdi
  406538:	e8 cd e1 ff ff       	callq  40470a <_ZNSt12_Vector_baseIhSaIhEE19_M_get_Tp_allocatorEv>
  40653d:	48 89 c2             	mov    %rax,%rdx
  406540:	48 8b 45 c8          	mov    -0x38(%rbp),%rax
  406544:	48 8b 48 08          	mov    0x8(%rax),%rcx
  406548:	48 8b 45 c8          	mov    -0x38(%rbp),%rax
  40654c:	48 8b 00             	mov    (%rax),%rax
  40654f:	48 89 ce             	mov    %rcx,%rsi
  406552:	48 89 c7             	mov    %rax,%rdi
  406555:	e8 be e1 ff ff       	callq  404718 <_ZSt8_DestroyIPhhEvT_S1_RSaIT0_E>
  40655a:	48 8b 45 c8          	mov    -0x38(%rbp),%rax
  40655e:	48 8b 40 10          	mov    0x10(%rax),%rax
  406562:	48 89 c2             	mov    %rax,%rdx
  406565:	48 8b 45 c8          	mov    -0x38(%rbp),%rax
  406569:	48 8b 00             	mov    (%rax),%rax
  40656c:	48 29 c2             	sub    %rax,%rdx
  40656f:	48 89 d0             	mov    %rdx,%rax
  406572:	48 89 c2             	mov    %rax,%rdx
  406575:	48 8b 45 c8          	mov    -0x38(%rbp),%rax
  406579:	48 8b 08             	mov    (%rax),%rcx
  40657c:	48 8b 45 c8          	mov    -0x38(%rbp),%rax
  406580:	48 89 ce             	mov    %rcx,%rsi
  406583:	48 89 c7             	mov    %rax,%rdi
  406586:	e8 ad e8 ff ff       	callq  404e38 <_ZNSt12_Vector_baseIhSaIhEE13_M_deallocateEPhm>
  40658b:	48 8b 45 c8          	mov    -0x38(%rbp),%rax
  40658f:	48 8b 55 e8          	mov    -0x18(%rbp),%rdx
  406593:	48 89 10             	mov    %rdx,(%rax)
  406596:	48 8b 45 c8          	mov    -0x38(%rbp),%rax
  40659a:	48 8b 55 d8          	mov    -0x28(%rbp),%rdx
  40659e:	48 89 50 08          	mov    %rdx,0x8(%rax)
  4065a2:	48 8b 55 e8          	mov    -0x18(%rbp),%rdx
  4065a6:	48 8b 45 e0          	mov    -0x20(%rbp),%rax
  4065aa:	48 01 c2             	add    %rax,%rdx
  4065ad:	48 8b 45 c8          	mov    -0x38(%rbp),%rax
  4065b1:	48 89 50 10          	mov    %rdx,0x10(%rax)
  4065b5:	e9 87 00 00 00       	jmpq   406641 <_ZNSt6vectorIhSaIhEE19_M_emplace_back_auxIIcEEEvDpOT_+0x1cd>
  4065ba:	48 89 c7             	mov    %rax,%rdi
  4065bd:	e8 ae c5 ff ff       	callq  402b70 <__cxa_begin_catch@plt>
  4065c2:	48 83 7d d8 00       	cmpq   $0x0,-0x28(%rbp)
  4065c7:	75 27                	jne    4065f0 <_ZNSt6vectorIhSaIhEE19_M_emplace_back_auxIIcEEEvDpOT_+0x17c>
  4065c9:	48 8b 45 c8          	mov    -0x38(%rbp),%rax
  4065cd:	48 89 c7             	mov    %rax,%rdi
  4065d0:	e8 df df ff ff       	callq  4045b4 <_ZNKSt6vectorIhSaIhEE4sizeEv>
  4065d5:	48 89 c2             	mov    %rax,%rdx
  4065d8:	48 8b 45 e8          	mov    -0x18(%rbp),%rax
  4065dc:	48 01 c2             	add    %rax,%rdx
  4065df:	48 8b 45 c8          	mov    -0x38(%rbp),%rax
  4065e3:	48 89 d6             	mov    %rdx,%rsi
  4065e6:	48 89 c7             	mov    %rax,%rdi
  4065e9:	e8 69 04 00 00       	callq  406a57 <_ZNSt16allocator_traitsISaIhEE7destroyIhEEvRS0_PT_>
  4065ee:	eb 22                	jmp    406612 <_ZNSt6vectorIhSaIhEE19_M_emplace_back_auxIIcEEEvDpOT_+0x19e>
  4065f0:	48 8b 45 c8          	mov    -0x38(%rbp),%rax
  4065f4:	48 89 c7             	mov    %rax,%rdi
  4065f7:	e8 0e e1 ff ff       	callq  40470a <_ZNSt12_Vector_baseIhSaIhEE19_M_get_Tp_allocatorEv>
  4065fc:	48 89 c2             	mov    %rax,%rdx
  4065ff:	48 8b 4d d8          	mov    -0x28(%rbp),%rcx
  406603:	48 8b 45 e8          	mov    -0x18(%rbp),%rax
  406607:	48 89 ce             	mov    %rcx,%rsi
  40660a:	48 89 c7             	mov    %rax,%rdi
  40660d:	e8 06 e1 ff ff       	callq  404718 <_ZSt8_DestroyIPhhEvT_S1_RSaIT0_E>
  406612:	48 8b 45 c8          	mov    -0x38(%rbp),%rax
  406616:	48 8b 55 e0          	mov    -0x20(%rbp),%rdx
  40661a:	48 8b 4d e8          	mov    -0x18(%rbp),%rcx
  40661e:	48 89 ce             	mov    %rcx,%rsi
  406621:	48 89 c7             	mov    %rax,%rdi
  406624:	e8 0f e8 ff ff       	callq  404e38 <_ZNSt12_Vector_baseIhSaIhEE13_M_deallocateEPhm>
  406629:	e8 82 c8 ff ff       	callq  402eb0 <__cxa_rethrow@plt>
  40662e:	48 89 c3             	mov    %rax,%rbx
  406631:	e8 fa c8 ff ff       	callq  402f30 <__cxa_end_catch@plt>
  406636:	48 89 d8             	mov    %rbx,%rax
  406639:	48 89 c7             	mov    %rax,%rdi
  40663c:	e8 7f c9 ff ff       	callq  402fc0 <_Unwind_Resume@plt>
  406641:	48 83 c4 38          	add    $0x38,%rsp
  406645:	5b                   	pop    %rbx
  406646:	5d                   	pop    %rbp
  406647:	c3                   	retq   

0000000000406648 <_ZN9__gnu_cxx13new_allocatorISt13_Rb_tree_nodeISt4pairIKNSt7__cxx1112basic_stringIcSt11char_traitsIcESaIcEEES8_EEE7destroyISA_EEvPT_>:
  406648:	55                   	push   %rbp
  406649:	48 89 e5             	mov    %rsp,%rbp
  40664c:	48 83 ec 10          	sub    $0x10,%rsp
  406650:	48 89 7d f8          	mov    %rdi,-0x8(%rbp)
  406654:	48 89 75 f0          	mov    %rsi,-0x10(%rbp)
  406658:	48 8b 45 f0          	mov    -0x10(%rbp),%rax
  40665c:	48 89 c7             	mov    %rax,%rdi
  40665f:	e8 58 d7 ff ff       	callq  403dbc <_ZNSt4pairIKNSt7__cxx1112basic_stringIcSt11char_traitsIcESaIcEEES5_ED1Ev>
  406664:	90                   	nop
  406665:	c9                   	leaveq 
  406666:	c3                   	retq   
  406667:	90                   	nop

0000000000406668 <_ZN9__gnu_cxx13new_allocatorISt13_Rb_tree_nodeISt4pairIKNSt7__cxx1112basic_stringIcSt11char_traitsIcESaIcEEES8_EEE10deallocateEPSB_m>:
  406668:	55                   	push   %rbp
  406669:	48 89 e5             	mov    %rsp,%rbp
  40666c:	48 83 ec 20          	sub    $0x20,%rsp
  406670:	48 89 7d f8          	mov    %rdi,-0x8(%rbp)
  406674:	48 89 75 f0          	mov    %rsi,-0x10(%rbp)
  406678:	48 89 55 e8          	mov    %rdx,-0x18(%rbp)
  40667c:	48 8b 45 f0          	mov    -0x10(%rbp),%rax
  406680:	48 89 c7             	mov    %rax,%rdi
  406683:	e8 c8 c6 ff ff       	callq  402d50 <_ZdlPv@plt>
  406688:	90                   	nop
  406689:	c9                   	leaveq 
  40668a:	c3                   	retq   
  40668b:	90                   	nop

000000000040668c <_ZN9__gnu_cxx13new_allocatorISt13_Rb_tree_nodeISt4pairIKNSt7__cxx1112basic_stringIcSt11char_traitsIcESaIcEEES8_EEE8allocateEmPKv>:
  40668c:	55                   	push   %rbp
  40668d:	48 89 e5             	mov    %rsp,%rbp
  406690:	48 83 ec 20          	sub    $0x20,%rsp
  406694:	48 89 7d f8          	mov    %rdi,-0x8(%rbp)
  406698:	48 89 75 f0          	mov    %rsi,-0x10(%rbp)
  40669c:	48 89 55 e8          	mov    %rdx,-0x18(%rbp)
  4066a0:	48 8b 45 f8          	mov    -0x8(%rbp),%rax
  4066a4:	48 89 c7             	mov    %rax,%rdi
  4066a7:	e8 d2 03 00 00       	callq  406a7e <_ZNK9__gnu_cxx13new_allocatorISt13_Rb_tree_nodeISt4pairIKNSt7__cxx1112basic_stringIcSt11char_traitsIcESaIcEEES8_EEE8max_sizeEv>
  4066ac:	48 3b 45 f0          	cmp    -0x10(%rbp),%rax
  4066b0:	0f 92 c0             	setb   %al
  4066b3:	84 c0                	test   %al,%al
  4066b5:	74 05                	je     4066bc <_ZN9__gnu_cxx13new_allocatorISt13_Rb_tree_nodeISt4pairIKNSt7__cxx1112basic_stringIcSt11char_traitsIcESaIcEEES8_EEE8allocateEmPKv+0x30>
  4066b7:	e8 94 c4 ff ff       	callq  402b50 <_ZSt17__throw_bad_allocv@plt>
  4066bc:	48 8b 55 f0          	mov    -0x10(%rbp),%rdx
  4066c0:	48 89 d0             	mov    %rdx,%rax
  4066c3:	48 01 c0             	add    %rax,%rax
  4066c6:	48 01 d0             	add    %rdx,%rax
  4066c9:	48 c1 e0 05          	shl    $0x5,%rax
  4066cd:	48 89 c7             	mov    %rax,%rdi
  4066d0:	e8 ab c6 ff ff       	callq  402d80 <_Znwm@plt>
  4066d5:	c9                   	leaveq 
  4066d6:	c3                   	retq   
  4066d7:	90                   	nop

00000000004066d8 <_ZN9__gnu_cxx13new_allocatorISt13_Rb_tree_nodeISt4pairIKNSt7__cxx1112basic_stringIcSt11char_traitsIcESaIcEEES8_EEE9constructISA_IRKSt21piecewise_construct_tSt5tupleIIOS8_EESH_IIEEEEEvPT_DpOT0_>:
  4066d8:	55                   	push   %rbp
  4066d9:	48 89 e5             	mov    %rsp,%rbp
  4066dc:	41 55                	push   %r13
  4066de:	41 54                	push   %r12
  4066e0:	53                   	push   %rbx
  4066e1:	48 83 ec 58          	sub    $0x58,%rsp
  4066e5:	48 89 7d b8          	mov    %rdi,-0x48(%rbp)
  4066e9:	48 89 75 b0          	mov    %rsi,-0x50(%rbp)
  4066ed:	48 89 55 a8          	mov    %rdx,-0x58(%rbp)
  4066f1:	48 89 4d a0          	mov    %rcx,-0x60(%rbp)
  4066f5:	4c 89 45 98          	mov    %r8,-0x68(%rbp)
  4066f9:	64 48 8b 04 25 28 00 	mov    %fs:0x28,%rax
  406700:	00 00 
  406702:	48 89 45 d8          	mov    %rax,-0x28(%rbp)
  406706:	31 c0                	xor    %eax,%eax
  406708:	48 8b 45 a8          	mov    -0x58(%rbp),%rax
  40670c:	48 89 c7             	mov    %rax,%rdi
  40670f:	e8 7d e2 ff ff       	callq  404991 <_ZSt7forwardIRKSt21piecewise_construct_tEOT_RNSt16remove_referenceIS3_E4typeE>
  406714:	44 88 65 ce          	mov    %r12b,-0x32(%rbp)
  406718:	48 8b 45 a0          	mov    -0x60(%rbp),%rax
  40671c:	48 89 c7             	mov    %rax,%rdi
  40671f:	e8 7b e2 ff ff       	callq  40499f <_ZSt7forwardISt5tupleIIONSt7__cxx1112basic_stringIcSt11char_traitsIcESaIcEEEEEEOT_RNSt16remove_referenceIS9_E4typeE>
  406724:	48 89 c2             	mov    %rax,%rdx
  406727:	48 8d 45 d0          	lea    -0x30(%rbp),%rax
  40672b:	48 89 d6             	mov    %rdx,%rsi
  40672e:	48 89 c7             	mov    %rax,%rdi
  406731:	e8 e4 e1 ff ff       	callq  40491a <_ZNSt5tupleIIONSt7__cxx1112basic_stringIcSt11char_traitsIcESaIcEEEEEC1EOS7_>
  406736:	4c 8d 6d d0          	lea    -0x30(%rbp),%r13
  40673a:	48 8b 45 98          	mov    -0x68(%rbp),%rax
  40673e:	48 89 c7             	mov    %rax,%rdi
  406741:	e8 67 e2 ff ff       	callq  4049ad <_ZSt7forwardISt5tupleIIEEEOT_RNSt16remove_referenceIS2_E4typeE>
  406746:	88 5d cf             	mov    %bl,-0x31(%rbp)
  406749:	4c 8b 65 b0          	mov    -0x50(%rbp),%r12
  40674d:	4c 89 e6             	mov    %r12,%rsi
  406750:	bf 40 00 00 00       	mov    $0x40,%edi
  406755:	e8 0f d5 ff ff       	callq  403c69 <_ZnwmPv>
  40675a:	48 89 c3             	mov    %rax,%rbx
  40675d:	48 85 db             	test   %rbx,%rbx
  406760:	74 34                	je     406796 <_ZN9__gnu_cxx13new_allocatorISt13_Rb_tree_nodeISt4pairIKNSt7__cxx1112basic_stringIcSt11char_traitsIcESaIcEEES8_EEE9constructISA_IRKSt21piecewise_construct_tSt5tupleIIOS8_EESH_IIEEEEEvPT_DpOT0_+0xbe>
  406762:	0f b6 45 cf          	movzbl -0x31(%rbp),%eax
  406766:	50                   	push   %rax
  406767:	0f b6 45 ce          	movzbl -0x32(%rbp),%eax
  40676b:	50                   	push   %rax
  40676c:	4c 89 ee             	mov    %r13,%rsi
  40676f:	48 89 df             	mov    %rbx,%rdi
  406772:	e8 1b 03 00 00       	callq  406a92 <_ZNSt4pairIKNSt7__cxx1112basic_stringIcSt11char_traitsIcESaIcEEES5_EC1IIOS5_EIEEESt21piecewise_construct_tSt5tupleIIDpT_EESB_IIDpT0_EE>
  406777:	48 83 c4 10          	add    $0x10,%rsp
  40677b:	eb 19                	jmp    406796 <_ZN9__gnu_cxx13new_allocatorISt13_Rb_tree_nodeISt4pairIKNSt7__cxx1112basic_stringIcSt11char_traitsIcESaIcEEES8_EEE9constructISA_IRKSt21piecewise_construct_tSt5tupleIIOS8_EESH_IIEEEEEvPT_DpOT0_+0xbe>
  40677d:	49 89 c5             	mov    %rax,%r13
  406780:	4c 89 e6             	mov    %r12,%rsi
  406783:	48 89 df             	mov    %rbx,%rdi
  406786:	e8 f0 d4 ff ff       	callq  403c7b <_ZdlPvS_>
  40678b:	4c 89 e8             	mov    %r13,%rax
  40678e:	48 89 c7             	mov    %rax,%rdi
  406791:	e8 2a c8 ff ff       	callq  402fc0 <_Unwind_Resume@plt>
  406796:	90                   	nop
  406797:	48 8b 45 d8          	mov    -0x28(%rbp),%rax
  40679b:	64 48 33 04 25 28 00 	xor    %fs:0x28,%rax
  4067a2:	00 00 
  4067a4:	74 05                	je     4067ab <_ZN9__gnu_cxx13new_allocatorISt13_Rb_tree_nodeISt4pairIKNSt7__cxx1112basic_stringIcSt11char_traitsIcESaIcEEES8_EEE9constructISA_IRKSt21piecewise_construct_tSt5tupleIIOS8_EESH_IIEEEEEvPT_DpOT0_+0xd3>
  4067a6:	e8 65 c6 ff ff       	callq  402e10 <__stack_chk_fail@plt>
  4067ab:	48 8d 65 e8          	lea    -0x18(%rbp),%rsp
  4067af:	5b                   	pop    %rbx
  4067b0:	41 5c                	pop    %r12
  4067b2:	41 5d                	pop    %r13
  4067b4:	5d                   	pop    %rbp
  4067b5:	c3                   	retq   

00000000004067b6 <_ZNK9__gnu_cxx16__aligned_membufISt4pairIKNSt7__cxx1112basic_stringIcSt11char_traitsIcESaIcEEES7_EE6_M_ptrEv>:
  4067b6:	55                   	push   %rbp
  4067b7:	48 89 e5             	mov    %rsp,%rbp
  4067ba:	48 83 ec 10          	sub    $0x10,%rsp
  4067be:	48 89 7d f8          	mov    %rdi,-0x8(%rbp)
  4067c2:	48 8b 45 f8          	mov    -0x8(%rbp),%rax
  4067c6:	48 89 c7             	mov    %rax,%rdi
  4067c9:	e8 1a 03 00 00       	callq  406ae8 <_ZNK9__gnu_cxx16__aligned_membufISt4pairIKNSt7__cxx1112basic_stringIcSt11char_traitsIcESaIcEEES7_EE7_M_addrEv>
  4067ce:	c9                   	leaveq 
  4067cf:	c3                   	retq   

00000000004067d0 <_ZNSt8_Rb_treeINSt7__cxx1112basic_stringIcSt11char_traitsIcESaIcEEESt4pairIKS5_S5_ESt10_Select1stIS8_ESt4lessIS5_ESaIS8_EE14_M_create_nodeIIRKS8_EEEPSt13_Rb_tree_nodeIS8_EDpOT_>:
  4067d0:	55                   	push   %rbp
  4067d1:	48 89 e5             	mov    %rsp,%rbp
  4067d4:	48 83 ec 20          	sub    $0x20,%rsp
  4067d8:	48 89 7d e8          	mov    %rdi,-0x18(%rbp)
  4067dc:	48 89 75 e0          	mov    %rsi,-0x20(%rbp)
  4067e0:	48 8b 45 e8          	mov    -0x18(%rbp),%rax
  4067e4:	48 89 c7             	mov    %rax,%rdi
  4067e7:	e8 0e f2 ff ff       	callq  4059fa <_ZNSt8_Rb_treeINSt7__cxx1112basic_stringIcSt11char_traitsIcESaIcEEESt4pairIKS5_S5_ESt10_Select1stIS8_ESt4lessIS5_ESaIS8_EE11_M_get_nodeEv>
  4067ec:	48 89 45 f8          	mov    %rax,-0x8(%rbp)
  4067f0:	48 8b 45 e0          	mov    -0x20(%rbp),%rax
  4067f4:	48 89 c7             	mov    %rax,%rdi
  4067f7:	e8 5e ee ff ff       	callq  40565a <_ZSt7forwardIRKSt4pairIKNSt7__cxx1112basic_stringIcSt11char_traitsIcESaIcEEES6_EEOT_RNSt16remove_referenceISB_E4typeE>
  4067fc:	48 89 c2             	mov    %rax,%rdx
  4067ff:	48 8b 4d f8          	mov    -0x8(%rbp),%rcx
  406803:	48 8b 45 e8          	mov    -0x18(%rbp),%rax
  406807:	48 89 ce             	mov    %rcx,%rsi
  40680a:	48 89 c7             	mov    %rax,%rdi
  40680d:	e8 e4 02 00 00       	callq  406af6 <_ZNSt8_Rb_treeINSt7__cxx1112basic_stringIcSt11char_traitsIcESaIcEEESt4pairIKS5_S5_ESt10_Select1stIS8_ESt4lessIS5_ESaIS8_EE17_M_construct_nodeIIRKS8_EEEvPSt13_Rb_tree_nodeIS8_EDpOT_>
  406812:	48 8b 45 f8          	mov    -0x8(%rbp),%rax
  406816:	c9                   	leaveq 
  406817:	c3                   	retq   

0000000000406818 <_ZNKSt19istreambuf_iteratorIcSt11char_traitsIcEE9_M_at_eofEv>:
  406818:	55                   	push   %rbp
  406819:	48 89 e5             	mov    %rsp,%rbp
  40681c:	48 83 ec 20          	sub    $0x20,%rsp
  406820:	48 89 7d e8          	mov    %rdi,-0x18(%rbp)
  406824:	64 48 8b 04 25 28 00 	mov    %fs:0x28,%rax
  40682b:	00 00 
  40682d:	48 89 45 f8          	mov    %rax,-0x8(%rbp)
  406831:	31 c0                	xor    %eax,%eax
  406833:	c7 45 f0 ff ff ff ff 	movl   $0xffffffff,-0x10(%rbp)
  40683a:	48 8b 45 e8          	mov    -0x18(%rbp),%rax
  40683e:	48 89 c7             	mov    %rax,%rdi
  406841:	e8 3a fb ff ff       	callq  406380 <_ZNKSt19istreambuf_iteratorIcSt11char_traitsIcEE6_M_getEv>
  406846:	89 45 f4             	mov    %eax,-0xc(%rbp)
  406849:	48 8d 55 f0          	lea    -0x10(%rbp),%rdx
  40684d:	48 8d 45 f4          	lea    -0xc(%rbp),%rax
  406851:	48 89 d6             	mov    %rdx,%rsi
  406854:	48 89 c7             	mov    %rax,%rdi
  406857:	e8 e3 d3 ff ff       	callq  403c3f <_ZNSt11char_traitsIcE11eq_int_typeERKiS2_>
  40685c:	48 8b 4d f8          	mov    -0x8(%rbp),%rcx
  406860:	64 48 33 0c 25 28 00 	xor    %fs:0x28,%rcx
  406867:	00 00 
  406869:	74 05                	je     406870 <_ZNKSt19istreambuf_iteratorIcSt11char_traitsIcEE9_M_at_eofEv+0x58>
  40686b:	e8 a0 c5 ff ff       	callq  402e10 <__stack_chk_fail@plt>
  406870:	c9                   	leaveq 
  406871:	c3                   	retq   

0000000000406872 <_ZN9__gnu_cxx13new_allocatorIhE9constructIhIcEEEvPT_DpOT0_>:
  406872:	55                   	push   %rbp
  406873:	48 89 e5             	mov    %rsp,%rbp
  406876:	53                   	push   %rbx
  406877:	48 83 ec 28          	sub    $0x28,%rsp
  40687b:	48 89 7d e8          	mov    %rdi,-0x18(%rbp)
  40687f:	48 89 75 e0          	mov    %rsi,-0x20(%rbp)
  406883:	48 89 55 d8          	mov    %rdx,-0x28(%rbp)
  406887:	48 8b 45 d8          	mov    -0x28(%rbp),%rax
  40688b:	48 89 c7             	mov    %rax,%rdi
  40688e:	e8 23 f8 ff ff       	callq  4060b6 <_ZSt7forwardIcEOT_RNSt16remove_referenceIS0_E4typeE>
  406893:	0f b6 00             	movzbl (%rax),%eax
  406896:	89 c3                	mov    %eax,%ebx
  406898:	48 8b 45 e0          	mov    -0x20(%rbp),%rax
  40689c:	48 89 c6             	mov    %rax,%rsi
  40689f:	bf 01 00 00 00       	mov    $0x1,%edi
  4068a4:	e8 c0 d3 ff ff       	callq  403c69 <_ZnwmPv>
  4068a9:	48 85 c0             	test   %rax,%rax
  4068ac:	74 02                	je     4068b0 <_ZN9__gnu_cxx13new_allocatorIhE9constructIhIcEEEvPT_DpOT0_+0x3e>
  4068ae:	88 18                	mov    %bl,(%rax)
  4068b0:	90                   	nop
  4068b1:	48 83 c4 28          	add    $0x28,%rsp
  4068b5:	5b                   	pop    %rbx
  4068b6:	5d                   	pop    %rbp
  4068b7:	c3                   	retq   

00000000004068b8 <_ZSt3maxImERKT_S2_S2_>:
  4068b8:	55                   	push   %rbp
  4068b9:	48 89 e5             	mov    %rsp,%rbp
  4068bc:	48 89 7d f8          	mov    %rdi,-0x8(%rbp)
  4068c0:	48 89 75 f0          	mov    %rsi,-0x10(%rbp)
  4068c4:	48 8b 45 f8          	mov    -0x8(%rbp),%rax
  4068c8:	48 8b 10             	mov    (%rax),%rdx
  4068cb:	48 8b 45 f0          	mov    -0x10(%rbp),%rax
  4068cf:	48 8b 00             	mov    (%rax),%rax
  4068d2:	48 39 c2             	cmp    %rax,%rdx
  4068d5:	73 06                	jae    4068dd <_ZSt3maxImERKT_S2_S2_+0x25>
  4068d7:	48 8b 45 f0          	mov    -0x10(%rbp),%rax
  4068db:	eb 04                	jmp    4068e1 <_ZSt3maxImERKT_S2_S2_+0x29>
  4068dd:	48 8b 45 f8          	mov    -0x8(%rbp),%rax
  4068e1:	5d                   	pop    %rbp
  4068e2:	c3                   	retq   
  4068e3:	90                   	nop

00000000004068e4 <_ZNKSt6vectorIhSaIhEE12_M_check_lenEmPKc>:
  4068e4:	55                   	push   %rbp
  4068e5:	48 89 e5             	mov    %rsp,%rbp
  4068e8:	53                   	push   %rbx
  4068e9:	48 83 ec 48          	sub    $0x48,%rsp
  4068ed:	48 89 7d c8          	mov    %rdi,-0x38(%rbp)
  4068f1:	48 89 75 c0          	mov    %rsi,-0x40(%rbp)
  4068f5:	48 89 55 b8          	mov    %rdx,-0x48(%rbp)
  4068f9:	64 48 8b 04 25 28 00 	mov    %fs:0x28,%rax
  406900:	00 00 
  406902:	48 89 45 e8          	mov    %rax,-0x18(%rbp)
  406906:	31 c0                	xor    %eax,%eax
  406908:	48 8b 45 c8          	mov    -0x38(%rbp),%rax
  40690c:	48 89 c7             	mov    %rax,%rdi
  40690f:	e8 8e 02 00 00       	callq  406ba2 <_ZNKSt6vectorIhSaIhEE8max_sizeEv>
  406914:	48 89 c3             	mov    %rax,%rbx
  406917:	48 8b 45 c8          	mov    -0x38(%rbp),%rax
  40691b:	48 89 c7             	mov    %rax,%rdi
  40691e:	e8 91 dc ff ff       	callq  4045b4 <_ZNKSt6vectorIhSaIhEE4sizeEv>
  406923:	48 29 c3             	sub    %rax,%rbx
  406926:	48 89 da             	mov    %rbx,%rdx
  406929:	48 8b 45 c0          	mov    -0x40(%rbp),%rax
  40692d:	48 39 c2             	cmp    %rax,%rdx
  406930:	0f 92 c0             	setb   %al
  406933:	84 c0                	test   %al,%al
  406935:	74 0c                	je     406943 <_ZNKSt6vectorIhSaIhEE12_M_check_lenEmPKc+0x5f>
  406937:	48 8b 45 b8          	mov    -0x48(%rbp),%rax
  40693b:	48 89 c7             	mov    %rax,%rdi
  40693e:	e8 9d c2 ff ff       	callq  402be0 <_ZSt20__throw_length_errorPKc@plt>
  406943:	48 8b 45 c8          	mov    -0x38(%rbp),%rax
  406947:	48 89 c7             	mov    %rax,%rdi
  40694a:	e8 65 dc ff ff       	callq  4045b4 <_ZNKSt6vectorIhSaIhEE4sizeEv>
  40694f:	48 89 c3             	mov    %rax,%rbx
  406952:	48 8b 45 c8          	mov    -0x38(%rbp),%rax
  406956:	48 89 c7             	mov    %rax,%rdi
  406959:	e8 56 dc ff ff       	callq  4045b4 <_ZNKSt6vectorIhSaIhEE4sizeEv>
  40695e:	48 89 45 d8          	mov    %rax,-0x28(%rbp)
  406962:	48 8d 55 c0          	lea    -0x40(%rbp),%rdx
  406966:	48 8d 45 d8          	lea    -0x28(%rbp),%rax
  40696a:	48 89 d6             	mov    %rdx,%rsi
  40696d:	48 89 c7             	mov    %rax,%rdi
  406970:	e8 43 ff ff ff       	callq  4068b8 <_ZSt3maxImERKT_S2_S2_>
  406975:	48 8b 00             	mov    (%rax),%rax
  406978:	48 01 d8             	add    %rbx,%rax
  40697b:	48 89 45 e0          	mov    %rax,-0x20(%rbp)
  40697f:	48 8b 45 c8          	mov    -0x38(%rbp),%rax
  406983:	48 89 c7             	mov    %rax,%rdi
  406986:	e8 29 dc ff ff       	callq  4045b4 <_ZNKSt6vectorIhSaIhEE4sizeEv>
  40698b:	48 3b 45 e0          	cmp    -0x20(%rbp),%rax
  40698f:	77 12                	ja     4069a3 <_ZNKSt6vectorIhSaIhEE12_M_check_lenEmPKc+0xbf>
  406991:	48 8b 45 c8          	mov    -0x38(%rbp),%rax
  406995:	48 89 c7             	mov    %rax,%rdi
  406998:	e8 05 02 00 00       	callq  406ba2 <_ZNKSt6vectorIhSaIhEE8max_sizeEv>
  40699d:	48 3b 45 e0          	cmp    -0x20(%rbp),%rax
  4069a1:	73 0e                	jae    4069b1 <_ZNKSt6vectorIhSaIhEE12_M_check_lenEmPKc+0xcd>
  4069a3:	48 8b 45 c8          	mov    -0x38(%rbp),%rax
  4069a7:	48 89 c7             	mov    %rax,%rdi
  4069aa:	e8 f3 01 00 00       	callq  406ba2 <_ZNKSt6vectorIhSaIhEE8max_sizeEv>
  4069af:	eb 04                	jmp    4069b5 <_ZNKSt6vectorIhSaIhEE12_M_check_lenEmPKc+0xd1>
  4069b1:	48 8b 45 e0          	mov    -0x20(%rbp),%rax
  4069b5:	48 8b 4d e8          	mov    -0x18(%rbp),%rcx
  4069b9:	64 48 33 0c 25 28 00 	xor    %fs:0x28,%rcx
  4069c0:	00 00 
  4069c2:	74 05                	je     4069c9 <_ZNKSt6vectorIhSaIhEE12_M_check_lenEmPKc+0xe5>
  4069c4:	e8 47 c4 ff ff       	callq  402e10 <__stack_chk_fail@plt>
  4069c9:	48 83 c4 48          	add    $0x48,%rsp
  4069cd:	5b                   	pop    %rbx
  4069ce:	5d                   	pop    %rbp
  4069cf:	c3                   	retq   

00000000004069d0 <_ZNSt12_Vector_baseIhSaIhEE11_M_allocateEm>:
  4069d0:	55                   	push   %rbp
  4069d1:	48 89 e5             	mov    %rsp,%rbp
  4069d4:	48 83 ec 10          	sub    $0x10,%rsp
  4069d8:	48 89 7d f8          	mov    %rdi,-0x8(%rbp)
  4069dc:	48 89 75 f0          	mov    %rsi,-0x10(%rbp)
  4069e0:	48 83 7d f0 00       	cmpq   $0x0,-0x10(%rbp)
  4069e5:	74 15                	je     4069fc <_ZNSt12_Vector_baseIhSaIhEE11_M_allocateEm+0x2c>
  4069e7:	48 8b 45 f8          	mov    -0x8(%rbp),%rax
  4069eb:	48 8b 55 f0          	mov    -0x10(%rbp),%rdx
  4069ef:	48 89 d6             	mov    %rdx,%rsi
  4069f2:	48 89 c7             	mov    %rax,%rdi
  4069f5:	e8 ca 01 00 00       	callq  406bc4 <_ZNSt16allocator_traitsISaIhEE8allocateERS0_m>
  4069fa:	eb 05                	jmp    406a01 <_ZNSt12_Vector_baseIhSaIhEE11_M_allocateEm+0x31>
  4069fc:	b8 00 00 00 00       	mov    $0x0,%eax
  406a01:	c9                   	leaveq 
  406a02:	c3                   	retq   

0000000000406a03 <_ZSt34__uninitialized_move_if_noexcept_aIPhS0_SaIhEET0_T_S3_S2_RT1_>:
  406a03:	55                   	push   %rbp
  406a04:	48 89 e5             	mov    %rsp,%rbp
  406a07:	53                   	push   %rbx
  406a08:	48 83 ec 28          	sub    $0x28,%rsp
  406a0c:	48 89 7d e8          	mov    %rdi,-0x18(%rbp)
  406a10:	48 89 75 e0          	mov    %rsi,-0x20(%rbp)
  406a14:	48 89 55 d8          	mov    %rdx,-0x28(%rbp)
  406a18:	48 89 4d d0          	mov    %rcx,-0x30(%rbp)
  406a1c:	48 8b 45 e0          	mov    -0x20(%rbp),%rax
  406a20:	48 89 c7             	mov    %rax,%rdi
  406a23:	e8 c6 01 00 00       	callq  406bee <_ZSt32__make_move_if_noexcept_iteratorIPhSt13move_iteratorIS0_EET0_T_>
  406a28:	48 89 c3             	mov    %rax,%rbx
  406a2b:	48 8b 45 e8          	mov    -0x18(%rbp),%rax
  406a2f:	48 89 c7             	mov    %rax,%rdi
  406a32:	e8 b7 01 00 00       	callq  406bee <_ZSt32__make_move_if_noexcept_iteratorIPhSt13move_iteratorIS0_EET0_T_>
  406a37:	48 89 c7             	mov    %rax,%rdi
  406a3a:	48 8b 55 d0          	mov    -0x30(%rbp),%rdx
  406a3e:	48 8b 45 d8          	mov    -0x28(%rbp),%rax
  406a42:	48 89 d1             	mov    %rdx,%rcx
  406a45:	48 89 c2             	mov    %rax,%rdx
  406a48:	48 89 de             	mov    %rbx,%rsi
  406a4b:	e8 e6 01 00 00       	callq  406c36 <_ZSt22__uninitialized_copy_aISt13move_iteratorIPhES1_hET0_T_S4_S3_RSaIT1_E>
  406a50:	48 83 c4 28          	add    $0x28,%rsp
  406a54:	5b                   	pop    %rbx
  406a55:	5d                   	pop    %rbp
  406a56:	c3                   	retq   

0000000000406a57 <_ZNSt16allocator_traitsISaIhEE7destroyIhEEvRS0_PT_>:
  406a57:	55                   	push   %rbp
  406a58:	48 89 e5             	mov    %rsp,%rbp
  406a5b:	48 83 ec 10          	sub    $0x10,%rsp
  406a5f:	48 89 7d f8          	mov    %rdi,-0x8(%rbp)
  406a63:	48 89 75 f0          	mov    %rsi,-0x10(%rbp)
  406a67:	48 8b 55 f0          	mov    -0x10(%rbp),%rdx
  406a6b:	48 8b 45 f8          	mov    -0x8(%rbp),%rax
  406a6f:	48 89 d6             	mov    %rdx,%rsi
  406a72:	48 89 c7             	mov    %rax,%rdi
  406a75:	e8 ee 01 00 00       	callq  406c68 <_ZN9__gnu_cxx13new_allocatorIhE7destroyIhEEvPT_>
  406a7a:	90                   	nop
  406a7b:	c9                   	leaveq 
  406a7c:	c3                   	retq   
  406a7d:	90                   	nop

0000000000406a7e <_ZNK9__gnu_cxx13new_allocatorISt13_Rb_tree_nodeISt4pairIKNSt7__cxx1112basic_stringIcSt11char_traitsIcESaIcEEES8_EEE8max_sizeEv>:
  406a7e:	55                   	push   %rbp
  406a7f:	48 89 e5             	mov    %rsp,%rbp
  406a82:	48 89 7d f8          	mov    %rdi,-0x8(%rbp)
  406a86:	48 b8 aa aa aa aa aa 	movabs $0x2aaaaaaaaaaaaaa,%rax
  406a8d:	aa aa 02 
  406a90:	5d                   	pop    %rbp
  406a91:	c3                   	retq   

0000000000406a92 <_ZNSt4pairIKNSt7__cxx1112basic_stringIcSt11char_traitsIcESaIcEEES5_EC1IIOS5_EIEEESt21piecewise_construct_tSt5tupleIIDpT_EESB_IIDpT0_EE>:
  406a92:	55                   	push   %rbp
  406a93:	48 89 e5             	mov    %rsp,%rbp
  406a96:	48 83 ec 20          	sub    $0x20,%rsp
  406a9a:	48 89 7d e8          	mov    %rdi,-0x18(%rbp)
  406a9e:	48 89 75 e0          	mov    %rsi,-0x20(%rbp)
  406aa2:	64 48 8b 04 25 28 00 	mov    %fs:0x28,%rax
  406aa9:	00 00 
  406aab:	48 89 45 f8          	mov    %rax,-0x8(%rbp)
  406aaf:	31 c0                	xor    %eax,%eax
  406ab1:	48 8d 55 18          	lea    0x18(%rbp),%rdx
  406ab5:	48 8b 4d e0          	mov    -0x20(%rbp),%rcx
  406ab9:	48 8b 45 e8          	mov    -0x18(%rbp),%rax
  406abd:	41 51                	push   %r9
  406abf:	41 50                	push   %r8
  406ac1:	48 89 ce             	mov    %rcx,%rsi
  406ac4:	48 89 c7             	mov    %rax,%rdi
  406ac7:	e8 e0 01 00 00       	callq  406cac <_ZNSt4pairIKNSt7__cxx1112basic_stringIcSt11char_traitsIcESaIcEEES5_EC1IIOS5_EILm0EEIEIEEERSt5tupleIIDpT_EERSA_IIDpT1_EESt12_Index_tupleIIXspT0_EEESJ_IIXspT2_EEE>
  406acc:	48 83 c4 10          	add    $0x10,%rsp
  406ad0:	90                   	nop
  406ad1:	48 8b 45 f8          	mov    -0x8(%rbp),%rax
  406ad5:	64 48 33 04 25 28 00 	xor    %fs:0x28,%rax
  406adc:	00 00 
  406ade:	74 05                	je     406ae5 <_ZNSt4pairIKNSt7__cxx1112basic_stringIcSt11char_traitsIcESaIcEEES5_EC1IIOS5_EIEEESt21piecewise_construct_tSt5tupleIIDpT_EESB_IIDpT0_EE+0x53>
  406ae0:	e8 2b c3 ff ff       	callq  402e10 <__stack_chk_fail@plt>
  406ae5:	c9                   	leaveq 
  406ae6:	c3                   	retq   
  406ae7:	90                   	nop

0000000000406ae8 <_ZNK9__gnu_cxx16__aligned_membufISt4pairIKNSt7__cxx1112basic_stringIcSt11char_traitsIcESaIcEEES7_EE7_M_addrEv>:
  406ae8:	55                   	push   %rbp
  406ae9:	48 89 e5             	mov    %rsp,%rbp
  406aec:	48 89 7d f8          	mov    %rdi,-0x8(%rbp)
  406af0:	48 8b 45 f8          	mov    -0x8(%rbp),%rax
  406af4:	5d                   	pop    %rbp
  406af5:	c3                   	retq   

0000000000406af6 <_ZNSt8_Rb_treeINSt7__cxx1112basic_stringIcSt11char_traitsIcESaIcEEESt4pairIKS5_S5_ESt10_Select1stIS8_ESt4lessIS5_ESaIS8_EE17_M_construct_nodeIIRKS8_EEEvPSt13_Rb_tree_nodeIS8_EDpOT_>:
  406af6:	55                   	push   %rbp
  406af7:	48 89 e5             	mov    %rsp,%rbp
  406afa:	41 54                	push   %r12
  406afc:	53                   	push   %rbx
  406afd:	48 83 ec 20          	sub    $0x20,%rsp
  406b01:	48 89 7d e8          	mov    %rdi,-0x18(%rbp)
  406b05:	48 89 75 e0          	mov    %rsi,-0x20(%rbp)
  406b09:	48 89 55 d8          	mov    %rdx,-0x28(%rbp)
  406b0d:	48 8b 45 e0          	mov    -0x20(%rbp),%rax
  406b11:	48 89 c6             	mov    %rax,%rsi
  406b14:	bf 60 00 00 00       	mov    $0x60,%edi
  406b19:	e8 4b d1 ff ff       	callq  403c69 <_ZnwmPv>
  406b1e:	48 85 c0             	test   %rax,%rax
  406b21:	74 08                	je     406b2b <_ZNSt8_Rb_treeINSt7__cxx1112basic_stringIcSt11char_traitsIcESaIcEEESt4pairIKS5_S5_ESt10_Select1stIS8_ESt4lessIS5_ESaIS8_EE17_M_construct_nodeIIRKS8_EEEvPSt13_Rb_tree_nodeIS8_EDpOT_+0x35>
  406b23:	48 89 c7             	mov    %rax,%rdi
  406b26:	e8 0f ef ff ff       	callq  405a3a <_ZNSt13_Rb_tree_nodeISt4pairIKNSt7__cxx1112basic_stringIcSt11char_traitsIcESaIcEEES6_EEC1Ev>
  406b2b:	48 8b 45 d8          	mov    -0x28(%rbp),%rax
  406b2f:	48 89 c7             	mov    %rax,%rdi
  406b32:	e8 23 eb ff ff       	callq  40565a <_ZSt7forwardIRKSt4pairIKNSt7__cxx1112basic_stringIcSt11char_traitsIcESaIcEEES6_EEOT_RNSt16remove_referenceISB_E4typeE>
  406b37:	49 89 c4             	mov    %rax,%r12
  406b3a:	48 8b 45 e0          	mov    -0x20(%rbp),%rax
  406b3e:	48 89 c7             	mov    %rax,%rdi
  406b41:	e8 f0 e3 ff ff       	callq  404f36 <_ZNSt13_Rb_tree_nodeISt4pairIKNSt7__cxx1112basic_stringIcSt11char_traitsIcESaIcEEES6_EE9_M_valptrEv>
  406b46:	48 89 c3             	mov    %rax,%rbx
  406b49:	48 8b 45 e8          	mov    -0x18(%rbp),%rax
  406b4d:	48 89 c7             	mov    %rax,%rdi
  406b50:	e8 f1 f5 ff ff       	callq  406146 <_ZNSt8_Rb_treeINSt7__cxx1112basic_stringIcSt11char_traitsIcESaIcEEESt4pairIKS5_S5_ESt10_Select1stIS8_ESt4lessIS5_ESaIS8_EE21_M_get_Node_allocatorEv>
  406b55:	4c 89 e2             	mov    %r12,%rdx
  406b58:	48 89 de             	mov    %rbx,%rsi
  406b5b:	48 89 c7             	mov    %rax,%rdi
  406b5e:	e8 96 01 00 00       	callq  406cf9 <_ZNSt16allocator_traitsISaISt13_Rb_tree_nodeISt4pairIKNSt7__cxx1112basic_stringIcSt11char_traitsIcESaIcEEES7_EEEE9constructIS9_IRKS9_EEEvRSB_PT_DpOT0_>
  406b63:	eb 33                	jmp    406b98 <_ZNSt8_Rb_treeINSt7__cxx1112basic_stringIcSt11char_traitsIcESaIcEEESt4pairIKS5_S5_ESt10_Select1stIS8_ESt4lessIS5_ESaIS8_EE17_M_construct_nodeIIRKS8_EEEvPSt13_Rb_tree_nodeIS8_EDpOT_+0xa2>
  406b65:	48 89 c7             	mov    %rax,%rdi
  406b68:	e8 03 c0 ff ff       	callq  402b70 <__cxa_begin_catch@plt>
  406b6d:	48 8b 55 e0          	mov    -0x20(%rbp),%rdx
  406b71:	48 8b 45 e8          	mov    -0x18(%rbp),%rax
  406b75:	48 89 d6             	mov    %rdx,%rsi
  406b78:	48 89 c7             	mov    %rax,%rdi
  406b7b:	e8 2a ed ff ff       	callq  4058aa <_ZNSt8_Rb_treeINSt7__cxx1112basic_stringIcSt11char_traitsIcESaIcEEESt4pairIKS5_S5_ESt10_Select1stIS8_ESt4lessIS5_ESaIS8_EE11_M_put_nodeEPSt13_Rb_tree_nodeIS8_E>
  406b80:	e8 2b c3 ff ff       	callq  402eb0 <__cxa_rethrow@plt>
  406b85:	48 89 c3             	mov    %rax,%rbx
  406b88:	e8 a3 c3 ff ff       	callq  402f30 <__cxa_end_catch@plt>
  406b8d:	48 89 d8             	mov    %rbx,%rax
  406b90:	48 89 c7             	mov    %rax,%rdi
  406b93:	e8 28 c4 ff ff       	callq  402fc0 <_Unwind_Resume@plt>
  406b98:	48 83 c4 20          	add    $0x20,%rsp
  406b9c:	5b                   	pop    %rbx
  406b9d:	41 5c                	pop    %r12
  406b9f:	5d                   	pop    %rbp
  406ba0:	c3                   	retq   
  406ba1:	90                   	nop

0000000000406ba2 <_ZNKSt6vectorIhSaIhEE8max_sizeEv>:
  406ba2:	55                   	push   %rbp
  406ba3:	48 89 e5             	mov    %rsp,%rbp
  406ba6:	48 83 ec 10          	sub    $0x10,%rsp
  406baa:	48 89 7d f8          	mov    %rdi,-0x8(%rbp)
  406bae:	48 8b 45 f8          	mov    -0x8(%rbp),%rax
  406bb2:	48 89 c7             	mov    %rax,%rdi
  406bb5:	e8 92 01 00 00       	callq  406d4c <_ZNKSt12_Vector_baseIhSaIhEE19_M_get_Tp_allocatorEv>
  406bba:	48 89 c7             	mov    %rax,%rdi
  406bbd:	e8 70 01 00 00       	callq  406d32 <_ZNSt16allocator_traitsISaIhEE8max_sizeERKS0_>
  406bc2:	c9                   	leaveq 
  406bc3:	c3                   	retq   

0000000000406bc4 <_ZNSt16allocator_traitsISaIhEE8allocateERS0_m>:
  406bc4:	55                   	push   %rbp
  406bc5:	48 89 e5             	mov    %rsp,%rbp
  406bc8:	48 83 ec 10          	sub    $0x10,%rsp
  406bcc:	48 89 7d f8          	mov    %rdi,-0x8(%rbp)
  406bd0:	48 89 75 f0          	mov    %rsi,-0x10(%rbp)
  406bd4:	48 8b 4d f0          	mov    -0x10(%rbp),%rcx
  406bd8:	48 8b 45 f8          	mov    -0x8(%rbp),%rax
  406bdc:	ba 00 00 00 00       	mov    $0x0,%edx
  406be1:	48 89 ce             	mov    %rcx,%rsi
  406be4:	48 89 c7             	mov    %rax,%rdi
  406be7:	e8 6e 01 00 00       	callq  406d5a <_ZN9__gnu_cxx13new_allocatorIhE8allocateEmPKv>
  406bec:	c9                   	leaveq 
  406bed:	c3                   	retq   

0000000000406bee <_ZSt32__make_move_if_noexcept_iteratorIPhSt13move_iteratorIS0_EET0_T_>:
  406bee:	55                   	push   %rbp
  406bef:	48 89 e5             	mov    %rsp,%rbp
  406bf2:	48 83 ec 20          	sub    $0x20,%rsp
  406bf6:	48 89 7d e8          	mov    %rdi,-0x18(%rbp)
  406bfa:	64 48 8b 04 25 28 00 	mov    %fs:0x28,%rax
  406c01:	00 00 
  406c03:	48 89 45 f8          	mov    %rax,-0x8(%rbp)
  406c07:	31 c0                	xor    %eax,%eax
  406c09:	48 8b 55 e8          	mov    -0x18(%rbp),%rdx
  406c0d:	48 8d 45 f0          	lea    -0x10(%rbp),%rax
  406c11:	48 89 d6             	mov    %rdx,%rsi
  406c14:	48 89 c7             	mov    %rax,%rdi
  406c17:	e8 7c 01 00 00       	callq  406d98 <_ZNSt13move_iteratorIPhEC1ES0_>
  406c1c:	48 8b 45 f0          	mov    -0x10(%rbp),%rax
  406c20:	48 8b 4d f8          	mov    -0x8(%rbp),%rcx
  406c24:	64 48 33 0c 25 28 00 	xor    %fs:0x28,%rcx
  406c2b:	00 00 
  406c2d:	74 05                	je     406c34 <_ZSt32__make_move_if_noexcept_iteratorIPhSt13move_iteratorIS0_EET0_T_+0x46>
  406c2f:	e8 dc c1 ff ff       	callq  402e10 <__stack_chk_fail@plt>
  406c34:	c9                   	leaveq 
  406c35:	c3                   	retq   

0000000000406c36 <_ZSt22__uninitialized_copy_aISt13move_iteratorIPhES1_hET0_T_S4_S3_RSaIT1_E>:
  406c36:	55                   	push   %rbp
  406c37:	48 89 e5             	mov    %rsp,%rbp
  406c3a:	48 83 ec 20          	sub    $0x20,%rsp
  406c3e:	48 89 7d f0          	mov    %rdi,-0x10(%rbp)
  406c42:	48 89 75 e0          	mov    %rsi,-0x20(%rbp)
  406c46:	48 89 55 e8          	mov    %rdx,-0x18(%rbp)
  406c4a:	48 89 4d f8          	mov    %rcx,-0x8(%rbp)
  406c4e:	48 8b 55 e8          	mov    -0x18(%rbp),%rdx
  406c52:	48 8b 4d e0          	mov    -0x20(%rbp),%rcx
  406c56:	48 8b 45 f0          	mov    -0x10(%rbp),%rax
  406c5a:	48 89 ce             	mov    %rcx,%rsi
  406c5d:	48 89 c7             	mov    %rax,%rdi
  406c60:	e8 4d 01 00 00       	callq  406db2 <_ZSt18uninitialized_copyISt13move_iteratorIPhES1_ET0_T_S4_S3_>
  406c65:	c9                   	leaveq 
  406c66:	c3                   	retq   
  406c67:	90                   	nop

0000000000406c68 <_ZN9__gnu_cxx13new_allocatorIhE7destroyIhEEvPT_>:
  406c68:	55                   	push   %rbp
  406c69:	48 89 e5             	mov    %rsp,%rbp
  406c6c:	48 89 7d f8          	mov    %rdi,-0x8(%rbp)
  406c70:	48 89 75 f0          	mov    %rsi,-0x10(%rbp)
  406c74:	90                   	nop
  406c75:	5d                   	pop    %rbp
  406c76:	c3                   	retq   

0000000000406c77 <_ZSt12__get_helperILm0EONSt7__cxx1112basic_stringIcSt11char_traitsIcESaIcEEEIEERT0_RSt11_Tuple_implIXT_EIS7_DpT1_EE>:
  406c77:	55                   	push   %rbp
  406c78:	48 89 e5             	mov    %rsp,%rbp
  406c7b:	48 83 ec 10          	sub    $0x10,%rsp
  406c7f:	48 89 7d f8          	mov    %rdi,-0x8(%rbp)
  406c83:	48 8b 45 f8          	mov    -0x8(%rbp),%rax
  406c87:	48 89 c7             	mov    %rax,%rdi
  406c8a:	e8 29 dc ff ff       	callq  4048b8 <_ZNSt11_Tuple_implILm0EIONSt7__cxx1112basic_stringIcSt11char_traitsIcESaIcEEEEE7_M_headERS7_>
  406c8f:	c9                   	leaveq 
  406c90:	c3                   	retq   

0000000000406c91 <_ZSt3getILm0EIONSt7__cxx1112basic_stringIcSt11char_traitsIcESaIcEEEEERNSt13tuple_elementIXT_ESt5tupleIIDpT0_EEE4typeERSB_>:
  406c91:	55                   	push   %rbp
  406c92:	48 89 e5             	mov    %rsp,%rbp
  406c95:	48 83 ec 10          	sub    $0x10,%rsp
  406c99:	48 89 7d f8          	mov    %rdi,-0x8(%rbp)
  406c9d:	48 8b 45 f8          	mov    -0x8(%rbp),%rax
  406ca1:	48 89 c7             	mov    %rax,%rdi
  406ca4:	e8 ce ff ff ff       	callq  406c77 <_ZSt12__get_helperILm0EONSt7__cxx1112basic_stringIcSt11char_traitsIcESaIcEEEIEERT0_RSt11_Tuple_implIXT_EIS7_DpT1_EE>
  406ca9:	c9                   	leaveq 
  406caa:	c3                   	retq   
  406cab:	90                   	nop

0000000000406cac <_ZNSt4pairIKNSt7__cxx1112basic_stringIcSt11char_traitsIcESaIcEEES5_EC1IIOS5_EILm0EEIEIEEERSt5tupleIIDpT_EERSA_IIDpT1_EESt12_Index_tupleIIXspT0_EEESJ_IIXspT2_EEE>:
  406cac:	55                   	push   %rbp
  406cad:	48 89 e5             	mov    %rsp,%rbp
  406cb0:	48 83 ec 20          	sub    $0x20,%rsp
  406cb4:	48 89 7d f8          	mov    %rdi,-0x8(%rbp)
  406cb8:	48 89 75 f0          	mov    %rsi,-0x10(%rbp)
  406cbc:	48 89 55 e8          	mov    %rdx,-0x18(%rbp)
  406cc0:	48 8b 45 f0          	mov    -0x10(%rbp),%rax
  406cc4:	48 89 c7             	mov    %rax,%rdi
  406cc7:	e8 c5 ff ff ff       	callq  406c91 <_ZSt3getILm0EIONSt7__cxx1112basic_stringIcSt11char_traitsIcESaIcEEEEERNSt13tuple_elementIXT_ESt5tupleIIDpT0_EEE4typeERSB_>
  406ccc:	48 89 c7             	mov    %rax,%rdi
  406ccf:	e8 fe db ff ff       	callq  4048d2 <_ZSt7forwardIONSt7__cxx1112basic_stringIcSt11char_traitsIcESaIcEEEEOT_RNSt16remove_referenceIS7_E4typeE>
  406cd4:	48 89 c2             	mov    %rax,%rdx
  406cd7:	48 8b 45 f8          	mov    -0x8(%rbp),%rax
  406cdb:	48 89 d6             	mov    %rdx,%rsi
  406cde:	48 89 c7             	mov    %rax,%rdi
  406ce1:	e8 2a bf ff ff       	callq  402c10 <_ZNSt7__cxx1112basic_stringIcSt11char_traitsIcESaIcEEC1EOS4_@plt>
  406ce6:	48 8b 45 f8          	mov    -0x8(%rbp),%rax
  406cea:	48 83 c0 20          	add    $0x20,%rax
  406cee:	48 89 c7             	mov    %rax,%rdi
  406cf1:	e8 9a c1 ff ff       	callq  402e90 <_ZNSt7__cxx1112basic_stringIcSt11char_traitsIcESaIcEEC1Ev@plt>
  406cf6:	90                   	nop
  406cf7:	c9                   	leaveq 
  406cf8:	c3                   	retq   

0000000000406cf9 <_ZNSt16allocator_traitsISaISt13_Rb_tree_nodeISt4pairIKNSt7__cxx1112basic_stringIcSt11char_traitsIcESaIcEEES7_EEEE9constructIS9_IRKS9_EEEvRSB_PT_DpOT0_>:
  406cf9:	55                   	push   %rbp
  406cfa:	48 89 e5             	mov    %rsp,%rbp
  406cfd:	48 83 ec 20          	sub    $0x20,%rsp
  406d01:	48 89 7d f8          	mov    %rdi,-0x8(%rbp)
  406d05:	48 89 75 f0          	mov    %rsi,-0x10(%rbp)
  406d09:	48 89 55 e8          	mov    %rdx,-0x18(%rbp)
  406d0d:	48 8b 45 e8          	mov    -0x18(%rbp),%rax
  406d11:	48 89 c7             	mov    %rax,%rdi
  406d14:	e8 41 e9 ff ff       	callq  40565a <_ZSt7forwardIRKSt4pairIKNSt7__cxx1112basic_stringIcSt11char_traitsIcESaIcEEES6_EEOT_RNSt16remove_referenceISB_E4typeE>
  406d19:	48 89 c2             	mov    %rax,%rdx
  406d1c:	48 8b 4d f0          	mov    -0x10(%rbp),%rcx
  406d20:	48 8b 45 f8          	mov    -0x8(%rbp),%rax
  406d24:	48 89 ce             	mov    %rcx,%rsi
  406d27:	48 89 c7             	mov    %rax,%rdi
  406d2a:	e8 17 01 00 00       	callq  406e46 <_ZN9__gnu_cxx13new_allocatorISt13_Rb_tree_nodeISt4pairIKNSt7__cxx1112basic_stringIcSt11char_traitsIcESaIcEEES8_EEE9constructISA_IRKSA_EEEvPT_DpOT0_>
  406d2f:	90                   	nop
  406d30:	c9                   	leaveq 
  406d31:	c3                   	retq   

0000000000406d32 <_ZNSt16allocator_traitsISaIhEE8max_sizeERKS0_>:
  406d32:	55                   	push   %rbp
  406d33:	48 89 e5             	mov    %rsp,%rbp
  406d36:	48 83 ec 10          	sub    $0x10,%rsp
  406d3a:	48 89 7d f8          	mov    %rdi,-0x8(%rbp)
  406d3e:	48 8b 45 f8          	mov    -0x8(%rbp),%rax
  406d42:	48 89 c7             	mov    %rax,%rdi
  406d45:	e8 70 01 00 00       	callq  406eba <_ZNK9__gnu_cxx13new_allocatorIhE8max_sizeEv>
  406d4a:	c9                   	leaveq 
  406d4b:	c3                   	retq   

0000000000406d4c <_ZNKSt12_Vector_baseIhSaIhEE19_M_get_Tp_allocatorEv>:
  406d4c:	55                   	push   %rbp
  406d4d:	48 89 e5             	mov    %rsp,%rbp
  406d50:	48 89 7d f8          	mov    %rdi,-0x8(%rbp)
  406d54:	48 8b 45 f8          	mov    -0x8(%rbp),%rax
  406d58:	5d                   	pop    %rbp
  406d59:	c3                   	retq   

0000000000406d5a <_ZN9__gnu_cxx13new_allocatorIhE8allocateEmPKv>:
  406d5a:	55                   	push   %rbp
  406d5b:	48 89 e5             	mov    %rsp,%rbp
  406d5e:	48 83 ec 20          	sub    $0x20,%rsp
  406d62:	48 89 7d f8          	mov    %rdi,-0x8(%rbp)
  406d66:	48 89 75 f0          	mov    %rsi,-0x10(%rbp)
  406d6a:	48 89 55 e8          	mov    %rdx,-0x18(%rbp)
  406d6e:	48 8b 45 f8          	mov    -0x8(%rbp),%rax
  406d72:	48 89 c7             	mov    %rax,%rdi
  406d75:	e8 40 01 00 00       	callq  406eba <_ZNK9__gnu_cxx13new_allocatorIhE8max_sizeEv>
  406d7a:	48 3b 45 f0          	cmp    -0x10(%rbp),%rax
  406d7e:	0f 92 c0             	setb   %al
  406d81:	84 c0                	test   %al,%al
  406d83:	74 05                	je     406d8a <_ZN9__gnu_cxx13new_allocatorIhE8allocateEmPKv+0x30>
  406d85:	e8 c6 bd ff ff       	callq  402b50 <_ZSt17__throw_bad_allocv@plt>
  406d8a:	48 8b 45 f0          	mov    -0x10(%rbp),%rax
  406d8e:	48 89 c7             	mov    %rax,%rdi
  406d91:	e8 ea bf ff ff       	callq  402d80 <_Znwm@plt>
  406d96:	c9                   	leaveq 
  406d97:	c3                   	retq   

0000000000406d98 <_ZNSt13move_iteratorIPhEC1ES0_>:
  406d98:	55                   	push   %rbp
  406d99:	48 89 e5             	mov    %rsp,%rbp
  406d9c:	48 89 7d f8          	mov    %rdi,-0x8(%rbp)
  406da0:	48 89 75 f0          	mov    %rsi,-0x10(%rbp)
  406da4:	48 8b 45 f8          	mov    -0x8(%rbp),%rax
  406da8:	48 8b 55 f0          	mov    -0x10(%rbp),%rdx
  406dac:	48 89 10             	mov    %rdx,(%rax)
  406daf:	90                   	nop
  406db0:	5d                   	pop    %rbp
  406db1:	c3                   	retq   

0000000000406db2 <_ZSt18uninitialized_copyISt13move_iteratorIPhES1_ET0_T_S4_S3_>:
  406db2:	55                   	push   %rbp
  406db3:	48 89 e5             	mov    %rsp,%rbp
  406db6:	48 83 ec 30          	sub    $0x30,%rsp
  406dba:	48 89 7d e0          	mov    %rdi,-0x20(%rbp)
  406dbe:	48 89 75 d0          	mov    %rsi,-0x30(%rbp)
  406dc2:	48 89 55 d8          	mov    %rdx,-0x28(%rbp)
  406dc6:	c6 45 ff 01          	movb   $0x1,-0x1(%rbp)
  406dca:	48 8b 55 d8          	mov    -0x28(%rbp),%rdx
  406dce:	48 8b 4d d0          	mov    -0x30(%rbp),%rcx
  406dd2:	48 8b 45 e0          	mov    -0x20(%rbp),%rax
  406dd6:	48 89 ce             	mov    %rcx,%rsi
  406dd9:	48 89 c7             	mov    %rax,%rdi
  406ddc:	e8 ea 00 00 00       	callq  406ecb <_ZNSt20__uninitialized_copyILb1EE13__uninit_copyISt13move_iteratorIPhES3_EET0_T_S6_S5_>
  406de1:	c9                   	leaveq 
  406de2:	c3                   	retq   
  406de3:	90                   	nop

0000000000406de4 <_ZNSt4pairIKNSt7__cxx1112basic_stringIcSt11char_traitsIcESaIcEEES5_EC1ERKS7_>:
  406de4:	55                   	push   %rbp
  406de5:	48 89 e5             	mov    %rsp,%rbp
  406de8:	53                   	push   %rbx
  406de9:	48 83 ec 18          	sub    $0x18,%rsp
  406ded:	48 89 7d e8          	mov    %rdi,-0x18(%rbp)
  406df1:	48 89 75 e0          	mov    %rsi,-0x20(%rbp)
  406df5:	48 8b 55 e0          	mov    -0x20(%rbp),%rdx
  406df9:	48 8b 45 e8          	mov    -0x18(%rbp),%rax
  406dfd:	48 89 d6             	mov    %rdx,%rsi
  406e00:	48 89 c7             	mov    %rax,%rdi
  406e03:	e8 98 bd ff ff       	callq  402ba0 <_ZNSt7__cxx1112basic_stringIcSt11char_traitsIcESaIcEEC1ERKS4_@plt>
  406e08:	48 8b 45 e0          	mov    -0x20(%rbp),%rax
  406e0c:	48 8d 50 20          	lea    0x20(%rax),%rdx
  406e10:	48 8b 45 e8          	mov    -0x18(%rbp),%rax
  406e14:	48 83 c0 20          	add    $0x20,%rax
  406e18:	48 89 d6             	mov    %rdx,%rsi
  406e1b:	48 89 c7             	mov    %rax,%rdi
  406e1e:	e8 7d bd ff ff       	callq  402ba0 <_ZNSt7__cxx1112basic_stringIcSt11char_traitsIcESaIcEEC1ERKS4_@plt>
  406e23:	eb 1a                	jmp    406e3f <_ZNSt4pairIKNSt7__cxx1112basic_stringIcSt11char_traitsIcESaIcEEES5_EC1ERKS7_+0x5b>
  406e25:	48 89 c3             	mov    %rax,%rbx
  406e28:	48 8b 45 e8          	mov    -0x18(%rbp),%rax
  406e2c:	48 89 c7             	mov    %rax,%rdi
  406e2f:	e8 ec bd ff ff       	callq  402c20 <_ZNSt7__cxx1112basic_stringIcSt11char_traitsIcESaIcEED1Ev@plt>
  406e34:	48 89 d8             	mov    %rbx,%rax
  406e37:	48 89 c7             	mov    %rax,%rdi
  406e3a:	e8 81 c1 ff ff       	callq  402fc0 <_Unwind_Resume@plt>
  406e3f:	48 83 c4 18          	add    $0x18,%rsp
  406e43:	5b                   	pop    %rbx
  406e44:	5d                   	pop    %rbp
  406e45:	c3                   	retq   

0000000000406e46 <_ZN9__gnu_cxx13new_allocatorISt13_Rb_tree_nodeISt4pairIKNSt7__cxx1112basic_stringIcSt11char_traitsIcESaIcEEES8_EEE9constructISA_IRKSA_EEEvPT_DpOT0_>:
  406e46:	55                   	push   %rbp
  406e47:	48 89 e5             	mov    %rsp,%rbp
  406e4a:	41 55                	push   %r13
  406e4c:	41 54                	push   %r12
  406e4e:	53                   	push   %rbx
  406e4f:	48 83 ec 28          	sub    $0x28,%rsp
  406e53:	48 89 7d d8          	mov    %rdi,-0x28(%rbp)
  406e57:	48 89 75 d0          	mov    %rsi,-0x30(%rbp)
  406e5b:	48 89 55 c8          	mov    %rdx,-0x38(%rbp)
  406e5f:	48 8b 45 c8          	mov    -0x38(%rbp),%rax
  406e63:	48 89 c7             	mov    %rax,%rdi
  406e66:	e8 ef e7 ff ff       	callq  40565a <_ZSt7forwardIRKSt4pairIKNSt7__cxx1112basic_stringIcSt11char_traitsIcESaIcEEES6_EEOT_RNSt16remove_referenceISB_E4typeE>
  406e6b:	49 89 c5             	mov    %rax,%r13
  406e6e:	4c 8b 65 d0          	mov    -0x30(%rbp),%r12
  406e72:	4c 89 e6             	mov    %r12,%rsi
  406e75:	bf 40 00 00 00       	mov    $0x40,%edi
  406e7a:	e8 ea cd ff ff       	callq  403c69 <_ZnwmPv>
  406e7f:	48 89 c3             	mov    %rax,%rbx
  406e82:	48 85 db             	test   %rbx,%rbx
  406e85:	74 26                	je     406ead <_ZN9__gnu_cxx13new_allocatorISt13_Rb_tree_nodeISt4pairIKNSt7__cxx1112basic_stringIcSt11char_traitsIcESaIcEEES8_EEE9constructISA_IRKSA_EEEvPT_DpOT0_+0x67>
  406e87:	4c 89 ee             	mov    %r13,%rsi
  406e8a:	48 89 df             	mov    %rbx,%rdi
  406e8d:	e8 52 ff ff ff       	callq  406de4 <_ZNSt4pairIKNSt7__cxx1112basic_stringIcSt11char_traitsIcESaIcEEES5_EC1ERKS7_>
  406e92:	eb 19                	jmp    406ead <_ZN9__gnu_cxx13new_allocatorISt13_Rb_tree_nodeISt4pairIKNSt7__cxx1112basic_stringIcSt11char_traitsIcESaIcEEES8_EEE9constructISA_IRKSA_EEEvPT_DpOT0_+0x67>
  406e94:	49 89 c5             	mov    %rax,%r13
  406e97:	4c 89 e6             	mov    %r12,%rsi
  406e9a:	48 89 df             	mov    %rbx,%rdi
  406e9d:	e8 d9 cd ff ff       	callq  403c7b <_ZdlPvS_>
  406ea2:	4c 89 e8             	mov    %r13,%rax
  406ea5:	48 89 c7             	mov    %rax,%rdi
  406ea8:	e8 13 c1 ff ff       	callq  402fc0 <_Unwind_Resume@plt>
  406ead:	90                   	nop
  406eae:	48 83 c4 28          	add    $0x28,%rsp
  406eb2:	5b                   	pop    %rbx
  406eb3:	41 5c                	pop    %r12
  406eb5:	41 5d                	pop    %r13
  406eb7:	5d                   	pop    %rbp
  406eb8:	c3                   	retq   
  406eb9:	90                   	nop

0000000000406eba <_ZNK9__gnu_cxx13new_allocatorIhE8max_sizeEv>:
  406eba:	55                   	push   %rbp
  406ebb:	48 89 e5             	mov    %rsp,%rbp
  406ebe:	48 89 7d f8          	mov    %rdi,-0x8(%rbp)
  406ec2:	48 c7 c0 ff ff ff ff 	mov    $0xffffffffffffffff,%rax
  406ec9:	5d                   	pop    %rbp
  406eca:	c3                   	retq   

0000000000406ecb <_ZNSt20__uninitialized_copyILb1EE13__uninit_copyISt13move_iteratorIPhES3_EET0_T_S6_S5_>:
  406ecb:	55                   	push   %rbp
  406ecc:	48 89 e5             	mov    %rsp,%rbp
  406ecf:	48 83 ec 20          	sub    $0x20,%rsp
  406ed3:	48 89 7d f0          	mov    %rdi,-0x10(%rbp)
  406ed7:	48 89 75 e0          	mov    %rsi,-0x20(%rbp)
  406edb:	48 89 55 e8          	mov    %rdx,-0x18(%rbp)
  406edf:	48 8b 55 e8          	mov    -0x18(%rbp),%rdx
  406ee3:	48 8b 4d e0          	mov    -0x20(%rbp),%rcx
  406ee7:	48 8b 45 f0          	mov    -0x10(%rbp),%rax
  406eeb:	48 89 ce             	mov    %rcx,%rsi
  406eee:	48 89 c7             	mov    %rax,%rdi
  406ef1:	e8 02 00 00 00       	callq  406ef8 <_ZSt4copyISt13move_iteratorIPhES1_ET0_T_S4_S3_>
  406ef6:	c9                   	leaveq 
  406ef7:	c3                   	retq   

0000000000406ef8 <_ZSt4copyISt13move_iteratorIPhES1_ET0_T_S4_S3_>:
  406ef8:	55                   	push   %rbp
  406ef9:	48 89 e5             	mov    %rsp,%rbp
  406efc:	53                   	push   %rbx
  406efd:	48 83 ec 28          	sub    $0x28,%rsp
  406f01:	48 89 7d e0          	mov    %rdi,-0x20(%rbp)
  406f05:	48 89 75 d0          	mov    %rsi,-0x30(%rbp)
  406f09:	48 89 55 d8          	mov    %rdx,-0x28(%rbp)
  406f0d:	48 8b 45 d0          	mov    -0x30(%rbp),%rax
  406f11:	48 89 c7             	mov    %rax,%rdi
  406f14:	e8 2b 00 00 00       	callq  406f44 <_ZSt12__miter_baseISt13move_iteratorIPhEENSt11_Miter_baseIT_E13iterator_typeES4_>
  406f19:	48 89 c3             	mov    %rax,%rbx
  406f1c:	48 8b 45 e0          	mov    -0x20(%rbp),%rax
  406f20:	48 89 c7             	mov    %rax,%rdi
  406f23:	e8 1c 00 00 00       	callq  406f44 <_ZSt12__miter_baseISt13move_iteratorIPhEENSt11_Miter_baseIT_E13iterator_typeES4_>
  406f28:	48 89 c1             	mov    %rax,%rcx
  406f2b:	48 8b 45 d8          	mov    -0x28(%rbp),%rax
  406f2f:	48 89 c2             	mov    %rax,%rdx
  406f32:	48 89 de             	mov    %rbx,%rsi
  406f35:	48 89 cf             	mov    %rcx,%rdi
  406f38:	e8 21 00 00 00       	callq  406f5e <_ZSt14__copy_move_a2ILb1EPhS0_ET1_T0_S2_S1_>
  406f3d:	48 83 c4 28          	add    $0x28,%rsp
  406f41:	5b                   	pop    %rbx
  406f42:	5d                   	pop    %rbp
  406f43:	c3                   	retq   

0000000000406f44 <_ZSt12__miter_baseISt13move_iteratorIPhEENSt11_Miter_baseIT_E13iterator_typeES4_>:
  406f44:	55                   	push   %rbp
  406f45:	48 89 e5             	mov    %rsp,%rbp
  406f48:	48 83 ec 10          	sub    $0x10,%rsp
  406f4c:	48 89 7d f0          	mov    %rdi,-0x10(%rbp)
  406f50:	48 8b 45 f0          	mov    -0x10(%rbp),%rax
  406f54:	48 89 c7             	mov    %rax,%rdi
  406f57:	e8 5a 00 00 00       	callq  406fb6 <_ZNSt10_Iter_baseISt13move_iteratorIPhELb1EE7_S_baseES2_>
  406f5c:	c9                   	leaveq 
  406f5d:	c3                   	retq   

0000000000406f5e <_ZSt14__copy_move_a2ILb1EPhS0_ET1_T0_S2_S1_>:
  406f5e:	55                   	push   %rbp
  406f5f:	48 89 e5             	mov    %rsp,%rbp
  406f62:	41 54                	push   %r12
  406f64:	53                   	push   %rbx
  406f65:	48 83 ec 20          	sub    $0x20,%rsp
  406f69:	48 89 7d e8          	mov    %rdi,-0x18(%rbp)
  406f6d:	48 89 75 e0          	mov    %rsi,-0x20(%rbp)
  406f71:	48 89 55 d8          	mov    %rdx,-0x28(%rbp)
  406f75:	48 8b 45 d8          	mov    -0x28(%rbp),%rax
  406f79:	48 89 c7             	mov    %rax,%rdi
  406f7c:	e8 4f 00 00 00       	callq  406fd0 <_ZSt12__niter_baseIPhENSt11_Niter_baseIT_E13iterator_typeES2_>
  406f81:	49 89 c4             	mov    %rax,%r12
  406f84:	48 8b 45 e0          	mov    -0x20(%rbp),%rax
  406f88:	48 89 c7             	mov    %rax,%rdi
  406f8b:	e8 40 00 00 00       	callq  406fd0 <_ZSt12__niter_baseIPhENSt11_Niter_baseIT_E13iterator_typeES2_>
  406f90:	48 89 c3             	mov    %rax,%rbx
  406f93:	48 8b 45 e8          	mov    -0x18(%rbp),%rax
  406f97:	48 89 c7             	mov    %rax,%rdi
  406f9a:	e8 31 00 00 00       	callq  406fd0 <_ZSt12__niter_baseIPhENSt11_Niter_baseIT_E13iterator_typeES2_>
  406f9f:	4c 89 e2             	mov    %r12,%rdx
  406fa2:	48 89 de             	mov    %rbx,%rsi
  406fa5:	48 89 c7             	mov    %rax,%rdi
  406fa8:	e8 3d 00 00 00       	callq  406fea <_ZSt13__copy_move_aILb1EPhS0_ET1_T0_S2_S1_>
  406fad:	48 83 c4 20          	add    $0x20,%rsp
  406fb1:	5b                   	pop    %rbx
  406fb2:	41 5c                	pop    %r12
  406fb4:	5d                   	pop    %rbp
  406fb5:	c3                   	retq   

0000000000406fb6 <_ZNSt10_Iter_baseISt13move_iteratorIPhELb1EE7_S_baseES2_>:
  406fb6:	55                   	push   %rbp
  406fb7:	48 89 e5             	mov    %rsp,%rbp
  406fba:	48 83 ec 10          	sub    $0x10,%rsp
  406fbe:	48 89 7d f0          	mov    %rdi,-0x10(%rbp)
  406fc2:	48 8d 45 f0          	lea    -0x10(%rbp),%rax
  406fc6:	48 89 c7             	mov    %rax,%rdi
  406fc9:	e8 4e 00 00 00       	callq  40701c <_ZNKSt13move_iteratorIPhE4baseEv>
  406fce:	c9                   	leaveq 
  406fcf:	c3                   	retq   

0000000000406fd0 <_ZSt12__niter_baseIPhENSt11_Niter_baseIT_E13iterator_typeES2_>:
  406fd0:	55                   	push   %rbp
  406fd1:	48 89 e5             	mov    %rsp,%rbp
  406fd4:	48 83 ec 10          	sub    $0x10,%rsp
  406fd8:	48 89 7d f8          	mov    %rdi,-0x8(%rbp)
  406fdc:	48 8b 45 f8          	mov    -0x8(%rbp),%rax
  406fe0:	48 89 c7             	mov    %rax,%rdi
  406fe3:	e8 45 00 00 00       	callq  40702d <_ZNSt10_Iter_baseIPhLb0EE7_S_baseES0_>
  406fe8:	c9                   	leaveq 
  406fe9:	c3                   	retq   

0000000000406fea <_ZSt13__copy_move_aILb1EPhS0_ET1_T0_S2_S1_>:
  406fea:	55                   	push   %rbp
  406feb:	48 89 e5             	mov    %rsp,%rbp
  406fee:	48 83 ec 30          	sub    $0x30,%rsp
  406ff2:	48 89 7d e8          	mov    %rdi,-0x18(%rbp)
  406ff6:	48 89 75 e0          	mov    %rsi,-0x20(%rbp)
  406ffa:	48 89 55 d8          	mov    %rdx,-0x28(%rbp)
  406ffe:	c6 45 ff 01          	movb   $0x1,-0x1(%rbp)
  407002:	48 8b 55 d8          	mov    -0x28(%rbp),%rdx
  407006:	48 8b 4d e0          	mov    -0x20(%rbp),%rcx
  40700a:	48 8b 45 e8          	mov    -0x18(%rbp),%rax
  40700e:	48 89 ce             	mov    %rcx,%rsi
  407011:	48 89 c7             	mov    %rax,%rdi
  407014:	e8 22 00 00 00       	callq  40703b <_ZNSt11__copy_moveILb1ELb1ESt26random_access_iterator_tagE8__copy_mIhEEPT_PKS3_S6_S4_>
  407019:	c9                   	leaveq 
  40701a:	c3                   	retq   
  40701b:	90                   	nop

000000000040701c <_ZNKSt13move_iteratorIPhE4baseEv>:
  40701c:	55                   	push   %rbp
  40701d:	48 89 e5             	mov    %rsp,%rbp
  407020:	48 89 7d f8          	mov    %rdi,-0x8(%rbp)
  407024:	48 8b 45 f8          	mov    -0x8(%rbp),%rax
  407028:	48 8b 00             	mov    (%rax),%rax
  40702b:	5d                   	pop    %rbp
  40702c:	c3                   	retq   

000000000040702d <_ZNSt10_Iter_baseIPhLb0EE7_S_baseES0_>:
  40702d:	55                   	push   %rbp
  40702e:	48 89 e5             	mov    %rsp,%rbp
  407031:	48 89 7d f8          	mov    %rdi,-0x8(%rbp)
  407035:	48 8b 45 f8          	mov    -0x8(%rbp),%rax
  407039:	5d                   	pop    %rbp
  40703a:	c3                   	retq   

000000000040703b <_ZNSt11__copy_moveILb1ELb1ESt26random_access_iterator_tagE8__copy_mIhEEPT_PKS3_S6_S4_>:
  40703b:	55                   	push   %rbp
  40703c:	48 89 e5             	mov    %rsp,%rbp
  40703f:	48 83 ec 30          	sub    $0x30,%rsp
  407043:	48 89 7d e8          	mov    %rdi,-0x18(%rbp)
  407047:	48 89 75 e0          	mov    %rsi,-0x20(%rbp)
  40704b:	48 89 55 d8          	mov    %rdx,-0x28(%rbp)
  40704f:	48 8b 55 e0          	mov    -0x20(%rbp),%rdx
  407053:	48 8b 45 e8          	mov    -0x18(%rbp),%rax
  407057:	48 29 c2             	sub    %rax,%rdx
  40705a:	48 89 d0             	mov    %rdx,%rax
  40705d:	48 89 45 f8          	mov    %rax,-0x8(%rbp)
  407061:	48 83 7d f8 00       	cmpq   $0x0,-0x8(%rbp)
  407066:	74 17                	je     40707f <_ZNSt11__copy_moveILb1ELb1ESt26random_access_iterator_tagE8__copy_mIhEEPT_PKS3_S6_S4_+0x44>
  407068:	48 8b 55 f8          	mov    -0x8(%rbp),%rdx
  40706c:	48 8b 4d e8          	mov    -0x18(%rbp),%rcx
  407070:	48 8b 45 d8          	mov    -0x28(%rbp),%rax
  407074:	48 89 ce             	mov    %rcx,%rsi
  407077:	48 89 c7             	mov    %rax,%rdi
  40707a:	e8 a1 be ff ff       	callq  402f20 <memmove@plt>
  40707f:	48 8b 55 f8          	mov    -0x8(%rbp),%rdx
  407083:	48 8b 45 d8          	mov    -0x28(%rbp),%rax
  407087:	48 01 d0             	add    %rdx,%rax
  40708a:	c9                   	leaveq 
  40708b:	c3                   	retq   

000000000040708c <_ZL18__gthread_active_pv>:
  40708c:	55                   	push   %rbp
  40708d:	48 89 e5             	mov    %rsp,%rbp
  407090:	48 8b 05 11 71 00 00 	mov    0x7111(%rip),%rax        # 40e1a8 <_ZZL18__gthread_active_pvE20__gthread_active_ptr>
  407097:	48 85 c0             	test   %rax,%rax
  40709a:	0f 95 c0             	setne  %al
  40709d:	0f b6 c0             	movzbl %al,%eax
  4070a0:	5d                   	pop    %rbp
  4070a1:	c3                   	retq   

00000000004070a2 <_ZL15__gthread_equalmm>:
  4070a2:	55                   	push   %rbp
  4070a3:	48 89 e5             	mov    %rsp,%rbp
  4070a6:	48 83 ec 10          	sub    $0x10,%rsp
  4070aa:	48 89 7d f8          	mov    %rdi,-0x8(%rbp)
  4070ae:	48 89 75 f0          	mov    %rsi,-0x10(%rbp)
  4070b2:	48 8b 55 f0          	mov    -0x10(%rbp),%rdx
  4070b6:	48 8b 45 f8          	mov    -0x8(%rbp),%rax
  4070ba:	48 89 d6             	mov    %rdx,%rsi
  4070bd:	48 89 c7             	mov    %rax,%rdi
  4070c0:	e8 eb be ff ff       	callq  402fb0 <pthread_equal@plt>
  4070c5:	c9                   	leaveq 
  4070c6:	c3                   	retq   

00000000004070c7 <_ZL14__gthread_selfv>:
  4070c7:	55                   	push   %rbp
  4070c8:	48 89 e5             	mov    %rsp,%rbp
  4070cb:	e8 50 bc ff ff       	callq  402d20 <pthread_self@plt>
  4070d0:	5d                   	pop    %rbp
  4070d1:	c3                   	retq   

00000000004070d2 <_ZL20__gthread_mutex_lockP15pthread_mutex_t>:
  4070d2:	55                   	push   %rbp
  4070d3:	48 89 e5             	mov    %rsp,%rbp
  4070d6:	48 83 ec 10          	sub    $0x10,%rsp
  4070da:	48 89 7d f8          	mov    %rdi,-0x8(%rbp)
  4070de:	e8 a9 ff ff ff       	callq  40708c <_ZL18__gthread_active_pv>
  4070e3:	85 c0                	test   %eax,%eax
  4070e5:	0f 95 c0             	setne  %al
  4070e8:	84 c0                	test   %al,%al
  4070ea:	74 0e                	je     4070fa <_ZL20__gthread_mutex_lockP15pthread_mutex_t+0x28>
  4070ec:	48 8b 45 f8          	mov    -0x8(%rbp),%rax
  4070f0:	48 89 c7             	mov    %rax,%rdi
  4070f3:	e8 c8 bd ff ff       	callq  402ec0 <pthread_mutex_lock@plt>
  4070f8:	eb 05                	jmp    4070ff <_ZL20__gthread_mutex_lockP15pthread_mutex_t+0x2d>
  4070fa:	b8 00 00 00 00       	mov    $0x0,%eax
  4070ff:	c9                   	leaveq 
  407100:	c3                   	retq   

0000000000407101 <_ZL22__gthread_mutex_unlockP15pthread_mutex_t>:
  407101:	55                   	push   %rbp
  407102:	48 89 e5             	mov    %rsp,%rbp
  407105:	48 83 ec 10          	sub    $0x10,%rsp
  407109:	48 89 7d f8          	mov    %rdi,-0x8(%rbp)
  40710d:	e8 7a ff ff ff       	callq  40708c <_ZL18__gthread_active_pv>
  407112:	85 c0                	test   %eax,%eax
  407114:	0f 95 c0             	setne  %al
  407117:	84 c0                	test   %al,%al
  407119:	74 0e                	je     407129 <_ZL22__gthread_mutex_unlockP15pthread_mutex_t+0x28>
  40711b:	48 8b 45 f8          	mov    -0x8(%rbp),%rax
  40711f:	48 89 c7             	mov    %rax,%rdi
  407122:	e8 99 bb ff ff       	callq  402cc0 <pthread_mutex_unlock@plt>
  407127:	eb 05                	jmp    40712e <_ZL22__gthread_mutex_unlockP15pthread_mutex_t+0x2d>
  407129:	b8 00 00 00 00       	mov    $0x0,%eax
  40712e:	c9                   	leaveq 
  40712f:	c3                   	retq   

0000000000407130 <_ZN9__gnu_cxxL18__exchange_and_addEPVii>:
  407130:	55                   	push   %rbp
  407131:	48 89 e5             	mov    %rsp,%rbp
  407134:	48 89 7d f8          	mov    %rdi,-0x8(%rbp)
  407138:	89 75 f4             	mov    %esi,-0xc(%rbp)
  40713b:	8b 55 f4             	mov    -0xc(%rbp),%edx
  40713e:	48 8b 45 f8          	mov    -0x8(%rbp),%rax
  407142:	f0 0f c1 10          	lock xadd %edx,(%rax)
  407146:	89 d0                	mov    %edx,%eax
  407148:	5d                   	pop    %rbp
  407149:	c3                   	retq   

000000000040714a <_ZN9__gnu_cxxL25__exchange_and_add_singleEPii>:
  40714a:	55                   	push   %rbp
  40714b:	48 89 e5             	mov    %rsp,%rbp
  40714e:	48 89 7d e8          	mov    %rdi,-0x18(%rbp)
  407152:	89 75 e4             	mov    %esi,-0x1c(%rbp)
  407155:	48 8b 45 e8          	mov    -0x18(%rbp),%rax
  407159:	8b 00                	mov    (%rax),%eax
  40715b:	89 45 fc             	mov    %eax,-0x4(%rbp)
  40715e:	48 8b 45 e8          	mov    -0x18(%rbp),%rax
  407162:	8b 10                	mov    (%rax),%edx
  407164:	8b 45 e4             	mov    -0x1c(%rbp),%eax
  407167:	01 c2                	add    %eax,%edx
  407169:	48 8b 45 e8          	mov    -0x18(%rbp),%rax
  40716d:	89 10                	mov    %edx,(%rax)
  40716f:	8b 45 fc             	mov    -0x4(%rbp),%eax
  407172:	5d                   	pop    %rbp
  407173:	c3                   	retq   

0000000000407174 <_ZN9__gnu_cxxL27__exchange_and_add_dispatchEPii>:
  407174:	55                   	push   %rbp
  407175:	48 89 e5             	mov    %rsp,%rbp
  407178:	48 83 ec 10          	sub    $0x10,%rsp
  40717c:	48 89 7d f8          	mov    %rdi,-0x8(%rbp)
  407180:	89 75 f4             	mov    %esi,-0xc(%rbp)
  407183:	e8 04 ff ff ff       	callq  40708c <_ZL18__gthread_active_pv>
  407188:	85 c0                	test   %eax,%eax
  40718a:	0f 95 c0             	setne  %al
  40718d:	84 c0                	test   %al,%al
  40718f:	74 13                	je     4071a4 <_ZN9__gnu_cxxL27__exchange_and_add_dispatchEPii+0x30>
  407191:	8b 55 f4             	mov    -0xc(%rbp),%edx
  407194:	48 8b 45 f8          	mov    -0x8(%rbp),%rax
  407198:	89 d6                	mov    %edx,%esi
  40719a:	48 89 c7             	mov    %rax,%rdi
  40719d:	e8 8e ff ff ff       	callq  407130 <_ZN9__gnu_cxxL18__exchange_and_addEPVii>
  4071a2:	eb 11                	jmp    4071b5 <_ZN9__gnu_cxxL27__exchange_and_add_dispatchEPii+0x41>
  4071a4:	8b 55 f4             	mov    -0xc(%rbp),%edx
  4071a7:	48 8b 45 f8          	mov    -0x8(%rbp),%rax
  4071ab:	89 d6                	mov    %edx,%esi
  4071ad:	48 89 c7             	mov    %rax,%rdi
  4071b0:	e8 95 ff ff ff       	callq  40714a <_ZN9__gnu_cxxL25__exchange_and_add_singleEPii>
  4071b5:	c9                   	leaveq 
  4071b6:	c3                   	retq   

00000000004071b7 <_Z8net_initv>:
  4071b7:	55                   	push   %rbp
  4071b8:	48 89 e5             	mov    %rsp,%rbp
  4071bb:	90                   	nop
  4071bc:	5d                   	pop    %rbp
  4071bd:	c3                   	retq   

00000000004071be <_Z5errorPKc>:
  4071be:	55                   	push   %rbp
  4071bf:	48 89 e5             	mov    %rsp,%rbp
  4071c2:	41 54                	push   %r12
  4071c4:	53                   	push   %rbx
  4071c5:	48 83 ec 70          	sub    $0x70,%rsp
  4071c9:	48 89 7d 88          	mov    %rdi,-0x78(%rbp)
  4071cd:	64 48 8b 04 25 28 00 	mov    %fs:0x28,%rax
  4071d4:	00 00 
  4071d6:	48 89 45 e8          	mov    %rax,-0x18(%rbp)
  4071da:	31 c0                	xor    %eax,%eax
  4071dc:	bf 10 00 00 00       	mov    $0x10,%edi
  4071e1:	e8 da b9 ff ff       	callq  402bc0 <__cxa_allocate_exception@plt>
  4071e6:	48 89 c3             	mov    %rax,%rbx
  4071e9:	e8 52 b8 ff ff       	callq  402a40 <__errno_location@plt>
  4071ee:	8b 00                	mov    (%rax),%eax
  4071f0:	89 c7                	mov    %eax,%edi
  4071f2:	e8 49 b9 ff ff       	callq  402b40 <strerror@plt>
  4071f7:	49 89 c4             	mov    %rax,%r12
  4071fa:	48 8d 45 9f          	lea    -0x61(%rbp),%rax
  4071fe:	48 89 c7             	mov    %rax,%rdi
  407201:	e8 ca bd ff ff       	callq  402fd0 <_ZNSaIcEC1Ev@plt>
  407206:	48 8d 55 9f          	lea    -0x61(%rbp),%rdx
  40720a:	48 8b 4d 88          	mov    -0x78(%rbp),%rcx
  40720e:	48 8d 45 a0          	lea    -0x60(%rbp),%rax
  407212:	48 89 ce             	mov    %rcx,%rsi
  407215:	48 89 c7             	mov    %rax,%rdi
  407218:	e8 63 bc ff ff       	callq  402e80 <_ZNSt7__cxx1112basic_stringIcSt11char_traitsIcESaIcEEC1EPKcRKS3_@plt>
  40721d:	48 8d 45 c0          	lea    -0x40(%rbp),%rax
  407221:	48 8d 4d a0          	lea    -0x60(%rbp),%rcx
  407225:	4c 89 e2             	mov    %r12,%rdx
  407228:	48 89 ce             	mov    %rcx,%rsi
  40722b:	48 89 c7             	mov    %rax,%rdi
  40722e:	e8 9b 34 00 00       	callq  40a6ce <_ZStplIcSt11char_traitsIcESaIcEENSt7__cxx1112basic_stringIT_T0_T1_EEOS8_PKS5_>
  407233:	48 8d 45 c0          	lea    -0x40(%rbp),%rax
  407237:	48 89 c6             	mov    %rax,%rsi
  40723a:	48 89 df             	mov    %rbx,%rdi
  40723d:	e8 ce bc ff ff       	callq  402f10 <_ZNSt13runtime_errorC1ERKNSt7__cxx1112basic_stringIcSt11char_traitsIcESaIcEEE@plt>
  407242:	48 8d 45 c0          	lea    -0x40(%rbp),%rax
  407246:	48 89 c7             	mov    %rax,%rdi
  407249:	e8 d2 b9 ff ff       	callq  402c20 <_ZNSt7__cxx1112basic_stringIcSt11char_traitsIcESaIcEED1Ev@plt>
  40724e:	48 8d 45 a0          	lea    -0x60(%rbp),%rax
  407252:	48 89 c7             	mov    %rax,%rdi
  407255:	e8 c6 b9 ff ff       	callq  402c20 <_ZNSt7__cxx1112basic_stringIcSt11char_traitsIcESaIcEED1Ev@plt>
  40725a:	48 8d 45 9f          	lea    -0x61(%rbp),%rax
  40725e:	48 89 c7             	mov    %rax,%rdi
  407261:	e8 8a bb ff ff       	callq  402df0 <_ZNSaIcED1Ev@plt>
  407266:	ba b0 2d 40 00       	mov    $0x402db0,%edx
  40726b:	be 10 54 61 00       	mov    $0x615410,%esi
  407270:	48 89 df             	mov    %rbx,%rdi
  407273:	e8 18 bd ff ff       	callq  402f90 <__cxa_throw@plt>
  407278:	49 89 c4             	mov    %rax,%r12
  40727b:	48 8d 45 c0          	lea    -0x40(%rbp),%rax
  40727f:	48 89 c7             	mov    %rax,%rdi
  407282:	e8 99 b9 ff ff       	callq  402c20 <_ZNSt7__cxx1112basic_stringIcSt11char_traitsIcESaIcEED1Ev@plt>
  407287:	eb 03                	jmp    40728c <_Z5errorPKc+0xce>
  407289:	49 89 c4             	mov    %rax,%r12
  40728c:	48 8d 45 a0          	lea    -0x60(%rbp),%rax
  407290:	48 89 c7             	mov    %rax,%rdi
  407293:	e8 88 b9 ff ff       	callq  402c20 <_ZNSt7__cxx1112basic_stringIcSt11char_traitsIcESaIcEED1Ev@plt>
  407298:	eb 03                	jmp    40729d <_Z5errorPKc+0xdf>
  40729a:	49 89 c4             	mov    %rax,%r12
  40729d:	48 8d 45 9f          	lea    -0x61(%rbp),%rax
  4072a1:	48 89 c7             	mov    %rax,%rdi
  4072a4:	e8 47 bb ff ff       	callq  402df0 <_ZNSaIcED1Ev@plt>
  4072a9:	48 89 df             	mov    %rbx,%rdi
  4072ac:	e8 df b9 ff ff       	callq  402c90 <__cxa_free_exception@plt>
  4072b1:	4c 89 e0             	mov    %r12,%rax
  4072b4:	48 89 c7             	mov    %rax,%rdi
  4072b7:	e8 04 bd ff ff       	callq  402fc0 <_Unwind_Resume@plt>

00000000004072bc <_Z17create_connectionPKci>:
  4072bc:	55                   	push   %rbp
  4072bd:	48 89 e5             	mov    %rsp,%rbp
  4072c0:	48 83 ec 40          	sub    $0x40,%rsp
  4072c4:	48 89 7d c8          	mov    %rdi,-0x38(%rbp)
  4072c8:	89 75 c4             	mov    %esi,-0x3c(%rbp)
  4072cb:	64 48 8b 04 25 28 00 	mov    %fs:0x28,%rax
  4072d2:	00 00 
  4072d4:	48 89 45 f8          	mov    %rax,-0x8(%rbp)
  4072d8:	31 c0                	xor    %eax,%eax
  4072da:	ba 00 00 00 00       	mov    $0x0,%edx
  4072df:	be 01 00 00 00       	mov    $0x1,%esi
  4072e4:	bf 02 00 00 00       	mov    $0x2,%edi
  4072e9:	e8 d2 b7 ff ff       	callq  402ac0 <socket@plt>
  4072ee:	89 45 dc             	mov    %eax,-0x24(%rbp)
  4072f1:	83 7d dc ff          	cmpl   $0xffffffff,-0x24(%rbp)
  4072f5:	75 0a                	jne    407301 <_Z17create_connectionPKci+0x45>
  4072f7:	bf 50 df 40 00       	mov    $0x40df50,%edi
  4072fc:	e8 bd fe ff ff       	callq  4071be <_Z5errorPKc>
  407301:	66 c7 45 e0 02 00    	movw   $0x2,-0x20(%rbp)
  407307:	48 8b 45 c8          	mov    -0x38(%rbp),%rax
  40730b:	48 89 c7             	mov    %rax,%rdi
  40730e:	e8 7d ba ff ff       	callq  402d90 <inet_addr@plt>
  407313:	89 45 e4             	mov    %eax,-0x1c(%rbp)
  407316:	8b 45 c4             	mov    -0x3c(%rbp),%eax
  407319:	0f b7 c0             	movzwl %ax,%eax
  40731c:	89 c7                	mov    %eax,%edi
  40731e:	e8 3d b7 ff ff       	callq  402a60 <htons@plt>
  407323:	66 89 45 e2          	mov    %ax,-0x1e(%rbp)
  407327:	ba 10 00 00 00       	mov    $0x10,%edx
  40732c:	48 8d 4d e0          	lea    -0x20(%rbp),%rcx
  407330:	8b 45 dc             	mov    -0x24(%rbp),%eax
  407333:	48 89 ce             	mov    %rcx,%rsi
  407336:	89 c7                	mov    %eax,%edi
  407338:	e8 b3 b9 ff ff       	callq  402cf0 <connect@plt>
  40733d:	85 c0                	test   %eax,%eax
  40733f:	0f 95 c0             	setne  %al
  407342:	84 c0                	test   %al,%al
  407344:	74 0a                	je     407350 <_Z17create_connectionPKci+0x94>
  407346:	bf 50 df 40 00       	mov    $0x40df50,%edi
  40734b:	e8 6e fe ff ff       	callq  4071be <_Z5errorPKc>
  407350:	8b 45 dc             	mov    -0x24(%rbp),%eax
  407353:	48 8b 4d f8          	mov    -0x8(%rbp),%rcx
  407357:	64 48 33 0c 25 28 00 	xor    %fs:0x28,%rcx
  40735e:	00 00 
  407360:	74 05                	je     407367 <_Z17create_connectionPKci+0xab>
  407362:	e8 a9 ba ff ff       	callq  402e10 <__stack_chk_fail@plt>
  407367:	c9                   	leaveq 
  407368:	c3                   	retq   

0000000000407369 <_Z16close_connectioni>:
  407369:	55                   	push   %rbp
  40736a:	48 89 e5             	mov    %rsp,%rbp
  40736d:	48 83 ec 10          	sub    $0x10,%rsp
  407371:	89 7d fc             	mov    %edi,-0x4(%rbp)
  407374:	8b 45 fc             	mov    -0x4(%rbp),%eax
  407377:	89 c7                	mov    %eax,%edi
  407379:	e8 d2 bc ff ff       	callq  403050 <close@plt>
  40737e:	90                   	nop
  40737f:	c9                   	leaveq 
  407380:	c3                   	retq   

0000000000407381 <_ZL10send_bytesiPKvi>:
  407381:	55                   	push   %rbp
  407382:	48 89 e5             	mov    %rsp,%rbp
  407385:	48 83 ec 20          	sub    $0x20,%rsp
  407389:	89 7d ec             	mov    %edi,-0x14(%rbp)
  40738c:	48 89 75 e0          	mov    %rsi,-0x20(%rbp)
  407390:	89 55 e8             	mov    %edx,-0x18(%rbp)
  407393:	48 8b 45 e0          	mov    -0x20(%rbp),%rax
  407397:	48 89 45 f8          	mov    %rax,-0x8(%rbp)
  40739b:	83 7d e8 00          	cmpl   $0x0,-0x18(%rbp)
  40739f:	7e 3d                	jle    4073de <_ZL10send_bytesiPKvi+0x5d>
  4073a1:	8b 45 e8             	mov    -0x18(%rbp),%eax
  4073a4:	48 63 d0             	movslq %eax,%rdx
  4073a7:	48 8b 75 f8          	mov    -0x8(%rbp),%rsi
  4073ab:	8b 45 ec             	mov    -0x14(%rbp),%eax
  4073ae:	b9 00 00 00 00       	mov    $0x0,%ecx
  4073b3:	89 c7                	mov    %eax,%edi
  4073b5:	e8 16 b8 ff ff       	callq  402bd0 <send@plt>
  4073ba:	89 45 f4             	mov    %eax,-0xc(%rbp)
  4073bd:	83 7d f4 ff          	cmpl   $0xffffffff,-0xc(%rbp)
  4073c1:	75 0a                	jne    4073cd <_ZL10send_bytesiPKvi+0x4c>
  4073c3:	bf 50 df 40 00       	mov    $0x40df50,%edi
  4073c8:	e8 f1 fd ff ff       	callq  4071be <_Z5errorPKc>
  4073cd:	8b 45 f4             	mov    -0xc(%rbp),%eax
  4073d0:	29 45 e8             	sub    %eax,-0x18(%rbp)
  4073d3:	8b 45 f4             	mov    -0xc(%rbp),%eax
  4073d6:	48 98                	cltq   
  4073d8:	48 01 45 f8          	add    %rax,-0x8(%rbp)
  4073dc:	eb bd                	jmp    40739b <_ZL10send_bytesiPKvi+0x1a>
  4073de:	90                   	nop
  4073df:	c9                   	leaveq 
  4073e0:	c3                   	retq   

00000000004073e1 <_Z13write_requestiPKcSt3mapINSt7__cxx1112basic_stringIcSt11char_traitsIcESaIcEEES7_St4lessIS7_ESaISt4pairIKS7_S7_EEEPKvi>:
  4073e1:	55                   	push   %rbp
  4073e2:	48 89 e5             	mov    %rsp,%rbp
  4073e5:	53                   	push   %rbx
  4073e6:	48 81 ec a8 10 00 00 	sub    $0x10a8,%rsp
  4073ed:	89 bd 6c ef ff ff    	mov    %edi,-0x1094(%rbp)
  4073f3:	48 89 b5 60 ef ff ff 	mov    %rsi,-0x10a0(%rbp)
  4073fa:	48 89 95 58 ef ff ff 	mov    %rdx,-0x10a8(%rbp)
  407401:	48 89 8d 50 ef ff ff 	mov    %rcx,-0x10b0(%rbp)
  407408:	44 89 85 68 ef ff ff 	mov    %r8d,-0x1098(%rbp)
  40740f:	64 48 8b 04 25 28 00 	mov    %fs:0x28,%rax
  407416:	00 00 
  407418:	48 89 45 e8          	mov    %rax,-0x18(%rbp)
  40741c:	31 c0                	xor    %eax,%eax
  40741e:	48 8d 85 c0 ef ff ff 	lea    -0x1040(%rbp),%rax
  407425:	8b 95 68 ef ff ff    	mov    -0x1098(%rbp),%edx
  40742b:	89 d6                	mov    %edx,%esi
  40742d:	48 89 c7             	mov    %rax,%rdi
  407430:	e8 85 2c 00 00       	callq  40a0ba <_ZNSt7__cxx119to_stringEi>
  407435:	48 8d 85 80 ef ff ff 	lea    -0x1080(%rbp),%rax
  40743c:	48 89 c7             	mov    %rax,%rdi
  40743f:	e8 8c bb ff ff       	callq  402fd0 <_ZNSaIcEC1Ev@plt>
  407444:	48 8d 95 80 ef ff ff 	lea    -0x1080(%rbp),%rdx
  40744b:	48 8d 85 a0 ef ff ff 	lea    -0x1060(%rbp),%rax
  407452:	be 51 df 40 00       	mov    $0x40df51,%esi
  407457:	48 89 c7             	mov    %rax,%rdi
  40745a:	e8 21 ba ff ff       	callq  402e80 <_ZNSt7__cxx1112basic_stringIcSt11char_traitsIcESaIcEEC1EPKcRKS3_@plt>
  40745f:	48 8d 95 a0 ef ff ff 	lea    -0x1060(%rbp),%rdx
  407466:	48 8b 85 58 ef ff ff 	mov    -0x10a8(%rbp),%rax
  40746d:	48 89 d6             	mov    %rdx,%rsi
  407470:	48 89 c7             	mov    %rax,%rdi
  407473:	e8 d8 cc ff ff       	callq  404150 <_ZNSt3mapINSt7__cxx1112basic_stringIcSt11char_traitsIcESaIcEEES5_St4lessIS5_ESaISt4pairIKS5_S5_EEEixEOS5_>
  407478:	48 89 c2             	mov    %rax,%rdx
  40747b:	48 8d 85 c0 ef ff ff 	lea    -0x1040(%rbp),%rax
  407482:	48 89 c6             	mov    %rax,%rsi
  407485:	48 89 d7             	mov    %rdx,%rdi
  407488:	e8 a3 b9 ff ff       	callq  402e30 <_ZNSt7__cxx1112basic_stringIcSt11char_traitsIcESaIcEEaSEOS4_@plt>
  40748d:	48 8d 85 a0 ef ff ff 	lea    -0x1060(%rbp),%rax
  407494:	48 89 c7             	mov    %rax,%rdi
  407497:	e8 84 b7 ff ff       	callq  402c20 <_ZNSt7__cxx1112basic_stringIcSt11char_traitsIcESaIcEED1Ev@plt>
  40749c:	48 8d 85 80 ef ff ff 	lea    -0x1080(%rbp),%rax
  4074a3:	48 89 c7             	mov    %rax,%rdi
  4074a6:	e8 45 b9 ff ff       	callq  402df0 <_ZNSaIcED1Ev@plt>
  4074ab:	48 8d 85 c0 ef ff ff 	lea    -0x1040(%rbp),%rax
  4074b2:	48 89 c7             	mov    %rax,%rdi
  4074b5:	e8 66 b7 ff ff       	callq  402c20 <_ZNSt7__cxx1112basic_stringIcSt11char_traitsIcESaIcEED1Ev@plt>
  4074ba:	48 8d 85 e0 ef ff ff 	lea    -0x1020(%rbp),%rax
  4074c1:	48 89 85 88 ef ff ff 	mov    %rax,-0x1078(%rbp)
  4074c8:	48 8b 95 60 ef ff ff 	mov    -0x10a0(%rbp),%rdx
  4074cf:	48 8b 85 88 ef ff ff 	mov    -0x1078(%rbp),%rax
  4074d6:	be 60 df 40 00       	mov    $0x40df60,%esi
  4074db:	48 89 c7             	mov    %rax,%rdi
  4074de:	b8 00 00 00 00       	mov    $0x0,%eax
  4074e3:	e8 b8 b5 ff ff       	callq  402aa0 <sprintf@plt>
  4074e8:	48 98                	cltq   
  4074ea:	48 01 85 88 ef ff ff 	add    %rax,-0x1078(%rbp)
  4074f1:	48 8b 85 58 ef ff ff 	mov    -0x10a8(%rbp),%rax
  4074f8:	48 89 85 90 ef ff ff 	mov    %rax,-0x1070(%rbp)
  4074ff:	48 8b 85 90 ef ff ff 	mov    -0x1070(%rbp),%rax
  407506:	48 89 c7             	mov    %rax,%rdi
  407509:	e8 08 32 00 00       	callq  40a716 <_ZNSt3mapINSt7__cxx1112basic_stringIcSt11char_traitsIcESaIcEEES5_St4lessIS5_ESaISt4pairIKS5_S5_EEE5beginEv>
  40750e:	48 89 85 70 ef ff ff 	mov    %rax,-0x1090(%rbp)
  407515:	48 8b 85 90 ef ff ff 	mov    -0x1070(%rbp),%rax
  40751c:	48 89 c7             	mov    %rax,%rdi
  40751f:	e8 44 d2 ff ff       	callq  404768 <_ZNSt3mapINSt7__cxx1112basic_stringIcSt11char_traitsIcESaIcEEES5_St4lessIS5_ESaISt4pairIKS5_S5_EEE3endEv>
  407524:	48 89 85 80 ef ff ff 	mov    %rax,-0x1080(%rbp)
  40752b:	48 8d 95 80 ef ff ff 	lea    -0x1080(%rbp),%rdx
  407532:	48 8d 85 70 ef ff ff 	lea    -0x1090(%rbp),%rax
  407539:	48 89 d6             	mov    %rdx,%rsi
  40753c:	48 89 c7             	mov    %rax,%rdi
  40753f:	e8 ec 31 00 00       	callq  40a730 <_ZNKSt17_Rb_tree_iteratorISt4pairIKNSt7__cxx1112basic_stringIcSt11char_traitsIcESaIcEEES6_EEneERKS9_>
  407544:	84 c0                	test   %al,%al
  407546:	74 77                	je     4075bf <_Z13write_requestiPKcSt3mapINSt7__cxx1112basic_stringIcSt11char_traitsIcESaIcEEES7_St4lessIS7_ESaISt4pairIKS7_S7_EEEPKvi+0x1de>
  407548:	48 8d 85 70 ef ff ff 	lea    -0x1090(%rbp),%rax
  40754f:	48 89 c7             	mov    %rax,%rdi
  407552:	e8 6f d2 ff ff       	callq  4047c6 <_ZNKSt17_Rb_tree_iteratorISt4pairIKNSt7__cxx1112basic_stringIcSt11char_traitsIcESaIcEEES6_EEdeEv>
  407557:	48 89 85 98 ef ff ff 	mov    %rax,-0x1068(%rbp)
  40755e:	48 8b 85 98 ef ff ff 	mov    -0x1068(%rbp),%rax
  407565:	48 83 c0 20          	add    $0x20,%rax
  407569:	48 89 c7             	mov    %rax,%rdi
  40756c:	e8 0f b6 ff ff       	callq  402b80 <_ZNKSt7__cxx1112basic_stringIcSt11char_traitsIcESaIcEE5c_strEv@plt>
  407571:	48 89 c3             	mov    %rax,%rbx
  407574:	48 8b 85 98 ef ff ff 	mov    -0x1068(%rbp),%rax
  40757b:	48 89 c7             	mov    %rax,%rdi
  40757e:	e8 fd b5 ff ff       	callq  402b80 <_ZNKSt7__cxx1112basic_stringIcSt11char_traitsIcESaIcEE5c_strEv@plt>
  407583:	48 89 c2             	mov    %rax,%rdx
  407586:	48 8b 85 88 ef ff ff 	mov    -0x1078(%rbp),%rax
  40758d:	48 89 d9             	mov    %rbx,%rcx
  407590:	be 72 df 40 00       	mov    $0x40df72,%esi
  407595:	48 89 c7             	mov    %rax,%rdi
  407598:	b8 00 00 00 00       	mov    $0x0,%eax
  40759d:	e8 fe b4 ff ff       	callq  402aa0 <sprintf@plt>
  4075a2:	48 98                	cltq   
  4075a4:	48 01 85 88 ef ff ff 	add    %rax,-0x1078(%rbp)
  4075ab:	48 8d 85 70 ef ff ff 	lea    -0x1090(%rbp),%rax
  4075b2:	48 89 c7             	mov    %rax,%rdi
  4075b5:	e8 6c e8 ff ff       	callq  405e26 <_ZNSt17_Rb_tree_iteratorISt4pairIKNSt7__cxx1112basic_stringIcSt11char_traitsIcESaIcEEES6_EEppEv>
  4075ba:	e9 6c ff ff ff       	jmpq   40752b <_Z13write_requestiPKcSt3mapINSt7__cxx1112basic_stringIcSt11char_traitsIcESaIcEEES7_St4lessIS7_ESaISt4pairIKS7_S7_EEEPKvi+0x14a>
  4075bf:	48 8b 85 88 ef ff ff 	mov    -0x1078(%rbp),%rax
  4075c6:	66 c7 00 0d 0a       	movw   $0xa0d,(%rax)
  4075cb:	c6 40 02 00          	movb   $0x0,0x2(%rax)
  4075cf:	b8 02 00 00 00       	mov    $0x2,%eax
  4075d4:	48 98                	cltq   
  4075d6:	48 01 85 88 ef ff ff 	add    %rax,-0x1078(%rbp)
  4075dd:	48 8b 95 88 ef ff ff 	mov    -0x1078(%rbp),%rdx
  4075e4:	48 8d 85 e0 ef ff ff 	lea    -0x1020(%rbp),%rax
  4075eb:	48 29 c2             	sub    %rax,%rdx
  4075ee:	48 89 d0             	mov    %rdx,%rax
  4075f1:	89 c2                	mov    %eax,%edx
  4075f3:	48 8d 8d e0 ef ff ff 	lea    -0x1020(%rbp),%rcx
  4075fa:	8b 85 6c ef ff ff    	mov    -0x1094(%rbp),%eax
  407600:	48 89 ce             	mov    %rcx,%rsi
  407603:	89 c7                	mov    %eax,%edi
  407605:	e8 77 fd ff ff       	callq  407381 <_ZL10send_bytesiPKvi>
  40760a:	8b 95 68 ef ff ff    	mov    -0x1098(%rbp),%edx
  407610:	48 8b 8d 50 ef ff ff 	mov    -0x10b0(%rbp),%rcx
  407617:	8b 85 6c ef ff ff    	mov    -0x1094(%rbp),%eax
  40761d:	48 89 ce             	mov    %rcx,%rsi
  407620:	89 c7                	mov    %eax,%edi
  407622:	e8 5a fd ff ff       	callq  407381 <_ZL10send_bytesiPKvi>
  407627:	90                   	nop
  407628:	48 8b 45 e8          	mov    -0x18(%rbp),%rax
  40762c:	64 48 33 04 25 28 00 	xor    %fs:0x28,%rax
  407633:	00 00 
  407635:	74 47                	je     40767e <_Z13write_requestiPKcSt3mapINSt7__cxx1112basic_stringIcSt11char_traitsIcESaIcEEES7_St4lessIS7_ESaISt4pairIKS7_S7_EEEPKvi+0x29d>
  407637:	eb 40                	jmp    407679 <_Z13write_requestiPKcSt3mapINSt7__cxx1112basic_stringIcSt11char_traitsIcESaIcEEES7_St4lessIS7_ESaISt4pairIKS7_S7_EEEPKvi+0x298>
  407639:	48 89 c3             	mov    %rax,%rbx
  40763c:	48 8d 85 a0 ef ff ff 	lea    -0x1060(%rbp),%rax
  407643:	48 89 c7             	mov    %rax,%rdi
  407646:	e8 d5 b5 ff ff       	callq  402c20 <_ZNSt7__cxx1112basic_stringIcSt11char_traitsIcESaIcEED1Ev@plt>
  40764b:	eb 03                	jmp    407650 <_Z13write_requestiPKcSt3mapINSt7__cxx1112basic_stringIcSt11char_traitsIcESaIcEEES7_St4lessIS7_ESaISt4pairIKS7_S7_EEEPKvi+0x26f>
  40764d:	48 89 c3             	mov    %rax,%rbx
  407650:	48 8d 85 80 ef ff ff 	lea    -0x1080(%rbp),%rax
  407657:	48 89 c7             	mov    %rax,%rdi
  40765a:	e8 91 b7 ff ff       	callq  402df0 <_ZNSaIcED1Ev@plt>
  40765f:	48 8d 85 c0 ef ff ff 	lea    -0x1040(%rbp),%rax
  407666:	48 89 c7             	mov    %rax,%rdi
  407669:	e8 b2 b5 ff ff       	callq  402c20 <_ZNSt7__cxx1112basic_stringIcSt11char_traitsIcESaIcEED1Ev@plt>
  40766e:	48 89 d8             	mov    %rbx,%rax
  407671:	48 89 c7             	mov    %rax,%rdi
  407674:	e8 47 b9 ff ff       	callq  402fc0 <_Unwind_Resume@plt>
  407679:	e8 92 b7 ff ff       	callq  402e10 <__stack_chk_fail@plt>
  40767e:	48 81 c4 a8 10 00 00 	add    $0x10a8,%rsp
  407685:	5b                   	pop    %rbx
  407686:	5d                   	pop    %rbp
  407687:	c3                   	retq   

0000000000407688 <_Z14write_responseiiSt3mapINSt7__cxx1112basic_stringIcSt11char_traitsIcESaIcEEES5_St4lessIS5_ESaISt4pairIKS5_S5_EEEPKvi>:
  407688:	55                   	push   %rbp
  407689:	48 89 e5             	mov    %rsp,%rbp
  40768c:	53                   	push   %rbx
  40768d:	48 81 ec a8 10 00 00 	sub    $0x10a8,%rsp
  407694:	89 bd 6c ef ff ff    	mov    %edi,-0x1094(%rbp)
  40769a:	89 b5 68 ef ff ff    	mov    %esi,-0x1098(%rbp)
  4076a0:	48 89 95 60 ef ff ff 	mov    %rdx,-0x10a0(%rbp)
  4076a7:	48 89 8d 58 ef ff ff 	mov    %rcx,-0x10a8(%rbp)
  4076ae:	44 89 85 54 ef ff ff 	mov    %r8d,-0x10ac(%rbp)
  4076b5:	64 48 8b 04 25 28 00 	mov    %fs:0x28,%rax
  4076bc:	00 00 
  4076be:	48 89 45 e8          	mov    %rax,-0x18(%rbp)
  4076c2:	31 c0                	xor    %eax,%eax
  4076c4:	48 8d 85 c0 ef ff ff 	lea    -0x1040(%rbp),%rax
  4076cb:	8b 95 54 ef ff ff    	mov    -0x10ac(%rbp),%edx
  4076d1:	89 d6                	mov    %edx,%esi
  4076d3:	48 89 c7             	mov    %rax,%rdi
  4076d6:	e8 df 29 00 00       	callq  40a0ba <_ZNSt7__cxx119to_stringEi>
  4076db:	48 8d 85 80 ef ff ff 	lea    -0x1080(%rbp),%rax
  4076e2:	48 89 c7             	mov    %rax,%rdi
  4076e5:	e8 e6 b8 ff ff       	callq  402fd0 <_ZNSaIcEC1Ev@plt>
  4076ea:	48 8d 95 80 ef ff ff 	lea    -0x1080(%rbp),%rdx
  4076f1:	48 8d 85 a0 ef ff ff 	lea    -0x1060(%rbp),%rax
  4076f8:	be 51 df 40 00       	mov    $0x40df51,%esi
  4076fd:	48 89 c7             	mov    %rax,%rdi
  407700:	e8 7b b7 ff ff       	callq  402e80 <_ZNSt7__cxx1112basic_stringIcSt11char_traitsIcESaIcEEC1EPKcRKS3_@plt>
  407705:	48 8d 95 a0 ef ff ff 	lea    -0x1060(%rbp),%rdx
  40770c:	48 8b 85 60 ef ff ff 	mov    -0x10a0(%rbp),%rax
  407713:	48 89 d6             	mov    %rdx,%rsi
  407716:	48 89 c7             	mov    %rax,%rdi
  407719:	e8 32 ca ff ff       	callq  404150 <_ZNSt3mapINSt7__cxx1112basic_stringIcSt11char_traitsIcESaIcEEES5_St4lessIS5_ESaISt4pairIKS5_S5_EEEixEOS5_>
  40771e:	48 89 c2             	mov    %rax,%rdx
  407721:	48 8d 85 c0 ef ff ff 	lea    -0x1040(%rbp),%rax
  407728:	48 89 c6             	mov    %rax,%rsi
  40772b:	48 89 d7             	mov    %rdx,%rdi
  40772e:	e8 fd b6 ff ff       	callq  402e30 <_ZNSt7__cxx1112basic_stringIcSt11char_traitsIcESaIcEEaSEOS4_@plt>
  407733:	48 8d 85 a0 ef ff ff 	lea    -0x1060(%rbp),%rax
  40773a:	48 89 c7             	mov    %rax,%rdi
  40773d:	e8 de b4 ff ff       	callq  402c20 <_ZNSt7__cxx1112basic_stringIcSt11char_traitsIcESaIcEED1Ev@plt>
  407742:	48 8d 85 80 ef ff ff 	lea    -0x1080(%rbp),%rax
  407749:	48 89 c7             	mov    %rax,%rdi
  40774c:	e8 9f b6 ff ff       	callq  402df0 <_ZNSaIcED1Ev@plt>
  407751:	48 8d 85 c0 ef ff ff 	lea    -0x1040(%rbp),%rax
  407758:	48 89 c7             	mov    %rax,%rdi
  40775b:	e8 c0 b4 ff ff       	callq  402c20 <_ZNSt7__cxx1112basic_stringIcSt11char_traitsIcESaIcEED1Ev@plt>
  407760:	48 8d 85 e0 ef ff ff 	lea    -0x1020(%rbp),%rax
  407767:	48 89 85 88 ef ff ff 	mov    %rax,-0x1078(%rbp)
  40776e:	8b 95 68 ef ff ff    	mov    -0x1098(%rbp),%edx
  407774:	48 8b 85 88 ef ff ff 	mov    -0x1078(%rbp),%rax
  40777b:	be 7b df 40 00       	mov    $0x40df7b,%esi
  407780:	48 89 c7             	mov    %rax,%rdi
  407783:	b8 00 00 00 00       	mov    $0x0,%eax
  407788:	e8 13 b3 ff ff       	callq  402aa0 <sprintf@plt>
  40778d:	48 98                	cltq   
  40778f:	48 01 85 88 ef ff ff 	add    %rax,-0x1078(%rbp)
  407796:	48 8b 85 60 ef ff ff 	mov    -0x10a0(%rbp),%rax
  40779d:	48 89 85 90 ef ff ff 	mov    %rax,-0x1070(%rbp)
  4077a4:	48 8b 85 90 ef ff ff 	mov    -0x1070(%rbp),%rax
  4077ab:	48 89 c7             	mov    %rax,%rdi
  4077ae:	e8 63 2f 00 00       	callq  40a716 <_ZNSt3mapINSt7__cxx1112basic_stringIcSt11char_traitsIcESaIcEEES5_St4lessIS5_ESaISt4pairIKS5_S5_EEE5beginEv>
  4077b3:	48 89 85 70 ef ff ff 	mov    %rax,-0x1090(%rbp)
  4077ba:	48 8b 85 90 ef ff ff 	mov    -0x1070(%rbp),%rax
  4077c1:	48 89 c7             	mov    %rax,%rdi
  4077c4:	e8 9f cf ff ff       	callq  404768 <_ZNSt3mapINSt7__cxx1112basic_stringIcSt11char_traitsIcESaIcEEES5_St4lessIS5_ESaISt4pairIKS5_S5_EEE3endEv>
  4077c9:	48 89 85 80 ef ff ff 	mov    %rax,-0x1080(%rbp)
  4077d0:	48 8d 95 80 ef ff ff 	lea    -0x1080(%rbp),%rdx
  4077d7:	48 8d 85 70 ef ff ff 	lea    -0x1090(%rbp),%rax
  4077de:	48 89 d6             	mov    %rdx,%rsi
  4077e1:	48 89 c7             	mov    %rax,%rdi
  4077e4:	e8 47 2f 00 00       	callq  40a730 <_ZNKSt17_Rb_tree_iteratorISt4pairIKNSt7__cxx1112basic_stringIcSt11char_traitsIcESaIcEEES6_EEneERKS9_>
  4077e9:	84 c0                	test   %al,%al
  4077eb:	74 77                	je     407864 <_Z14write_responseiiSt3mapINSt7__cxx1112basic_stringIcSt11char_traitsIcESaIcEEES5_St4lessIS5_ESaISt4pairIKS5_S5_EEEPKvi+0x1dc>
  4077ed:	48 8d 85 70 ef ff ff 	lea    -0x1090(%rbp),%rax
  4077f4:	48 89 c7             	mov    %rax,%rdi
  4077f7:	e8 ca cf ff ff       	callq  4047c6 <_ZNKSt17_Rb_tree_iteratorISt4pairIKNSt7__cxx1112basic_stringIcSt11char_traitsIcESaIcEEES6_EEdeEv>
  4077fc:	48 89 85 98 ef ff ff 	mov    %rax,-0x1068(%rbp)
  407803:	48 8b 85 98 ef ff ff 	mov    -0x1068(%rbp),%rax
  40780a:	48 83 c0 20          	add    $0x20,%rax
  40780e:	48 89 c7             	mov    %rax,%rdi
  407811:	e8 6a b3 ff ff       	callq  402b80 <_ZNKSt7__cxx1112basic_stringIcSt11char_traitsIcESaIcEE5c_strEv@plt>
  407816:	48 89 c3             	mov    %rax,%rbx
  407819:	48 8b 85 98 ef ff ff 	mov    -0x1068(%rbp),%rax
  407820:	48 89 c7             	mov    %rax,%rdi
  407823:	e8 58 b3 ff ff       	callq  402b80 <_ZNKSt7__cxx1112basic_stringIcSt11char_traitsIcESaIcEE5c_strEv@plt>
  407828:	48 89 c2             	mov    %rax,%rdx
  40782b:	48 8b 85 88 ef ff ff 	mov    -0x1078(%rbp),%rax
  407832:	48 89 d9             	mov    %rbx,%rcx
  407835:	be 89 df 40 00       	mov    $0x40df89,%esi
  40783a:	48 89 c7             	mov    %rax,%rdi
  40783d:	b8 00 00 00 00       	mov    $0x0,%eax
  407842:	e8 59 b2 ff ff       	callq  402aa0 <sprintf@plt>
  407847:	48 98                	cltq   
  407849:	48 01 85 88 ef ff ff 	add    %rax,-0x1078(%rbp)
  407850:	48 8d 85 70 ef ff ff 	lea    -0x1090(%rbp),%rax
  407857:	48 89 c7             	mov    %rax,%rdi
  40785a:	e8 c7 e5 ff ff       	callq  405e26 <_ZNSt17_Rb_tree_iteratorISt4pairIKNSt7__cxx1112basic_stringIcSt11char_traitsIcESaIcEEES6_EEppEv>
  40785f:	e9 6c ff ff ff       	jmpq   4077d0 <_Z14write_responseiiSt3mapINSt7__cxx1112basic_stringIcSt11char_traitsIcESaIcEEES5_St4lessIS5_ESaISt4pairIKS5_S5_EEEPKvi+0x148>
  407864:	48 8b 85 88 ef ff ff 	mov    -0x1078(%rbp),%rax
  40786b:	66 c7 00 0d 0a       	movw   $0xa0d,(%rax)
  407870:	c6 40 02 00          	movb   $0x0,0x2(%rax)
  407874:	b8 02 00 00 00       	mov    $0x2,%eax
  407879:	48 98                	cltq   
  40787b:	48 01 85 88 ef ff ff 	add    %rax,-0x1078(%rbp)
  407882:	48 8b 95 88 ef ff ff 	mov    -0x1078(%rbp),%rdx
  407889:	48 8d 85 e0 ef ff ff 	lea    -0x1020(%rbp),%rax
  407890:	48 29 c2             	sub    %rax,%rdx
  407893:	48 89 d0             	mov    %rdx,%rax
  407896:	89 c2                	mov    %eax,%edx
  407898:	48 8d 8d e0 ef ff ff 	lea    -0x1020(%rbp),%rcx
  40789f:	8b 85 6c ef ff ff    	mov    -0x1094(%rbp),%eax
  4078a5:	48 89 ce             	mov    %rcx,%rsi
  4078a8:	89 c7                	mov    %eax,%edi
  4078aa:	e8 d2 fa ff ff       	callq  407381 <_ZL10send_bytesiPKvi>
  4078af:	8b 95 54 ef ff ff    	mov    -0x10ac(%rbp),%edx
  4078b5:	48 8b 8d 58 ef ff ff 	mov    -0x10a8(%rbp),%rcx
  4078bc:	8b 85 6c ef ff ff    	mov    -0x1094(%rbp),%eax
  4078c2:	48 89 ce             	mov    %rcx,%rsi
  4078c5:	89 c7                	mov    %eax,%edi
  4078c7:	e8 b5 fa ff ff       	callq  407381 <_ZL10send_bytesiPKvi>
  4078cc:	90                   	nop
  4078cd:	48 8b 45 e8          	mov    -0x18(%rbp),%rax
  4078d1:	64 48 33 04 25 28 00 	xor    %fs:0x28,%rax
  4078d8:	00 00 
  4078da:	74 47                	je     407923 <_Z14write_responseiiSt3mapINSt7__cxx1112basic_stringIcSt11char_traitsIcESaIcEEES5_St4lessIS5_ESaISt4pairIKS5_S5_EEEPKvi+0x29b>
  4078dc:	eb 40                	jmp    40791e <_Z14write_responseiiSt3mapINSt7__cxx1112basic_stringIcSt11char_traitsIcESaIcEEES5_St4lessIS5_ESaISt4pairIKS5_S5_EEEPKvi+0x296>
  4078de:	48 89 c3             	mov    %rax,%rbx
  4078e1:	48 8d 85 a0 ef ff ff 	lea    -0x1060(%rbp),%rax
  4078e8:	48 89 c7             	mov    %rax,%rdi
  4078eb:	e8 30 b3 ff ff       	callq  402c20 <_ZNSt7__cxx1112basic_stringIcSt11char_traitsIcESaIcEED1Ev@plt>
  4078f0:	eb 03                	jmp    4078f5 <_Z14write_responseiiSt3mapINSt7__cxx1112basic_stringIcSt11char_traitsIcESaIcEEES5_St4lessIS5_ESaISt4pairIKS5_S5_EEEPKvi+0x26d>
  4078f2:	48 89 c3             	mov    %rax,%rbx
  4078f5:	48 8d 85 80 ef ff ff 	lea    -0x1080(%rbp),%rax
  4078fc:	48 89 c7             	mov    %rax,%rdi
  4078ff:	e8 ec b4 ff ff       	callq  402df0 <_ZNSaIcED1Ev@plt>
  407904:	48 8d 85 c0 ef ff ff 	lea    -0x1040(%rbp),%rax
  40790b:	48 89 c7             	mov    %rax,%rdi
  40790e:	e8 0d b3 ff ff       	callq  402c20 <_ZNSt7__cxx1112basic_stringIcSt11char_traitsIcESaIcEED1Ev@plt>
  407913:	48 89 d8             	mov    %rbx,%rax
  407916:	48 89 c7             	mov    %rax,%rdi
  407919:	e8 a2 b6 ff ff       	callq  402fc0 <_Unwind_Resume@plt>
  40791e:	e8 ed b4 ff ff       	callq  402e10 <__stack_chk_fail@plt>
  407923:	48 81 c4 a8 10 00 00 	add    $0x10a8,%rsp
  40792a:	5b                   	pop    %rbx
  40792b:	5d                   	pop    %rbp
  40792c:	c3                   	retq   

000000000040792d <_Z12read_messageiRSt3mapINSt7__cxx1112basic_stringIcSt11char_traitsIcESaIcEEES5_St4lessIS5_ESaISt4pairIKS5_S5_EEERSt6vectorIhSaIhEE>:
  40792d:	55                   	push   %rbp
  40792e:	48 89 e5             	mov    %rsp,%rbp
  407931:	41 54                	push   %r12
  407933:	53                   	push   %rbx
  407934:	48 81 ec 50 12 00 00 	sub    $0x1250,%rsp
  40793b:	48 89 bd b8 ed ff ff 	mov    %rdi,-0x1248(%rbp)
  407942:	89 b5 b4 ed ff ff    	mov    %esi,-0x124c(%rbp)
  407948:	48 89 95 a8 ed ff ff 	mov    %rdx,-0x1258(%rbp)
  40794f:	48 89 8d a0 ed ff ff 	mov    %rcx,-0x1260(%rbp)
  407956:	64 48 8b 04 25 28 00 	mov    %fs:0x28,%rax
  40795d:	00 00 
  40795f:	48 89 45 e8          	mov    %rax,-0x18(%rbp)
  407963:	31 c0                	xor    %eax,%eax
  407965:	48 8b 85 a8 ed ff ff 	mov    -0x1258(%rbp),%rax
  40796c:	48 89 c7             	mov    %rax,%rdi
  40796f:	e8 de 2d 00 00       	callq  40a752 <_ZNSt3mapINSt7__cxx1112basic_stringIcSt11char_traitsIcESaIcEEES5_St4lessIS5_ESaISt4pairIKS5_S5_EEE5clearEv>
  407974:	48 8b 85 a0 ed ff ff 	mov    -0x1260(%rbp),%rax
  40797b:	48 89 c7             	mov    %rax,%rdi
  40797e:	e8 eb 2d 00 00       	callq  40a76e <_ZNSt6vectorIhSaIhEE5clearEv>
  407983:	be 08 00 00 00       	mov    $0x8,%esi
  407988:	bf 10 00 00 00       	mov    $0x10,%edi
  40798d:	e8 04 28 00 00       	callq  40a196 <_ZStorSt13_Ios_OpenmodeS_>
  407992:	89 c2                	mov    %eax,%edx
  407994:	48 8d 85 50 ee ff ff 	lea    -0x11b0(%rbp),%rax
  40799b:	89 d6                	mov    %edx,%esi
  40799d:	48 89 c7             	mov    %rax,%rdi
  4079a0:	e8 2b b3 ff ff       	callq  402cd0 <_ZNSt7__cxx1118basic_stringstreamIcSt11char_traitsIcESaIcEEC1ESt13_Ios_Openmode@plt>
  4079a5:	48 8b 85 b8 ed ff ff 	mov    -0x1248(%rbp),%rax
  4079ac:	48 89 c7             	mov    %rax,%rdi
  4079af:	e8 dc b4 ff ff       	callq  402e90 <_ZNSt7__cxx1112basic_stringIcSt11char_traitsIcESaIcEEC1Ev@plt>
  4079b4:	48 8d 85 f0 ed ff ff 	lea    -0x1210(%rbp),%rax
  4079bb:	48 89 c7             	mov    %rax,%rdi
  4079be:	e8 cd b4 ff ff       	callq  402e90 <_ZNSt7__cxx1112basic_stringIcSt11char_traitsIcESaIcEEC1Ev@plt>
  4079c3:	48 8d 95 f0 ed ff ff 	lea    -0x1210(%rbp),%rdx
  4079ca:	48 8d 85 50 ee ff ff 	lea    -0x11b0(%rbp),%rax
  4079d1:	48 89 d6             	mov    %rdx,%rsi
  4079d4:	48 89 c7             	mov    %rax,%rdi
  4079d7:	e8 d4 b0 ff ff       	callq  402ab0 <_ZSt7getlineIcSt11char_traitsIcESaIcEERSt13basic_istreamIT_T0_ES7_RNSt7__cxx1112basic_stringIS4_S5_T1_EE@plt>
  4079dc:	48 8d 85 50 ee ff ff 	lea    -0x11b0(%rbp),%rax
  4079e3:	48 83 e8 80          	sub    $0xffffffffffffff80,%rax
  4079e7:	48 89 c7             	mov    %rax,%rdi
  4079ea:	e8 21 b6 ff ff       	callq  403010 <_ZNKSt9basic_iosIcSt11char_traitsIcEE3eofEv@plt>
  4079ef:	84 c0                	test   %al,%al
  4079f1:	0f 84 92 00 00 00    	je     407a89 <_Z12read_messageiRSt3mapINSt7__cxx1112basic_stringIcSt11char_traitsIcESaIcEEES5_St4lessIS5_ESaISt4pairIKS5_S5_EEERSt6vectorIhSaIhEE+0x15c>
  4079f7:	48 8d 85 50 ee ff ff 	lea    -0x11b0(%rbp),%rax
  4079fe:	48 83 e8 80          	sub    $0xffffffffffffff80,%rax
  407a02:	be 00 00 00 00       	mov    $0x0,%esi
  407a07:	48 89 c7             	mov    %rax,%rdi
  407a0a:	e8 61 b5 ff ff       	callq  402f70 <_ZNSt9basic_iosIcSt11char_traitsIcEE5clearESt12_Ios_Iostate@plt>
  407a0f:	48 8d 85 f0 ed ff ff 	lea    -0x1210(%rbp),%rax
  407a16:	48 8d 95 50 ee ff ff 	lea    -0x11b0(%rbp),%rdx
  407a1d:	48 83 c2 10          	add    $0x10,%rdx
  407a21:	48 89 c6             	mov    %rax,%rsi
  407a24:	48 89 d7             	mov    %rdx,%rdi
  407a27:	e8 e4 b2 ff ff       	callq  402d10 <_ZStlsIcSt11char_traitsIcESaIcEERSt13basic_ostreamIT_T0_ES7_RKNSt7__cxx1112basic_stringIS4_S5_T1_EE@plt>
  407a2c:	48 8d b5 e0 ef ff ff 	lea    -0x1020(%rbp),%rsi
  407a33:	8b 85 b4 ed ff ff    	mov    -0x124c(%rbp),%eax
  407a39:	b9 00 00 00 00       	mov    $0x0,%ecx
  407a3e:	ba 00 10 00 00       	mov    $0x1000,%edx
  407a43:	89 c7                	mov    %eax,%edi
  407a45:	e8 e6 b0 ff ff       	callq  402b30 <recv@plt>
  407a4a:	89 85 c4 ed ff ff    	mov    %eax,-0x123c(%rbp)
  407a50:	83 bd c4 ed ff ff ff 	cmpl   $0xffffffff,-0x123c(%rbp)
  407a57:	75 0a                	jne    407a63 <_Z12read_messageiRSt3mapINSt7__cxx1112basic_stringIcSt11char_traitsIcESaIcEEES5_St4lessIS5_ESaISt4pairIKS5_S5_EEERSt6vectorIhSaIhEE+0x136>
  407a59:	bf 50 df 40 00       	mov    $0x40df50,%edi
  407a5e:	e8 5b f7 ff ff       	callq  4071be <_Z5errorPKc>
  407a63:	8b 85 c4 ed ff ff    	mov    -0x123c(%rbp),%eax
  407a69:	48 63 d0             	movslq %eax,%rdx
  407a6c:	48 8d 85 e0 ef ff ff 	lea    -0x1020(%rbp),%rax
  407a73:	48 8d 8d 50 ee ff ff 	lea    -0x11b0(%rbp),%rcx
  407a7a:	48 83 c1 10          	add    $0x10,%rcx
  407a7e:	48 89 c6             	mov    %rax,%rsi
  407a81:	48 89 cf             	mov    %rcx,%rdi
  407a84:	e8 e7 b3 ff ff       	callq  402e70 <_ZNSo5writeEPKcl@plt>
  407a89:	48 8b 85 b8 ed ff ff 	mov    -0x1248(%rbp),%rax
  407a90:	48 89 c7             	mov    %rax,%rdi
  407a93:	e8 c8 b4 ff ff       	callq  402f60 <_ZNKSt7__cxx1112basic_stringIcSt11char_traitsIcESaIcEE5emptyEv@plt>
  407a98:	84 c0                	test   %al,%al
  407a9a:	74 23                	je     407abf <_Z12read_messageiRSt3mapINSt7__cxx1112basic_stringIcSt11char_traitsIcESaIcEEES5_St4lessIS5_ESaISt4pairIKS5_S5_EEERSt6vectorIhSaIhEE+0x192>
  407a9c:	48 8d 95 f0 ed ff ff 	lea    -0x1210(%rbp),%rdx
  407aa3:	48 8b 85 b8 ed ff ff 	mov    -0x1248(%rbp),%rax
  407aaa:	48 89 d6             	mov    %rdx,%rsi
  407aad:	48 89 c7             	mov    %rax,%rdi
  407ab0:	e8 7b af ff ff       	callq  402a30 <_ZNSt7__cxx1112basic_stringIcSt11char_traitsIcESaIcEEaSERKS4_@plt>
  407ab5:	bb 00 00 00 00       	mov    $0x0,%ebx
  407aba:	e9 f3 00 00 00       	jmpq   407bb2 <_Z12read_messageiRSt3mapINSt7__cxx1112basic_stringIcSt11char_traitsIcESaIcEEES5_St4lessIS5_ESaISt4pairIKS5_S5_EEERSt6vectorIhSaIhEE+0x285>
  407abf:	48 8d 85 f0 ed ff ff 	lea    -0x1210(%rbp),%rax
  407ac6:	be 91 df 40 00       	mov    $0x40df91,%esi
  407acb:	48 89 c7             	mov    %rax,%rdi
  407ace:	e8 d0 c7 ff ff       	callq  4042a3 <_ZSteqIcSt11char_traitsIcESaIcEEbRKNSt7__cxx1112basic_stringIT_T0_T1_EEPKS5_>
  407ad3:	84 c0                	test   %al,%al
  407ad5:	74 0a                	je     407ae1 <_Z12read_messageiRSt3mapINSt7__cxx1112basic_stringIcSt11char_traitsIcESaIcEEES5_St4lessIS5_ESaISt4pairIKS5_S5_EEERSt6vectorIhSaIhEE+0x1b4>
  407ad7:	bb 01 00 00 00       	mov    $0x1,%ebx
  407adc:	e9 d1 00 00 00       	jmpq   407bb2 <_Z12read_messageiRSt3mapINSt7__cxx1112basic_stringIcSt11char_traitsIcESaIcEEES5_St4lessIS5_ESaISt4pairIKS5_S5_EEERSt6vectorIhSaIhEE+0x285>
  407ae1:	48 8d 85 f0 ed ff ff 	lea    -0x1210(%rbp),%rax
  407ae8:	ba 00 00 00 00       	mov    $0x0,%edx
  407aed:	be 3a 00 00 00       	mov    $0x3a,%esi
  407af2:	48 89 c7             	mov    %rax,%rdi
  407af5:	e8 66 b3 ff ff       	callq  402e60 <_ZNKSt7__cxx1112basic_stringIcSt11char_traitsIcESaIcEE4findEcm@plt>
  407afa:	48 89 85 e8 ed ff ff 	mov    %rax,-0x1218(%rbp)
  407b01:	48 8d 85 10 ee ff ff 	lea    -0x11f0(%rbp),%rax
  407b08:	48 8b 95 e8 ed ff ff 	mov    -0x1218(%rbp),%rdx
  407b0f:	48 8d b5 f0 ed ff ff 	lea    -0x1210(%rbp),%rsi
  407b16:	48 89 d1             	mov    %rdx,%rcx
  407b19:	ba 00 00 00 00       	mov    $0x0,%edx
  407b1e:	48 89 c7             	mov    %rax,%rdi
  407b21:	e8 9a b2 ff ff       	callq  402dc0 <_ZNKSt7__cxx1112basic_stringIcSt11char_traitsIcESaIcEE6substrEmm@plt>
  407b26:	48 8d 85 f0 ed ff ff 	lea    -0x1210(%rbp),%rax
  407b2d:	48 89 c7             	mov    %rax,%rdi
  407b30:	e8 ab b3 ff ff       	callq  402ee0 <_ZNKSt7__cxx1112basic_stringIcSt11char_traitsIcESaIcEE6lengthEv@plt>
  407b35:	48 2b 85 e8 ed ff ff 	sub    -0x1218(%rbp),%rax
  407b3c:	48 8d 48 fe          	lea    -0x2(%rax),%rcx
  407b40:	48 8b 85 e8 ed ff ff 	mov    -0x1218(%rbp),%rax
  407b47:	48 8d 50 01          	lea    0x1(%rax),%rdx
  407b4b:	48 8d 85 30 ee ff ff 	lea    -0x11d0(%rbp),%rax
  407b52:	48 8d b5 f0 ed ff ff 	lea    -0x1210(%rbp),%rsi
  407b59:	48 89 c7             	mov    %rax,%rdi
  407b5c:	e8 5f b2 ff ff       	callq  402dc0 <_ZNKSt7__cxx1112basic_stringIcSt11char_traitsIcESaIcEE6substrEmm@plt>
  407b61:	48 8d 95 10 ee ff ff 	lea    -0x11f0(%rbp),%rdx
  407b68:	48 8b 85 a8 ed ff ff 	mov    -0x1258(%rbp),%rax
  407b6f:	48 89 d6             	mov    %rdx,%rsi
  407b72:	48 89 c7             	mov    %rax,%rdi
  407b75:	e8 80 2c 00 00       	callq  40a7fa <_ZNSt3mapINSt7__cxx1112basic_stringIcSt11char_traitsIcESaIcEEES5_St4lessIS5_ESaISt4pairIKS5_S5_EEEixERS9_>
  407b7a:	48 89 c2             	mov    %rax,%rdx
  407b7d:	48 8d 85 30 ee ff ff 	lea    -0x11d0(%rbp),%rax
  407b84:	48 89 c6             	mov    %rax,%rsi
  407b87:	48 89 d7             	mov    %rdx,%rdi
  407b8a:	e8 a1 ae ff ff       	callq  402a30 <_ZNSt7__cxx1112basic_stringIcSt11char_traitsIcESaIcEEaSERKS4_@plt>
  407b8f:	48 8d 85 30 ee ff ff 	lea    -0x11d0(%rbp),%rax
  407b96:	48 89 c7             	mov    %rax,%rdi
  407b99:	e8 82 b0 ff ff       	callq  402c20 <_ZNSt7__cxx1112basic_stringIcSt11char_traitsIcESaIcEED1Ev@plt>
  407b9e:	48 8d 85 10 ee ff ff 	lea    -0x11f0(%rbp),%rax
  407ba5:	48 89 c7             	mov    %rax,%rdi
  407ba8:	e8 73 b0 ff ff       	callq  402c20 <_ZNSt7__cxx1112basic_stringIcSt11char_traitsIcESaIcEED1Ev@plt>
  407bad:	bb 02 00 00 00       	mov    $0x2,%ebx
  407bb2:	48 8d 85 f0 ed ff ff 	lea    -0x1210(%rbp),%rax
  407bb9:	48 89 c7             	mov    %rax,%rdi
  407bbc:	e8 5f b0 ff ff       	callq  402c20 <_ZNSt7__cxx1112basic_stringIcSt11char_traitsIcESaIcEED1Ev@plt>
  407bc1:	85 db                	test   %ebx,%ebx
  407bc3:	0f 84 eb fd ff ff    	je     4079b4 <_Z12read_messageiRSt3mapINSt7__cxx1112basic_stringIcSt11char_traitsIcESaIcEEES5_St4lessIS5_ESaISt4pairIKS5_S5_EEERSt6vectorIhSaIhEE+0x87>
  407bc9:	83 fb 02             	cmp    $0x2,%ebx
  407bcc:	74 42                	je     407c10 <_Z12read_messageiRSt3mapINSt7__cxx1112basic_stringIcSt11char_traitsIcESaIcEEES5_St4lessIS5_ESaISt4pairIKS5_S5_EEERSt6vectorIhSaIhEE+0x2e3>
  407bce:	48 8b 85 a8 ed ff ff 	mov    -0x1258(%rbp),%rax
  407bd5:	48 89 c7             	mov    %rax,%rdi
  407bd8:	e8 8b cb ff ff       	callq  404768 <_ZNSt3mapINSt7__cxx1112basic_stringIcSt11char_traitsIcESaIcEEES5_St4lessIS5_ESaISt4pairIKS5_S5_EEE3endEv>
  407bdd:	48 89 85 e0 ed ff ff 	mov    %rax,-0x1220(%rbp)
  407be4:	48 8d 85 c3 ed ff ff 	lea    -0x123d(%rbp),%rax
  407beb:	48 89 c7             	mov    %rax,%rdi
  407bee:	e8 dd b3 ff ff       	callq  402fd0 <_ZNSaIcEC1Ev@plt>
  407bf3:	48 8d 95 c3 ed ff ff 	lea    -0x123d(%rbp),%rdx
  407bfa:	48 8d 85 f0 ed ff ff 	lea    -0x1210(%rbp),%rax
  407c01:	be 51 df 40 00       	mov    $0x40df51,%esi
  407c06:	48 89 c7             	mov    %rax,%rdi
  407c09:	e8 72 b2 ff ff       	callq  402e80 <_ZNSt7__cxx1112basic_stringIcSt11char_traitsIcESaIcEEC1EPKcRKS3_@plt>
  407c0e:	eb 06                	jmp    407c16 <_Z12read_messageiRSt3mapINSt7__cxx1112basic_stringIcSt11char_traitsIcESaIcEEES5_St4lessIS5_ESaISt4pairIKS5_S5_EEERSt6vectorIhSaIhEE+0x2e9>
  407c10:	90                   	nop
  407c11:	e9 9e fd ff ff       	jmpq   4079b4 <_Z12read_messageiRSt3mapINSt7__cxx1112basic_stringIcSt11char_traitsIcESaIcEEES5_St4lessIS5_ESaISt4pairIKS5_S5_EEERSt6vectorIhSaIhEE+0x87>
  407c16:	48 8d 95 f0 ed ff ff 	lea    -0x1210(%rbp),%rdx
  407c1d:	48 8b 85 a8 ed ff ff 	mov    -0x1258(%rbp),%rax
  407c24:	48 89 d6             	mov    %rdx,%rsi
  407c27:	48 89 c7             	mov    %rax,%rdi
  407c2a:	e8 13 2d 00 00       	callq  40a942 <_ZNSt3mapINSt7__cxx1112basic_stringIcSt11char_traitsIcESaIcEEES5_St4lessIS5_ESaISt4pairIKS5_S5_EEE4findERS9_>
  407c2f:	48 89 85 d0 ed ff ff 	mov    %rax,-0x1230(%rbp)
  407c36:	48 8d 95 e0 ed ff ff 	lea    -0x1220(%rbp),%rdx
  407c3d:	48 8d 85 d0 ed ff ff 	lea    -0x1230(%rbp),%rax
  407c44:	48 89 d6             	mov    %rdx,%rsi
  407c47:	48 89 c7             	mov    %rax,%rdi
  407c4a:	e8 e1 2a 00 00       	callq  40a730 <_ZNKSt17_Rb_tree_iteratorISt4pairIKNSt7__cxx1112basic_stringIcSt11char_traitsIcESaIcEEES6_EEneERKS9_>
  407c4f:	89 c3                	mov    %eax,%ebx
  407c51:	48 8d 85 f0 ed ff ff 	lea    -0x1210(%rbp),%rax
  407c58:	48 89 c7             	mov    %rax,%rdi
  407c5b:	e8 c0 af ff ff       	callq  402c20 <_ZNSt7__cxx1112basic_stringIcSt11char_traitsIcESaIcEED1Ev@plt>
  407c60:	48 8d 85 c3 ed ff ff 	lea    -0x123d(%rbp),%rax
  407c67:	48 89 c7             	mov    %rax,%rdi
  407c6a:	e8 81 b1 ff ff       	callq  402df0 <_ZNSaIcED1Ev@plt>
  407c6f:	84 db                	test   %bl,%bl
  407c71:	0f 84 3c 02 00 00    	je     407eb3 <_Z12read_messageiRSt3mapINSt7__cxx1112basic_stringIcSt11char_traitsIcESaIcEEES5_St4lessIS5_ESaISt4pairIKS5_S5_EEERSt6vectorIhSaIhEE+0x586>
  407c77:	48 8d 85 e0 ed ff ff 	lea    -0x1220(%rbp),%rax
  407c7e:	48 89 c7             	mov    %rax,%rdi
  407c81:	e8 4a b3 ff ff       	callq  402fd0 <_ZNSaIcEC1Ev@plt>
  407c86:	48 8d 95 e0 ed ff ff 	lea    -0x1220(%rbp),%rdx
  407c8d:	48 8d 85 10 ee ff ff 	lea    -0x11f0(%rbp),%rax
  407c94:	be 51 df 40 00       	mov    $0x40df51,%esi
  407c99:	48 89 c7             	mov    %rax,%rdi
  407c9c:	e8 df b1 ff ff       	callq  402e80 <_ZNSt7__cxx1112basic_stringIcSt11char_traitsIcESaIcEEC1EPKcRKS3_@plt>
  407ca1:	48 8d 95 10 ee ff ff 	lea    -0x11f0(%rbp),%rdx
  407ca8:	48 8b 85 a8 ed ff ff 	mov    -0x1258(%rbp),%rax
  407caf:	48 89 d6             	mov    %rdx,%rsi
  407cb2:	48 89 c7             	mov    %rax,%rdi
  407cb5:	e8 96 c4 ff ff       	callq  404150 <_ZNSt3mapINSt7__cxx1112basic_stringIcSt11char_traitsIcESaIcEEES5_St4lessIS5_ESaISt4pairIKS5_S5_EEEixEOS5_>
  407cba:	48 89 c7             	mov    %rax,%rdi
  407cbd:	e8 be ae ff ff       	callq  402b80 <_ZNKSt7__cxx1112basic_stringIcSt11char_traitsIcESaIcEE5c_strEv@plt>
  407cc2:	48 89 c7             	mov    %rax,%rdi
  407cc5:	e8 36 b2 ff ff       	callq  402f00 <atoi@plt>
  407cca:	89 85 c8 ed ff ff    	mov    %eax,-0x1238(%rbp)
  407cd0:	48 8d 85 10 ee ff ff 	lea    -0x11f0(%rbp),%rax
  407cd7:	48 89 c7             	mov    %rax,%rdi
  407cda:	e8 41 af ff ff       	callq  402c20 <_ZNSt7__cxx1112basic_stringIcSt11char_traitsIcESaIcEED1Ev@plt>
  407cdf:	48 8d 85 e0 ed ff ff 	lea    -0x1220(%rbp),%rax
  407ce6:	48 89 c7             	mov    %rax,%rdi
  407ce9:	e8 02 b1 ff ff       	callq  402df0 <_ZNSaIcED1Ev@plt>
  407cee:	48 8d 85 50 ee ff ff 	lea    -0x11b0(%rbp),%rax
  407cf5:	48 89 c7             	mov    %rax,%rdi
  407cf8:	e8 a3 b2 ff ff       	callq  402fa0 <_ZNSi5tellgEv@plt>
  407cfd:	48 89 85 f0 ed ff ff 	mov    %rax,-0x1210(%rbp)
  407d04:	48 89 95 f8 ed ff ff 	mov    %rdx,-0x1208(%rbp)
  407d0b:	48 8d 85 f0 ed ff ff 	lea    -0x1210(%rbp),%rax
  407d12:	48 89 c7             	mov    %rax,%rdi
  407d15:	e8 4e 2c 00 00       	callq  40a968 <_ZNKSt4fposI11__mbstate_tEcvlEv>
  407d1a:	48 89 c3             	mov    %rax,%rbx
  407d1d:	48 8d 85 30 ee ff ff 	lea    -0x11d0(%rbp),%rax
  407d24:	48 8d 95 50 ee ff ff 	lea    -0x11b0(%rbp),%rdx
  407d2b:	48 89 d6             	mov    %rdx,%rsi
  407d2e:	48 89 c7             	mov    %rax,%rdi
  407d31:	e8 3a b0 ff ff       	callq  402d70 <_ZNKSt7__cxx1118basic_stringstreamIcSt11char_traitsIcESaIcEE3strEv@plt>
  407d36:	48 8d 85 10 ee ff ff 	lea    -0x11f0(%rbp),%rax
  407d3d:	48 8d b5 30 ee ff ff 	lea    -0x11d0(%rbp),%rsi
  407d44:	48 c7 c1 ff ff ff ff 	mov    $0xffffffffffffffff,%rcx
  407d4b:	48 89 da             	mov    %rbx,%rdx
  407d4e:	48 89 c7             	mov    %rax,%rdi
  407d51:	e8 6a b0 ff ff       	callq  402dc0 <_ZNKSt7__cxx1112basic_stringIcSt11char_traitsIcESaIcEE6substrEmm@plt>
  407d56:	48 8d 85 30 ee ff ff 	lea    -0x11d0(%rbp),%rax
  407d5d:	48 89 c7             	mov    %rax,%rdi
  407d60:	e8 bb ae ff ff       	callq  402c20 <_ZNSt7__cxx1112basic_stringIcSt11char_traitsIcESaIcEED1Ev@plt>
  407d65:	48 8d 85 10 ee ff ff 	lea    -0x11f0(%rbp),%rax
  407d6c:	48 89 c7             	mov    %rax,%rdi
  407d6f:	e8 0c ae ff ff       	callq  402b80 <_ZNKSt7__cxx1112basic_stringIcSt11char_traitsIcESaIcEE5c_strEv@plt>
  407d74:	48 89 c3             	mov    %rax,%rbx
  407d77:	48 8d 85 10 ee ff ff 	lea    -0x11f0(%rbp),%rax
  407d7e:	48 89 c7             	mov    %rax,%rdi
  407d81:	e8 5a b1 ff ff       	callq  402ee0 <_ZNKSt7__cxx1112basic_stringIcSt11char_traitsIcESaIcEE6lengthEv@plt>
  407d86:	48 01 c3             	add    %rax,%rbx
  407d89:	48 8d 85 10 ee ff ff 	lea    -0x11f0(%rbp),%rax
  407d90:	48 89 c7             	mov    %rax,%rdi
  407d93:	e8 e8 ad ff ff       	callq  402b80 <_ZNKSt7__cxx1112basic_stringIcSt11char_traitsIcESaIcEE5c_strEv@plt>
  407d98:	49 89 c4             	mov    %rax,%r12
  407d9b:	48 8b 85 a0 ed ff ff 	mov    -0x1260(%rbp),%rax
  407da2:	48 89 c7             	mov    %rax,%rdi
  407da5:	e8 d0 2b 00 00       	callq  40a97a <_ZNSt6vectorIhSaIhEE3endEv>
  407daa:	48 89 85 d0 ed ff ff 	mov    %rax,-0x1230(%rbp)
  407db1:	48 8d 95 d0 ed ff ff 	lea    -0x1230(%rbp),%rdx
  407db8:	48 8d 85 e0 ed ff ff 	lea    -0x1220(%rbp),%rax
  407dbf:	48 89 d6             	mov    %rdx,%rsi
  407dc2:	48 89 c7             	mov    %rax,%rdi
  407dc5:	e8 fc 2b 00 00       	callq  40a9c6 <_ZN9__gnu_cxx17__normal_iteratorIPKhSt6vectorIhSaIhEEEC1IPhEERKNS0_IT_NS_11__enable_ifIXsrSt10__are_sameIS9_S8_E7__valueES5_E6__typeEEE>
  407dca:	48 8b b5 e0 ed ff ff 	mov    -0x1220(%rbp),%rsi
  407dd1:	48 8b 85 a0 ed ff ff 	mov    -0x1260(%rbp),%rax
  407dd8:	48 89 d9             	mov    %rbx,%rcx
  407ddb:	4c 89 e2             	mov    %r12,%rdx
  407dde:	48 89 c7             	mov    %rax,%rdi
  407de1:	e8 0a 2c 00 00       	callq  40a9f0 <_ZNSt6vectorIhSaIhEE6insertIPKcvEEN9__gnu_cxx17__normal_iteratorIPhS1_EENS6_IPKhS1_EET_SC_>
  407de6:	48 8b 85 a0 ed ff ff 	mov    -0x1260(%rbp),%rax
  407ded:	48 89 c7             	mov    %rax,%rdi
  407df0:	e8 bf c7 ff ff       	callq  4045b4 <_ZNKSt6vectorIhSaIhEE4sizeEv>
  407df5:	3b 85 c8 ed ff ff    	cmp    -0x1238(%rbp),%eax
  407dfb:	0f 9c c0             	setl   %al
  407dfe:	84 c0                	test   %al,%al
  407e00:	0f 84 9e 00 00 00    	je     407ea4 <_Z12read_messageiRSt3mapINSt7__cxx1112basic_stringIcSt11char_traitsIcESaIcEEES5_St4lessIS5_ESaISt4pairIKS5_S5_EEERSt6vectorIhSaIhEE+0x577>
  407e06:	48 8d b5 e0 ef ff ff 	lea    -0x1020(%rbp),%rsi
  407e0d:	8b 85 b4 ed ff ff    	mov    -0x124c(%rbp),%eax
  407e13:	b9 00 00 00 00       	mov    $0x0,%ecx
  407e18:	ba 00 10 00 00       	mov    $0x1000,%edx
  407e1d:	89 c7                	mov    %eax,%edi
  407e1f:	e8 0c ad ff ff       	callq  402b30 <recv@plt>
  407e24:	89 85 cc ed ff ff    	mov    %eax,-0x1234(%rbp)
  407e2a:	83 bd cc ed ff ff ff 	cmpl   $0xffffffff,-0x1234(%rbp)
  407e31:	75 0a                	jne    407e3d <_Z12read_messageiRSt3mapINSt7__cxx1112basic_stringIcSt11char_traitsIcESaIcEEES5_St4lessIS5_ESaISt4pairIKS5_S5_EEERSt6vectorIhSaIhEE+0x510>
  407e33:	bf 50 df 40 00       	mov    $0x40df50,%edi
  407e38:	e8 81 f3 ff ff       	callq  4071be <_Z5errorPKc>
  407e3d:	8b 85 cc ed ff ff    	mov    -0x1234(%rbp),%eax
  407e43:	48 98                	cltq   
  407e45:	48 8d 95 e0 ef ff ff 	lea    -0x1020(%rbp),%rdx
  407e4c:	48 8d 1c 02          	lea    (%rdx,%rax,1),%rbx
  407e50:	48 8b 85 a0 ed ff ff 	mov    -0x1260(%rbp),%rax
  407e57:	48 89 c7             	mov    %rax,%rdi
  407e5a:	e8 1b 2b 00 00       	callq  40a97a <_ZNSt6vectorIhSaIhEE3endEv>
  407e5f:	48 89 85 d0 ed ff ff 	mov    %rax,-0x1230(%rbp)
  407e66:	48 8d 95 d0 ed ff ff 	lea    -0x1230(%rbp),%rdx
  407e6d:	48 8d 85 e0 ed ff ff 	lea    -0x1220(%rbp),%rax
  407e74:	48 89 d6             	mov    %rdx,%rsi
  407e77:	48 89 c7             	mov    %rax,%rdi
  407e7a:	e8 47 2b 00 00       	callq  40a9c6 <_ZN9__gnu_cxx17__normal_iteratorIPKhSt6vectorIhSaIhEEEC1IPhEERKNS0_IT_NS_11__enable_ifIXsrSt10__are_sameIS9_S8_E7__valueES5_E6__typeEEE>
  407e7f:	48 8d 95 e0 ef ff ff 	lea    -0x1020(%rbp),%rdx
  407e86:	48 8b b5 e0 ed ff ff 	mov    -0x1220(%rbp),%rsi
  407e8d:	48 8b 85 a0 ed ff ff 	mov    -0x1260(%rbp),%rax
  407e94:	48 89 d9             	mov    %rbx,%rcx
  407e97:	48 89 c7             	mov    %rax,%rdi
  407e9a:	e8 21 2c 00 00       	callq  40aac0 <_ZNSt6vectorIhSaIhEE6insertIPcvEEN9__gnu_cxx17__normal_iteratorIPhS1_EENS5_IPKhS1_EET_SB_>
  407e9f:	e9 42 ff ff ff       	jmpq   407de6 <_Z12read_messageiRSt3mapINSt7__cxx1112basic_stringIcSt11char_traitsIcESaIcEEES5_St4lessIS5_ESaISt4pairIKS5_S5_EEERSt6vectorIhSaIhEE+0x4b9>
  407ea4:	48 8d 85 10 ee ff ff 	lea    -0x11f0(%rbp),%rax
  407eab:	48 89 c7             	mov    %rax,%rdi
  407eae:	e8 6d ad ff ff       	callq  402c20 <_ZNSt7__cxx1112basic_stringIcSt11char_traitsIcESaIcEED1Ev@plt>
  407eb3:	90                   	nop
  407eb4:	48 8d 85 50 ee ff ff 	lea    -0x11b0(%rbp),%rax
  407ebb:	48 89 c7             	mov    %rax,%rdi
  407ebe:	e8 dd ad ff ff       	callq  402ca0 <_ZNSt7__cxx1118basic_stringstreamIcSt11char_traitsIcESaIcEED1Ev@plt>
  407ec3:	90                   	nop
  407ec4:	48 8b 85 b8 ed ff ff 	mov    -0x1248(%rbp),%rax
  407ecb:	48 8b 4d e8          	mov    -0x18(%rbp),%rcx
  407ecf:	64 48 33 0c 25 28 00 	xor    %fs:0x28,%rcx
  407ed6:	00 00 
  407ed8:	0f 84 ea 00 00 00    	je     407fc8 <_Z12read_messageiRSt3mapINSt7__cxx1112basic_stringIcSt11char_traitsIcESaIcEEES5_St4lessIS5_ESaISt4pairIKS5_S5_EEERSt6vectorIhSaIhEE+0x69b>
  407ede:	e9 e0 00 00 00       	jmpq   407fc3 <_Z12read_messageiRSt3mapINSt7__cxx1112basic_stringIcSt11char_traitsIcESaIcEEES5_St4lessIS5_ESaISt4pairIKS5_S5_EEERSt6vectorIhSaIhEE+0x696>
  407ee3:	48 89 c3             	mov    %rax,%rbx
  407ee6:	48 8d 85 30 ee ff ff 	lea    -0x11d0(%rbp),%rax
  407eed:	48 89 c7             	mov    %rax,%rdi
  407ef0:	e8 2b ad ff ff       	callq  402c20 <_ZNSt7__cxx1112basic_stringIcSt11char_traitsIcESaIcEED1Ev@plt>
  407ef5:	eb 03                	jmp    407efa <_Z12read_messageiRSt3mapINSt7__cxx1112basic_stringIcSt11char_traitsIcESaIcEEES5_St4lessIS5_ESaISt4pairIKS5_S5_EEERSt6vectorIhSaIhEE+0x5cd>
  407ef7:	48 89 c3             	mov    %rax,%rbx
  407efa:	48 8d 85 10 ee ff ff 	lea    -0x11f0(%rbp),%rax
  407f01:	48 89 c7             	mov    %rax,%rdi
  407f04:	e8 17 ad ff ff       	callq  402c20 <_ZNSt7__cxx1112basic_stringIcSt11char_traitsIcESaIcEED1Ev@plt>
  407f09:	eb 03                	jmp    407f0e <_Z12read_messageiRSt3mapINSt7__cxx1112basic_stringIcSt11char_traitsIcESaIcEEES5_St4lessIS5_ESaISt4pairIKS5_S5_EEERSt6vectorIhSaIhEE+0x5e1>
  407f0b:	48 89 c3             	mov    %rax,%rbx
  407f0e:	48 8d 85 f0 ed ff ff 	lea    -0x1210(%rbp),%rax
  407f15:	48 89 c7             	mov    %rax,%rdi
  407f18:	e8 03 ad ff ff       	callq  402c20 <_ZNSt7__cxx1112basic_stringIcSt11char_traitsIcESaIcEED1Ev@plt>
  407f1d:	eb 7b                	jmp    407f9a <_Z12read_messageiRSt3mapINSt7__cxx1112basic_stringIcSt11char_traitsIcESaIcEEES5_St4lessIS5_ESaISt4pairIKS5_S5_EEERSt6vectorIhSaIhEE+0x66d>
  407f1f:	48 89 c3             	mov    %rax,%rbx
  407f22:	48 8d 85 f0 ed ff ff 	lea    -0x1210(%rbp),%rax
  407f29:	48 89 c7             	mov    %rax,%rdi
  407f2c:	e8 ef ac ff ff       	callq  402c20 <_ZNSt7__cxx1112basic_stringIcSt11char_traitsIcESaIcEED1Ev@plt>
  407f31:	eb 03                	jmp    407f36 <_Z12read_messageiRSt3mapINSt7__cxx1112basic_stringIcSt11char_traitsIcESaIcEEES5_St4lessIS5_ESaISt4pairIKS5_S5_EEERSt6vectorIhSaIhEE+0x609>
  407f33:	48 89 c3             	mov    %rax,%rbx
  407f36:	48 8d 85 c3 ed ff ff 	lea    -0x123d(%rbp),%rax
  407f3d:	48 89 c7             	mov    %rax,%rdi
  407f40:	e8 ab ae ff ff       	callq  402df0 <_ZNSaIcED1Ev@plt>
  407f45:	eb 53                	jmp    407f9a <_Z12read_messageiRSt3mapINSt7__cxx1112basic_stringIcSt11char_traitsIcESaIcEEES5_St4lessIS5_ESaISt4pairIKS5_S5_EEERSt6vectorIhSaIhEE+0x66d>
  407f47:	48 89 c3             	mov    %rax,%rbx
  407f4a:	48 8d 85 10 ee ff ff 	lea    -0x11f0(%rbp),%rax
  407f51:	48 89 c7             	mov    %rax,%rdi
  407f54:	e8 c7 ac ff ff       	callq  402c20 <_ZNSt7__cxx1112basic_stringIcSt11char_traitsIcESaIcEED1Ev@plt>
  407f59:	eb 03                	jmp    407f5e <_Z12read_messageiRSt3mapINSt7__cxx1112basic_stringIcSt11char_traitsIcESaIcEEES5_St4lessIS5_ESaISt4pairIKS5_S5_EEERSt6vectorIhSaIhEE+0x631>
  407f5b:	48 89 c3             	mov    %rax,%rbx
  407f5e:	48 8d 85 e0 ed ff ff 	lea    -0x1220(%rbp),%rax
  407f65:	48 89 c7             	mov    %rax,%rdi
  407f68:	e8 83 ae ff ff       	callq  402df0 <_ZNSaIcED1Ev@plt>
  407f6d:	eb 2b                	jmp    407f9a <_Z12read_messageiRSt3mapINSt7__cxx1112basic_stringIcSt11char_traitsIcESaIcEEES5_St4lessIS5_ESaISt4pairIKS5_S5_EEERSt6vectorIhSaIhEE+0x66d>
  407f6f:	48 89 c3             	mov    %rax,%rbx
  407f72:	48 8d 85 30 ee ff ff 	lea    -0x11d0(%rbp),%rax
  407f79:	48 89 c7             	mov    %rax,%rdi
  407f7c:	e8 9f ac ff ff       	callq  402c20 <_ZNSt7__cxx1112basic_stringIcSt11char_traitsIcESaIcEED1Ev@plt>
  407f81:	eb 17                	jmp    407f9a <_Z12read_messageiRSt3mapINSt7__cxx1112basic_stringIcSt11char_traitsIcESaIcEEES5_St4lessIS5_ESaISt4pairIKS5_S5_EEERSt6vectorIhSaIhEE+0x66d>
  407f83:	48 89 c3             	mov    %rax,%rbx
  407f86:	48 8d 85 10 ee ff ff 	lea    -0x11f0(%rbp),%rax
  407f8d:	48 89 c7             	mov    %rax,%rdi
  407f90:	e8 8b ac ff ff       	callq  402c20 <_ZNSt7__cxx1112basic_stringIcSt11char_traitsIcESaIcEED1Ev@plt>
  407f95:	eb 03                	jmp    407f9a <_Z12read_messageiRSt3mapINSt7__cxx1112basic_stringIcSt11char_traitsIcESaIcEEES5_St4lessIS5_ESaISt4pairIKS5_S5_EEERSt6vectorIhSaIhEE+0x66d>
  407f97:	48 89 c3             	mov    %rax,%rbx
  407f9a:	48 8b 85 b8 ed ff ff 	mov    -0x1248(%rbp),%rax
  407fa1:	48 89 c7             	mov    %rax,%rdi
  407fa4:	e8 77 ac ff ff       	callq  402c20 <_ZNSt7__cxx1112basic_stringIcSt11char_traitsIcESaIcEED1Ev@plt>
  407fa9:	48 8d 85 50 ee ff ff 	lea    -0x11b0(%rbp),%rax
  407fb0:	48 89 c7             	mov    %rax,%rdi
  407fb3:	e8 e8 ac ff ff       	callq  402ca0 <_ZNSt7__cxx1118basic_stringstreamIcSt11char_traitsIcESaIcEED1Ev@plt>
  407fb8:	48 89 d8             	mov    %rbx,%rax
  407fbb:	48 89 c7             	mov    %rax,%rdi
  407fbe:	e8 fd af ff ff       	callq  402fc0 <_Unwind_Resume@plt>
  407fc3:	e8 48 ae ff ff       	callq  402e10 <__stack_chk_fail@plt>
  407fc8:	48 81 c4 50 12 00 00 	add    $0x1250,%rsp
  407fcf:	5b                   	pop    %rbx
  407fd0:	41 5c                	pop    %r12
  407fd2:	5d                   	pop    %rbp
  407fd3:	c3                   	retq   

0000000000407fd4 <_Z12read_requestiRSt3mapINSt7__cxx1112basic_stringIcSt11char_traitsIcESaIcEEES5_St4lessIS5_ESaISt4pairIKS5_S5_EEERSt6vectorIhSaIhEE>:
  407fd4:	55                   	push   %rbp
  407fd5:	48 89 e5             	mov    %rsp,%rbp
  407fd8:	53                   	push   %rbx
  407fd9:	48 83 ec 68          	sub    $0x68,%rsp
  407fdd:	48 89 7d a8          	mov    %rdi,-0x58(%rbp)
  407fe1:	89 75 a4             	mov    %esi,-0x5c(%rbp)
  407fe4:	48 89 55 98          	mov    %rdx,-0x68(%rbp)
  407fe8:	48 89 4d 90          	mov    %rcx,-0x70(%rbp)
  407fec:	64 48 8b 04 25 28 00 	mov    %fs:0x28,%rax
  407ff3:	00 00 
  407ff5:	48 89 45 e8          	mov    %rax,-0x18(%rbp)
  407ff9:	31 c0                	xor    %eax,%eax
  407ffb:	48 8d 45 c0          	lea    -0x40(%rbp),%rax
  407fff:	48 8b 4d 90          	mov    -0x70(%rbp),%rcx
  408003:	48 8b 55 98          	mov    -0x68(%rbp),%rdx
  408007:	8b 75 a4             	mov    -0x5c(%rbp),%esi
  40800a:	48 89 c7             	mov    %rax,%rdi
  40800d:	e8 1b f9 ff ff       	callq  40792d <_Z12read_messageiRSt3mapINSt7__cxx1112basic_stringIcSt11char_traitsIcESaIcEEES5_St4lessIS5_ESaISt4pairIKS5_S5_EEERSt6vectorIhSaIhEE>
  408012:	48 8d 45 c0          	lea    -0x40(%rbp),%rax
  408016:	ba 00 00 00 00       	mov    $0x0,%edx
  40801b:	be 20 00 00 00       	mov    $0x20,%esi
  408020:	48 89 c7             	mov    %rax,%rdi
  408023:	e8 38 ae ff ff       	callq  402e60 <_ZNKSt7__cxx1112basic_stringIcSt11char_traitsIcESaIcEE4findEcm@plt>
  408028:	48 89 45 b0          	mov    %rax,-0x50(%rbp)
  40802c:	48 8d 45 c0          	lea    -0x40(%rbp),%rax
  408030:	48 c7 c2 ff ff ff ff 	mov    $0xffffffffffffffff,%rdx
  408037:	be 20 00 00 00       	mov    $0x20,%esi
  40803c:	48 89 c7             	mov    %rax,%rdi
  40803f:	e8 1c b0 ff ff       	callq  403060 <_ZNKSt7__cxx1112basic_stringIcSt11char_traitsIcESaIcEE5rfindEcm@plt>
  408044:	48 89 45 b8          	mov    %rax,-0x48(%rbp)
  408048:	48 8b 45 b8          	mov    -0x48(%rbp),%rax
  40804c:	48 2b 45 b0          	sub    -0x50(%rbp),%rax
  408050:	48 8d 48 ff          	lea    -0x1(%rax),%rcx
  408054:	48 8b 45 b0          	mov    -0x50(%rbp),%rax
  408058:	48 8d 50 01          	lea    0x1(%rax),%rdx
  40805c:	48 8b 45 a8          	mov    -0x58(%rbp),%rax
  408060:	48 8d 75 c0          	lea    -0x40(%rbp),%rsi
  408064:	48 89 c7             	mov    %rax,%rdi
  408067:	e8 54 ad ff ff       	callq  402dc0 <_ZNKSt7__cxx1112basic_stringIcSt11char_traitsIcESaIcEE6substrEmm@plt>
  40806c:	90                   	nop
  40806d:	48 8d 45 c0          	lea    -0x40(%rbp),%rax
  408071:	48 89 c7             	mov    %rax,%rdi
  408074:	e8 a7 ab ff ff       	callq  402c20 <_ZNSt7__cxx1112basic_stringIcSt11char_traitsIcESaIcEED1Ev@plt>
  408079:	90                   	nop
  40807a:	48 8b 45 a8          	mov    -0x58(%rbp),%rax
  40807e:	48 8b 5d e8          	mov    -0x18(%rbp),%rbx
  408082:	64 48 33 1c 25 28 00 	xor    %fs:0x28,%rbx
  408089:	00 00 
  40808b:	74 21                	je     4080ae <_Z12read_requestiRSt3mapINSt7__cxx1112basic_stringIcSt11char_traitsIcESaIcEEES5_St4lessIS5_ESaISt4pairIKS5_S5_EEERSt6vectorIhSaIhEE+0xda>
  40808d:	eb 1a                	jmp    4080a9 <_Z12read_requestiRSt3mapINSt7__cxx1112basic_stringIcSt11char_traitsIcESaIcEEES5_St4lessIS5_ESaISt4pairIKS5_S5_EEERSt6vectorIhSaIhEE+0xd5>
  40808f:	48 89 c3             	mov    %rax,%rbx
  408092:	48 8d 45 c0          	lea    -0x40(%rbp),%rax
  408096:	48 89 c7             	mov    %rax,%rdi
  408099:	e8 82 ab ff ff       	callq  402c20 <_ZNSt7__cxx1112basic_stringIcSt11char_traitsIcESaIcEED1Ev@plt>
  40809e:	48 89 d8             	mov    %rbx,%rax
  4080a1:	48 89 c7             	mov    %rax,%rdi
  4080a4:	e8 17 af ff ff       	callq  402fc0 <_Unwind_Resume@plt>
  4080a9:	e8 62 ad ff ff       	callq  402e10 <__stack_chk_fail@plt>
  4080ae:	48 83 c4 68          	add    $0x68,%rsp
  4080b2:	5b                   	pop    %rbx
  4080b3:	5d                   	pop    %rbp
  4080b4:	c3                   	retq   

00000000004080b5 <_Z13read_responseiRSt3mapINSt7__cxx1112basic_stringIcSt11char_traitsIcESaIcEEES5_St4lessIS5_ESaISt4pairIKS5_S5_EEERSt6vectorIhSaIhEE>:
  4080b5:	55                   	push   %rbp
  4080b6:	48 89 e5             	mov    %rsp,%rbp
  4080b9:	53                   	push   %rbx
  4080ba:	48 83 ec 68          	sub    $0x68,%rsp
  4080be:	89 7d ac             	mov    %edi,-0x54(%rbp)
  4080c1:	48 89 75 a0          	mov    %rsi,-0x60(%rbp)
  4080c5:	48 89 55 98          	mov    %rdx,-0x68(%rbp)
  4080c9:	64 48 8b 04 25 28 00 	mov    %fs:0x28,%rax
  4080d0:	00 00 
  4080d2:	48 89 45 e8          	mov    %rax,-0x18(%rbp)
  4080d6:	31 c0                	xor    %eax,%eax
  4080d8:	48 8d 45 c0          	lea    -0x40(%rbp),%rax
  4080dc:	48 8b 4d 98          	mov    -0x68(%rbp),%rcx
  4080e0:	48 8b 55 a0          	mov    -0x60(%rbp),%rdx
  4080e4:	8b 75 ac             	mov    -0x54(%rbp),%esi
  4080e7:	48 89 c7             	mov    %rax,%rdi
  4080ea:	e8 3e f8 ff ff       	callq  40792d <_Z12read_messageiRSt3mapINSt7__cxx1112basic_stringIcSt11char_traitsIcESaIcEEES5_St4lessIS5_ESaISt4pairIKS5_S5_EEERSt6vectorIhSaIhEE>
  4080ef:	48 8d 45 c0          	lea    -0x40(%rbp),%rax
  4080f3:	48 89 c7             	mov    %rax,%rdi
  4080f6:	e8 85 aa ff ff       	callq  402b80 <_ZNKSt7__cxx1112basic_stringIcSt11char_traitsIcESaIcEE5c_strEv@plt>
  4080fb:	48 89 c1             	mov    %rax,%rcx
  4080fe:	48 8d 45 bc          	lea    -0x44(%rbp),%rax
  408102:	48 89 c2             	mov    %rax,%rdx
  408105:	be 93 df 40 00       	mov    $0x40df93,%esi
  40810a:	48 89 cf             	mov    %rcx,%rdi
  40810d:	b8 00 00 00 00       	mov    $0x0,%eax
  408112:	e8 69 ab ff ff       	callq  402c80 <sscanf@plt>
  408117:	8b 5d bc             	mov    -0x44(%rbp),%ebx
  40811a:	48 8d 45 c0          	lea    -0x40(%rbp),%rax
  40811e:	48 89 c7             	mov    %rax,%rdi
  408121:	e8 fa aa ff ff       	callq  402c20 <_ZNSt7__cxx1112basic_stringIcSt11char_traitsIcESaIcEED1Ev@plt>
  408126:	89 d8                	mov    %ebx,%eax
  408128:	48 8b 5d e8          	mov    -0x18(%rbp),%rbx
  40812c:	64 48 33 1c 25 28 00 	xor    %fs:0x28,%rbx
  408133:	00 00 
  408135:	74 05                	je     40813c <_Z13read_responseiRSt3mapINSt7__cxx1112basic_stringIcSt11char_traitsIcESaIcEEES5_St4lessIS5_ESaISt4pairIKS5_S5_EEERSt6vectorIhSaIhEE+0x87>
  408137:	e8 d4 ac ff ff       	callq  402e10 <__stack_chk_fail@plt>
  40813c:	48 83 c4 68          	add    $0x68,%rsp
  408140:	5b                   	pop    %rbx
  408141:	5d                   	pop    %rbp
  408142:	c3                   	retq   
  408143:	90                   	nop

0000000000408144 <_ZZ10run_serveriSt8functionIFviEEENKUlvE_clEv>:
  408144:	55                   	push   %rbp
  408145:	48 89 e5             	mov    %rsp,%rbp
  408148:	53                   	push   %rbx
  408149:	48 83 ec 78          	sub    $0x78,%rsp
  40814d:	48 89 7d 88          	mov    %rdi,-0x78(%rbp)
  408151:	64 48 8b 04 25 28 00 	mov    %fs:0x28,%rax
  408158:	00 00 
  40815a:	48 89 45 e8          	mov    %rax,-0x18(%rbp)
  40815e:	31 c0                	xor    %eax,%eax
  408160:	48 8b 45 88          	mov    -0x78(%rbp),%rax
  408164:	8b 10                	mov    (%rax),%edx
  408166:	48 8b 45 88          	mov    -0x78(%rbp),%rax
  40816a:	48 8b 40 10          	mov    0x10(%rax),%rax
  40816e:	89 d6                	mov    %edx,%esi
  408170:	48 89 c7             	mov    %rax,%rdi
  408173:	e8 d2 2a 00 00       	callq  40ac4a <_ZNKSt8functionIFviEEclEi>
  408178:	48 8b 45 88          	mov    -0x78(%rbp),%rax
  40817c:	8b 00                	mov    (%rax),%eax
  40817e:	89 c7                	mov    %eax,%edi
  408180:	e8 cb ae ff ff       	callq  403050 <close@plt>
  408185:	48 8b 45 88          	mov    -0x78(%rbp),%rax
  408189:	48 8b 50 18          	mov    0x18(%rax),%rdx
  40818d:	48 8d 45 90          	lea    -0x70(%rbp),%rax
  408191:	48 89 d6             	mov    %rdx,%rsi
  408194:	48 89 c7             	mov    %rax,%rdi
  408197:	e8 54 2a 00 00       	callq  40abf0 <_ZNSt10lock_guardISt5mutexEC1ERS0_>
  40819c:	48 8b 45 88          	mov    -0x78(%rbp),%rax
  4081a0:	48 8b 40 08          	mov    0x8(%rax),%rax
  4081a4:	48 89 45 c0          	mov    %rax,-0x40(%rbp)
  4081a8:	48 8b 45 c0          	mov    -0x40(%rbp),%rax
  4081ac:	48 89 c7             	mov    %rax,%rdi
  4081af:	e8 e6 2a 00 00       	callq  40ac9a <_ZNSt6vectorISt4pairISt6threadbESaIS2_EE5beginEv>
  4081b4:	48 89 45 a0          	mov    %rax,-0x60(%rbp)
  4081b8:	48 8b 45 c0          	mov    -0x40(%rbp),%rax
  4081bc:	48 89 c7             	mov    %rax,%rdi
  4081bf:	e8 1e 2b 00 00       	callq  40ace2 <_ZNSt6vectorISt4pairISt6threadbESaIS2_EE3endEv>
  4081c4:	48 89 45 b0          	mov    %rax,-0x50(%rbp)
  4081c8:	48 8d 55 b0          	lea    -0x50(%rbp),%rdx
  4081cc:	48 8d 45 a0          	lea    -0x60(%rbp),%rax
  4081d0:	48 89 d6             	mov    %rdx,%rsi
  4081d3:	48 89 c7             	mov    %rax,%rdi
  4081d6:	e8 53 2b 00 00       	callq  40ad2e <_ZN9__gnu_cxxneIPSt4pairISt6threadbESt6vectorIS3_SaIS3_EEEEbRKNS_17__normal_iteratorIT_T0_EESD_>
  4081db:	84 c0                	test   %al,%al
  4081dd:	74 49                	je     408228 <_ZZ10run_serveriSt8functionIFviEEENKUlvE_clEv+0xe4>
  4081df:	48 8d 45 a0          	lea    -0x60(%rbp),%rax
  4081e3:	48 89 c7             	mov    %rax,%rdi
  4081e6:	e8 9f 2b 00 00       	callq  40ad8a <_ZNK9__gnu_cxx17__normal_iteratorIPSt4pairISt6threadbESt6vectorIS3_SaIS3_EEEdeEv>
  4081eb:	48 89 45 c8          	mov    %rax,-0x38(%rbp)
  4081ef:	e8 23 22 00 00       	callq  40a417 <_ZNSt11this_thread6get_idEv>
  4081f4:	48 89 c3             	mov    %rax,%rbx
  4081f7:	48 8b 45 c8          	mov    -0x38(%rbp),%rax
  4081fb:	48 89 c7             	mov    %rax,%rdi
  4081fe:	e8 57 21 00 00       	callq  40a35a <_ZNKSt6thread6get_idEv>
  408203:	48 89 de             	mov    %rbx,%rsi
  408206:	48 89 c7             	mov    %rax,%rdi
  408209:	e8 14 20 00 00       	callq  40a222 <_ZSteqNSt6thread2idES0_>
  40820e:	84 c0                	test   %al,%al
  408210:	74 08                	je     40821a <_ZZ10run_serveriSt8functionIFviEEENKUlvE_clEv+0xd6>
  408212:	48 8b 45 c8          	mov    -0x38(%rbp),%rax
  408216:	c6 40 08 01          	movb   $0x1,0x8(%rax)
  40821a:	48 8d 45 a0          	lea    -0x60(%rbp),%rax
  40821e:	48 89 c7             	mov    %rax,%rdi
  408221:	e8 44 2b 00 00       	callq  40ad6a <_ZN9__gnu_cxx17__normal_iteratorIPSt4pairISt6threadbESt6vectorIS3_SaIS3_EEEppEv>
  408226:	eb a0                	jmp    4081c8 <_ZZ10run_serveriSt8functionIFviEEENKUlvE_clEv+0x84>
  408228:	48 8d 45 90          	lea    -0x70(%rbp),%rax
  40822c:	48 89 c7             	mov    %rax,%rdi
  40822f:	e8 ea 29 00 00       	callq  40ac1e <_ZNSt10lock_guardISt5mutexED1Ev>
  408234:	90                   	nop
  408235:	48 8b 45 e8          	mov    -0x18(%rbp),%rax
  408239:	64 48 33 04 25 28 00 	xor    %fs:0x28,%rax
  408240:	00 00 
  408242:	74 5c                	je     4082a0 <_ZZ10run_serveriSt8functionIFviEEENKUlvE_clEv+0x15c>
  408244:	eb 55                	jmp    40829b <_ZZ10run_serveriSt8functionIFviEEENKUlvE_clEv+0x157>
  408246:	48 89 c3             	mov    %rax,%rbx
  408249:	48 89 d0             	mov    %rdx,%rax
  40824c:	48 83 f8 01          	cmp    $0x1,%rax
  408250:	74 0b                	je     40825d <_ZZ10run_serveriSt8functionIFviEEENKUlvE_clEv+0x119>
  408252:	48 89 d8             	mov    %rbx,%rax
  408255:	48 89 c7             	mov    %rax,%rdi
  408258:	e8 63 ad ff ff       	callq  402fc0 <_Unwind_Resume@plt>
  40825d:	48 89 d8             	mov    %rbx,%rax
  408260:	48 89 c7             	mov    %rax,%rdi
  408263:	e8 e8 ab ff ff       	callq  402e50 <__cxa_get_exception_ptr@plt>
  408268:	48 89 c2             	mov    %rax,%rdx
  40826b:	48 8d 45 d0          	lea    -0x30(%rbp),%rax
  40826f:	48 89 d6             	mov    %rdx,%rsi
  408272:	48 89 c7             	mov    %rax,%rdi
  408275:	e8 16 a9 ff ff       	callq  402b90 <_ZNSt13runtime_errorC1ERKS_@plt>
  40827a:	48 89 d8             	mov    %rbx,%rax
  40827d:	48 89 c7             	mov    %rax,%rdi
  408280:	e8 eb a8 ff ff       	callq  402b70 <__cxa_begin_catch@plt>
  408285:	48 8d 45 d0          	lea    -0x30(%rbp),%rax
  408289:	48 89 c7             	mov    %rax,%rdi
  40828c:	e8 1f ab ff ff       	callq  402db0 <_ZNSt13runtime_errorD1Ev@plt>
  408291:	e8 9a ac ff ff       	callq  402f30 <__cxa_end_catch@plt>
  408296:	e9 dd fe ff ff       	jmpq   408178 <_ZZ10run_serveriSt8functionIFviEEENKUlvE_clEv+0x34>
  40829b:	e8 70 ab ff ff       	callq  402e10 <__stack_chk_fail@plt>
  4082a0:	48 83 c4 78          	add    $0x78,%rsp
  4082a4:	5b                   	pop    %rbx
  4082a5:	5d                   	pop    %rbp
  4082a6:	c3                   	retq   

00000000004082a7 <_Z10run_serveriSt8functionIFviEE>:
  4082a7:	55                   	push   %rbp
  4082a8:	48 89 e5             	mov    %rsp,%rbp
  4082ab:	41 54                	push   %r12
  4082ad:	53                   	push   %rbx
  4082ae:	48 81 ec 00 01 00 00 	sub    $0x100,%rsp
  4082b5:	89 bd fc fe ff ff    	mov    %edi,-0x104(%rbp)
  4082bb:	48 89 b5 f0 fe ff ff 	mov    %rsi,-0x110(%rbp)
  4082c2:	64 48 8b 04 25 28 00 	mov    %fs:0x28,%rax
  4082c9:	00 00 
  4082cb:	48 89 45 e8          	mov    %rax,-0x18(%rbp)
  4082cf:	31 c0                	xor    %eax,%eax
  4082d1:	ba 00 00 00 00       	mov    $0x0,%edx
  4082d6:	be 01 00 00 00       	mov    $0x1,%esi
  4082db:	bf 02 00 00 00       	mov    $0x2,%edi
  4082e0:	e8 db a7 ff ff       	callq  402ac0 <socket@plt>
  4082e5:	89 85 08 ff ff ff    	mov    %eax,-0xf8(%rbp)
  4082eb:	83 bd 08 ff ff ff ff 	cmpl   $0xffffffff,-0xf8(%rbp)
  4082f2:	75 0a                	jne    4082fe <_Z10run_serveriSt8functionIFviEE+0x57>
  4082f4:	bf 50 df 40 00       	mov    $0x40df50,%edi
  4082f9:	e8 c0 ee ff ff       	callq  4071be <_Z5errorPKc>
  4082fe:	c7 85 00 ff ff ff 01 	movl   $0x1,-0x100(%rbp)
  408305:	00 00 00 
  408308:	b9 04 00 00 00       	mov    $0x4,%ecx
  40830d:	48 8d 95 00 ff ff ff 	lea    -0x100(%rbp),%rdx
  408314:	8b 85 08 ff ff ff    	mov    -0xf8(%rbp),%eax
  40831a:	41 89 c8             	mov    %ecx,%r8d
  40831d:	48 89 d1             	mov    %rdx,%rcx
  408320:	ba 02 00 00 00       	mov    $0x2,%edx
  408325:	be 01 00 00 00       	mov    $0x1,%esi
  40832a:	89 c7                	mov    %eax,%edi
  40832c:	e8 af ac ff ff       	callq  402fe0 <setsockopt@plt>
  408331:	c1 e8 1f             	shr    $0x1f,%eax
  408334:	84 c0                	test   %al,%al
  408336:	74 0a                	je     408342 <_Z10run_serveriSt8functionIFviEE+0x9b>
  408338:	bf 50 df 40 00       	mov    $0x40df50,%edi
  40833d:	e8 7c ee ff ff       	callq  4071be <_Z5errorPKc>
  408342:	66 c7 45 a0 02 00    	movw   $0x2,-0x60(%rbp)
  408348:	bf 9f df 40 00       	mov    $0x40df9f,%edi
  40834d:	e8 3e aa ff ff       	callq  402d90 <inet_addr@plt>
  408352:	89 45 a4             	mov    %eax,-0x5c(%rbp)
  408355:	8b 85 fc fe ff ff    	mov    -0x104(%rbp),%eax
  40835b:	0f b7 c0             	movzwl %ax,%eax
  40835e:	89 c7                	mov    %eax,%edi
  408360:	e8 fb a6 ff ff       	callq  402a60 <htons@plt>
  408365:	66 89 45 a2          	mov    %ax,-0x5e(%rbp)
  408369:	ba 10 00 00 00       	mov    $0x10,%edx
  40836e:	48 8d 4d a0          	lea    -0x60(%rbp),%rcx
  408372:	8b 85 08 ff ff ff    	mov    -0xf8(%rbp),%eax
  408378:	48 89 ce             	mov    %rcx,%rsi
  40837b:	89 c7                	mov    %eax,%edi
  40837d:	e8 ee a6 ff ff       	callq  402a70 <bind@plt>
  408382:	85 c0                	test   %eax,%eax
  408384:	0f 95 c0             	setne  %al
  408387:	84 c0                	test   %al,%al
  408389:	74 0a                	je     408395 <_Z10run_serveriSt8functionIFviEE+0xee>
  40838b:	bf 50 df 40 00       	mov    $0x40df50,%edi
  408390:	e8 29 ee ff ff       	callq  4071be <_Z5errorPKc>
  408395:	8b 85 08 ff ff ff    	mov    -0xf8(%rbp),%eax
  40839b:	be 0a 00 00 00       	mov    $0xa,%esi
  4083a0:	89 c7                	mov    %eax,%edi
  4083a2:	e8 79 aa ff ff       	callq  402e20 <listen@plt>
  4083a7:	85 c0                	test   %eax,%eax
  4083a9:	0f 95 c0             	setne  %al
  4083ac:	84 c0                	test   %al,%al
  4083ae:	74 0a                	je     4083ba <_Z10run_serveriSt8functionIFviEE+0x113>
  4083b0:	bf 50 df 40 00       	mov    $0x40df50,%edi
  4083b5:	e8 04 ee ff ff       	callq  4071be <_Z5errorPKc>
  4083ba:	48 8d 85 60 ff ff ff 	lea    -0xa0(%rbp),%rax
  4083c1:	48 89 c7             	mov    %rax,%rdi
  4083c4:	e8 c7 27 00 00       	callq  40ab90 <_ZNSt6vectorISt4pairISt6threadbESaIS2_EEC1Ev>
  4083c9:	48 c7 45 c0 00 00 00 	movq   $0x0,-0x40(%rbp)
  4083d0:	00 
  4083d1:	48 c7 45 c8 00 00 00 	movq   $0x0,-0x38(%rbp)
  4083d8:	00 
  4083d9:	48 c7 45 d0 00 00 00 	movq   $0x0,-0x30(%rbp)
  4083e0:	00 
  4083e1:	48 c7 45 d8 00 00 00 	movq   $0x0,-0x28(%rbp)
  4083e8:	00 
  4083e9:	48 c7 45 e0 00 00 00 	movq   $0x0,-0x20(%rbp)
  4083f0:	00 
  4083f1:	b8 10 00 00 00       	mov    $0x10,%eax
  4083f6:	89 85 04 ff ff ff    	mov    %eax,-0xfc(%rbp)
  4083fc:	48 8d 95 04 ff ff ff 	lea    -0xfc(%rbp),%rdx
  408403:	48 8d 4d b0          	lea    -0x50(%rbp),%rcx
  408407:	8b 85 08 ff ff ff    	mov    -0xf8(%rbp),%eax
  40840d:	48 89 ce             	mov    %rcx,%rsi
  408410:	89 c7                	mov    %eax,%edi
  408412:	e8 09 a7 ff ff       	callq  402b20 <accept@plt>
  408417:	89 85 0c ff ff ff    	mov    %eax,-0xf4(%rbp)
  40841d:	83 bd 0c ff ff ff 00 	cmpl   $0x0,-0xf4(%rbp)
  408424:	79 0a                	jns    408430 <_Z10run_serveriSt8functionIFviEE+0x189>
  408426:	bf 50 df 40 00       	mov    $0x40df50,%edi
  40842b:	e8 8e ed ff ff       	callq  4071be <_Z5errorPKc>
  408430:	48 8d 55 c0          	lea    -0x40(%rbp),%rdx
  408434:	48 8d 85 10 ff ff ff 	lea    -0xf0(%rbp),%rax
  40843b:	48 89 d6             	mov    %rdx,%rsi
  40843e:	48 89 c7             	mov    %rax,%rdi
  408441:	e8 aa 27 00 00       	callq  40abf0 <_ZNSt10lock_guardISt5mutexEC1ERS0_>
  408446:	c6 85 20 ff ff ff 00 	movb   $0x0,-0xe0(%rbp)
  40844d:	48 8d 85 40 ff ff ff 	lea    -0xc0(%rbp),%rax
  408454:	48 8d 95 20 ff ff ff 	lea    -0xe0(%rbp),%rdx
  40845b:	48 89 d6             	mov    %rdx,%rsi
  40845e:	48 89 c7             	mov    %rax,%rdi
  408461:	e8 6a 2a 00 00       	callq  40aed0 <_ZSt16forward_as_tupleIIbEESt5tupleIIDpOT_EES3_>
  408466:	8b 85 0c ff ff ff    	mov    -0xf4(%rbp),%eax
  40846c:	89 45 80             	mov    %eax,-0x80(%rbp)
  40846f:	48 8d 85 60 ff ff ff 	lea    -0xa0(%rbp),%rax
  408476:	48 89 45 88          	mov    %rax,-0x78(%rbp)
  40847a:	48 8b 85 f0 fe ff ff 	mov    -0x110(%rbp),%rax
  408481:	48 89 45 90          	mov    %rax,-0x70(%rbp)
  408485:	48 8d 45 c0          	lea    -0x40(%rbp),%rax
  408489:	48 89 45 98          	mov    %rax,-0x68(%rbp)
  40848d:	48 8d 85 30 ff ff ff 	lea    -0xd0(%rbp),%rax
  408494:	48 8d 55 80          	lea    -0x80(%rbp),%rdx
  408498:	48 89 d6             	mov    %rdx,%rsi
  40849b:	48 89 c7             	mov    %rax,%rdi
  40849e:	e8 d5 02 00 00       	callq  408778 <_ZSt16forward_as_tupleIJZ10run_serveriSt8functionIFviEEEUlvE_EESt5tupleIJDpOT_EES7_>
  4084a3:	48 8d 8d 40 ff ff ff 	lea    -0xc0(%rbp),%rcx
  4084aa:	48 8d 95 30 ff ff ff 	lea    -0xd0(%rbp),%rdx
  4084b1:	48 8d 85 60 ff ff ff 	lea    -0xa0(%rbp),%rax
  4084b8:	be 40 df 40 00       	mov    $0x40df40,%esi
  4084bd:	48 89 c7             	mov    %rax,%rdi
  4084c0:	e8 f5 02 00 00       	callq  4087ba <_ZNSt6vectorISt4pairISt6threadbESaIS2_EE12emplace_backIJRKSt21piecewise_construct_tSt5tupleIJOZ10run_serveriSt8functionIFviEEEUlvE_EES9_IJObEEEEEvDpOT_>
  4084c5:	48 8d 85 60 ff ff ff 	lea    -0xa0(%rbp),%rax
  4084cc:	48 89 85 50 ff ff ff 	mov    %rax,-0xb0(%rbp)
  4084d3:	48 8b 85 50 ff ff ff 	mov    -0xb0(%rbp),%rax
  4084da:	48 89 c7             	mov    %rax,%rdi
  4084dd:	e8 b8 27 00 00       	callq  40ac9a <_ZNSt6vectorISt4pairISt6threadbESaIS2_EE5beginEv>
  4084e2:	48 89 85 40 ff ff ff 	mov    %rax,-0xc0(%rbp)
  4084e9:	48 8b 85 50 ff ff ff 	mov    -0xb0(%rbp),%rax
  4084f0:	48 89 c7             	mov    %rax,%rdi
  4084f3:	e8 ea 27 00 00       	callq  40ace2 <_ZNSt6vectorISt4pairISt6threadbESaIS2_EE3endEv>
  4084f8:	48 89 45 80          	mov    %rax,-0x80(%rbp)
  4084fc:	48 8d 55 80          	lea    -0x80(%rbp),%rdx
  408500:	48 8d 85 40 ff ff ff 	lea    -0xc0(%rbp),%rax
  408507:	48 89 d6             	mov    %rdx,%rsi
  40850a:	48 89 c7             	mov    %rax,%rdi
  40850d:	e8 1c 28 00 00       	callq  40ad2e <_ZN9__gnu_cxxneIPSt4pairISt6threadbESt6vectorIS3_SaIS3_EEEEbRKNS_17__normal_iteratorIT_T0_EESD_>
  408512:	84 c0                	test   %al,%al
  408514:	74 45                	je     40855b <_Z10run_serveriSt8functionIFviEE+0x2b4>
  408516:	48 8d 85 40 ff ff ff 	lea    -0xc0(%rbp),%rax
  40851d:	48 89 c7             	mov    %rax,%rdi
  408520:	e8 65 28 00 00       	callq  40ad8a <_ZNK9__gnu_cxx17__normal_iteratorIPSt4pairISt6threadbESt6vectorIS3_SaIS3_EEEdeEv>
  408525:	48 89 85 58 ff ff ff 	mov    %rax,-0xa8(%rbp)
  40852c:	48 8b 85 58 ff ff ff 	mov    -0xa8(%rbp),%rax
  408533:	0f b6 40 08          	movzbl 0x8(%rax),%eax
  408537:	84 c0                	test   %al,%al
  408539:	74 0f                	je     40854a <_Z10run_serveriSt8functionIFviEE+0x2a3>
  40853b:	48 8b 85 58 ff ff ff 	mov    -0xa8(%rbp),%rax
  408542:	48 89 c7             	mov    %rax,%rdi
  408545:	e8 36 aa ff ff       	callq  402f80 <_ZNSt6thread4joinEv@plt>
  40854a:	48 8d 85 40 ff ff ff 	lea    -0xc0(%rbp),%rax
  408551:	48 89 c7             	mov    %rax,%rdi
  408554:	e8 11 28 00 00       	callq  40ad6a <_ZN9__gnu_cxx17__normal_iteratorIPSt4pairISt6threadbESt6vectorIS3_SaIS3_EEEppEv>
  408559:	eb a1                	jmp    4084fc <_Z10run_serveriSt8functionIFviEE+0x255>
  40855b:	48 8d 85 60 ff ff ff 	lea    -0xa0(%rbp),%rax
  408562:	48 89 c7             	mov    %rax,%rdi
  408565:	e8 78 27 00 00       	callq  40ace2 <_ZNSt6vectorISt4pairISt6threadbESaIS2_EE3endEv>
  40856a:	48 89 85 30 ff ff ff 	mov    %rax,-0xd0(%rbp)
  408571:	48 8d 95 30 ff ff ff 	lea    -0xd0(%rbp),%rdx
  408578:	48 8d 45 80          	lea    -0x80(%rbp),%rax
  40857c:	48 89 d6             	mov    %rdx,%rsi
  40857f:	48 89 c7             	mov    %rax,%rdi
  408582:	e8 8b 29 00 00       	callq  40af12 <_ZN9__gnu_cxx17__normal_iteratorIPKSt4pairISt6threadbESt6vectorIS3_SaIS3_EEEC1IPS3_EERKNS0_IT_NS_11__enable_ifIXsrSt10__are_sameISC_SB_E7__valueES8_E6__typeEEE>
  408587:	48 8d 85 60 ff ff ff 	lea    -0xa0(%rbp),%rax
  40858e:	48 89 c7             	mov    %rax,%rdi
  408591:	e8 4c 27 00 00       	callq  40ace2 <_ZNSt6vectorISt4pairISt6threadbESaIS2_EE3endEv>
  408596:	48 89 c3             	mov    %rax,%rbx
  408599:	48 8d 85 60 ff ff ff 	lea    -0xa0(%rbp),%rax
  4085a0:	48 89 c7             	mov    %rax,%rdi
  4085a3:	e8 f2 26 00 00       	callq  40ac9a <_ZNSt6vectorISt4pairISt6threadbESaIS2_EE5beginEv>
  4085a8:	48 83 ec 08          	sub    $0x8,%rsp
  4085ac:	41 54                	push   %r12
  4085ae:	48 89 de             	mov    %rbx,%rsi
  4085b1:	48 89 c7             	mov    %rax,%rdi
  4085b4:	e8 d7 02 00 00       	callq  408890 <_ZSt9remove_ifIN9__gnu_cxx17__normal_iteratorIPSt4pairISt6threadbESt6vectorIS4_SaIS4_EEEEZ10run_serveriSt8functionIFviEEEUlRKT_E0_ESD_SD_SD_T0_>
  4085b9:	48 83 c4 10          	add    $0x10,%rsp
  4085bd:	48 89 85 20 ff ff ff 	mov    %rax,-0xe0(%rbp)
  4085c4:	48 8d 95 20 ff ff ff 	lea    -0xe0(%rbp),%rdx
  4085cb:	48 8d 85 40 ff ff ff 	lea    -0xc0(%rbp),%rax
  4085d2:	48 89 d6             	mov    %rdx,%rsi
  4085d5:	48 89 c7             	mov    %rax,%rdi
  4085d8:	e8 35 29 00 00       	callq  40af12 <_ZN9__gnu_cxx17__normal_iteratorIPKSt4pairISt6threadbESt6vectorIS3_SaIS3_EEEC1IPS3_EERKNS0_IT_NS_11__enable_ifIXsrSt10__are_sameISC_SB_E7__valueES8_E6__typeEEE>
  4085dd:	48 8b 55 80          	mov    -0x80(%rbp),%rdx
  4085e1:	48 8b 8d 40 ff ff ff 	mov    -0xc0(%rbp),%rcx
  4085e8:	48 8d 85 60 ff ff ff 	lea    -0xa0(%rbp),%rax
  4085ef:	48 89 ce             	mov    %rcx,%rsi
  4085f2:	48 89 c7             	mov    %rax,%rdi
  4085f5:	e8 42 29 00 00       	callq  40af3c <_ZNSt6vectorISt4pairISt6threadbESaIS2_EE5eraseEN9__gnu_cxx17__normal_iteratorIPKS2_S4_EES9_>
  4085fa:	48 8d 85 10 ff ff ff 	lea    -0xf0(%rbp),%rax
  408601:	48 89 c7             	mov    %rax,%rdi
  408604:	e8 15 26 00 00       	callq  40ac1e <_ZNSt10lock_guardISt5mutexED1Ev>
  408609:	e9 e3 fd ff ff       	jmpq   4083f1 <_Z10run_serveriSt8functionIFviEE+0x14a>
  40860e:	48 89 c3             	mov    %rax,%rbx
  408611:	eb 03                	jmp    408616 <_Z10run_serveriSt8functionIFviEE+0x36f>
  408613:	48 89 c3             	mov    %rax,%rbx
  408616:	48 8d 85 10 ff ff ff 	lea    -0xf0(%rbp),%rax
  40861d:	48 89 c7             	mov    %rax,%rdi
  408620:	e8 f9 25 00 00       	callq  40ac1e <_ZNSt10lock_guardISt5mutexED1Ev>
  408625:	eb 03                	jmp    40862a <_Z10run_serveriSt8functionIFviEE+0x383>
  408627:	48 89 c3             	mov    %rax,%rbx
  40862a:	48 8d 85 60 ff ff ff 	lea    -0xa0(%rbp),%rax
  408631:	48 89 c7             	mov    %rax,%rdi
  408634:	e8 73 25 00 00       	callq  40abac <_ZNSt6vectorISt4pairISt6threadbESaIS2_EED1Ev>
  408639:	48 89 d8             	mov    %rbx,%rax
  40863c:	48 89 c7             	mov    %rax,%rdi
  40863f:	e8 7c a9 ff ff       	callq  402fc0 <_Unwind_Resume@plt>

0000000000408644 <_ZSt7forwardIZ10run_serveriSt8functionIFviEEEUlvE_EOT_RNSt16remove_referenceIS4_E4typeE>:
  408644:	55                   	push   %rbp
  408645:	48 89 e5             	mov    %rsp,%rbp
  408648:	48 89 7d f8          	mov    %rdi,-0x8(%rbp)
  40864c:	48 8b 45 f8          	mov    -0x8(%rbp),%rax
  408650:	5d                   	pop    %rbp
  408651:	c3                   	retq   

0000000000408652 <_ZNSt10_Head_baseILm0EOZ10run_serveriSt8functionIFviEEEUlvE_Lb0EEC2IS3_EEOT_>:
  408652:	55                   	push   %rbp
  408653:	48 89 e5             	mov    %rsp,%rbp
  408656:	48 83 ec 10          	sub    $0x10,%rsp
  40865a:	48 89 7d f8          	mov    %rdi,-0x8(%rbp)
  40865e:	48 89 75 f0          	mov    %rsi,-0x10(%rbp)
  408662:	48 8b 45 f0          	mov    -0x10(%rbp),%rax
  408666:	48 89 c7             	mov    %rax,%rdi
  408669:	e8 d6 ff ff ff       	callq  408644 <_ZSt7forwardIZ10run_serveriSt8functionIFviEEEUlvE_EOT_RNSt16remove_referenceIS4_E4typeE>
  40866e:	48 89 c2             	mov    %rax,%rdx
  408671:	48 8b 45 f8          	mov    -0x8(%rbp),%rax
  408675:	48 89 10             	mov    %rdx,(%rax)
  408678:	90                   	nop
  408679:	c9                   	leaveq 
  40867a:	c3                   	retq   
  40867b:	90                   	nop

000000000040867c <_ZNSt11_Tuple_implILm0EJOZ10run_serveriSt8functionIFviEEEUlvE_EEC2IS3_EEOT_>:
  40867c:	55                   	push   %rbp
  40867d:	48 89 e5             	mov    %rsp,%rbp
  408680:	48 83 ec 10          	sub    $0x10,%rsp
  408684:	48 89 7d f8          	mov    %rdi,-0x8(%rbp)
  408688:	48 89 75 f0          	mov    %rsi,-0x10(%rbp)
  40868c:	48 8b 45 f0          	mov    -0x10(%rbp),%rax
  408690:	48 89 c7             	mov    %rax,%rdi
  408693:	e8 ac ff ff ff       	callq  408644 <_ZSt7forwardIZ10run_serveriSt8functionIFviEEEUlvE_EOT_RNSt16remove_referenceIS4_E4typeE>
  408698:	48 89 c2             	mov    %rax,%rdx
  40869b:	48 8b 45 f8          	mov    -0x8(%rbp),%rax
  40869f:	48 89 d6             	mov    %rdx,%rsi
  4086a2:	48 89 c7             	mov    %rax,%rdi
  4086a5:	e8 a8 ff ff ff       	callq  408652 <_ZNSt10_Head_baseILm0EOZ10run_serveriSt8functionIFviEEEUlvE_Lb0EEC2IS3_EEOT_>
  4086aa:	90                   	nop
  4086ab:	c9                   	leaveq 
  4086ac:	c3                   	retq   
  4086ad:	90                   	nop

00000000004086ae <_ZNSt5tupleIJOZ10run_serveriSt8functionIFviEEEUlvE_EEC1IJS3_EvEEDpOT_>:
  4086ae:	55                   	push   %rbp
  4086af:	48 89 e5             	mov    %rsp,%rbp
  4086b2:	48 83 ec 10          	sub    $0x10,%rsp
  4086b6:	48 89 7d f8          	mov    %rdi,-0x8(%rbp)
  4086ba:	48 89 75 f0          	mov    %rsi,-0x10(%rbp)
  4086be:	48 8b 45 f0          	mov    -0x10(%rbp),%rax
  4086c2:	48 89 c7             	mov    %rax,%rdi
  4086c5:	e8 7a ff ff ff       	callq  408644 <_ZSt7forwardIZ10run_serveriSt8functionIFviEEEUlvE_EOT_RNSt16remove_referenceIS4_E4typeE>
  4086ca:	48 89 c2             	mov    %rax,%rdx
  4086cd:	48 8b 45 f8          	mov    -0x8(%rbp),%rax
  4086d1:	48 89 d6             	mov    %rdx,%rsi
  4086d4:	48 89 c7             	mov    %rax,%rdi
  4086d7:	e8 a0 ff ff ff       	callq  40867c <_ZNSt11_Tuple_implILm0EJOZ10run_serveriSt8functionIFviEEEUlvE_EEC2IS3_EEOT_>
  4086dc:	90                   	nop
  4086dd:	c9                   	leaveq 
  4086de:	c3                   	retq   

00000000004086df <_ZNSt10_Head_baseILm0EOZ10run_serveriSt8functionIFviEEEUlvE_Lb0EE7_M_headERS5_>:
  4086df:	55                   	push   %rbp
  4086e0:	48 89 e5             	mov    %rsp,%rbp
  4086e3:	48 89 7d f8          	mov    %rdi,-0x8(%rbp)
  4086e7:	48 8b 45 f8          	mov    -0x8(%rbp),%rax
  4086eb:	48 8b 00             	mov    (%rax),%rax
  4086ee:	5d                   	pop    %rbp
  4086ef:	c3                   	retq   

00000000004086f0 <_ZNSt11_Tuple_implILm0EJOZ10run_serveriSt8functionIFviEEEUlvE_EE7_M_headERS5_>:
  4086f0:	55                   	push   %rbp
  4086f1:	48 89 e5             	mov    %rsp,%rbp
  4086f4:	48 83 ec 08          	sub    $0x8,%rsp
  4086f8:	48 89 7d f8          	mov    %rdi,-0x8(%rbp)
  4086fc:	48 8b 45 f8          	mov    -0x8(%rbp),%rax
  408700:	48 89 c7             	mov    %rax,%rdi
  408703:	e8 d7 ff ff ff       	callq  4086df <_ZNSt10_Head_baseILm0EOZ10run_serveriSt8functionIFviEEEUlvE_Lb0EE7_M_headERS5_>
  408708:	c9                   	leaveq 
  408709:	c3                   	retq   

000000000040870a <_ZSt7forwardIOZ10run_serveriSt8functionIFviEEEUlvE_EOT_RNSt16remove_referenceIS5_E4typeE>:
  40870a:	55                   	push   %rbp
  40870b:	48 89 e5             	mov    %rsp,%rbp
  40870e:	48 89 7d f8          	mov    %rdi,-0x8(%rbp)
  408712:	48 8b 45 f8          	mov    -0x8(%rbp),%rax
  408716:	5d                   	pop    %rbp
  408717:	c3                   	retq   

0000000000408718 <_ZNSt11_Tuple_implILm0EJOZ10run_serveriSt8functionIFviEEEUlvE_EEC2EOS5_>:
  408718:	55                   	push   %rbp
  408719:	48 89 e5             	mov    %rsp,%rbp
  40871c:	48 83 ec 10          	sub    $0x10,%rsp
  408720:	48 89 7d f8          	mov    %rdi,-0x8(%rbp)
  408724:	48 89 75 f0          	mov    %rsi,-0x10(%rbp)
  408728:	48 8b 45 f0          	mov    -0x10(%rbp),%rax
  40872c:	48 89 c7             	mov    %rax,%rdi
  40872f:	e8 bc ff ff ff       	callq  4086f0 <_ZNSt11_Tuple_implILm0EJOZ10run_serveriSt8functionIFviEEEUlvE_EE7_M_headERS5_>
  408734:	48 89 c7             	mov    %rax,%rdi
  408737:	e8 ce ff ff ff       	callq  40870a <_ZSt7forwardIOZ10run_serveriSt8functionIFviEEEUlvE_EOT_RNSt16remove_referenceIS5_E4typeE>
  40873c:	48 89 c2             	mov    %rax,%rdx
  40873f:	48 8b 45 f8          	mov    -0x8(%rbp),%rax
  408743:	48 89 d6             	mov    %rdx,%rsi
  408746:	48 89 c7             	mov    %rax,%rdi
  408749:	e8 04 ff ff ff       	callq  408652 <_ZNSt10_Head_baseILm0EOZ10run_serveriSt8functionIFviEEEUlvE_Lb0EEC2IS3_EEOT_>
  40874e:	90                   	nop
  40874f:	c9                   	leaveq 
  408750:	c3                   	retq   
  408751:	90                   	nop

0000000000408752 <_ZNSt5tupleIJOZ10run_serveriSt8functionIFviEEEUlvE_EEC1EOS5_>:
  408752:	55                   	push   %rbp
  408753:	48 89 e5             	mov    %rsp,%rbp
  408756:	48 83 ec 10          	sub    $0x10,%rsp
  40875a:	48 89 7d f8          	mov    %rdi,-0x8(%rbp)
  40875e:	48 89 75 f0          	mov    %rsi,-0x10(%rbp)
  408762:	48 8b 55 f0          	mov    -0x10(%rbp),%rdx
  408766:	48 8b 45 f8          	mov    -0x8(%rbp),%rax
  40876a:	48 89 d6             	mov    %rdx,%rsi
  40876d:	48 89 c7             	mov    %rax,%rdi
  408770:	e8 a3 ff ff ff       	callq  408718 <_ZNSt11_Tuple_implILm0EJOZ10run_serveriSt8functionIFviEEEUlvE_EEC2EOS5_>
  408775:	90                   	nop
  408776:	c9                   	leaveq 
  408777:	c3                   	retq   

0000000000408778 <_ZSt16forward_as_tupleIJZ10run_serveriSt8functionIFviEEEUlvE_EESt5tupleIJDpOT_EES7_>:
  408778:	55                   	push   %rbp
  408779:	48 89 e5             	mov    %rsp,%rbp
  40877c:	48 83 ec 10          	sub    $0x10,%rsp
  408780:	48 89 7d f8          	mov    %rdi,-0x8(%rbp)
  408784:	48 89 75 f0          	mov    %rsi,-0x10(%rbp)
  408788:	48 8b 45 f0          	mov    -0x10(%rbp),%rax
  40878c:	48 89 c7             	mov    %rax,%rdi
  40878f:	e8 b0 fe ff ff       	callq  408644 <_ZSt7forwardIZ10run_serveriSt8functionIFviEEEUlvE_EOT_RNSt16remove_referenceIS4_E4typeE>
  408794:	48 89 c2             	mov    %rax,%rdx
  408797:	48 8b 45 f8          	mov    -0x8(%rbp),%rax
  40879b:	48 89 d6             	mov    %rdx,%rsi
  40879e:	48 89 c7             	mov    %rax,%rdi
  4087a1:	e8 08 ff ff ff       	callq  4086ae <_ZNSt5tupleIJOZ10run_serveriSt8functionIFviEEEUlvE_EEC1IJS3_EvEEDpOT_>
  4087a6:	48 8b 45 f8          	mov    -0x8(%rbp),%rax
  4087aa:	c9                   	leaveq 
  4087ab:	c3                   	retq   

00000000004087ac <_ZSt7forwardISt5tupleIJOZ10run_serveriSt8functionIFviEEEUlvE_EEEOT_RNSt16remove_referenceIS7_E4typeE>:
  4087ac:	55                   	push   %rbp
  4087ad:	48 89 e5             	mov    %rsp,%rbp
  4087b0:	48 89 7d f8          	mov    %rdi,-0x8(%rbp)
  4087b4:	48 8b 45 f8          	mov    -0x8(%rbp),%rax
  4087b8:	5d                   	pop    %rbp
  4087b9:	c3                   	retq   

00000000004087ba <_ZNSt6vectorISt4pairISt6threadbESaIS2_EE12emplace_backIJRKSt21piecewise_construct_tSt5tupleIJOZ10run_serveriSt8functionIFviEEEUlvE_EES9_IJObEEEEEvDpOT_>:
  4087ba:	55                   	push   %rbp
  4087bb:	48 89 e5             	mov    %rsp,%rbp
  4087be:	41 54                	push   %r12
  4087c0:	53                   	push   %rbx
  4087c1:	48 83 ec 20          	sub    $0x20,%rsp
  4087c5:	48 89 7d e8          	mov    %rdi,-0x18(%rbp)
  4087c9:	48 89 75 e0          	mov    %rsi,-0x20(%rbp)
  4087cd:	48 89 55 d8          	mov    %rdx,-0x28(%rbp)
  4087d1:	48 89 4d d0          	mov    %rcx,-0x30(%rbp)
  4087d5:	48 8b 45 e8          	mov    -0x18(%rbp),%rax
  4087d9:	48 8b 50 08          	mov    0x8(%rax),%rdx
  4087dd:	48 8b 45 e8          	mov    -0x18(%rbp),%rax
  4087e1:	48 8b 40 10          	mov    0x10(%rax),%rax
  4087e5:	48 39 c2             	cmp    %rax,%rdx
  4087e8:	74 5d                	je     408847 <_ZNSt6vectorISt4pairISt6threadbESaIS2_EE12emplace_backIJRKSt21piecewise_construct_tSt5tupleIJOZ10run_serveriSt8functionIFviEEEUlvE_EES9_IJObEEEEEvDpOT_+0x8d>
  4087ea:	48 8b 45 d0          	mov    -0x30(%rbp),%rax
  4087ee:	48 89 c7             	mov    %rax,%rdi
  4087f1:	e8 0e 27 00 00       	callq  40af04 <_ZSt7forwardISt5tupleIIObEEEOT_RNSt16remove_referenceIS3_E4typeE>
  4087f6:	49 89 c4             	mov    %rax,%r12
  4087f9:	48 8b 45 d8          	mov    -0x28(%rbp),%rax
  4087fd:	48 89 c7             	mov    %rax,%rdi
  408800:	e8 a7 ff ff ff       	callq  4087ac <_ZSt7forwardISt5tupleIJOZ10run_serveriSt8functionIFviEEEUlvE_EEEOT_RNSt16remove_referenceIS7_E4typeE>
  408805:	48 89 c3             	mov    %rax,%rbx
  408808:	48 8b 45 e0          	mov    -0x20(%rbp),%rax
  40880c:	48 89 c7             	mov    %rax,%rdi
  40880f:	e8 7d c1 ff ff       	callq  404991 <_ZSt7forwardIRKSt21piecewise_construct_tEOT_RNSt16remove_referenceIS3_E4typeE>
  408814:	48 89 c2             	mov    %rax,%rdx
  408817:	48 8b 45 e8          	mov    -0x18(%rbp),%rax
  40881b:	48 8b 70 08          	mov    0x8(%rax),%rsi
  40881f:	48 8b 45 e8          	mov    -0x18(%rbp),%rax
  408823:	4d 89 e0             	mov    %r12,%r8
  408826:	48 89 d9             	mov    %rbx,%rcx
  408829:	48 89 c7             	mov    %rax,%rdi
  40882c:	e8 a0 00 00 00       	callq  4088d1 <_ZNSt16allocator_traitsISaISt4pairISt6threadbEEE9constructIS2_JRKSt21piecewise_construct_tSt5tupleIJOZ10run_serveriSt8functionIFviEEEUlvE_EES9_IJObEEEEEvRS3_PT_DpOT0_>
  408831:	48 8b 45 e8          	mov    -0x18(%rbp),%rax
  408835:	48 8b 40 08          	mov    0x8(%rax),%rax
  408839:	48 8d 50 10          	lea    0x10(%rax),%rdx
  40883d:	48 8b 45 e8          	mov    -0x18(%rbp),%rax
  408841:	48 89 50 08          	mov    %rdx,0x8(%rax)
  408845:	eb 3f                	jmp    408886 <_ZNSt6vectorISt4pairISt6threadbESaIS2_EE12emplace_backIJRKSt21piecewise_construct_tSt5tupleIJOZ10run_serveriSt8functionIFviEEEUlvE_EES9_IJObEEEEEvDpOT_+0xcc>
  408847:	48 8b 45 d0          	mov    -0x30(%rbp),%rax
  40884b:	48 89 c7             	mov    %rax,%rdi
  40884e:	e8 b1 26 00 00       	callq  40af04 <_ZSt7forwardISt5tupleIIObEEEOT_RNSt16remove_referenceIS3_E4typeE>
  408853:	49 89 c4             	mov    %rax,%r12
  408856:	48 8b 45 d8          	mov    -0x28(%rbp),%rax
  40885a:	48 89 c7             	mov    %rax,%rdi
  40885d:	e8 4a ff ff ff       	callq  4087ac <_ZSt7forwardISt5tupleIJOZ10run_serveriSt8functionIFviEEEUlvE_EEEOT_RNSt16remove_referenceIS7_E4typeE>
  408862:	48 89 c3             	mov    %rax,%rbx
  408865:	48 8b 45 e0          	mov    -0x20(%rbp),%rax
  408869:	48 89 c7             	mov    %rax,%rdi
  40886c:	e8 20 c1 ff ff       	callq  404991 <_ZSt7forwardIRKSt21piecewise_construct_tEOT_RNSt16remove_referenceIS3_E4typeE>
  408871:	48 89 c6             	mov    %rax,%rsi
  408874:	48 8b 45 e8          	mov    -0x18(%rbp),%rax
  408878:	4c 89 e1             	mov    %r12,%rcx
  40887b:	48 89 da             	mov    %rbx,%rdx
  40887e:	48 89 c7             	mov    %rax,%rdi
  408881:	e8 b8 00 00 00       	callq  40893e <_ZNSt6vectorISt4pairISt6threadbESaIS2_EE19_M_emplace_back_auxIJRKSt21piecewise_construct_tSt5tupleIJOZ10run_serveriSt8functionIFviEEEUlvE_EES9_IJObEEEEEvDpOT_>
  408886:	90                   	nop
  408887:	48 83 c4 20          	add    $0x20,%rsp
  40888b:	5b                   	pop    %rbx
  40888c:	41 5c                	pop    %r12
  40888e:	5d                   	pop    %rbp
  40888f:	c3                   	retq   

0000000000408890 <_ZSt9remove_ifIN9__gnu_cxx17__normal_iteratorIPSt4pairISt6threadbESt6vectorIS4_SaIS4_EEEEZ10run_serveriSt8functionIFviEEEUlRKT_E0_ESD_SD_SD_T0_>:
  408890:	55                   	push   %rbp
  408891:	48 89 e5             	mov    %rsp,%rbp
  408894:	53                   	push   %rbx
  408895:	48 83 ec 28          	sub    $0x28,%rsp
  408899:	48 89 7d e0          	mov    %rdi,-0x20(%rbp)
  40889d:	48 89 75 d0          	mov    %rsi,-0x30(%rbp)
  4088a1:	48 83 ec 08          	sub    $0x8,%rsp
  4088a5:	50                   	push   %rax
  4088a6:	e8 ab 02 00 00       	callq  408b56 <_ZN9__gnu_cxx5__ops11__pred_iterIZ10run_serveriSt8functionIFviEEEUlRKT_E0_EENS0_10_Iter_predIS5_EES5_>
  4088ab:	48 83 c4 10          	add    $0x10,%rsp
  4088af:	48 8b 55 d0          	mov    -0x30(%rbp),%rdx
  4088b3:	48 8b 45 e0          	mov    -0x20(%rbp),%rax
  4088b7:	48 83 ec 08          	sub    $0x8,%rsp
  4088bb:	53                   	push   %rbx
  4088bc:	48 89 d6             	mov    %rdx,%rsi
  4088bf:	48 89 c7             	mov    %rax,%rdi
  4088c2:	e8 d8 02 00 00       	callq  408b9f <_ZSt11__remove_ifIN9__gnu_cxx17__normal_iteratorIPSt4pairISt6threadbESt6vectorIS4_SaIS4_EEEENS0_5__ops10_Iter_predIZ10run_serveriSt8functionIFviEEEUlRKT_E0_EEESF_SF_SF_T0_>
  4088c7:	48 83 c4 10          	add    $0x10,%rsp
  4088cb:	48 8b 5d f8          	mov    -0x8(%rbp),%rbx
  4088cf:	c9                   	leaveq 
  4088d0:	c3                   	retq   

00000000004088d1 <_ZNSt16allocator_traitsISaISt4pairISt6threadbEEE9constructIS2_JRKSt21piecewise_construct_tSt5tupleIJOZ10run_serveriSt8functionIFviEEEUlvE_EES9_IJObEEEEEvRS3_PT_DpOT0_>:
  4088d1:	55                   	push   %rbp
  4088d2:	48 89 e5             	mov    %rsp,%rbp
  4088d5:	41 54                	push   %r12
  4088d7:	53                   	push   %rbx
  4088d8:	48 83 ec 30          	sub    $0x30,%rsp
  4088dc:	48 89 7d e8          	mov    %rdi,-0x18(%rbp)
  4088e0:	48 89 75 e0          	mov    %rsi,-0x20(%rbp)
  4088e4:	48 89 55 d8          	mov    %rdx,-0x28(%rbp)
  4088e8:	48 89 4d d0          	mov    %rcx,-0x30(%rbp)
  4088ec:	4c 89 45 c8          	mov    %r8,-0x38(%rbp)
  4088f0:	48 8b 45 c8          	mov    -0x38(%rbp),%rax
  4088f4:	48 89 c7             	mov    %rax,%rdi
  4088f7:	e8 08 26 00 00       	callq  40af04 <_ZSt7forwardISt5tupleIIObEEEOT_RNSt16remove_referenceIS3_E4typeE>
  4088fc:	49 89 c4             	mov    %rax,%r12
  4088ff:	48 8b 45 d0          	mov    -0x30(%rbp),%rax
  408903:	48 89 c7             	mov    %rax,%rdi
  408906:	e8 a1 fe ff ff       	callq  4087ac <_ZSt7forwardISt5tupleIJOZ10run_serveriSt8functionIFviEEEUlvE_EEEOT_RNSt16remove_referenceIS7_E4typeE>
  40890b:	48 89 c3             	mov    %rax,%rbx
  40890e:	48 8b 45 d8          	mov    -0x28(%rbp),%rax
  408912:	48 89 c7             	mov    %rax,%rdi
  408915:	e8 77 c0 ff ff       	callq  404991 <_ZSt7forwardIRKSt21piecewise_construct_tEOT_RNSt16remove_referenceIS3_E4typeE>
  40891a:	48 89 c2             	mov    %rax,%rdx
  40891d:	48 8b 75 e0          	mov    -0x20(%rbp),%rsi
  408921:	48 8b 45 e8          	mov    -0x18(%rbp),%rax
  408925:	4d 89 e0             	mov    %r12,%r8
  408928:	48 89 d9             	mov    %rbx,%rcx
  40892b:	48 89 c7             	mov    %rax,%rdi
  40892e:	e8 79 03 00 00       	callq  408cac <_ZN9__gnu_cxx13new_allocatorISt4pairISt6threadbEE9constructIS3_JRKSt21piecewise_construct_tSt5tupleIJOZ10run_serveriSt8functionIFviEEEUlvE_EES9_IJObEEEEEvPT_DpOT0_>
  408933:	90                   	nop
  408934:	48 83 c4 30          	add    $0x30,%rsp
  408938:	5b                   	pop    %rbx
  408939:	41 5c                	pop    %r12
  40893b:	5d                   	pop    %rbp
  40893c:	c3                   	retq   
  40893d:	90                   	nop

000000000040893e <_ZNSt6vectorISt4pairISt6threadbESaIS2_EE19_M_emplace_back_auxIJRKSt21piecewise_construct_tSt5tupleIJOZ10run_serveriSt8functionIFviEEEUlvE_EES9_IJObEEEEEvDpOT_>:
  40893e:	55                   	push   %rbp
  40893f:	48 89 e5             	mov    %rsp,%rbp
  408942:	41 55                	push   %r13
  408944:	41 54                	push   %r12
  408946:	53                   	push   %rbx
  408947:	48 83 ec 48          	sub    $0x48,%rsp
  40894b:	48 89 7d b8          	mov    %rdi,-0x48(%rbp)
  40894f:	48 89 75 b0          	mov    %rsi,-0x50(%rbp)
  408953:	48 89 55 a8          	mov    %rdx,-0x58(%rbp)
  408957:	48 89 4d a0          	mov    %rcx,-0x60(%rbp)
  40895b:	48 8b 45 b8          	mov    -0x48(%rbp),%rax
  40895f:	ba a7 df 40 00       	mov    $0x40dfa7,%edx
  408964:	be 01 00 00 00       	mov    $0x1,%esi
  408969:	48 89 c7             	mov    %rax,%rdi
  40896c:	e8 3b 39 00 00       	callq  40c2ac <_ZNKSt6vectorISt4pairISt6threadbESaIS2_EE12_M_check_lenEmPKc>
  408971:	48 89 45 d0          	mov    %rax,-0x30(%rbp)
  408975:	48 8b 45 b8          	mov    -0x48(%rbp),%rax
  408979:	48 8b 55 d0          	mov    -0x30(%rbp),%rdx
  40897d:	48 89 d6             	mov    %rdx,%rsi
  408980:	48 89 c7             	mov    %rax,%rdi
  408983:	e8 10 3a 00 00       	callq  40c398 <_ZNSt12_Vector_baseISt4pairISt6threadbESaIS2_EE11_M_allocateEm>
  408988:	48 89 45 d8          	mov    %rax,-0x28(%rbp)
  40898c:	48 8b 45 d8          	mov    -0x28(%rbp),%rax
  408990:	48 89 45 c8          	mov    %rax,-0x38(%rbp)
  408994:	48 8b 45 a0          	mov    -0x60(%rbp),%rax
  408998:	48 89 c7             	mov    %rax,%rdi
  40899b:	e8 64 25 00 00       	callq  40af04 <_ZSt7forwardISt5tupleIIObEEEOT_RNSt16remove_referenceIS3_E4typeE>
  4089a0:	49 89 c5             	mov    %rax,%r13
  4089a3:	48 8b 45 a8          	mov    -0x58(%rbp),%rax
  4089a7:	48 89 c7             	mov    %rax,%rdi
  4089aa:	e8 fd fd ff ff       	callq  4087ac <_ZSt7forwardISt5tupleIJOZ10run_serveriSt8functionIFviEEEUlvE_EEEOT_RNSt16remove_referenceIS7_E4typeE>
  4089af:	49 89 c4             	mov    %rax,%r12
  4089b2:	48 8b 45 b0          	mov    -0x50(%rbp),%rax
  4089b6:	48 89 c7             	mov    %rax,%rdi
  4089b9:	e8 d3 bf ff ff       	callq  404991 <_ZSt7forwardIRKSt21piecewise_construct_tEOT_RNSt16remove_referenceIS3_E4typeE>
  4089be:	48 89 c3             	mov    %rax,%rbx
  4089c1:	48 8b 45 b8          	mov    -0x48(%rbp),%rax
  4089c5:	48 89 c7             	mov    %rax,%rdi
  4089c8:	e8 ff 39 00 00       	callq  40c3cc <_ZNKSt6vectorISt4pairISt6threadbESaIS2_EE4sizeEv>
  4089cd:	48 c1 e0 04          	shl    $0x4,%rax
  4089d1:	48 89 c2             	mov    %rax,%rdx
  4089d4:	48 8b 45 d8          	mov    -0x28(%rbp),%rax
  4089d8:	48 8d 34 02          	lea    (%rdx,%rax,1),%rsi
  4089dc:	48 8b 45 b8          	mov    -0x48(%rbp),%rax
  4089e0:	4d 89 e8             	mov    %r13,%r8
  4089e3:	4c 89 e1             	mov    %r12,%rcx
  4089e6:	48 89 da             	mov    %rbx,%rdx
  4089e9:	48 89 c7             	mov    %rax,%rdi
  4089ec:	e8 e0 fe ff ff       	callq  4088d1 <_ZNSt16allocator_traitsISaISt4pairISt6threadbEEE9constructIS2_JRKSt21piecewise_construct_tSt5tupleIJOZ10run_serveriSt8functionIFviEEEUlvE_EES9_IJObEEEEEvRS3_PT_DpOT0_>
  4089f1:	48 c7 45 c8 00 00 00 	movq   $0x0,-0x38(%rbp)
  4089f8:	00 
  4089f9:	48 8b 45 b8          	mov    -0x48(%rbp),%rax
  4089fd:	48 89 c7             	mov    %rax,%rdi
  408a00:	e8 45 2c 00 00       	callq  40b64a <_ZNSt12_Vector_baseISt4pairISt6threadbESaIS2_EE19_M_get_Tp_allocatorEv>
  408a05:	48 89 c1             	mov    %rax,%rcx
  408a08:	48 8b 45 b8          	mov    -0x48(%rbp),%rax
  408a0c:	48 8b 70 08          	mov    0x8(%rax),%rsi
  408a10:	48 8b 45 b8          	mov    -0x48(%rbp),%rax
  408a14:	48 8b 00             	mov    (%rax),%rax
  408a17:	48 8b 55 d8          	mov    -0x28(%rbp),%rdx
  408a1b:	48 89 c7             	mov    %rax,%rdi
  408a1e:	e8 cf 39 00 00       	callq  40c3f2 <_ZSt34__uninitialized_move_if_noexcept_aIPSt4pairISt6threadbES3_SaIS2_EET0_T_S6_S5_RT1_>
  408a23:	48 89 45 c8          	mov    %rax,-0x38(%rbp)
  408a27:	48 83 45 c8 10       	addq   $0x10,-0x38(%rbp)
  408a2c:	48 8b 45 b8          	mov    -0x48(%rbp),%rax
  408a30:	48 89 c7             	mov    %rax,%rdi
  408a33:	e8 12 2c 00 00       	callq  40b64a <_ZNSt12_Vector_baseISt4pairISt6threadbESaIS2_EE19_M_get_Tp_allocatorEv>
  408a38:	48 89 c2             	mov    %rax,%rdx
  408a3b:	48 8b 45 b8          	mov    -0x48(%rbp),%rax
  408a3f:	48 8b 48 08          	mov    0x8(%rax),%rcx
  408a43:	48 8b 45 b8          	mov    -0x48(%rbp),%rax
  408a47:	48 8b 00             	mov    (%rax),%rax
  408a4a:	48 89 ce             	mov    %rcx,%rsi
  408a4d:	48 89 c7             	mov    %rax,%rdi
  408a50:	e8 03 2c 00 00       	callq  40b658 <_ZSt8_DestroyIPSt4pairISt6threadbES2_EvT_S4_RSaIT0_E>
  408a55:	48 8b 45 b8          	mov    -0x48(%rbp),%rax
  408a59:	48 8b 40 10          	mov    0x10(%rax),%rax
  408a5d:	48 89 c2             	mov    %rax,%rdx
  408a60:	48 8b 45 b8          	mov    -0x48(%rbp),%rax
  408a64:	48 8b 00             	mov    (%rax),%rax
  408a67:	48 29 c2             	sub    %rax,%rdx
  408a6a:	48 89 d0             	mov    %rdx,%rax
  408a6d:	48 c1 f8 04          	sar    $0x4,%rax
  408a71:	48 89 c2             	mov    %rax,%rdx
  408a74:	48 8b 45 b8          	mov    -0x48(%rbp),%rax
  408a78:	48 8b 08             	mov    (%rax),%rcx
  408a7b:	48 8b 45 b8          	mov    -0x48(%rbp),%rax
  408a7f:	48 89 ce             	mov    %rcx,%rsi
  408a82:	48 89 c7             	mov    %rax,%rdi
  408a85:	e8 c6 37 00 00       	callq  40c250 <_ZNSt12_Vector_baseISt4pairISt6threadbESaIS2_EE13_M_deallocateEPS2_m>
  408a8a:	48 8b 45 b8          	mov    -0x48(%rbp),%rax
  408a8e:	48 8b 55 d8          	mov    -0x28(%rbp),%rdx
  408a92:	48 89 10             	mov    %rdx,(%rax)
  408a95:	48 8b 45 b8          	mov    -0x48(%rbp),%rax
  408a99:	48 8b 55 c8          	mov    -0x38(%rbp),%rdx
  408a9d:	48 89 50 08          	mov    %rdx,0x8(%rax)
  408aa1:	48 8b 45 d0          	mov    -0x30(%rbp),%rax
  408aa5:	48 c1 e0 04          	shl    $0x4,%rax
  408aa9:	48 89 c2             	mov    %rax,%rdx
  408aac:	48 8b 45 d8          	mov    -0x28(%rbp),%rax
  408ab0:	48 01 c2             	add    %rax,%rdx
  408ab3:	48 8b 45 b8          	mov    -0x48(%rbp),%rax
  408ab7:	48 89 50 10          	mov    %rdx,0x10(%rax)
  408abb:	e9 8b 00 00 00       	jmpq   408b4b <_ZNSt6vectorISt4pairISt6threadbESaIS2_EE19_M_emplace_back_auxIJRKSt21piecewise_construct_tSt5tupleIJOZ10run_serveriSt8functionIFviEEEUlvE_EES9_IJObEEEEEvDpOT_+0x20d>
  408ac0:	48 89 c7             	mov    %rax,%rdi
  408ac3:	e8 a8 a0 ff ff       	callq  402b70 <__cxa_begin_catch@plt>
  408ac8:	48 83 7d c8 00       	cmpq   $0x0,-0x38(%rbp)
  408acd:	75 2b                	jne    408afa <_ZNSt6vectorISt4pairISt6threadbESaIS2_EE19_M_emplace_back_auxIJRKSt21piecewise_construct_tSt5tupleIJOZ10run_serveriSt8functionIFviEEEUlvE_EES9_IJObEEEEEvDpOT_+0x1bc>
  408acf:	48 8b 45 b8          	mov    -0x48(%rbp),%rax
  408ad3:	48 89 c7             	mov    %rax,%rdi
  408ad6:	e8 f1 38 00 00       	callq  40c3cc <_ZNKSt6vectorISt4pairISt6threadbESaIS2_EE4sizeEv>
  408adb:	48 c1 e0 04          	shl    $0x4,%rax
  408adf:	48 89 c2             	mov    %rax,%rdx
  408ae2:	48 8b 45 d8          	mov    -0x28(%rbp),%rax
  408ae6:	48 01 c2             	add    %rax,%rdx
  408ae9:	48 8b 45 b8          	mov    -0x48(%rbp),%rax
  408aed:	48 89 d6             	mov    %rdx,%rsi
  408af0:	48 89 c7             	mov    %rax,%rdi
  408af3:	e8 4e 39 00 00       	callq  40c446 <_ZNSt16allocator_traitsISaISt4pairISt6threadbEEE7destroyIS2_EEvRS3_PT_>
  408af8:	eb 22                	jmp    408b1c <_ZNSt6vectorISt4pairISt6threadbESaIS2_EE19_M_emplace_back_auxIJRKSt21piecewise_construct_tSt5tupleIJOZ10run_serveriSt8functionIFviEEEUlvE_EES9_IJObEEEEEvDpOT_+0x1de>
  408afa:	48 8b 45 b8          	mov    -0x48(%rbp),%rax
  408afe:	48 89 c7             	mov    %rax,%rdi
  408b01:	e8 44 2b 00 00       	callq  40b64a <_ZNSt12_Vector_baseISt4pairISt6threadbESaIS2_EE19_M_get_Tp_allocatorEv>
  408b06:	48 89 c2             	mov    %rax,%rdx
  408b09:	48 8b 4d c8          	mov    -0x38(%rbp),%rcx
  408b0d:	48 8b 45 d8          	mov    -0x28(%rbp),%rax
  408b11:	48 89 ce             	mov    %rcx,%rsi
  408b14:	48 89 c7             	mov    %rax,%rdi
  408b17:	e8 3c 2b 00 00       	callq  40b658 <_ZSt8_DestroyIPSt4pairISt6threadbES2_EvT_S4_RSaIT0_E>
  408b1c:	48 8b 45 b8          	mov    -0x48(%rbp),%rax
  408b20:	48 8b 55 d0          	mov    -0x30(%rbp),%rdx
  408b24:	48 8b 4d d8          	mov    -0x28(%rbp),%rcx
  408b28:	48 89 ce             	mov    %rcx,%rsi
  408b2b:	48 89 c7             	mov    %rax,%rdi
  408b2e:	e8 1d 37 00 00       	callq  40c250 <_ZNSt12_Vector_baseISt4pairISt6threadbESaIS2_EE13_M_deallocateEPS2_m>
  408b33:	e8 78 a3 ff ff       	callq  402eb0 <__cxa_rethrow@plt>
  408b38:	48 89 c3             	mov    %rax,%rbx
  408b3b:	e8 f0 a3 ff ff       	callq  402f30 <__cxa_end_catch@plt>
  408b40:	48 89 d8             	mov    %rbx,%rax
  408b43:	48 89 c7             	mov    %rax,%rdi
  408b46:	e8 75 a4 ff ff       	callq  402fc0 <_Unwind_Resume@plt>
  408b4b:	48 83 c4 48          	add    $0x48,%rsp
  408b4f:	5b                   	pop    %rbx
  408b50:	41 5c                	pop    %r12
  408b52:	41 5d                	pop    %r13
  408b54:	5d                   	pop    %rbp
  408b55:	c3                   	retq   

0000000000408b56 <_ZN9__gnu_cxx5__ops11__pred_iterIZ10run_serveriSt8functionIFviEEEUlRKT_E0_EENS0_10_Iter_predIS5_EES5_>:
  408b56:	55                   	push   %rbp
  408b57:	48 89 e5             	mov    %rsp,%rbp
  408b5a:	53                   	push   %rbx
  408b5b:	48 83 ec 18          	sub    $0x18,%rsp
  408b5f:	64 48 8b 04 25 28 00 	mov    %fs:0x28,%rax
  408b66:	00 00 
  408b68:	48 89 45 e8          	mov    %rax,-0x18(%rbp)
  408b6c:	31 c0                	xor    %eax,%eax
  408b6e:	48 8d 45 e7          	lea    -0x19(%rbp),%rax
  408b72:	48 83 ec 08          	sub    $0x8,%rsp
  408b76:	52                   	push   %rdx
  408b77:	48 89 c7             	mov    %rax,%rdi
  408b7a:	e8 23 02 00 00       	callq  408da2 <_ZN9__gnu_cxx5__ops10_Iter_predIZ10run_serveriSt8functionIFviEEEUlRKT_E0_EC1ES8_>
  408b7f:	48 83 c4 10          	add    $0x10,%rsp
  408b83:	89 d8                	mov    %ebx,%eax
  408b85:	48 8b 4d e8          	mov    -0x18(%rbp),%rcx
  408b89:	64 48 33 0c 25 28 00 	xor    %fs:0x28,%rcx
  408b90:	00 00 
  408b92:	74 05                	je     408b99 <_ZN9__gnu_cxx5__ops11__pred_iterIZ10run_serveriSt8functionIFviEEEUlRKT_E0_EENS0_10_Iter_predIS5_EES5_+0x43>
  408b94:	e8 77 a2 ff ff       	callq  402e10 <__stack_chk_fail@plt>
  408b99:	48 8b 5d f8          	mov    -0x8(%rbp),%rbx
  408b9d:	c9                   	leaveq 
  408b9e:	c3                   	retq   

0000000000408b9f <_ZSt11__remove_ifIN9__gnu_cxx17__normal_iteratorIPSt4pairISt6threadbESt6vectorIS4_SaIS4_EEEENS0_5__ops10_Iter_predIZ10run_serveriSt8functionIFviEEEUlRKT_E0_EEESF_SF_SF_T0_>:
  408b9f:	55                   	push   %rbp
  408ba0:	48 89 e5             	mov    %rsp,%rbp
  408ba3:	53                   	push   %rbx
  408ba4:	48 83 ec 38          	sub    $0x38,%rsp
  408ba8:	48 89 7d d0          	mov    %rdi,-0x30(%rbp)
  408bac:	48 89 75 c0          	mov    %rsi,-0x40(%rbp)
  408bb0:	64 48 8b 04 25 28 00 	mov    %fs:0x28,%rax
  408bb7:	00 00 
  408bb9:	48 89 45 e8          	mov    %rax,-0x18(%rbp)
  408bbd:	31 c0                	xor    %eax,%eax
  408bbf:	48 8b 55 c0          	mov    -0x40(%rbp),%rdx
  408bc3:	48 8b 45 d0          	mov    -0x30(%rbp),%rax
  408bc7:	48 83 ec 08          	sub    $0x8,%rsp
  408bcb:	0f b6 4d 10          	movzbl 0x10(%rbp),%ecx
  408bcf:	51                   	push   %rcx
  408bd0:	48 89 d6             	mov    %rdx,%rsi
  408bd3:	48 89 c7             	mov    %rax,%rdi
  408bd6:	e8 d2 01 00 00       	callq  408dad <_ZSt9__find_ifIN9__gnu_cxx17__normal_iteratorIPSt4pairISt6threadbESt6vectorIS4_SaIS4_EEEENS0_5__ops10_Iter_predIZ10run_serveriSt8functionIFviEEEUlRKT_E0_EEESF_SF_SF_T0_>
  408bdb:	48 83 c4 10          	add    $0x10,%rsp
  408bdf:	48 89 45 d0          	mov    %rax,-0x30(%rbp)
  408be3:	48 8d 55 c0          	lea    -0x40(%rbp),%rdx
  408be7:	48 8d 45 d0          	lea    -0x30(%rbp),%rax
  408beb:	48 89 d6             	mov    %rdx,%rsi
  408bee:	48 89 c7             	mov    %rax,%rdi
  408bf1:	e8 76 38 00 00       	callq  40c46c <_ZN9__gnu_cxxeqIPSt4pairISt6threadbESt6vectorIS3_SaIS3_EEEEbRKNS_17__normal_iteratorIT_T0_EESD_>
  408bf6:	84 c0                	test   %al,%al
  408bf8:	74 09                	je     408c03 <_ZSt11__remove_ifIN9__gnu_cxx17__normal_iteratorIPSt4pairISt6threadbESt6vectorIS4_SaIS4_EEEENS0_5__ops10_Iter_predIZ10run_serveriSt8functionIFviEEEUlRKT_E0_EEESF_SF_SF_T0_+0x64>
  408bfa:	48 8b 45 d0          	mov    -0x30(%rbp),%rax
  408bfe:	e9 8e 00 00 00       	jmpq   408c91 <_ZSt11__remove_ifIN9__gnu_cxx17__normal_iteratorIPSt4pairISt6threadbESt6vectorIS4_SaIS4_EEEENS0_5__ops10_Iter_predIZ10run_serveriSt8functionIFviEEEUlRKT_E0_EEESF_SF_SF_T0_+0xf2>
  408c03:	48 8b 45 d0          	mov    -0x30(%rbp),%rax
  408c07:	48 89 45 e0          	mov    %rax,-0x20(%rbp)
  408c0b:	48 8d 45 d0          	lea    -0x30(%rbp),%rax
  408c0f:	48 89 c7             	mov    %rax,%rdi
  408c12:	e8 53 21 00 00       	callq  40ad6a <_ZN9__gnu_cxx17__normal_iteratorIPSt4pairISt6threadbESt6vectorIS3_SaIS3_EEEppEv>
  408c17:	48 8d 55 c0          	lea    -0x40(%rbp),%rdx
  408c1b:	48 8d 45 d0          	lea    -0x30(%rbp),%rax
  408c1f:	48 89 d6             	mov    %rdx,%rsi
  408c22:	48 89 c7             	mov    %rax,%rdi
  408c25:	e8 04 21 00 00       	callq  40ad2e <_ZN9__gnu_cxxneIPSt4pairISt6threadbESt6vectorIS3_SaIS3_EEEEbRKNS_17__normal_iteratorIT_T0_EESD_>
  408c2a:	84 c0                	test   %al,%al
  408c2c:	74 5f                	je     408c8d <_ZSt11__remove_ifIN9__gnu_cxx17__normal_iteratorIPSt4pairISt6threadbESt6vectorIS4_SaIS4_EEEENS0_5__ops10_Iter_predIZ10run_serveriSt8functionIFviEEEUlRKT_E0_EEESF_SF_SF_T0_+0xee>
  408c2e:	48 8b 45 d0          	mov    -0x30(%rbp),%rax
  408c32:	48 89 c6             	mov    %rax,%rsi
  408c35:	48 8d 7d 10          	lea    0x10(%rbp),%rdi
  408c39:	e8 e8 01 00 00       	callq  408e26 <_ZN9__gnu_cxx5__ops10_Iter_predIZ10run_serveriSt8functionIFviEEEUlRKT_E0_EclINS_17__normal_iteratorIPSt4pairISt6threadbESt6vectorISE_SaISE_EEEEEEbS5_>
  408c3e:	83 f0 01             	xor    $0x1,%eax
  408c41:	84 c0                	test   %al,%al
  408c43:	74 3a                	je     408c7f <_ZSt11__remove_ifIN9__gnu_cxx17__normal_iteratorIPSt4pairISt6threadbESt6vectorIS4_SaIS4_EEEENS0_5__ops10_Iter_predIZ10run_serveriSt8functionIFviEEEUlRKT_E0_EEESF_SF_SF_T0_+0xe0>
  408c45:	48 8d 45 d0          	lea    -0x30(%rbp),%rax
  408c49:	48 89 c7             	mov    %rax,%rdi
  408c4c:	e8 39 21 00 00       	callq  40ad8a <_ZNK9__gnu_cxx17__normal_iteratorIPSt4pairISt6threadbESt6vectorIS3_SaIS3_EEEdeEv>
  408c51:	48 89 c7             	mov    %rax,%rdi
  408c54:	e8 55 2a 00 00       	callq  40b6ae <_ZSt4moveIRSt4pairISt6threadbEEONSt16remove_referenceIT_E4typeEOS5_>
  408c59:	48 89 c3             	mov    %rax,%rbx
  408c5c:	48 8d 45 e0          	lea    -0x20(%rbp),%rax
  408c60:	48 89 c7             	mov    %rax,%rdi
  408c63:	e8 22 21 00 00       	callq  40ad8a <_ZNK9__gnu_cxx17__normal_iteratorIPSt4pairISt6threadbESt6vectorIS3_SaIS3_EEEdeEv>
  408c68:	48 89 de             	mov    %rbx,%rsi
  408c6b:	48 89 c7             	mov    %rax,%rdi
  408c6e:	e8 43 38 00 00       	callq  40c4b6 <_ZNSt4pairISt6threadbEaSEOS1_>
  408c73:	48 8d 45 e0          	lea    -0x20(%rbp),%rax
  408c77:	48 89 c7             	mov    %rax,%rdi
  408c7a:	e8 eb 20 00 00       	callq  40ad6a <_ZN9__gnu_cxx17__normal_iteratorIPSt4pairISt6threadbESt6vectorIS3_SaIS3_EEEppEv>
  408c7f:	48 8d 45 d0          	lea    -0x30(%rbp),%rax
  408c83:	48 89 c7             	mov    %rax,%rdi
  408c86:	e8 df 20 00 00       	callq  40ad6a <_ZN9__gnu_cxx17__normal_iteratorIPSt4pairISt6threadbESt6vectorIS3_SaIS3_EEEppEv>
  408c8b:	eb 8a                	jmp    408c17 <_ZSt11__remove_ifIN9__gnu_cxx17__normal_iteratorIPSt4pairISt6threadbESt6vectorIS4_SaIS4_EEEENS0_5__ops10_Iter_predIZ10run_serveriSt8functionIFviEEEUlRKT_E0_EEESF_SF_SF_T0_+0x78>
  408c8d:	48 8b 45 e0          	mov    -0x20(%rbp),%rax
  408c91:	48 8b 4d e8          	mov    -0x18(%rbp),%rcx
  408c95:	64 48 33 0c 25 28 00 	xor    %fs:0x28,%rcx
  408c9c:	00 00 
  408c9e:	74 05                	je     408ca5 <_ZSt11__remove_ifIN9__gnu_cxx17__normal_iteratorIPSt4pairISt6threadbESt6vectorIS4_SaIS4_EEEENS0_5__ops10_Iter_predIZ10run_serveriSt8functionIFviEEEUlRKT_E0_EEESF_SF_SF_T0_+0x106>
  408ca0:	e8 6b a1 ff ff       	callq  402e10 <__stack_chk_fail@plt>
  408ca5:	48 8b 5d f8          	mov    -0x8(%rbp),%rbx
  408ca9:	c9                   	leaveq 
  408caa:	c3                   	retq   
  408cab:	90                   	nop

0000000000408cac <_ZN9__gnu_cxx13new_allocatorISt4pairISt6threadbEE9constructIS3_JRKSt21piecewise_construct_tSt5tupleIJOZ10run_serveriSt8functionIFviEEEUlvE_EES9_IJObEEEEEvPT_DpOT0_>:
  408cac:	55                   	push   %rbp
  408cad:	48 89 e5             	mov    %rsp,%rbp
  408cb0:	41 56                	push   %r14
  408cb2:	41 55                	push   %r13
  408cb4:	41 54                	push   %r12
  408cb6:	53                   	push   %rbx
  408cb7:	48 83 ec 60          	sub    $0x60,%rsp
  408cbb:	48 89 7d a8          	mov    %rdi,-0x58(%rbp)
  408cbf:	48 89 75 a0          	mov    %rsi,-0x60(%rbp)
  408cc3:	48 89 55 98          	mov    %rdx,-0x68(%rbp)
  408cc7:	48 89 4d 90          	mov    %rcx,-0x70(%rbp)
  408ccb:	4c 89 45 88          	mov    %r8,-0x78(%rbp)
  408ccf:	64 48 8b 04 25 28 00 	mov    %fs:0x28,%rax
  408cd6:	00 00 
  408cd8:	48 89 45 d8          	mov    %rax,-0x28(%rbp)
  408cdc:	31 c0                	xor    %eax,%eax
  408cde:	48 8b 45 98          	mov    -0x68(%rbp),%rax
  408ce2:	48 89 c7             	mov    %rax,%rdi
  408ce5:	e8 a7 bc ff ff       	callq  404991 <_ZSt7forwardIRKSt21piecewise_construct_tEOT_RNSt16remove_referenceIS3_E4typeE>
  408cea:	88 5d bf             	mov    %bl,-0x41(%rbp)
  408ced:	48 8b 45 90          	mov    -0x70(%rbp),%rax
  408cf1:	48 89 c7             	mov    %rax,%rdi
  408cf4:	e8 b3 fa ff ff       	callq  4087ac <_ZSt7forwardISt5tupleIJOZ10run_serveriSt8functionIFviEEEUlvE_EEEOT_RNSt16remove_referenceIS7_E4typeE>
  408cf9:	48 89 c2             	mov    %rax,%rdx
  408cfc:	48 8d 45 c0          	lea    -0x40(%rbp),%rax
  408d00:	48 89 d6             	mov    %rdx,%rsi
  408d03:	48 89 c7             	mov    %rax,%rdi
  408d06:	e8 47 fa ff ff       	callq  408752 <_ZNSt5tupleIJOZ10run_serveriSt8functionIFviEEEUlvE_EEC1EOS5_>
  408d0b:	4c 8d 6d c0          	lea    -0x40(%rbp),%r13
  408d0f:	48 8b 45 88          	mov    -0x78(%rbp),%rax
  408d13:	48 89 c7             	mov    %rax,%rdi
  408d16:	e8 e9 21 00 00       	callq  40af04 <_ZSt7forwardISt5tupleIIObEEEOT_RNSt16remove_referenceIS3_E4typeE>
  408d1b:	48 89 c2             	mov    %rax,%rdx
  408d1e:	48 8d 45 d0          	lea    -0x30(%rbp),%rax
  408d22:	48 89 d6             	mov    %rdx,%rsi
  408d25:	48 89 c7             	mov    %rax,%rdi
  408d28:	e8 7d 21 00 00       	callq  40aeaa <_ZNSt5tupleIIObEEC1EOS1_>
  408d2d:	4c 8d 75 d0          	lea    -0x30(%rbp),%r14
  408d31:	4c 8b 65 a0          	mov    -0x60(%rbp),%r12
  408d35:	4c 89 e6             	mov    %r12,%rsi
  408d38:	bf 10 00 00 00       	mov    $0x10,%edi
  408d3d:	e8 27 af ff ff       	callq  403c69 <_ZnwmPv>
  408d42:	48 89 c3             	mov    %rax,%rbx
  408d45:	48 85 db             	test   %rbx,%rbx
  408d48:	74 36                	je     408d80 <_ZN9__gnu_cxx13new_allocatorISt4pairISt6threadbEE9constructIS3_JRKSt21piecewise_construct_tSt5tupleIJOZ10run_serveriSt8functionIFviEEEUlvE_EES9_IJObEEEEEvPT_DpOT0_+0xd4>
  408d4a:	48 83 ec 08          	sub    $0x8,%rsp
  408d4e:	0f b6 45 bf          	movzbl -0x41(%rbp),%eax
  408d52:	50                   	push   %rax
  408d53:	4c 89 f2             	mov    %r14,%rdx
  408d56:	4c 89 ee             	mov    %r13,%rsi
  408d59:	48 89 df             	mov    %rbx,%rdi
  408d5c:	e8 f5 00 00 00       	callq  408e56 <_ZNSt4pairISt6threadbEC1IJOZ10run_serveriSt8functionIFviEEEUlvE_EJObEEESt21piecewise_construct_tSt5tupleIJDpT_EESA_IJDpT0_EE>
  408d61:	48 83 c4 10          	add    $0x10,%rsp
  408d65:	eb 19                	jmp    408d80 <_ZN9__gnu_cxx13new_allocatorISt4pairISt6threadbEE9constructIS3_JRKSt21piecewise_construct_tSt5tupleIJOZ10run_serveriSt8functionIFviEEEUlvE_EES9_IJObEEEEEvPT_DpOT0_+0xd4>
  408d67:	49 89 c5             	mov    %rax,%r13
  408d6a:	4c 89 e6             	mov    %r12,%rsi
  408d6d:	48 89 df             	mov    %rbx,%rdi
  408d70:	e8 06 af ff ff       	callq  403c7b <_ZdlPvS_>
  408d75:	4c 89 e8             	mov    %r13,%rax
  408d78:	48 89 c7             	mov    %rax,%rdi
  408d7b:	e8 40 a2 ff ff       	callq  402fc0 <_Unwind_Resume@plt>
  408d80:	90                   	nop
  408d81:	48 8b 45 d8          	mov    -0x28(%rbp),%rax
  408d85:	64 48 33 04 25 28 00 	xor    %fs:0x28,%rax
  408d8c:	00 00 
  408d8e:	74 05                	je     408d95 <_ZN9__gnu_cxx13new_allocatorISt4pairISt6threadbEE9constructIS3_JRKSt21piecewise_construct_tSt5tupleIJOZ10run_serveriSt8functionIFviEEEUlvE_EES9_IJObEEEEEvPT_DpOT0_+0xe9>
  408d90:	e8 7b a0 ff ff       	callq  402e10 <__stack_chk_fail@plt>
  408d95:	48 8d 65 e0          	lea    -0x20(%rbp),%rsp
  408d99:	5b                   	pop    %rbx
  408d9a:	41 5c                	pop    %r12
  408d9c:	41 5d                	pop    %r13
  408d9e:	41 5e                	pop    %r14
  408da0:	5d                   	pop    %rbp
  408da1:	c3                   	retq   

0000000000408da2 <_ZN9__gnu_cxx5__ops10_Iter_predIZ10run_serveriSt8functionIFviEEEUlRKT_E0_EC1ES8_>:
  408da2:	55                   	push   %rbp
  408da3:	48 89 e5             	mov    %rsp,%rbp
  408da6:	48 89 7d f8          	mov    %rdi,-0x8(%rbp)
  408daa:	90                   	nop
  408dab:	5d                   	pop    %rbp
  408dac:	c3                   	retq   

0000000000408dad <_ZSt9__find_ifIN9__gnu_cxx17__normal_iteratorIPSt4pairISt6threadbESt6vectorIS4_SaIS4_EEEENS0_5__ops10_Iter_predIZ10run_serveriSt8functionIFviEEEUlRKT_E0_EEESF_SF_SF_T0_>:
  408dad:	55                   	push   %rbp
  408dae:	48 89 e5             	mov    %rsp,%rbp
  408db1:	53                   	push   %rbx
  408db2:	48 83 ec 38          	sub    $0x38,%rsp
  408db6:	48 89 7d d0          	mov    %rdi,-0x30(%rbp)
  408dba:	48 89 75 c0          	mov    %rsi,-0x40(%rbp)
  408dbe:	64 48 8b 04 25 28 00 	mov    %fs:0x28,%rax
  408dc5:	00 00 
  408dc7:	48 89 45 e8          	mov    %rax,-0x18(%rbp)
  408dcb:	31 c0                	xor    %eax,%eax
  408dcd:	48 8d 45 d0          	lea    -0x30(%rbp),%rax
  408dd1:	48 89 c7             	mov    %rax,%rdi
  408dd4:	e8 c8 3e 00 00       	callq  40cca1 <_ZSt19__iterator_categoryIN9__gnu_cxx17__normal_iteratorIPSt4pairISt6threadbESt6vectorIS4_SaIS4_EEEEENSt15iterator_traitsIT_E17iterator_categoryERKSB_>
  408dd9:	48 8b 55 c0          	mov    -0x40(%rbp),%rdx
  408ddd:	48 8b 45 d0          	mov    -0x30(%rbp),%rax
  408de1:	53                   	push   %rbx
  408de2:	0f b6 4d 10          	movzbl 0x10(%rbp),%ecx
  408de6:	51                   	push   %rcx
  408de7:	48 89 d6             	mov    %rdx,%rsi
  408dea:	48 89 c7             	mov    %rax,%rdi
  408ded:	e8 bd 00 00 00       	callq  408eaf <_ZSt9__find_ifIN9__gnu_cxx17__normal_iteratorIPSt4pairISt6threadbESt6vectorIS4_SaIS4_EEEENS0_5__ops10_Iter_predIZ10run_serveriSt8functionIFviEEEUlRKT_E0_EEESF_SF_SF_T0_St26random_access_iterator_tag>
  408df2:	48 83 c4 10          	add    $0x10,%rsp
  408df6:	48 8b 5d e8          	mov    -0x18(%rbp),%rbx
  408dfa:	64 48 33 1c 25 28 00 	xor    %fs:0x28,%rbx
  408e01:	00 00 
  408e03:	74 05                	je     408e0a <_ZSt9__find_ifIN9__gnu_cxx17__normal_iteratorIPSt4pairISt6threadbESt6vectorIS4_SaIS4_EEEENS0_5__ops10_Iter_predIZ10run_serveriSt8functionIFviEEEUlRKT_E0_EEESF_SF_SF_T0_+0x5d>
  408e05:	e8 06 a0 ff ff       	callq  402e10 <__stack_chk_fail@plt>
  408e0a:	48 8b 5d f8          	mov    -0x8(%rbp),%rbx
  408e0e:	c9                   	leaveq 
  408e0f:	c3                   	retq   

0000000000408e10 <_ZZ10run_serveriSt8functionIFviEEENKUlRKT_E0_clISt4pairISt6threadbEEEDaS4_>:
  408e10:	55                   	push   %rbp
  408e11:	48 89 e5             	mov    %rsp,%rbp
  408e14:	48 89 7d f8          	mov    %rdi,-0x8(%rbp)
  408e18:	48 89 75 f0          	mov    %rsi,-0x10(%rbp)
  408e1c:	48 8b 45 f0          	mov    -0x10(%rbp),%rax
  408e20:	0f b6 40 08          	movzbl 0x8(%rax),%eax
  408e24:	5d                   	pop    %rbp
  408e25:	c3                   	retq   

0000000000408e26 <_ZN9__gnu_cxx5__ops10_Iter_predIZ10run_serveriSt8functionIFviEEEUlRKT_E0_EclINS_17__normal_iteratorIPSt4pairISt6threadbESt6vectorISE_SaISE_EEEEEEbS5_>:
  408e26:	55                   	push   %rbp
  408e27:	48 89 e5             	mov    %rsp,%rbp
  408e2a:	48 83 ec 10          	sub    $0x10,%rsp
  408e2e:	48 89 7d f8          	mov    %rdi,-0x8(%rbp)
  408e32:	48 89 75 f0          	mov    %rsi,-0x10(%rbp)
  408e36:	48 8d 45 f0          	lea    -0x10(%rbp),%rax
  408e3a:	48 89 c7             	mov    %rax,%rdi
  408e3d:	e8 48 1f 00 00       	callq  40ad8a <_ZNK9__gnu_cxx17__normal_iteratorIPSt4pairISt6threadbESt6vectorIS3_SaIS3_EEEdeEv>
  408e42:	48 89 c2             	mov    %rax,%rdx
  408e45:	48 8b 45 f8          	mov    -0x8(%rbp),%rax
  408e49:	48 89 d6             	mov    %rdx,%rsi
  408e4c:	48 89 c7             	mov    %rax,%rdi
  408e4f:	e8 bc ff ff ff       	callq  408e10 <_ZZ10run_serveriSt8functionIFviEEENKUlRKT_E0_clISt4pairISt6threadbEEEDaS4_>
  408e54:	c9                   	leaveq 
  408e55:	c3                   	retq   

0000000000408e56 <_ZNSt4pairISt6threadbEC1IJOZ10run_serveriSt8functionIFviEEEUlvE_EJObEEESt21piecewise_construct_tSt5tupleIJDpT_EESA_IJDpT0_EE>:
  408e56:	55                   	push   %rbp
  408e57:	48 89 e5             	mov    %rsp,%rbp
  408e5a:	48 83 ec 30          	sub    $0x30,%rsp
  408e5e:	48 89 7d e8          	mov    %rdi,-0x18(%rbp)
  408e62:	48 89 75 e0          	mov    %rsi,-0x20(%rbp)
  408e66:	48 89 55 d8          	mov    %rdx,-0x28(%rbp)
  408e6a:	64 48 8b 04 25 28 00 	mov    %fs:0x28,%rax
  408e71:	00 00 
  408e73:	48 89 45 f8          	mov    %rax,-0x8(%rbp)
  408e77:	31 c0                	xor    %eax,%eax
  408e79:	48 8b 55 d8          	mov    -0x28(%rbp),%rdx
  408e7d:	48 8b 4d e0          	mov    -0x20(%rbp),%rcx
  408e81:	48 8b 45 e8          	mov    -0x18(%rbp),%rax
  408e85:	41 51                	push   %r9
  408e87:	41 50                	push   %r8
  408e89:	48 89 ce             	mov    %rcx,%rsi
  408e8c:	48 89 c7             	mov    %rax,%rdi
  408e8f:	e8 d2 01 00 00       	callq  409066 <_ZNSt4pairISt6threadbEC1IJOZ10run_serveriSt8functionIFviEEEUlvE_EJLm0EEJObEJLm0EEEERSt5tupleIJDpT_EERS9_IJDpT1_EESt12_Index_tupleIJXspT0_EEESI_IJXspT2_EEE>
  408e94:	48 83 c4 10          	add    $0x10,%rsp
  408e98:	90                   	nop
  408e99:	48 8b 45 f8          	mov    -0x8(%rbp),%rax
  408e9d:	64 48 33 04 25 28 00 	xor    %fs:0x28,%rax
  408ea4:	00 00 
  408ea6:	74 05                	je     408ead <_ZNSt4pairISt6threadbEC1IJOZ10run_serveriSt8functionIFviEEEUlvE_EJObEEESt21piecewise_construct_tSt5tupleIJDpT_EESA_IJDpT0_EE+0x57>
  408ea8:	e8 63 9f ff ff       	callq  402e10 <__stack_chk_fail@plt>
  408ead:	c9                   	leaveq 
  408eae:	c3                   	retq   

0000000000408eaf <_ZSt9__find_ifIN9__gnu_cxx17__normal_iteratorIPSt4pairISt6threadbESt6vectorIS4_SaIS4_EEEENS0_5__ops10_Iter_predIZ10run_serveriSt8functionIFviEEEUlRKT_E0_EEESF_SF_SF_T0_St26random_access_iterator_tag>:
  408eaf:	55                   	push   %rbp
  408eb0:	48 89 e5             	mov    %rsp,%rbp
  408eb3:	48 83 ec 30          	sub    $0x30,%rsp
  408eb7:	48 89 7d e0          	mov    %rdi,-0x20(%rbp)
  408ebb:	48 89 75 d0          	mov    %rsi,-0x30(%rbp)
  408ebf:	48 8d 55 e0          	lea    -0x20(%rbp),%rdx
  408ec3:	48 8d 45 d0          	lea    -0x30(%rbp),%rax
  408ec7:	48 89 d6             	mov    %rdx,%rsi
  408eca:	48 89 c7             	mov    %rax,%rdi
  408ecd:	e8 ef 36 00 00       	callq  40c5c1 <_ZN9__gnu_cxxmiIPSt4pairISt6threadbESt6vectorIS3_SaIS3_EEEENS_17__normal_iteratorIT_T0_E15difference_typeERKSB_SE_>
  408ed2:	48 c1 f8 02          	sar    $0x2,%rax
  408ed6:	48 89 45 f8          	mov    %rax,-0x8(%rbp)
  408eda:	48 83 7d f8 00       	cmpq   $0x0,-0x8(%rbp)
  408edf:	0f 8e ae 00 00 00    	jle    408f93 <_ZSt9__find_ifIN9__gnu_cxx17__normal_iteratorIPSt4pairISt6threadbESt6vectorIS4_SaIS4_EEEENS0_5__ops10_Iter_predIZ10run_serveriSt8functionIFviEEEUlRKT_E0_EEESF_SF_SF_T0_St26random_access_iterator_tag+0xe4>
  408ee5:	48 8b 45 e0          	mov    -0x20(%rbp),%rax
  408ee9:	48 89 c6             	mov    %rax,%rsi
  408eec:	48 8d 7d 10          	lea    0x10(%rbp),%rdi
  408ef0:	e8 31 ff ff ff       	callq  408e26 <_ZN9__gnu_cxx5__ops10_Iter_predIZ10run_serveriSt8functionIFviEEEUlRKT_E0_EclINS_17__normal_iteratorIPSt4pairISt6threadbESt6vectorISE_SaISE_EEEEEEbS5_>
  408ef5:	84 c0                	test   %al,%al
  408ef7:	74 09                	je     408f02 <_ZSt9__find_ifIN9__gnu_cxx17__normal_iteratorIPSt4pairISt6threadbESt6vectorIS4_SaIS4_EEEENS0_5__ops10_Iter_predIZ10run_serveriSt8functionIFviEEEUlRKT_E0_EEESF_SF_SF_T0_St26random_access_iterator_tag+0x53>
  408ef9:	48 8b 45 e0          	mov    -0x20(%rbp),%rax
  408efd:	e9 2e 01 00 00       	jmpq   409030 <_ZSt9__find_ifIN9__gnu_cxx17__normal_iteratorIPSt4pairISt6threadbESt6vectorIS4_SaIS4_EEEENS0_5__ops10_Iter_predIZ10run_serveriSt8functionIFviEEEUlRKT_E0_EEESF_SF_SF_T0_St26random_access_iterator_tag+0x181>
  408f02:	48 8d 45 e0          	lea    -0x20(%rbp),%rax
  408f06:	48 89 c7             	mov    %rax,%rdi
  408f09:	e8 5c 1e 00 00       	callq  40ad6a <_ZN9__gnu_cxx17__normal_iteratorIPSt4pairISt6threadbESt6vectorIS3_SaIS3_EEEppEv>
  408f0e:	48 8b 45 e0          	mov    -0x20(%rbp),%rax
  408f12:	48 89 c6             	mov    %rax,%rsi
  408f15:	48 8d 7d 10          	lea    0x10(%rbp),%rdi
  408f19:	e8 08 ff ff ff       	callq  408e26 <_ZN9__gnu_cxx5__ops10_Iter_predIZ10run_serveriSt8functionIFviEEEUlRKT_E0_EclINS_17__normal_iteratorIPSt4pairISt6threadbESt6vectorISE_SaISE_EEEEEEbS5_>
  408f1e:	84 c0                	test   %al,%al
  408f20:	74 09                	je     408f2b <_ZSt9__find_ifIN9__gnu_cxx17__normal_iteratorIPSt4pairISt6threadbESt6vectorIS4_SaIS4_EEEENS0_5__ops10_Iter_predIZ10run_serveriSt8functionIFviEEEUlRKT_E0_EEESF_SF_SF_T0_St26random_access_iterator_tag+0x7c>
  408f22:	48 8b 45 e0          	mov    -0x20(%rbp),%rax
  408f26:	e9 05 01 00 00       	jmpq   409030 <_ZSt9__find_ifIN9__gnu_cxx17__normal_iteratorIPSt4pairISt6threadbESt6vectorIS4_SaIS4_EEEENS0_5__ops10_Iter_predIZ10run_serveriSt8functionIFviEEEUlRKT_E0_EEESF_SF_SF_T0_St26random_access_iterator_tag+0x181>
  408f2b:	48 8d 45 e0          	lea    -0x20(%rbp),%rax
  408f2f:	48 89 c7             	mov    %rax,%rdi
  408f32:	e8 33 1e 00 00       	callq  40ad6a <_ZN9__gnu_cxx17__normal_iteratorIPSt4pairISt6threadbESt6vectorIS3_SaIS3_EEEppEv>
  408f37:	48 8b 45 e0          	mov    -0x20(%rbp),%rax
  408f3b:	48 89 c6             	mov    %rax,%rsi
  408f3e:	48 8d 7d 10          	lea    0x10(%rbp),%rdi
  408f42:	e8 df fe ff ff       	callq  408e26 <_ZN9__gnu_cxx5__ops10_Iter_predIZ10run_serveriSt8functionIFviEEEUlRKT_E0_EclINS_17__normal_iteratorIPSt4pairISt6threadbESt6vectorISE_SaISE_EEEEEEbS5_>
  408f47:	84 c0                	test   %al,%al
  408f49:	74 09                	je     408f54 <_ZSt9__find_ifIN9__gnu_cxx17__normal_iteratorIPSt4pairISt6threadbESt6vectorIS4_SaIS4_EEEENS0_5__ops10_Iter_predIZ10run_serveriSt8functionIFviEEEUlRKT_E0_EEESF_SF_SF_T0_St26random_access_iterator_tag+0xa5>
  408f4b:	48 8b 45 e0          	mov    -0x20(%rbp),%rax
  408f4f:	e9 dc 00 00 00       	jmpq   409030 <_ZSt9__find_ifIN9__gnu_cxx17__normal_iteratorIPSt4pairISt6threadbESt6vectorIS4_SaIS4_EEEENS0_5__ops10_Iter_predIZ10run_serveriSt8functionIFviEEEUlRKT_E0_EEESF_SF_SF_T0_St26random_access_iterator_tag+0x181>
  408f54:	48 8d 45 e0          	lea    -0x20(%rbp),%rax
  408f58:	48 89 c7             	mov    %rax,%rdi
  408f5b:	e8 0a 1e 00 00       	callq  40ad6a <_ZN9__gnu_cxx17__normal_iteratorIPSt4pairISt6threadbESt6vectorIS3_SaIS3_EEEppEv>
  408f60:	48 8b 45 e0          	mov    -0x20(%rbp),%rax
  408f64:	48 89 c6             	mov    %rax,%rsi
  408f67:	48 8d 7d 10          	lea    0x10(%rbp),%rdi
  408f6b:	e8 b6 fe ff ff       	callq  408e26 <_ZN9__gnu_cxx5__ops10_Iter_predIZ10run_serveriSt8functionIFviEEEUlRKT_E0_EclINS_17__normal_iteratorIPSt4pairISt6threadbESt6vectorISE_SaISE_EEEEEEbS5_>
  408f70:	84 c0                	test   %al,%al
  408f72:	74 09                	je     408f7d <_ZSt9__find_ifIN9__gnu_cxx17__normal_iteratorIPSt4pairISt6threadbESt6vectorIS4_SaIS4_EEEENS0_5__ops10_Iter_predIZ10run_serveriSt8functionIFviEEEUlRKT_E0_EEESF_SF_SF_T0_St26random_access_iterator_tag+0xce>
  408f74:	48 8b 45 e0          	mov    -0x20(%rbp),%rax
  408f78:	e9 b3 00 00 00       	jmpq   409030 <_ZSt9__find_ifIN9__gnu_cxx17__normal_iteratorIPSt4pairISt6threadbESt6vectorIS4_SaIS4_EEEENS0_5__ops10_Iter_predIZ10run_serveriSt8functionIFviEEEUlRKT_E0_EEESF_SF_SF_T0_St26random_access_iterator_tag+0x181>
  408f7d:	48 8d 45 e0          	lea    -0x20(%rbp),%rax
  408f81:	48 89 c7             	mov    %rax,%rdi
  408f84:	e8 e1 1d 00 00       	callq  40ad6a <_ZN9__gnu_cxx17__normal_iteratorIPSt4pairISt6threadbESt6vectorIS3_SaIS3_EEEppEv>
  408f89:	48 83 6d f8 01       	subq   $0x1,-0x8(%rbp)
  408f8e:	e9 47 ff ff ff       	jmpq   408eda <_ZSt9__find_ifIN9__gnu_cxx17__normal_iteratorIPSt4pairISt6threadbESt6vectorIS4_SaIS4_EEEENS0_5__ops10_Iter_predIZ10run_serveriSt8functionIFviEEEUlRKT_E0_EEESF_SF_SF_T0_St26random_access_iterator_tag+0x2b>
  408f93:	48 8d 55 e0          	lea    -0x20(%rbp),%rdx
  408f97:	48 8d 45 d0          	lea    -0x30(%rbp),%rax
  408f9b:	48 89 d6             	mov    %rdx,%rsi
  408f9e:	48 89 c7             	mov    %rax,%rdi
  408fa1:	e8 1b 36 00 00       	callq  40c5c1 <_ZN9__gnu_cxxmiIPSt4pairISt6threadbESt6vectorIS3_SaIS3_EEEENS_17__normal_iteratorIT_T0_E15difference_typeERKSB_SE_>
  408fa6:	48 83 f8 02          	cmp    $0x2,%rax
  408faa:	74 34                	je     408fe0 <_ZSt9__find_ifIN9__gnu_cxx17__normal_iteratorIPSt4pairISt6threadbESt6vectorIS4_SaIS4_EEEENS0_5__ops10_Iter_predIZ10run_serveriSt8functionIFviEEEUlRKT_E0_EEESF_SF_SF_T0_St26random_access_iterator_tag+0x131>
  408fac:	48 83 f8 03          	cmp    $0x3,%rax
  408fb0:	74 08                	je     408fba <_ZSt9__find_ifIN9__gnu_cxx17__normal_iteratorIPSt4pairISt6threadbESt6vectorIS4_SaIS4_EEEENS0_5__ops10_Iter_predIZ10run_serveriSt8functionIFviEEEUlRKT_E0_EEESF_SF_SF_T0_St26random_access_iterator_tag+0x10b>
  408fb2:	48 83 f8 01          	cmp    $0x1,%rax
  408fb6:	74 4e                	je     409006 <_ZSt9__find_ifIN9__gnu_cxx17__normal_iteratorIPSt4pairISt6threadbESt6vectorIS4_SaIS4_EEEENS0_5__ops10_Iter_predIZ10run_serveriSt8functionIFviEEEUlRKT_E0_EEESF_SF_SF_T0_St26random_access_iterator_tag+0x157>
  408fb8:	eb 72                	jmp    40902c <_ZSt9__find_ifIN9__gnu_cxx17__normal_iteratorIPSt4pairISt6threadbESt6vectorIS4_SaIS4_EEEENS0_5__ops10_Iter_predIZ10run_serveriSt8functionIFviEEEUlRKT_E0_EEESF_SF_SF_T0_St26random_access_iterator_tag+0x17d>
  408fba:	48 8b 45 e0          	mov    -0x20(%rbp),%rax
  408fbe:	48 89 c6             	mov    %rax,%rsi
  408fc1:	48 8d 7d 10          	lea    0x10(%rbp),%rdi
  408fc5:	e8 5c fe ff ff       	callq  408e26 <_ZN9__gnu_cxx5__ops10_Iter_predIZ10run_serveriSt8functionIFviEEEUlRKT_E0_EclINS_17__normal_iteratorIPSt4pairISt6threadbESt6vectorISE_SaISE_EEEEEEbS5_>
  408fca:	84 c0                	test   %al,%al
  408fcc:	74 06                	je     408fd4 <_ZSt9__find_ifIN9__gnu_cxx17__normal_iteratorIPSt4pairISt6threadbESt6vectorIS4_SaIS4_EEEENS0_5__ops10_Iter_predIZ10run_serveriSt8functionIFviEEEUlRKT_E0_EEESF_SF_SF_T0_St26random_access_iterator_tag+0x125>
  408fce:	48 8b 45 e0          	mov    -0x20(%rbp),%rax
  408fd2:	eb 5c                	jmp    409030 <_ZSt9__find_ifIN9__gnu_cxx17__normal_iteratorIPSt4pairISt6threadbESt6vectorIS4_SaIS4_EEEENS0_5__ops10_Iter_predIZ10run_serveriSt8functionIFviEEEUlRKT_E0_EEESF_SF_SF_T0_St26random_access_iterator_tag+0x181>
  408fd4:	48 8d 45 e0          	lea    -0x20(%rbp),%rax
  408fd8:	48 89 c7             	mov    %rax,%rdi
  408fdb:	e8 8a 1d 00 00       	callq  40ad6a <_ZN9__gnu_cxx17__normal_iteratorIPSt4pairISt6threadbESt6vectorIS3_SaIS3_EEEppEv>
  408fe0:	48 8b 45 e0          	mov    -0x20(%rbp),%rax
  408fe4:	48 89 c6             	mov    %rax,%rsi
  408fe7:	48 8d 7d 10          	lea    0x10(%rbp),%rdi
  408feb:	e8 36 fe ff ff       	callq  408e26 <_ZN9__gnu_cxx5__ops10_Iter_predIZ10run_serveriSt8functionIFviEEEUlRKT_E0_EclINS_17__normal_iteratorIPSt4pairISt6threadbESt6vectorISE_SaISE_EEEEEEbS5_>
  408ff0:	84 c0                	test   %al,%al
  408ff2:	74 06                	je     408ffa <_ZSt9__find_ifIN9__gnu_cxx17__normal_iteratorIPSt4pairISt6threadbESt6vectorIS4_SaIS4_EEEENS0_5__ops10_Iter_predIZ10run_serveriSt8functionIFviEEEUlRKT_E0_EEESF_SF_SF_T0_St26random_access_iterator_tag+0x14b>
  408ff4:	48 8b 45 e0          	mov    -0x20(%rbp),%rax
  408ff8:	eb 36                	jmp    409030 <_ZSt9__find_ifIN9__gnu_cxx17__normal_iteratorIPSt4pairISt6threadbESt6vectorIS4_SaIS4_EEEENS0_5__ops10_Iter_predIZ10run_serveriSt8functionIFviEEEUlRKT_E0_EEESF_SF_SF_T0_St26random_access_iterator_tag+0x181>
  408ffa:	48 8d 45 e0          	lea    -0x20(%rbp),%rax
  408ffe:	48 89 c7             	mov    %rax,%rdi
  409001:	e8 64 1d 00 00       	callq  40ad6a <_ZN9__gnu_cxx17__normal_iteratorIPSt4pairISt6threadbESt6vectorIS3_SaIS3_EEEppEv>
  409006:	48 8b 45 e0          	mov    -0x20(%rbp),%rax
  40900a:	48 89 c6             	mov    %rax,%rsi
  40900d:	48 8d 7d 10          	lea    0x10(%rbp),%rdi
  409011:	e8 10 fe ff ff       	callq  408e26 <_ZN9__gnu_cxx5__ops10_Iter_predIZ10run_serveriSt8functionIFviEEEUlRKT_E0_EclINS_17__normal_iteratorIPSt4pairISt6threadbESt6vectorISE_SaISE_EEEEEEbS5_>
  409016:	84 c0                	test   %al,%al
  409018:	74 06                	je     409020 <_ZSt9__find_ifIN9__gnu_cxx17__normal_iteratorIPSt4pairISt6threadbESt6vectorIS4_SaIS4_EEEENS0_5__ops10_Iter_predIZ10run_serveriSt8functionIFviEEEUlRKT_E0_EEESF_SF_SF_T0_St26random_access_iterator_tag+0x171>
  40901a:	48 8b 45 e0          	mov    -0x20(%rbp),%rax
  40901e:	eb 10                	jmp    409030 <_ZSt9__find_ifIN9__gnu_cxx17__normal_iteratorIPSt4pairISt6threadbESt6vectorIS4_SaIS4_EEEENS0_5__ops10_Iter_predIZ10run_serveriSt8functionIFviEEEUlRKT_E0_EEESF_SF_SF_T0_St26random_access_iterator_tag+0x181>
  409020:	48 8d 45 e0          	lea    -0x20(%rbp),%rax
  409024:	48 89 c7             	mov    %rax,%rdi
  409027:	e8 3e 1d 00 00       	callq  40ad6a <_ZN9__gnu_cxx17__normal_iteratorIPSt4pairISt6threadbESt6vectorIS3_SaIS3_EEEppEv>
  40902c:	48 8b 45 d0          	mov    -0x30(%rbp),%rax
  409030:	c9                   	leaveq 
  409031:	c3                   	retq   

0000000000409032 <_ZSt12__get_helperILm0EOZ10run_serveriSt8functionIFviEEEUlvE_JEERT0_RSt11_Tuple_implIXT_EJS5_DpT1_EE>:
  409032:	55                   	push   %rbp
  409033:	48 89 e5             	mov    %rsp,%rbp
  409036:	48 83 ec 08          	sub    $0x8,%rsp
  40903a:	48 89 7d f8          	mov    %rdi,-0x8(%rbp)
  40903e:	48 8b 45 f8          	mov    -0x8(%rbp),%rax
  409042:	48 89 c7             	mov    %rax,%rdi
  409045:	e8 a6 f6 ff ff       	callq  4086f0 <_ZNSt11_Tuple_implILm0EJOZ10run_serveriSt8functionIFviEEEUlvE_EE7_M_headERS5_>
  40904a:	c9                   	leaveq 
  40904b:	c3                   	retq   

000000000040904c <_ZSt3getILm0EJOZ10run_serveriSt8functionIFviEEEUlvE_EERNSt13tuple_elementIXT_ESt5tupleIJDpT0_EEE4typeERS9_>:
  40904c:	55                   	push   %rbp
  40904d:	48 89 e5             	mov    %rsp,%rbp
  409050:	48 83 ec 08          	sub    $0x8,%rsp
  409054:	48 89 7d f8          	mov    %rdi,-0x8(%rbp)
  409058:	48 8b 45 f8          	mov    -0x8(%rbp),%rax
  40905c:	48 89 c7             	mov    %rax,%rdi
  40905f:	e8 ce ff ff ff       	callq  409032 <_ZSt12__get_helperILm0EOZ10run_serveriSt8functionIFviEEEUlvE_JEERT0_RSt11_Tuple_implIXT_EJS5_DpT1_EE>
  409064:	c9                   	leaveq 
  409065:	c3                   	retq   

0000000000409066 <_ZNSt4pairISt6threadbEC1IJOZ10run_serveriSt8functionIFviEEEUlvE_EJLm0EEJObEJLm0EEEERSt5tupleIJDpT_EERS9_IJDpT1_EESt12_Index_tupleIJXspT0_EEESI_IJXspT2_EEE>:
  409066:	55                   	push   %rbp
  409067:	48 89 e5             	mov    %rsp,%rbp
  40906a:	48 83 ec 20          	sub    $0x20,%rsp
  40906e:	48 89 7d f8          	mov    %rdi,-0x8(%rbp)
  409072:	48 89 75 f0          	mov    %rsi,-0x10(%rbp)
  409076:	48 89 55 e8          	mov    %rdx,-0x18(%rbp)
  40907a:	48 8b 45 f0          	mov    -0x10(%rbp),%rax
  40907e:	48 89 c7             	mov    %rax,%rdi
  409081:	e8 c6 ff ff ff       	callq  40904c <_ZSt3getILm0EJOZ10run_serveriSt8functionIFviEEEUlvE_EERNSt13tuple_elementIXT_ESt5tupleIJDpT0_EEE4typeERS9_>
  409086:	48 89 c7             	mov    %rax,%rdi
  409089:	e8 7c f6 ff ff       	callq  40870a <_ZSt7forwardIOZ10run_serveriSt8functionIFviEEEUlvE_EOT_RNSt16remove_referenceIS5_E4typeE>
  40908e:	48 89 c2             	mov    %rax,%rdx
  409091:	48 8b 45 f8          	mov    -0x8(%rbp),%rax
  409095:	48 89 d6             	mov    %rdx,%rsi
  409098:	48 89 c7             	mov    %rax,%rdi
  40909b:	e8 5e 00 00 00       	callq  4090fe <_ZNSt6threadC1IZ10run_serveriSt8functionIFviEEEUlvE_JEEEOT_DpOT0_>
  4090a0:	48 8b 45 e8          	mov    -0x18(%rbp),%rax
  4090a4:	48 89 c7             	mov    %rax,%rdi
  4090a7:	e8 d4 41 00 00       	callq  40d280 <_ZSt3getILm0EIObEERNSt13tuple_elementIXT_ESt5tupleIIDpT0_EEE4typeERS5_>
  4090ac:	48 89 c7             	mov    %rax,%rdi
  4090af:	e8 ae 1d 00 00       	callq  40ae62 <_ZSt7forwardIObEOT_RNSt16remove_referenceIS1_E4typeE>
  4090b4:	0f b6 10             	movzbl (%rax),%edx
  4090b7:	48 8b 45 f8          	mov    -0x8(%rbp),%rax
  4090bb:	88 50 08             	mov    %dl,0x8(%rax)
  4090be:	90                   	nop
  4090bf:	c9                   	leaveq 
  4090c0:	c3                   	retq   
  4090c1:	90                   	nop

00000000004090c2 <_ZNSt12__shared_ptrINSt6thread5_ImplISt12_Bind_simpleIFZ10run_serveriSt8functionIFviEEEUlvE_vEEEELN9__gnu_cxx12_Lock_policyE2EED2Ev>:
  4090c2:	55                   	push   %rbp
  4090c3:	48 89 e5             	mov    %rsp,%rbp
  4090c6:	48 83 ec 10          	sub    $0x10,%rsp
  4090ca:	48 89 7d f8          	mov    %rdi,-0x8(%rbp)
  4090ce:	48 8b 45 f8          	mov    -0x8(%rbp),%rax
  4090d2:	48 83 c0 08          	add    $0x8,%rax
  4090d6:	48 89 c7             	mov    %rax,%rdi
  4090d9:	e8 c6 15 00 00       	callq  40a6a4 <_ZNSt14__shared_countILN9__gnu_cxx12_Lock_policyE2EED1Ev>
  4090de:	90                   	nop
  4090df:	c9                   	leaveq 
  4090e0:	c3                   	retq   
  4090e1:	90                   	nop

00000000004090e2 <_ZNSt10shared_ptrINSt6thread5_ImplISt12_Bind_simpleIFZ10run_serveriSt8functionIFviEEEUlvE_vEEEEED1Ev>:
  4090e2:	55                   	push   %rbp
  4090e3:	48 89 e5             	mov    %rsp,%rbp
  4090e6:	48 83 ec 10          	sub    $0x10,%rsp
  4090ea:	48 89 7d f8          	mov    %rdi,-0x8(%rbp)
  4090ee:	48 8b 45 f8          	mov    -0x8(%rbp),%rax
  4090f2:	48 89 c7             	mov    %rax,%rdi
  4090f5:	e8 c8 ff ff ff       	callq  4090c2 <_ZNSt12__shared_ptrINSt6thread5_ImplISt12_Bind_simpleIFZ10run_serveriSt8functionIFviEEEUlvE_vEEEELN9__gnu_cxx12_Lock_policyE2EED2Ev>
  4090fa:	90                   	nop
  4090fb:	c9                   	leaveq 
  4090fc:	c3                   	retq   
  4090fd:	90                   	nop

00000000004090fe <_ZNSt6threadC1IZ10run_serveriSt8functionIFviEEEUlvE_JEEEOT_DpOT0_>:
  4090fe:	55                   	push   %rbp
  4090ff:	48 89 e5             	mov    %rsp,%rbp
  409102:	53                   	push   %rbx
  409103:	48 83 ec 68          	sub    $0x68,%rsp
  409107:	48 89 7d 98          	mov    %rdi,-0x68(%rbp)
  40910b:	48 89 75 90          	mov    %rsi,-0x70(%rbp)
  40910f:	64 48 8b 04 25 28 00 	mov    %fs:0x28,%rax
  409116:	00 00 
  409118:	48 89 45 e8          	mov    %rax,-0x18(%rbp)
  40911c:	31 c0                	xor    %eax,%eax
  40911e:	48 8b 45 98          	mov    -0x68(%rbp),%rax
  409122:	48 89 c7             	mov    %rax,%rdi
  409125:	e8 c8 10 00 00       	callq  40a1f2 <_ZNSt6thread2idC1Ev>
  40912a:	48 8b 45 90          	mov    -0x70(%rbp),%rax
  40912e:	48 89 c7             	mov    %rax,%rdi
  409131:	e8 0e f5 ff ff       	callq  408644 <_ZSt7forwardIZ10run_serveriSt8functionIFviEEEUlvE_EOT_RNSt16remove_referenceIS4_E4typeE>
  409136:	48 89 c2             	mov    %rax,%rdx
  409139:	48 8d 45 c0          	lea    -0x40(%rbp),%rax
  40913d:	48 89 d6             	mov    %rdx,%rsi
  409140:	48 89 c7             	mov    %rax,%rdi
  409143:	e8 90 01 00 00       	callq  4092d8 <_ZSt13__bind_simpleIZ10run_serveriSt8functionIFviEEEUlvE_JEENSt19_Bind_simple_helperIT_JDpT0_EE6__typeEOS5_DpOS6_>
  409148:	48 8d 45 b0          	lea    -0x50(%rbp),%rax
  40914c:	48 8d 55 c0          	lea    -0x40(%rbp),%rdx
  409150:	48 8b 4d 98          	mov    -0x68(%rbp),%rcx
  409154:	48 89 ce             	mov    %rcx,%rsi
  409157:	48 89 c7             	mov    %rax,%rdi
  40915a:	e8 c3 01 00 00       	callq  409322 <_ZNSt6thread15_M_make_routineISt12_Bind_simpleIFZ10run_serveriSt8functionIFviEEEUlvE_vEEEESt10shared_ptrINS_5_ImplIT_EEEOSA_>
  40915f:	48 8d 55 b0          	lea    -0x50(%rbp),%rdx
  409163:	48 8d 45 a0          	lea    -0x60(%rbp),%rax
  409167:	48 89 d6             	mov    %rdx,%rsi
  40916a:	48 89 c7             	mov    %rax,%rdi
  40916d:	e8 1a 02 00 00       	callq  40938c <_ZNSt10shared_ptrINSt6thread10_Impl_baseEEC1INS0_5_ImplISt12_Bind_simpleIFZ10run_serveriSt8functionIFviEEEUlvE_vEEEEvEEOS_IT_E>
  409172:	48 8d 4d a0          	lea    -0x60(%rbp),%rcx
  409176:	48 8b 45 98          	mov    -0x68(%rbp),%rax
  40917a:	ba 00 2c 40 00       	mov    $0x402c00,%edx
  40917f:	48 89 ce             	mov    %rcx,%rsi
  409182:	48 89 c7             	mov    %rax,%rdi
  409185:	e8 b6 9b ff ff       	callq  402d40 <_ZNSt6thread15_M_start_threadESt10shared_ptrINS_10_Impl_baseEEPFvvE@plt>
  40918a:	48 8d 45 a0          	lea    -0x60(%rbp),%rax
  40918e:	48 89 c7             	mov    %rax,%rdi
  409191:	e8 f6 11 00 00       	callq  40a38c <_ZNSt10shared_ptrINSt6thread10_Impl_baseEED1Ev>
  409196:	48 8d 45 b0          	lea    -0x50(%rbp),%rax
  40919a:	48 89 c7             	mov    %rax,%rdi
  40919d:	e8 40 ff ff ff       	callq  4090e2 <_ZNSt10shared_ptrINSt6thread5_ImplISt12_Bind_simpleIFZ10run_serveriSt8functionIFviEEEUlvE_vEEEEED1Ev>
  4091a2:	90                   	nop
  4091a3:	48 8b 45 e8          	mov    -0x18(%rbp),%rax
  4091a7:	64 48 33 04 25 28 00 	xor    %fs:0x28,%rax
  4091ae:	00 00 
  4091b0:	74 2d                	je     4091df <_ZNSt6threadC1IZ10run_serveriSt8functionIFviEEEUlvE_JEEEOT_DpOT0_+0xe1>
  4091b2:	eb 26                	jmp    4091da <_ZNSt6threadC1IZ10run_serveriSt8functionIFviEEEUlvE_JEEEOT_DpOT0_+0xdc>
  4091b4:	48 89 c3             	mov    %rax,%rbx
  4091b7:	48 8d 45 a0          	lea    -0x60(%rbp),%rax
  4091bb:	48 89 c7             	mov    %rax,%rdi
  4091be:	e8 c9 11 00 00       	callq  40a38c <_ZNSt10shared_ptrINSt6thread10_Impl_baseEED1Ev>
  4091c3:	48 8d 45 b0          	lea    -0x50(%rbp),%rax
  4091c7:	48 89 c7             	mov    %rax,%rdi
  4091ca:	e8 13 ff ff ff       	callq  4090e2 <_ZNSt10shared_ptrINSt6thread5_ImplISt12_Bind_simpleIFZ10run_serveriSt8functionIFviEEEUlvE_vEEEEED1Ev>
  4091cf:	48 89 d8             	mov    %rbx,%rax
  4091d2:	48 89 c7             	mov    %rax,%rdi
  4091d5:	e8 e6 9d ff ff       	callq  402fc0 <_Unwind_Resume@plt>
  4091da:	e8 31 9c ff ff       	callq  402e10 <__stack_chk_fail@plt>
  4091df:	48 83 c4 68          	add    $0x68,%rsp
  4091e3:	5b                   	pop    %rbx
  4091e4:	5d                   	pop    %rbp
  4091e5:	c3                   	retq   

00000000004091e6 <_ZNSt10_Head_baseILm0EZ10run_serveriSt8functionIFviEEEUlvE_Lb0EE7_M_headERS4_>:
  4091e6:	55                   	push   %rbp
  4091e7:	48 89 e5             	mov    %rsp,%rbp
  4091ea:	48 89 7d f8          	mov    %rdi,-0x8(%rbp)
  4091ee:	48 8b 45 f8          	mov    -0x8(%rbp),%rax
  4091f2:	5d                   	pop    %rbp
  4091f3:	c3                   	retq   

00000000004091f4 <_ZNSt11_Tuple_implILm0EJZ10run_serveriSt8functionIFviEEEUlvE_EE7_M_headERS4_>:
  4091f4:	55                   	push   %rbp
  4091f5:	48 89 e5             	mov    %rsp,%rbp
  4091f8:	48 83 ec 08          	sub    $0x8,%rsp
  4091fc:	48 89 7d f8          	mov    %rdi,-0x8(%rbp)
  409200:	48 8b 45 f8          	mov    -0x8(%rbp),%rax
  409204:	48 89 c7             	mov    %rax,%rdi
  409207:	e8 da ff ff ff       	callq  4091e6 <_ZNSt10_Head_baseILm0EZ10run_serveriSt8functionIFviEEEUlvE_Lb0EE7_M_headERS4_>
  40920c:	c9                   	leaveq 
  40920d:	c3                   	retq   

000000000040920e <_ZNSt10_Head_baseILm0EZ10run_serveriSt8functionIFviEEEUlvE_Lb0EEC2IS3_EEOT_>:
  40920e:	55                   	push   %rbp
  40920f:	48 89 e5             	mov    %rsp,%rbp
  409212:	48 83 ec 10          	sub    $0x10,%rsp
  409216:	48 89 7d f8          	mov    %rdi,-0x8(%rbp)
  40921a:	48 89 75 f0          	mov    %rsi,-0x10(%rbp)
  40921e:	48 8b 45 f0          	mov    -0x10(%rbp),%rax
  409222:	48 89 c7             	mov    %rax,%rdi
  409225:	e8 1a f4 ff ff       	callq  408644 <_ZSt7forwardIZ10run_serveriSt8functionIFviEEEUlvE_EOT_RNSt16remove_referenceIS4_E4typeE>
  40922a:	48 89 c2             	mov    %rax,%rdx
  40922d:	48 8b 45 f8          	mov    -0x8(%rbp),%rax
  409231:	48 8b 0a             	mov    (%rdx),%rcx
  409234:	48 89 08             	mov    %rcx,(%rax)
  409237:	48 8b 4a 08          	mov    0x8(%rdx),%rcx
  40923b:	48 89 48 08          	mov    %rcx,0x8(%rax)
  40923f:	48 8b 4a 10          	mov    0x10(%rdx),%rcx
  409243:	48 89 48 10          	mov    %rcx,0x10(%rax)
  409247:	48 8b 52 18          	mov    0x18(%rdx),%rdx
  40924b:	48 89 50 18          	mov    %rdx,0x18(%rax)
  40924f:	90                   	nop
  409250:	c9                   	leaveq 
  409251:	c3                   	retq   

0000000000409252 <_ZNSt11_Tuple_implILm0EJZ10run_serveriSt8functionIFviEEEUlvE_EEC2EOS4_>:
  409252:	55                   	push   %rbp
  409253:	48 89 e5             	mov    %rsp,%rbp
  409256:	48 83 ec 10          	sub    $0x10,%rsp
  40925a:	48 89 7d f8          	mov    %rdi,-0x8(%rbp)
  40925e:	48 89 75 f0          	mov    %rsi,-0x10(%rbp)
  409262:	48 8b 45 f0          	mov    -0x10(%rbp),%rax
  409266:	48 89 c7             	mov    %rax,%rdi
  409269:	e8 86 ff ff ff       	callq  4091f4 <_ZNSt11_Tuple_implILm0EJZ10run_serveriSt8functionIFviEEEUlvE_EE7_M_headERS4_>
  40926e:	48 89 c7             	mov    %rax,%rdi
  409271:	e8 ce f3 ff ff       	callq  408644 <_ZSt7forwardIZ10run_serveriSt8functionIFviEEEUlvE_EOT_RNSt16remove_referenceIS4_E4typeE>
  409276:	48 89 c2             	mov    %rax,%rdx
  409279:	48 8b 45 f8          	mov    -0x8(%rbp),%rax
  40927d:	48 89 d6             	mov    %rdx,%rsi
  409280:	48 89 c7             	mov    %rax,%rdi
  409283:	e8 86 ff ff ff       	callq  40920e <_ZNSt10_Head_baseILm0EZ10run_serveriSt8functionIFviEEEUlvE_Lb0EEC2IS3_EEOT_>
  409288:	90                   	nop
  409289:	c9                   	leaveq 
  40928a:	c3                   	retq   
  40928b:	90                   	nop

000000000040928c <_ZNSt5tupleIJZ10run_serveriSt8functionIFviEEEUlvE_EEC1EOS4_>:
  40928c:	55                   	push   %rbp
  40928d:	48 89 e5             	mov    %rsp,%rbp
  409290:	48 83 ec 10          	sub    $0x10,%rsp
  409294:	48 89 7d f8          	mov    %rdi,-0x8(%rbp)
  409298:	48 89 75 f0          	mov    %rsi,-0x10(%rbp)
  40929c:	48 8b 55 f0          	mov    -0x10(%rbp),%rdx
  4092a0:	48 8b 45 f8          	mov    -0x8(%rbp),%rax
  4092a4:	48 89 d6             	mov    %rdx,%rsi
  4092a7:	48 89 c7             	mov    %rax,%rdi
  4092aa:	e8 a3 ff ff ff       	callq  409252 <_ZNSt11_Tuple_implILm0EJZ10run_serveriSt8functionIFviEEEUlvE_EEC2EOS4_>
  4092af:	90                   	nop
  4092b0:	c9                   	leaveq 
  4092b1:	c3                   	retq   

00000000004092b2 <_ZNSt12_Bind_simpleIFZ10run_serveriSt8functionIFviEEEUlvE_vEEC1EOS5_>:
  4092b2:	55                   	push   %rbp
  4092b3:	48 89 e5             	mov    %rsp,%rbp
  4092b6:	48 83 ec 10          	sub    $0x10,%rsp
  4092ba:	48 89 7d f8          	mov    %rdi,-0x8(%rbp)
  4092be:	48 89 75 f0          	mov    %rsi,-0x10(%rbp)
  4092c2:	48 8b 55 f0          	mov    -0x10(%rbp),%rdx
  4092c6:	48 8b 45 f8          	mov    -0x8(%rbp),%rax
  4092ca:	48 89 d6             	mov    %rdx,%rsi
  4092cd:	48 89 c7             	mov    %rax,%rdi
  4092d0:	e8 b7 ff ff ff       	callq  40928c <_ZNSt5tupleIJZ10run_serveriSt8functionIFviEEEUlvE_EEC1EOS4_>
  4092d5:	90                   	nop
  4092d6:	c9                   	leaveq 
  4092d7:	c3                   	retq   

00000000004092d8 <_ZSt13__bind_simpleIZ10run_serveriSt8functionIFviEEEUlvE_JEENSt19_Bind_simple_helperIT_JDpT0_EE6__typeEOS5_DpOS6_>:
  4092d8:	55                   	push   %rbp
  4092d9:	48 89 e5             	mov    %rsp,%rbp
  4092dc:	48 83 ec 10          	sub    $0x10,%rsp
  4092e0:	48 89 7d f8          	mov    %rdi,-0x8(%rbp)
  4092e4:	48 89 75 f0          	mov    %rsi,-0x10(%rbp)
  4092e8:	48 8b 45 f0          	mov    -0x10(%rbp),%rax
  4092ec:	48 89 c7             	mov    %rax,%rdi
  4092ef:	e8 50 f3 ff ff       	callq  408644 <_ZSt7forwardIZ10run_serveriSt8functionIFviEEEUlvE_EOT_RNSt16remove_referenceIS4_E4typeE>
  4092f4:	48 89 c7             	mov    %rax,%rdi
  4092f7:	e8 c1 00 00 00       	callq  4093bd <_ZNSt26_Maybe_wrap_member_pointerIZ10run_serveriSt8functionIFviEEEUlvE_E9__do_wrapEOS3_>
  4092fc:	48 89 c2             	mov    %rax,%rdx
  4092ff:	48 8b 45 f8          	mov    -0x8(%rbp),%rax
  409303:	48 89 d6             	mov    %rdx,%rsi
  409306:	48 89 c7             	mov    %rax,%rdi
  409309:	e8 22 01 00 00       	callq  409430 <_ZNSt12_Bind_simpleIFZ10run_serveriSt8functionIFviEEEUlvE_vEEC1IS3_JEEEOT_DpOT0_>
  40930e:	48 8b 45 f8          	mov    -0x8(%rbp),%rax
  409312:	c9                   	leaveq 
  409313:	c3                   	retq   

0000000000409314 <_ZSt7forwardISt12_Bind_simpleIFZ10run_serveriSt8functionIFviEEEUlvE_vEEEOT_RNSt16remove_referenceIS7_E4typeE>:
  409314:	55                   	push   %rbp
  409315:	48 89 e5             	mov    %rsp,%rbp
  409318:	48 89 7d f8          	mov    %rdi,-0x8(%rbp)
  40931c:	48 8b 45 f8          	mov    -0x8(%rbp),%rax
  409320:	5d                   	pop    %rbp
  409321:	c3                   	retq   

0000000000409322 <_ZNSt6thread15_M_make_routineISt12_Bind_simpleIFZ10run_serveriSt8functionIFviEEEUlvE_vEEEESt10shared_ptrINS_5_ImplIT_EEEOSA_>:
  409322:	55                   	push   %rbp
  409323:	48 89 e5             	mov    %rsp,%rbp
  409326:	48 83 ec 30          	sub    $0x30,%rsp
  40932a:	48 89 7d e8          	mov    %rdi,-0x18(%rbp)
  40932e:	48 89 75 e0          	mov    %rsi,-0x20(%rbp)
  409332:	48 89 55 d8          	mov    %rdx,-0x28(%rbp)
  409336:	64 48 8b 04 25 28 00 	mov    %fs:0x28,%rax
  40933d:	00 00 
  40933f:	48 89 45 f8          	mov    %rax,-0x8(%rbp)
  409343:	31 c0                	xor    %eax,%eax
  409345:	48 8b 45 d8          	mov    -0x28(%rbp),%rax
  409349:	48 89 c7             	mov    %rax,%rdi
  40934c:	e8 c3 ff ff ff       	callq  409314 <_ZSt7forwardISt12_Bind_simpleIFZ10run_serveriSt8functionIFviEEEUlvE_vEEEOT_RNSt16remove_referenceIS7_E4typeE>
  409351:	48 89 c2             	mov    %rax,%rdx
  409354:	48 8b 45 e8          	mov    -0x18(%rbp),%rax
  409358:	48 89 d6             	mov    %rdx,%rsi
  40935b:	48 89 c7             	mov    %rax,%rdi
  40935e:	e8 fe 00 00 00       	callq  409461 <_ZSt11make_sharedINSt6thread5_ImplISt12_Bind_simpleIFZ10run_serveriSt8functionIFviEEEUlvE_vEEEEJS8_EESt10shared_ptrIT_EDpOT0_>
  409363:	48 8b 45 e8          	mov    -0x18(%rbp),%rax
  409367:	48 8b 4d f8          	mov    -0x8(%rbp),%rcx
  40936b:	64 48 33 0c 25 28 00 	xor    %fs:0x28,%rcx
  409372:	00 00 
  409374:	74 05                	je     40937b <_ZNSt6thread15_M_make_routineISt12_Bind_simpleIFZ10run_serveriSt8functionIFviEEEUlvE_vEEEESt10shared_ptrINS_5_ImplIT_EEEOSA_+0x59>
  409376:	e8 95 9a ff ff       	callq  402e10 <__stack_chk_fail@plt>
  40937b:	c9                   	leaveq 
  40937c:	c3                   	retq   

000000000040937d <_ZSt4moveIRSt10shared_ptrINSt6thread5_ImplISt12_Bind_simpleIFZ10run_serveriSt8functionIFviEEEUlvE_vEEEEEEONSt16remove_referenceIT_E4typeEOSE_>:
  40937d:	55                   	push   %rbp
  40937e:	48 89 e5             	mov    %rsp,%rbp
  409381:	48 89 7d f8          	mov    %rdi,-0x8(%rbp)
  409385:	48 8b 45 f8          	mov    -0x8(%rbp),%rax
  409389:	5d                   	pop    %rbp
  40938a:	c3                   	retq   
  40938b:	90                   	nop

000000000040938c <_ZNSt10shared_ptrINSt6thread10_Impl_baseEEC1INS0_5_ImplISt12_Bind_simpleIFZ10run_serveriSt8functionIFviEEEUlvE_vEEEEvEEOS_IT_E>:
  40938c:	55                   	push   %rbp
  40938d:	48 89 e5             	mov    %rsp,%rbp
  409390:	48 83 ec 10          	sub    $0x10,%rsp
  409394:	48 89 7d f8          	mov    %rdi,-0x8(%rbp)
  409398:	48 89 75 f0          	mov    %rsi,-0x10(%rbp)
  40939c:	48 8b 45 f0          	mov    -0x10(%rbp),%rax
  4093a0:	48 89 c7             	mov    %rax,%rdi
  4093a3:	e8 d5 ff ff ff       	callq  40937d <_ZSt4moveIRSt10shared_ptrINSt6thread5_ImplISt12_Bind_simpleIFZ10run_serveriSt8functionIFviEEEUlvE_vEEEEEEONSt16remove_referenceIT_E4typeEOSE_>
  4093a8:	48 89 c2             	mov    %rax,%rdx
  4093ab:	48 8b 45 f8          	mov    -0x8(%rbp),%rax
  4093af:	48 89 d6             	mov    %rdx,%rsi
  4093b2:	48 89 c7             	mov    %rax,%rdi
  4093b5:	e8 40 01 00 00       	callq  4094fa <_ZNSt12__shared_ptrINSt6thread10_Impl_baseELN9__gnu_cxx12_Lock_policyE2EEC2INS0_5_ImplISt12_Bind_simpleIFZ10run_serveriSt8functionIFviEEEUlvE_vEEEEvEEOS_IT_LS3_2EE>
  4093ba:	90                   	nop
  4093bb:	c9                   	leaveq 
  4093bc:	c3                   	retq   

00000000004093bd <_ZNSt26_Maybe_wrap_member_pointerIZ10run_serveriSt8functionIFviEEEUlvE_E9__do_wrapEOS3_>:
  4093bd:	55                   	push   %rbp
  4093be:	48 89 e5             	mov    %rsp,%rbp
  4093c1:	48 89 7d f8          	mov    %rdi,-0x8(%rbp)
  4093c5:	48 8b 45 f8          	mov    -0x8(%rbp),%rax
  4093c9:	5d                   	pop    %rbp
  4093ca:	c3                   	retq   
  4093cb:	90                   	nop

00000000004093cc <_ZNSt11_Tuple_implILm0EJZ10run_serveriSt8functionIFviEEEUlvE_EEC2IS3_EEOT_>:
  4093cc:	55                   	push   %rbp
  4093cd:	48 89 e5             	mov    %rsp,%rbp
  4093d0:	48 83 ec 10          	sub    $0x10,%rsp
  4093d4:	48 89 7d f8          	mov    %rdi,-0x8(%rbp)
  4093d8:	48 89 75 f0          	mov    %rsi,-0x10(%rbp)
  4093dc:	48 8b 45 f0          	mov    -0x10(%rbp),%rax
  4093e0:	48 89 c7             	mov    %rax,%rdi
  4093e3:	e8 5c f2 ff ff       	callq  408644 <_ZSt7forwardIZ10run_serveriSt8functionIFviEEEUlvE_EOT_RNSt16remove_referenceIS4_E4typeE>
  4093e8:	48 89 c2             	mov    %rax,%rdx
  4093eb:	48 8b 45 f8          	mov    -0x8(%rbp),%rax
  4093ef:	48 89 d6             	mov    %rdx,%rsi
  4093f2:	48 89 c7             	mov    %rax,%rdi
  4093f5:	e8 14 fe ff ff       	callq  40920e <_ZNSt10_Head_baseILm0EZ10run_serveriSt8functionIFviEEEUlvE_Lb0EEC2IS3_EEOT_>
  4093fa:	90                   	nop
  4093fb:	c9                   	leaveq 
  4093fc:	c3                   	retq   
  4093fd:	90                   	nop

00000000004093fe <_ZNSt5tupleIJZ10run_serveriSt8functionIFviEEEUlvE_EEC1IJS3_EvEEDpOT_>:
  4093fe:	55                   	push   %rbp
  4093ff:	48 89 e5             	mov    %rsp,%rbp
  409402:	48 83 ec 10          	sub    $0x10,%rsp
  409406:	48 89 7d f8          	mov    %rdi,-0x8(%rbp)
  40940a:	48 89 75 f0          	mov    %rsi,-0x10(%rbp)
  40940e:	48 8b 45 f0          	mov    -0x10(%rbp),%rax
  409412:	48 89 c7             	mov    %rax,%rdi
  409415:	e8 2a f2 ff ff       	callq  408644 <_ZSt7forwardIZ10run_serveriSt8functionIFviEEEUlvE_EOT_RNSt16remove_referenceIS4_E4typeE>
  40941a:	48 89 c2             	mov    %rax,%rdx
  40941d:	48 8b 45 f8          	mov    -0x8(%rbp),%rax
  409421:	48 89 d6             	mov    %rdx,%rsi
  409424:	48 89 c7             	mov    %rax,%rdi
  409427:	e8 a0 ff ff ff       	callq  4093cc <_ZNSt11_Tuple_implILm0EJZ10run_serveriSt8functionIFviEEEUlvE_EEC2IS3_EEOT_>
  40942c:	90                   	nop
  40942d:	c9                   	leaveq 
  40942e:	c3                   	retq   
  40942f:	90                   	nop

0000000000409430 <_ZNSt12_Bind_simpleIFZ10run_serveriSt8functionIFviEEEUlvE_vEEC1IS3_JEEEOT_DpOT0_>:
  409430:	55                   	push   %rbp
  409431:	48 89 e5             	mov    %rsp,%rbp
  409434:	48 83 ec 10          	sub    $0x10,%rsp
  409438:	48 89 7d f8          	mov    %rdi,-0x8(%rbp)
  40943c:	48 89 75 f0          	mov    %rsi,-0x10(%rbp)
  409440:	48 8b 45 f0          	mov    -0x10(%rbp),%rax
  409444:	48 89 c7             	mov    %rax,%rdi
  409447:	e8 f8 f1 ff ff       	callq  408644 <_ZSt7forwardIZ10run_serveriSt8functionIFviEEEUlvE_EOT_RNSt16remove_referenceIS4_E4typeE>
  40944c:	48 89 c2             	mov    %rax,%rdx
  40944f:	48 8b 45 f8          	mov    -0x8(%rbp),%rax
  409453:	48 89 d6             	mov    %rdx,%rsi
  409456:	48 89 c7             	mov    %rax,%rdi
  409459:	e8 a0 ff ff ff       	callq  4093fe <_ZNSt5tupleIJZ10run_serveriSt8functionIFviEEEUlvE_EEC1IJS3_EvEEDpOT_>
  40945e:	90                   	nop
  40945f:	c9                   	leaveq 
  409460:	c3                   	retq   

0000000000409461 <_ZSt11make_sharedINSt6thread5_ImplISt12_Bind_simpleIFZ10run_serveriSt8functionIFviEEEUlvE_vEEEEJS8_EESt10shared_ptrIT_EDpOT0_>:
  409461:	55                   	push   %rbp
  409462:	48 89 e5             	mov    %rsp,%rbp
  409465:	53                   	push   %rbx
  409466:	48 83 ec 28          	sub    $0x28,%rsp
  40946a:	48 89 7d d8          	mov    %rdi,-0x28(%rbp)
  40946e:	48 89 75 d0          	mov    %rsi,-0x30(%rbp)
  409472:	64 48 8b 04 25 28 00 	mov    %fs:0x28,%rax
  409479:	00 00 
  40947b:	48 89 45 e8          	mov    %rax,-0x18(%rbp)
  40947f:	31 c0                	xor    %eax,%eax
  409481:	48 8b 45 d0          	mov    -0x30(%rbp),%rax
  409485:	48 89 c7             	mov    %rax,%rdi
  409488:	e8 87 fe ff ff       	callq  409314 <_ZSt7forwardISt12_Bind_simpleIFZ10run_serveriSt8functionIFviEEEUlvE_vEEEOT_RNSt16remove_referenceIS7_E4typeE>
  40948d:	48 89 c3             	mov    %rax,%rbx
  409490:	48 8d 45 e7          	lea    -0x19(%rbp),%rax
  409494:	48 89 c7             	mov    %rax,%rdi
  409497:	e8 b6 00 00 00       	callq  409552 <_ZNSaINSt6thread5_ImplISt12_Bind_simpleIFZ10run_serveriSt8functionIFviEEEUlvE_vEEEEEC1Ev>
  40949c:	48 8b 45 d8          	mov    -0x28(%rbp),%rax
  4094a0:	48 8d 4d e7          	lea    -0x19(%rbp),%rcx
  4094a4:	48 89 da             	mov    %rbx,%rdx
  4094a7:	48 89 ce             	mov    %rcx,%rsi
  4094aa:	48 89 c7             	mov    %rax,%rdi
  4094ad:	e8 d7 00 00 00       	callq  409589 <_ZSt15allocate_sharedINSt6thread5_ImplISt12_Bind_simpleIFZ10run_serveriSt8functionIFviEEEUlvE_vEEEESaIS9_EJS8_EESt10shared_ptrIT_ERKT0_DpOT1_>
  4094b2:	48 8d 45 e7          	lea    -0x19(%rbp),%rax
  4094b6:	48 89 c7             	mov    %rax,%rdi
  4094b9:	e8 b0 00 00 00       	callq  40956e <_ZNSaINSt6thread5_ImplISt12_Bind_simpleIFZ10run_serveriSt8functionIFviEEEUlvE_vEEEEED1Ev>
  4094be:	48 8b 45 d8          	mov    -0x28(%rbp),%rax
  4094c2:	48 8b 55 e8          	mov    -0x18(%rbp),%rdx
  4094c6:	64 48 33 14 25 28 00 	xor    %fs:0x28,%rdx
  4094cd:	00 00 
  4094cf:	74 21                	je     4094f2 <_ZSt11make_sharedINSt6thread5_ImplISt12_Bind_simpleIFZ10run_serveriSt8functionIFviEEEUlvE_vEEEEJS8_EESt10shared_ptrIT_EDpOT0_+0x91>
  4094d1:	eb 1a                	jmp    4094ed <_ZSt11make_sharedINSt6thread5_ImplISt12_Bind_simpleIFZ10run_serveriSt8functionIFviEEEUlvE_vEEEEJS8_EESt10shared_ptrIT_EDpOT0_+0x8c>
  4094d3:	48 89 c3             	mov    %rax,%rbx
  4094d6:	48 8d 45 e7          	lea    -0x19(%rbp),%rax
  4094da:	48 89 c7             	mov    %rax,%rdi
  4094dd:	e8 8c 00 00 00       	callq  40956e <_ZNSaINSt6thread5_ImplISt12_Bind_simpleIFZ10run_serveriSt8functionIFviEEEUlvE_vEEEEED1Ev>
  4094e2:	48 89 d8             	mov    %rbx,%rax
  4094e5:	48 89 c7             	mov    %rax,%rdi
  4094e8:	e8 d3 9a ff ff       	callq  402fc0 <_Unwind_Resume@plt>
  4094ed:	e8 1e 99 ff ff       	callq  402e10 <__stack_chk_fail@plt>
  4094f2:	48 83 c4 28          	add    $0x28,%rsp
  4094f6:	5b                   	pop    %rbx
  4094f7:	5d                   	pop    %rbp
  4094f8:	c3                   	retq   
  4094f9:	90                   	nop

00000000004094fa <_ZNSt12__shared_ptrINSt6thread10_Impl_baseELN9__gnu_cxx12_Lock_policyE2EEC2INS0_5_ImplISt12_Bind_simpleIFZ10run_serveriSt8functionIFviEEEUlvE_vEEEEvEEOS_IT_LS3_2EE>:
  4094fa:	55                   	push   %rbp
  4094fb:	48 89 e5             	mov    %rsp,%rbp
  4094fe:	48 83 ec 10          	sub    $0x10,%rsp
  409502:	48 89 7d f8          	mov    %rdi,-0x8(%rbp)
  409506:	48 89 75 f0          	mov    %rsi,-0x10(%rbp)
  40950a:	48 8b 45 f0          	mov    -0x10(%rbp),%rax
  40950e:	48 8b 10             	mov    (%rax),%rdx
  409511:	48 8b 45 f8          	mov    -0x8(%rbp),%rax
  409515:	48 89 10             	mov    %rdx,(%rax)
  409518:	48 8b 45 f8          	mov    -0x8(%rbp),%rax
  40951c:	48 83 c0 08          	add    $0x8,%rax
  409520:	48 89 c7             	mov    %rax,%rdi
  409523:	e8 ca 46 00 00       	callq  40dbf2 <_ZNSt14__shared_countILN9__gnu_cxx12_Lock_policyE2EEC1Ev>
  409528:	48 8b 45 f0          	mov    -0x10(%rbp),%rax
  40952c:	48 8d 50 08          	lea    0x8(%rax),%rdx
  409530:	48 8b 45 f8          	mov    -0x8(%rbp),%rax
  409534:	48 83 c0 08          	add    $0x8,%rax
  409538:	48 89 d6             	mov    %rdx,%rsi
  40953b:	48 89 c7             	mov    %rax,%rdi
  40953e:	e8 ff 46 00 00       	callq  40dc42 <_ZNSt14__shared_countILN9__gnu_cxx12_Lock_policyE2EE7_M_swapERS2_>
  409543:	48 8b 45 f0          	mov    -0x10(%rbp),%rax
  409547:	48 c7 00 00 00 00 00 	movq   $0x0,(%rax)
  40954e:	90                   	nop
  40954f:	c9                   	leaveq 
  409550:	c3                   	retq   
  409551:	90                   	nop

0000000000409552 <_ZNSaINSt6thread5_ImplISt12_Bind_simpleIFZ10run_serveriSt8functionIFviEEEUlvE_vEEEEEC1Ev>:
  409552:	55                   	push   %rbp
  409553:	48 89 e5             	mov    %rsp,%rbp
  409556:	48 83 ec 10          	sub    $0x10,%rsp
  40955a:	48 89 7d f8          	mov    %rdi,-0x8(%rbp)
  40955e:	48 8b 45 f8          	mov    -0x8(%rbp),%rax
  409562:	48 89 c7             	mov    %rax,%rdi
  409565:	e8 8c 00 00 00       	callq  4095f6 <_ZN9__gnu_cxx13new_allocatorINSt6thread5_ImplISt12_Bind_simpleIFZ10run_serveriSt8functionIFviEEEUlvE_vEEEEEC2Ev>
  40956a:	90                   	nop
  40956b:	c9                   	leaveq 
  40956c:	c3                   	retq   
  40956d:	90                   	nop

000000000040956e <_ZNSaINSt6thread5_ImplISt12_Bind_simpleIFZ10run_serveriSt8functionIFviEEEUlvE_vEEEEED1Ev>:
  40956e:	55                   	push   %rbp
  40956f:	48 89 e5             	mov    %rsp,%rbp
  409572:	48 83 ec 10          	sub    $0x10,%rsp
  409576:	48 89 7d f8          	mov    %rdi,-0x8(%rbp)
  40957a:	48 8b 45 f8          	mov    -0x8(%rbp),%rax
  40957e:	48 89 c7             	mov    %rax,%rdi
  409581:	e8 7c 00 00 00       	callq  409602 <_ZN9__gnu_cxx13new_allocatorINSt6thread5_ImplISt12_Bind_simpleIFZ10run_serveriSt8functionIFviEEEUlvE_vEEEEED2Ev>
  409586:	90                   	nop
  409587:	c9                   	leaveq 
  409588:	c3                   	retq   

0000000000409589 <_ZSt15allocate_sharedINSt6thread5_ImplISt12_Bind_simpleIFZ10run_serveriSt8functionIFviEEEUlvE_vEEEESaIS9_EJS8_EESt10shared_ptrIT_ERKT0_DpOT1_>:
  409589:	55                   	push   %rbp
  40958a:	48 89 e5             	mov    %rsp,%rbp
  40958d:	53                   	push   %rbx
  40958e:	48 83 ec 38          	sub    $0x38,%rsp
  409592:	48 89 7d d8          	mov    %rdi,-0x28(%rbp)
  409596:	48 89 75 d0          	mov    %rsi,-0x30(%rbp)
  40959a:	48 89 55 c8          	mov    %rdx,-0x38(%rbp)
  40959e:	64 48 8b 04 25 28 00 	mov    %fs:0x28,%rax
  4095a5:	00 00 
  4095a7:	48 89 45 e8          	mov    %rax,-0x18(%rbp)
  4095ab:	31 c0                	xor    %eax,%eax
  4095ad:	48 8b 45 c8          	mov    -0x38(%rbp),%rax
  4095b1:	48 89 c7             	mov    %rax,%rdi
  4095b4:	e8 5b fd ff ff       	callq  409314 <_ZSt7forwardISt12_Bind_simpleIFZ10run_serveriSt8functionIFviEEEUlvE_vEEEOT_RNSt16remove_referenceIS7_E4typeE>
  4095b9:	48 89 c2             	mov    %rax,%rdx
  4095bc:	48 8b 4d d0          	mov    -0x30(%rbp),%rcx
  4095c0:	48 8b 45 d8          	mov    -0x28(%rbp),%rax
  4095c4:	48 83 ec 08          	sub    $0x8,%rsp
  4095c8:	53                   	push   %rbx
  4095c9:	48 89 ce             	mov    %rcx,%rsi
  4095cc:	48 89 c7             	mov    %rax,%rdi
  4095cf:	e8 3a 00 00 00       	callq  40960e <_ZNSt10shared_ptrINSt6thread5_ImplISt12_Bind_simpleIFZ10run_serveriSt8functionIFviEEEUlvE_vEEEEEC1ISaIS9_EJS8_EEESt19_Sp_make_shared_tagRKT_DpOT0_>
  4095d4:	48 83 c4 10          	add    $0x10,%rsp
  4095d8:	48 8b 45 d8          	mov    -0x28(%rbp),%rax
  4095dc:	48 8b 5d e8          	mov    -0x18(%rbp),%rbx
  4095e0:	64 48 33 1c 25 28 00 	xor    %fs:0x28,%rbx
  4095e7:	00 00 
  4095e9:	74 05                	je     4095f0 <_ZSt15allocate_sharedINSt6thread5_ImplISt12_Bind_simpleIFZ10run_serveriSt8functionIFviEEEUlvE_vEEEESaIS9_EJS8_EESt10shared_ptrIT_ERKT0_DpOT1_+0x67>
  4095eb:	e8 20 98 ff ff       	callq  402e10 <__stack_chk_fail@plt>
  4095f0:	48 8b 5d f8          	mov    -0x8(%rbp),%rbx
  4095f4:	c9                   	leaveq 
  4095f5:	c3                   	retq   

00000000004095f6 <_ZN9__gnu_cxx13new_allocatorINSt6thread5_ImplISt12_Bind_simpleIFZ10run_serveriSt8functionIFviEEEUlvE_vEEEEEC2Ev>:
  4095f6:	55                   	push   %rbp
  4095f7:	48 89 e5             	mov    %rsp,%rbp
  4095fa:	48 89 7d f8          	mov    %rdi,-0x8(%rbp)
  4095fe:	90                   	nop
  4095ff:	5d                   	pop    %rbp
  409600:	c3                   	retq   
  409601:	90                   	nop

0000000000409602 <_ZN9__gnu_cxx13new_allocatorINSt6thread5_ImplISt12_Bind_simpleIFZ10run_serveriSt8functionIFviEEEUlvE_vEEEEED2Ev>:
  409602:	55                   	push   %rbp
  409603:	48 89 e5             	mov    %rsp,%rbp
  409606:	48 89 7d f8          	mov    %rdi,-0x8(%rbp)
  40960a:	90                   	nop
  40960b:	5d                   	pop    %rbp
  40960c:	c3                   	retq   
  40960d:	90                   	nop

000000000040960e <_ZNSt10shared_ptrINSt6thread5_ImplISt12_Bind_simpleIFZ10run_serveriSt8functionIFviEEEUlvE_vEEEEEC1ISaIS9_EJS8_EEESt19_Sp_make_shared_tagRKT_DpOT0_>:
  40960e:	55                   	push   %rbp
  40960f:	48 89 e5             	mov    %rsp,%rbp
  409612:	53                   	push   %rbx
  409613:	48 83 ec 28          	sub    $0x28,%rsp
  409617:	48 89 7d e8          	mov    %rdi,-0x18(%rbp)
  40961b:	48 89 75 e0          	mov    %rsi,-0x20(%rbp)
  40961f:	48 89 55 d8          	mov    %rdx,-0x28(%rbp)
  409623:	48 8b 45 d8          	mov    -0x28(%rbp),%rax
  409627:	48 89 c7             	mov    %rax,%rdi
  40962a:	e8 e5 fc ff ff       	callq  409314 <_ZSt7forwardISt12_Bind_simpleIFZ10run_serveriSt8functionIFviEEEUlvE_vEEEOT_RNSt16remove_referenceIS7_E4typeE>
  40962f:	48 89 c2             	mov    %rax,%rdx
  409632:	48 8b 45 e8          	mov    -0x18(%rbp),%rax
  409636:	48 8b 4d e0          	mov    -0x20(%rbp),%rcx
  40963a:	48 83 ec 08          	sub    $0x8,%rsp
  40963e:	53                   	push   %rbx
  40963f:	48 89 ce             	mov    %rcx,%rsi
  409642:	48 89 c7             	mov    %rax,%rdi
  409645:	e8 0c 00 00 00       	callq  409656 <_ZNSt12__shared_ptrINSt6thread5_ImplISt12_Bind_simpleIFZ10run_serveriSt8functionIFviEEEUlvE_vEEEELN9__gnu_cxx12_Lock_policyE2EEC2ISaIS9_EJS8_EEESt19_Sp_make_shared_tagRKT_DpOT0_>
  40964a:	48 83 c4 10          	add    $0x10,%rsp
  40964e:	90                   	nop
  40964f:	48 8b 5d f8          	mov    -0x8(%rbp),%rbx
  409653:	c9                   	leaveq 
  409654:	c3                   	retq   
  409655:	90                   	nop

0000000000409656 <_ZNSt12__shared_ptrINSt6thread5_ImplISt12_Bind_simpleIFZ10run_serveriSt8functionIFviEEEUlvE_vEEEELN9__gnu_cxx12_Lock_policyE2EEC2ISaIS9_EJS8_EEESt19_Sp_make_shared_tagRKT_DpOT0_>:
  409656:	55                   	push   %rbp
  409657:	48 89 e5             	mov    %rsp,%rbp
  40965a:	53                   	push   %rbx
  40965b:	48 83 ec 38          	sub    $0x38,%rsp
  40965f:	48 89 7d d8          	mov    %rdi,-0x28(%rbp)
  409663:	48 89 75 d0          	mov    %rsi,-0x30(%rbp)
  409667:	48 89 55 c8          	mov    %rdx,-0x38(%rbp)
  40966b:	48 8b 45 d8          	mov    -0x28(%rbp),%rax
  40966f:	48 c7 00 00 00 00 00 	movq   $0x0,(%rax)
  409676:	48 8b 45 c8          	mov    -0x38(%rbp),%rax
  40967a:	48 89 c7             	mov    %rax,%rdi
  40967d:	e8 92 fc ff ff       	callq  409314 <_ZSt7forwardISt12_Bind_simpleIFZ10run_serveriSt8functionIFviEEEUlvE_vEEEOT_RNSt16remove_referenceIS7_E4typeE>
  409682:	48 89 c2             	mov    %rax,%rdx
  409685:	48 8b 45 d8          	mov    -0x28(%rbp),%rax
  409689:	48 8d 78 08          	lea    0x8(%rax),%rdi
  40968d:	48 8b 45 d0          	mov    -0x30(%rbp),%rax
  409691:	48 83 ec 08          	sub    $0x8,%rsp
  409695:	53                   	push   %rbx
  409696:	48 89 d1             	mov    %rdx,%rcx
  409699:	48 89 c2             	mov    %rax,%rdx
  40969c:	be 00 00 00 00       	mov    $0x0,%esi
  4096a1:	e8 64 00 00 00       	callq  40970a <_ZNSt14__shared_countILN9__gnu_cxx12_Lock_policyE2EEC1INSt6thread5_ImplISt12_Bind_simpleIFZ10run_serveriSt8functionIFviEEEUlvE_vEEEESaISD_EJSC_EEESt19_Sp_make_shared_tagPT_RKT0_DpOT1_>
  4096a6:	48 83 c4 10          	add    $0x10,%rsp
  4096aa:	48 8b 45 d8          	mov    -0x28(%rbp),%rax
  4096ae:	48 83 c0 08          	add    $0x8,%rax
  4096b2:	be 10 e2 40 00       	mov    $0x40e210,%esi
  4096b7:	48 89 c7             	mov    %rax,%rdi
  4096ba:	e8 c9 45 00 00       	callq  40dc88 <_ZNKSt14__shared_countILN9__gnu_cxx12_Lock_policyE2EE14_M_get_deleterERKSt9type_info>
  4096bf:	48 89 45 e8          	mov    %rax,-0x18(%rbp)
  4096c3:	48 8b 45 d8          	mov    -0x28(%rbp),%rax
  4096c7:	48 8b 55 e8          	mov    -0x18(%rbp),%rdx
  4096cb:	48 89 10             	mov    %rdx,(%rax)
  4096ce:	48 8b 45 d8          	mov    -0x28(%rbp),%rax
  4096d2:	48 8b 10             	mov    (%rax),%rdx
  4096d5:	48 8b 45 d8          	mov    -0x28(%rbp),%rax
  4096d9:	48 8b 00             	mov    (%rax),%rax
  4096dc:	48 8b 4d d8          	mov    -0x28(%rbp),%rcx
  4096e0:	48 83 c1 08          	add    $0x8,%rcx
  4096e4:	48 89 c6             	mov    %rax,%rsi
  4096e7:	48 89 cf             	mov    %rcx,%rdi
  4096ea:	b8 00 00 00 00       	mov    $0x0,%eax
  4096ef:	e8 dd 45 00 00       	callq  40dcd1 <_ZSt32__enable_shared_from_this_helperILN9__gnu_cxx12_Lock_policyE2EEvRKSt14__shared_countIXT_EEz>
  4096f4:	90                   	nop
  4096f5:	48 8b 5d f8          	mov    -0x8(%rbp),%rbx
  4096f9:	c9                   	leaveq 
  4096fa:	c3                   	retq   

00000000004096fb <_ZSt4moveIRKSaINSt6thread5_ImplISt12_Bind_simpleIFZ10run_serveriSt8functionIFviEEEUlvE_vEEEEEEONSt16remove_referenceIT_E4typeEOSE_>:
  4096fb:	55                   	push   %rbp
  4096fc:	48 89 e5             	mov    %rsp,%rbp
  4096ff:	48 89 7d f8          	mov    %rdi,-0x8(%rbp)
  409703:	48 8b 45 f8          	mov    -0x8(%rbp),%rax
  409707:	5d                   	pop    %rbp
  409708:	c3                   	retq   
  409709:	90                   	nop

000000000040970a <_ZNSt14__shared_countILN9__gnu_cxx12_Lock_policyE2EEC1INSt6thread5_ImplISt12_Bind_simpleIFZ10run_serveriSt8functionIFviEEEUlvE_vEEEESaISD_EJSC_EEESt19_Sp_make_shared_tagPT_RKT0_DpOT1_>:
  40970a:	55                   	push   %rbp
  40970b:	48 89 e5             	mov    %rsp,%rbp
  40970e:	41 56                	push   %r14
  409710:	41 55                	push   %r13
  409712:	41 54                	push   %r12
  409714:	53                   	push   %rbx
  409715:	48 83 ec 50          	sub    $0x50,%rsp
  409719:	48 89 7d a8          	mov    %rdi,-0x58(%rbp)
  40971d:	48 89 75 a0          	mov    %rsi,-0x60(%rbp)
  409721:	48 89 55 98          	mov    %rdx,-0x68(%rbp)
  409725:	48 89 4d 90          	mov    %rcx,-0x70(%rbp)
  409729:	64 48 8b 04 25 28 00 	mov    %fs:0x28,%rax
  409730:	00 00 
  409732:	48 89 45 d8          	mov    %rax,-0x28(%rbp)
  409736:	31 c0                	xor    %eax,%eax
  409738:	48 8b 45 a8          	mov    -0x58(%rbp),%rax
  40973c:	48 c7 00 00 00 00 00 	movq   $0x0,(%rax)
  409743:	48 8b 55 98          	mov    -0x68(%rbp),%rdx
  409747:	48 8d 45 b6          	lea    -0x4a(%rbp),%rax
  40974b:	48 89 d6             	mov    %rdx,%rsi
  40974e:	48 89 c7             	mov    %rax,%rdi
  409751:	e8 2a 01 00 00       	callq  409880 <_ZNSaISt23_Sp_counted_ptr_inplaceINSt6thread5_ImplISt12_Bind_simpleIFZ10run_serveriSt8functionIFviEEEUlvE_vEEEESaIS9_ELN9__gnu_cxx12_Lock_policyE2EEEC1IS9_EERKSaIT_E>
  409756:	48 8d 45 c0          	lea    -0x40(%rbp),%rax
  40975a:	48 8d 55 b6          	lea    -0x4a(%rbp),%rdx
  40975e:	48 89 d6             	mov    %rdx,%rsi
  409761:	48 89 c7             	mov    %rax,%rdi
  409764:	e8 52 01 00 00       	callq  4098bb <_ZSt18__allocate_guardedISaISt23_Sp_counted_ptr_inplaceINSt6thread5_ImplISt12_Bind_simpleIFZ10run_serveriSt8functionIFviEEEUlvE_vEEEESaISA_ELN9__gnu_cxx12_Lock_policyE2EEEESt15__allocated_ptrIT_ERSH_>
  409769:	48 8d 45 c0          	lea    -0x40(%rbp),%rax
  40976d:	48 89 c7             	mov    %rax,%rdi
  409770:	e8 bf 01 00 00       	callq  409934 <_ZNSt15__allocated_ptrISaISt23_Sp_counted_ptr_inplaceINSt6thread5_ImplISt12_Bind_simpleIFZ10run_serveriSt8functionIFviEEEUlvE_vEEEESaISA_ELN9__gnu_cxx12_Lock_policyE2EEEE3getEv>
  409775:	48 89 45 b8          	mov    %rax,-0x48(%rbp)
  409779:	48 8b 45 98          	mov    -0x68(%rbp),%rax
  40977d:	48 89 c7             	mov    %rax,%rdi
  409780:	e8 76 ff ff ff       	callq  4096fb <_ZSt4moveIRKSaINSt6thread5_ImplISt12_Bind_simpleIFZ10run_serveriSt8functionIFviEEEUlvE_vEEEEEEONSt16remove_referenceIT_E4typeEOSE_>
  409785:	48 89 c2             	mov    %rax,%rdx
  409788:	48 8d 45 b7          	lea    -0x49(%rbp),%rax
  40978c:	48 89 d6             	mov    %rdx,%rsi
  40978f:	48 89 c7             	mov    %rax,%rdi
  409792:	e8 c3 01 00 00       	callq  40995a <_ZNSaINSt6thread5_ImplISt12_Bind_simpleIFZ10run_serveriSt8functionIFviEEEUlvE_vEEEEEC1ERKS9_>
  409797:	4c 8d 6d b7          	lea    -0x49(%rbp),%r13
  40979b:	48 8b 45 90          	mov    -0x70(%rbp),%rax
  40979f:	48 89 c7             	mov    %rax,%rdi
  4097a2:	e8 6d fb ff ff       	callq  409314 <_ZSt7forwardISt12_Bind_simpleIFZ10run_serveriSt8functionIFviEEEUlvE_vEEEOT_RNSt16remove_referenceIS7_E4typeE>
  4097a7:	49 89 c6             	mov    %rax,%r14
  4097aa:	4c 8b 65 b8          	mov    -0x48(%rbp),%r12
  4097ae:	4c 89 e6             	mov    %r12,%rsi
  4097b1:	bf 48 00 00 00       	mov    $0x48,%edi
  4097b6:	e8 ae a4 ff ff       	callq  403c69 <_ZnwmPv>
  4097bb:	48 89 c3             	mov    %rax,%rbx
  4097be:	48 85 db             	test   %rbx,%rbx
  4097c1:	74 0e                	je     4097d1 <_ZNSt14__shared_countILN9__gnu_cxx12_Lock_policyE2EEC1INSt6thread5_ImplISt12_Bind_simpleIFZ10run_serveriSt8functionIFviEEEUlvE_vEEEESaISD_EJSC_EEESt19_Sp_make_shared_tagPT_RKT0_DpOT1_+0xc7>
  4097c3:	4c 89 f2             	mov    %r14,%rdx
  4097c6:	4c 89 ee             	mov    %r13,%rsi
  4097c9:	48 89 df             	mov    %rbx,%rdi
  4097cc:	e8 e7 01 00 00       	callq  4099b8 <_ZNSt23_Sp_counted_ptr_inplaceINSt6thread5_ImplISt12_Bind_simpleIFZ10run_serveriSt8functionIFviEEEUlvE_vEEEESaIS9_ELN9__gnu_cxx12_Lock_policyE2EEC1IJS8_EEESA_DpOT_>
  4097d1:	48 8d 45 b7          	lea    -0x49(%rbp),%rax
  4097d5:	48 89 c7             	mov    %rax,%rdi
  4097d8:	e8 91 fd ff ff       	callq  40956e <_ZNSaINSt6thread5_ImplISt12_Bind_simpleIFZ10run_serveriSt8functionIFviEEEUlvE_vEEEEED1Ev>
  4097dd:	48 8b 45 a8          	mov    -0x58(%rbp),%rax
  4097e1:	48 8b 55 b8          	mov    -0x48(%rbp),%rdx
  4097e5:	48 89 10             	mov    %rdx,(%rax)
  4097e8:	48 8d 45 c0          	lea    -0x40(%rbp),%rax
  4097ec:	be 00 00 00 00       	mov    $0x0,%esi
  4097f1:	48 89 c7             	mov    %rax,%rdi
  4097f4:	e8 a9 02 00 00       	callq  409aa2 <_ZNSt15__allocated_ptrISaISt23_Sp_counted_ptr_inplaceINSt6thread5_ImplISt12_Bind_simpleIFZ10run_serveriSt8functionIFviEEEUlvE_vEEEESaISA_ELN9__gnu_cxx12_Lock_policyE2EEEEaSEDn>
  4097f9:	48 8d 45 c0          	lea    -0x40(%rbp),%rax
  4097fd:	48 89 c7             	mov    %rax,%rdi
  409800:	e8 f3 00 00 00       	callq  4098f8 <_ZNSt15__allocated_ptrISaISt23_Sp_counted_ptr_inplaceINSt6thread5_ImplISt12_Bind_simpleIFZ10run_serveriSt8functionIFviEEEUlvE_vEEEESaISA_ELN9__gnu_cxx12_Lock_policyE2EEEED1Ev>
  409805:	48 8d 45 b6          	lea    -0x4a(%rbp),%rax
  409809:	48 89 c7             	mov    %rax,%rdi
  40980c:	e8 8f 00 00 00       	callq  4098a0 <_ZNSaISt23_Sp_counted_ptr_inplaceINSt6thread5_ImplISt12_Bind_simpleIFZ10run_serveriSt8functionIFviEEEUlvE_vEEEESaIS9_ELN9__gnu_cxx12_Lock_policyE2EEED1Ev>
  409811:	90                   	nop
  409812:	48 8b 45 d8          	mov    -0x28(%rbp),%rax
  409816:	64 48 33 04 25 28 00 	xor    %fs:0x28,%rax
  40981d:	00 00 
  40981f:	74 51                	je     409872 <_ZNSt14__shared_countILN9__gnu_cxx12_Lock_policyE2EEC1INSt6thread5_ImplISt12_Bind_simpleIFZ10run_serveriSt8functionIFviEEEUlvE_vEEEESaISD_EJSC_EEESt19_Sp_make_shared_tagPT_RKT0_DpOT1_+0x168>
  409821:	eb 4a                	jmp    40986d <_ZNSt14__shared_countILN9__gnu_cxx12_Lock_policyE2EEC1INSt6thread5_ImplISt12_Bind_simpleIFZ10run_serveriSt8functionIFviEEEUlvE_vEEEESaISD_EJSC_EEESt19_Sp_make_shared_tagPT_RKT0_DpOT1_+0x163>
  409823:	49 89 c5             	mov    %rax,%r13
  409826:	4c 89 e6             	mov    %r12,%rsi
  409829:	48 89 df             	mov    %rbx,%rdi
  40982c:	e8 4a a4 ff ff       	callq  403c7b <_ZdlPvS_>
  409831:	4c 89 eb             	mov    %r13,%rbx
  409834:	48 8d 45 b7          	lea    -0x49(%rbp),%rax
  409838:	48 89 c7             	mov    %rax,%rdi
  40983b:	e8 2e fd ff ff       	callq  40956e <_ZNSaINSt6thread5_ImplISt12_Bind_simpleIFZ10run_serveriSt8functionIFviEEEUlvE_vEEEEED1Ev>
  409840:	eb 03                	jmp    409845 <_ZNSt14__shared_countILN9__gnu_cxx12_Lock_policyE2EEC1INSt6thread5_ImplISt12_Bind_simpleIFZ10run_serveriSt8functionIFviEEEUlvE_vEEEESaISD_EJSC_EEESt19_Sp_make_shared_tagPT_RKT0_DpOT1_+0x13b>
  409842:	48 89 c3             	mov    %rax,%rbx
  409845:	48 8d 45 c0          	lea    -0x40(%rbp),%rax
  409849:	48 89 c7             	mov    %rax,%rdi
  40984c:	e8 a7 00 00 00       	callq  4098f8 <_ZNSt15__allocated_ptrISaISt23_Sp_counted_ptr_inplaceINSt6thread5_ImplISt12_Bind_simpleIFZ10run_serveriSt8functionIFviEEEUlvE_vEEEESaISA_ELN9__gnu_cxx12_Lock_policyE2EEEED1Ev>
  409851:	eb 03                	jmp    409856 <_ZNSt14__shared_countILN9__gnu_cxx12_Lock_policyE2EEC1INSt6thread5_ImplISt12_Bind_simpleIFZ10run_serveriSt8functionIFviEEEUlvE_vEEEESaISD_EJSC_EEESt19_Sp_make_shared_tagPT_RKT0_DpOT1_+0x14c>
  409853:	48 89 c3             	mov    %rax,%rbx
  409856:	48 8d 45 b6          	lea    -0x4a(%rbp),%rax
  40985a:	48 89 c7             	mov    %rax,%rdi
  40985d:	e8 3e 00 00 00       	callq  4098a0 <_ZNSaISt23_Sp_counted_ptr_inplaceINSt6thread5_ImplISt12_Bind_simpleIFZ10run_serveriSt8functionIFviEEEUlvE_vEEEESaIS9_ELN9__gnu_cxx12_Lock_policyE2EEED1Ev>
  409862:	48 89 d8             	mov    %rbx,%rax
  409865:	48 89 c7             	mov    %rax,%rdi
  409868:	e8 53 97 ff ff       	callq  402fc0 <_Unwind_Resume@plt>
  40986d:	e8 9e 95 ff ff       	callq  402e10 <__stack_chk_fail@plt>
  409872:	48 83 c4 50          	add    $0x50,%rsp
  409876:	5b                   	pop    %rbx
  409877:	41 5c                	pop    %r12
  409879:	41 5d                	pop    %r13
  40987b:	41 5e                	pop    %r14
  40987d:	5d                   	pop    %rbp
  40987e:	c3                   	retq   
  40987f:	90                   	nop

0000000000409880 <_ZNSaISt23_Sp_counted_ptr_inplaceINSt6thread5_ImplISt12_Bind_simpleIFZ10run_serveriSt8functionIFviEEEUlvE_vEEEESaIS9_ELN9__gnu_cxx12_Lock_policyE2EEEC1IS9_EERKSaIT_E>:
  409880:	55                   	push   %rbp
  409881:	48 89 e5             	mov    %rsp,%rbp
  409884:	48 83 ec 10          	sub    $0x10,%rsp
  409888:	48 89 7d f8          	mov    %rdi,-0x8(%rbp)
  40988c:	48 89 75 f0          	mov    %rsi,-0x10(%rbp)
  409890:	48 8b 45 f8          	mov    -0x8(%rbp),%rax
  409894:	48 89 c7             	mov    %rax,%rdi
  409897:	e8 24 02 00 00       	callq  409ac0 <_ZN9__gnu_cxx13new_allocatorISt23_Sp_counted_ptr_inplaceINSt6thread5_ImplISt12_Bind_simpleIFZ10run_serveriSt8functionIFviEEEUlvE_vEEEESaISB_ELNS_12_Lock_policyE2EEEC2Ev>
  40989c:	90                   	nop
  40989d:	c9                   	leaveq 
  40989e:	c3                   	retq   
  40989f:	90                   	nop

00000000004098a0 <_ZNSaISt23_Sp_counted_ptr_inplaceINSt6thread5_ImplISt12_Bind_simpleIFZ10run_serveriSt8functionIFviEEEUlvE_vEEEESaIS9_ELN9__gnu_cxx12_Lock_policyE2EEED1Ev>:
  4098a0:	55                   	push   %rbp
  4098a1:	48 89 e5             	mov    %rsp,%rbp
  4098a4:	48 83 ec 10          	sub    $0x10,%rsp
  4098a8:	48 89 7d f8          	mov    %rdi,-0x8(%rbp)
  4098ac:	48 8b 45 f8          	mov    -0x8(%rbp),%rax
  4098b0:	48 89 c7             	mov    %rax,%rdi
  4098b3:	e8 14 02 00 00       	callq  409acc <_ZN9__gnu_cxx13new_allocatorISt23_Sp_counted_ptr_inplaceINSt6thread5_ImplISt12_Bind_simpleIFZ10run_serveriSt8functionIFviEEEUlvE_vEEEESaISB_ELNS_12_Lock_policyE2EEED2Ev>
  4098b8:	90                   	nop
  4098b9:	c9                   	leaveq 
  4098ba:	c3                   	retq   

00000000004098bb <_ZSt18__allocate_guardedISaISt23_Sp_counted_ptr_inplaceINSt6thread5_ImplISt12_Bind_simpleIFZ10run_serveriSt8functionIFviEEEUlvE_vEEEESaISA_ELN9__gnu_cxx12_Lock_policyE2EEEESt15__allocated_ptrIT_ERSH_>:
  4098bb:	55                   	push   %rbp
  4098bc:	48 89 e5             	mov    %rsp,%rbp
  4098bf:	48 83 ec 10          	sub    $0x10,%rsp
  4098c3:	48 89 7d f8          	mov    %rdi,-0x8(%rbp)
  4098c7:	48 89 75 f0          	mov    %rsi,-0x10(%rbp)
  4098cb:	48 8b 45 f0          	mov    -0x10(%rbp),%rax
  4098cf:	be 01 00 00 00       	mov    $0x1,%esi
  4098d4:	48 89 c7             	mov    %rax,%rdi
  4098d7:	e8 fb 01 00 00       	callq  409ad7 <_ZNSt16allocator_traitsISaISt23_Sp_counted_ptr_inplaceINSt6thread5_ImplISt12_Bind_simpleIFZ10run_serveriSt8functionIFviEEEUlvE_vEEEESaISA_ELN9__gnu_cxx12_Lock_policyE2EEEE8allocateERSF_m>
  4098dc:	48 89 c2             	mov    %rax,%rdx
  4098df:	48 8b 4d f0          	mov    -0x10(%rbp),%rcx
  4098e3:	48 8b 45 f8          	mov    -0x8(%rbp),%rax
  4098e7:	48 89 ce             	mov    %rcx,%rsi
  4098ea:	48 89 c7             	mov    %rax,%rdi
  4098ed:	e8 10 02 00 00       	callq  409b02 <_ZNSt15__allocated_ptrISaISt23_Sp_counted_ptr_inplaceINSt6thread5_ImplISt12_Bind_simpleIFZ10run_serveriSt8functionIFviEEEUlvE_vEEEESaISA_ELN9__gnu_cxx12_Lock_policyE2EEEEC1ERSF_PSE_>
  4098f2:	48 8b 45 f8          	mov    -0x8(%rbp),%rax
  4098f6:	c9                   	leaveq 
  4098f7:	c3                   	retq   

00000000004098f8 <_ZNSt15__allocated_ptrISaISt23_Sp_counted_ptr_inplaceINSt6thread5_ImplISt12_Bind_simpleIFZ10run_serveriSt8functionIFviEEEUlvE_vEEEESaISA_ELN9__gnu_cxx12_Lock_policyE2EEEED1Ev>:
  4098f8:	55                   	push   %rbp
  4098f9:	48 89 e5             	mov    %rsp,%rbp
  4098fc:	48 83 ec 10          	sub    $0x10,%rsp
  409900:	48 89 7d f8          	mov    %rdi,-0x8(%rbp)
  409904:	48 8b 45 f8          	mov    -0x8(%rbp),%rax
  409908:	48 8b 40 08          	mov    0x8(%rax),%rax
  40990c:	48 85 c0             	test   %rax,%rax
  40990f:	74 1f                	je     409930 <_ZNSt15__allocated_ptrISaISt23_Sp_counted_ptr_inplaceINSt6thread5_ImplISt12_Bind_simpleIFZ10run_serveriSt8functionIFviEEEUlvE_vEEEESaISA_ELN9__gnu_cxx12_Lock_policyE2EEEED1Ev+0x38>
  409911:	48 8b 45 f8          	mov    -0x8(%rbp),%rax
  409915:	48 8b 48 08          	mov    0x8(%rax),%rcx
  409919:	48 8b 45 f8          	mov    -0x8(%rbp),%rax
  40991d:	48 8b 00             	mov    (%rax),%rax
  409920:	ba 01 00 00 00       	mov    $0x1,%edx
  409925:	48 89 ce             	mov    %rcx,%rsi
  409928:	48 89 c7             	mov    %rax,%rdi
  40992b:	e8 fc 01 00 00       	callq  409b2c <_ZNSt16allocator_traitsISaISt23_Sp_counted_ptr_inplaceINSt6thread5_ImplISt12_Bind_simpleIFZ10run_serveriSt8functionIFviEEEUlvE_vEEEESaISA_ELN9__gnu_cxx12_Lock_policyE2EEEE10deallocateERSF_PSE_m>
  409930:	90                   	nop
  409931:	c9                   	leaveq 
  409932:	c3                   	retq   
  409933:	90                   	nop

0000000000409934 <_ZNSt15__allocated_ptrISaISt23_Sp_counted_ptr_inplaceINSt6thread5_ImplISt12_Bind_simpleIFZ10run_serveriSt8functionIFviEEEUlvE_vEEEESaISA_ELN9__gnu_cxx12_Lock_policyE2EEEE3getEv>:
  409934:	55                   	push   %rbp
  409935:	48 89 e5             	mov    %rsp,%rbp
  409938:	48 83 ec 10          	sub    $0x10,%rsp
  40993c:	48 89 7d f8          	mov    %rdi,-0x8(%rbp)
  409940:	48 8b 45 f8          	mov    -0x8(%rbp),%rax
  409944:	48 8b 50 08          	mov    0x8(%rax),%rdx
  409948:	48 8b 45 f8          	mov    -0x8(%rbp),%rax
  40994c:	48 89 d6             	mov    %rdx,%rsi
  40994f:	48 89 c7             	mov    %rax,%rdi
  409952:	e8 03 02 00 00       	callq  409b5a <_ZNSt15__allocated_ptrISaISt23_Sp_counted_ptr_inplaceINSt6thread5_ImplISt12_Bind_simpleIFZ10run_serveriSt8functionIFviEEEUlvE_vEEEESaISA_ELN9__gnu_cxx12_Lock_policyE2EEEE10_S_raw_ptrEPSE_>
  409957:	c9                   	leaveq 
  409958:	c3                   	retq   
  409959:	90                   	nop

000000000040995a <_ZNSaINSt6thread5_ImplISt12_Bind_simpleIFZ10run_serveriSt8functionIFviEEEUlvE_vEEEEEC1ERKS9_>:
  40995a:	55                   	push   %rbp
  40995b:	48 89 e5             	mov    %rsp,%rbp
  40995e:	48 83 ec 10          	sub    $0x10,%rsp
  409962:	48 89 7d f8          	mov    %rdi,-0x8(%rbp)
  409966:	48 89 75 f0          	mov    %rsi,-0x10(%rbp)
  40996a:	48 8b 55 f0          	mov    -0x10(%rbp),%rdx
  40996e:	48 8b 45 f8          	mov    -0x8(%rbp),%rax
  409972:	48 89 d6             	mov    %rdx,%rsi
  409975:	48 89 c7             	mov    %rax,%rdi
  409978:	e8 ef 01 00 00       	callq  409b6c <_ZN9__gnu_cxx13new_allocatorINSt6thread5_ImplISt12_Bind_simpleIFZ10run_serveriSt8functionIFviEEEUlvE_vEEEEEC2ERKSB_>
  40997d:	90                   	nop
  40997e:	c9                   	leaveq 
  40997f:	c3                   	retq   

0000000000409980 <_ZNSt14_Sp_ebo_helperILi0ESaINSt6thread5_ImplISt12_Bind_simpleIFZ10run_serveriSt8functionIFviEEEUlvE_vEEEEELb1EED2Ev>:
  409980:	55                   	push   %rbp
  409981:	48 89 e5             	mov    %rsp,%rbp
  409984:	48 83 ec 10          	sub    $0x10,%rsp
  409988:	48 89 7d f8          	mov    %rdi,-0x8(%rbp)
  40998c:	48 8b 45 f8          	mov    -0x8(%rbp),%rax
  409990:	48 89 c7             	mov    %rax,%rdi
  409993:	e8 d6 fb ff ff       	callq  40956e <_ZNSaINSt6thread5_ImplISt12_Bind_simpleIFZ10run_serveriSt8functionIFviEEEUlvE_vEEEEED1Ev>
  409998:	90                   	nop
  409999:	c9                   	leaveq 
  40999a:	c3                   	retq   
  40999b:	90                   	nop

000000000040999c <_ZNSt23_Sp_counted_ptr_inplaceINSt6thread5_ImplISt12_Bind_simpleIFZ10run_serveriSt8functionIFviEEEUlvE_vEEEESaIS9_ELN9__gnu_cxx12_Lock_policyE2EE5_ImplD1Ev>:
  40999c:	55                   	push   %rbp
  40999d:	48 89 e5             	mov    %rsp,%rbp
  4099a0:	48 83 ec 10          	sub    $0x10,%rsp
  4099a4:	48 89 7d f8          	mov    %rdi,-0x8(%rbp)
  4099a8:	48 8b 45 f8          	mov    -0x8(%rbp),%rax
  4099ac:	48 89 c7             	mov    %rax,%rdi
  4099af:	e8 cc ff ff ff       	callq  409980 <_ZNSt14_Sp_ebo_helperILi0ESaINSt6thread5_ImplISt12_Bind_simpleIFZ10run_serveriSt8functionIFviEEEUlvE_vEEEEELb1EED2Ev>
  4099b4:	90                   	nop
  4099b5:	c9                   	leaveq 
  4099b6:	c3                   	retq   
  4099b7:	90                   	nop

00000000004099b8 <_ZNSt23_Sp_counted_ptr_inplaceINSt6thread5_ImplISt12_Bind_simpleIFZ10run_serveriSt8functionIFviEEEUlvE_vEEEESaIS9_ELN9__gnu_cxx12_Lock_policyE2EEC1IJS8_EEESA_DpOT_>:
  4099b8:	55                   	push   %rbp
  4099b9:	48 89 e5             	mov    %rsp,%rbp
  4099bc:	53                   	push   %rbx
  4099bd:	48 83 ec 38          	sub    $0x38,%rsp
  4099c1:	48 89 7d d8          	mov    %rdi,-0x28(%rbp)
  4099c5:	48 89 75 d0          	mov    %rsi,-0x30(%rbp)
  4099c9:	48 89 55 c8          	mov    %rdx,-0x38(%rbp)
  4099cd:	64 48 8b 04 25 28 00 	mov    %fs:0x28,%rax
  4099d4:	00 00 
  4099d6:	48 89 45 e8          	mov    %rax,-0x18(%rbp)
  4099da:	31 c0                	xor    %eax,%eax
  4099dc:	48 8b 45 d8          	mov    -0x28(%rbp),%rax
  4099e0:	48 89 c7             	mov    %rax,%rdi
  4099e3:	e8 4e 43 00 00       	callq  40dd36 <_ZNSt16_Sp_counted_baseILN9__gnu_cxx12_Lock_policyE2EEC1Ev>
  4099e8:	ba 20 e0 40 00       	mov    $0x40e020,%edx
  4099ed:	48 8b 45 d8          	mov    -0x28(%rbp),%rax
  4099f1:	48 89 10             	mov    %rdx,(%rax)
  4099f4:	48 8b 55 d0          	mov    -0x30(%rbp),%rdx
  4099f8:	48 8d 45 e7          	lea    -0x19(%rbp),%rax
  4099fc:	48 89 d6             	mov    %rdx,%rsi
  4099ff:	48 89 c7             	mov    %rax,%rdi
  409a02:	e8 53 ff ff ff       	callq  40995a <_ZNSaINSt6thread5_ImplISt12_Bind_simpleIFZ10run_serveriSt8functionIFviEEEUlvE_vEEEEEC1ERKS9_>
  409a07:	48 8b 45 d8          	mov    -0x28(%rbp),%rax
  409a0b:	48 8d 50 10          	lea    0x10(%rax),%rdx
  409a0f:	48 8d 45 e7          	lea    -0x19(%rbp),%rax
  409a13:	48 89 c6             	mov    %rax,%rsi
  409a16:	48 89 d7             	mov    %rdx,%rdi
  409a19:	e8 7a 01 00 00       	callq  409b98 <_ZNSt23_Sp_counted_ptr_inplaceINSt6thread5_ImplISt12_Bind_simpleIFZ10run_serveriSt8functionIFviEEEUlvE_vEEEESaIS9_ELN9__gnu_cxx12_Lock_policyE2EE5_ImplC1ESA_>
  409a1e:	48 8d 45 e7          	lea    -0x19(%rbp),%rax
  409a22:	48 89 c7             	mov    %rax,%rdi
  409a25:	e8 44 fb ff ff       	callq  40956e <_ZNSaINSt6thread5_ImplISt12_Bind_simpleIFZ10run_serveriSt8functionIFviEEEUlvE_vEEEEED1Ev>
  409a2a:	48 8b 45 c8          	mov    -0x38(%rbp),%rax
  409a2e:	48 89 c7             	mov    %rax,%rdi
  409a31:	e8 de f8 ff ff       	callq  409314 <_ZSt7forwardISt12_Bind_simpleIFZ10run_serveriSt8functionIFviEEEUlvE_vEEEOT_RNSt16remove_referenceIS7_E4typeE>
  409a36:	48 89 c3             	mov    %rax,%rbx
  409a39:	48 8b 45 d8          	mov    -0x28(%rbp),%rax
  409a3d:	48 89 c7             	mov    %rax,%rdi
  409a40:	e8 85 01 00 00       	callq  409bca <_ZNSt23_Sp_counted_ptr_inplaceINSt6thread5_ImplISt12_Bind_simpleIFZ10run_serveriSt8functionIFviEEEUlvE_vEEEESaIS9_ELN9__gnu_cxx12_Lock_policyE2EE6_M_ptrEv>
  409a45:	48 89 c1             	mov    %rax,%rcx
  409a48:	48 8b 45 d0          	mov    -0x30(%rbp),%rax
  409a4c:	48 89 da             	mov    %rbx,%rdx
  409a4f:	48 89 ce             	mov    %rcx,%rsi
  409a52:	48 89 c7             	mov    %rax,%rdi
  409a55:	e8 8e 01 00 00       	callq  409be8 <_ZNSt16allocator_traitsISaINSt6thread5_ImplISt12_Bind_simpleIFZ10run_serveriSt8functionIFviEEEUlvE_vEEEEEE9constructIS9_JS8_EEEvRSA_PT_DpOT0_>
  409a5a:	eb 2a                	jmp    409a86 <_ZNSt23_Sp_counted_ptr_inplaceINSt6thread5_ImplISt12_Bind_simpleIFZ10run_serveriSt8functionIFviEEEUlvE_vEEEESaIS9_ELN9__gnu_cxx12_Lock_policyE2EEC1IJS8_EEESA_DpOT_+0xce>
  409a5c:	48 89 c3             	mov    %rax,%rbx
  409a5f:	48 8b 45 d8          	mov    -0x28(%rbp),%rax
  409a63:	48 83 c0 10          	add    $0x10,%rax
  409a67:	48 89 c7             	mov    %rax,%rdi
  409a6a:	e8 2d ff ff ff       	callq  40999c <_ZNSt23_Sp_counted_ptr_inplaceINSt6thread5_ImplISt12_Bind_simpleIFZ10run_serveriSt8functionIFviEEEUlvE_vEEEESaIS9_ELN9__gnu_cxx12_Lock_policyE2EE5_ImplD1Ev>
  409a6f:	48 8b 45 d8          	mov    -0x28(%rbp),%rax
  409a73:	48 89 c7             	mov    %rax,%rdi
  409a76:	e8 e5 2b 00 00       	callq  40c660 <_ZNSt16_Sp_counted_baseILN9__gnu_cxx12_Lock_policyE2EED1Ev>
  409a7b:	48 89 d8             	mov    %rbx,%rax
  409a7e:	48 89 c7             	mov    %rax,%rdi
  409a81:	e8 3a 95 ff ff       	callq  402fc0 <_Unwind_Resume@plt>
  409a86:	48 8b 45 e8          	mov    -0x18(%rbp),%rax
  409a8a:	64 48 33 04 25 28 00 	xor    %fs:0x28,%rax
  409a91:	00 00 
  409a93:	74 05                	je     409a9a <_ZNSt23_Sp_counted_ptr_inplaceINSt6thread5_ImplISt12_Bind_simpleIFZ10run_serveriSt8functionIFviEEEUlvE_vEEEESaIS9_ELN9__gnu_cxx12_Lock_policyE2EEC1IJS8_EEESA_DpOT_+0xe2>
  409a95:	e8 76 93 ff ff       	callq  402e10 <__stack_chk_fail@plt>
  409a9a:	48 83 c4 38          	add    $0x38,%rsp
  409a9e:	5b                   	pop    %rbx
  409a9f:	5d                   	pop    %rbp
  409aa0:	c3                   	retq   
  409aa1:	90                   	nop

0000000000409aa2 <_ZNSt15__allocated_ptrISaISt23_Sp_counted_ptr_inplaceINSt6thread5_ImplISt12_Bind_simpleIFZ10run_serveriSt8functionIFviEEEUlvE_vEEEESaISA_ELN9__gnu_cxx12_Lock_policyE2EEEEaSEDn>:
  409aa2:	55                   	push   %rbp
  409aa3:	48 89 e5             	mov    %rsp,%rbp
  409aa6:	48 89 7d f8          	mov    %rdi,-0x8(%rbp)
  409aaa:	48 89 75 f0          	mov    %rsi,-0x10(%rbp)
  409aae:	48 8b 45 f8          	mov    -0x8(%rbp),%rax
  409ab2:	48 c7 40 08 00 00 00 	movq   $0x0,0x8(%rax)
  409ab9:	00 
  409aba:	48 8b 45 f8          	mov    -0x8(%rbp),%rax
  409abe:	5d                   	pop    %rbp
  409abf:	c3                   	retq   

0000000000409ac0 <_ZN9__gnu_cxx13new_allocatorISt23_Sp_counted_ptr_inplaceINSt6thread5_ImplISt12_Bind_simpleIFZ10run_serveriSt8functionIFviEEEUlvE_vEEEESaISB_ELNS_12_Lock_policyE2EEEC2Ev>:
  409ac0:	55                   	push   %rbp
  409ac1:	48 89 e5             	mov    %rsp,%rbp
  409ac4:	48 89 7d f8          	mov    %rdi,-0x8(%rbp)
  409ac8:	90                   	nop
  409ac9:	5d                   	pop    %rbp
  409aca:	c3                   	retq   
  409acb:	90                   	nop

0000000000409acc <_ZN9__gnu_cxx13new_allocatorISt23_Sp_counted_ptr_inplaceINSt6thread5_ImplISt12_Bind_simpleIFZ10run_serveriSt8functionIFviEEEUlvE_vEEEESaISB_ELNS_12_Lock_policyE2EEED2Ev>:
  409acc:	55                   	push   %rbp
  409acd:	48 89 e5             	mov    %rsp,%rbp
  409ad0:	48 89 7d f8          	mov    %rdi,-0x8(%rbp)
  409ad4:	90                   	nop
  409ad5:	5d                   	pop    %rbp
  409ad6:	c3                   	retq   

0000000000409ad7 <_ZNSt16allocator_traitsISaISt23_Sp_counted_ptr_inplaceINSt6thread5_ImplISt12_Bind_simpleIFZ10run_serveriSt8functionIFviEEEUlvE_vEEEESaISA_ELN9__gnu_cxx12_Lock_policyE2EEEE8allocateERSF_m>:
  409ad7:	55                   	push   %rbp
  409ad8:	48 89 e5             	mov    %rsp,%rbp
  409adb:	48 83 ec 10          	sub    $0x10,%rsp
  409adf:	48 89 7d f8          	mov    %rdi,-0x8(%rbp)
  409ae3:	48 89 75 f0          	mov    %rsi,-0x10(%rbp)
  409ae7:	48 8b 4d f0          	mov    -0x10(%rbp),%rcx
  409aeb:	48 8b 45 f8          	mov    -0x8(%rbp),%rax
  409aef:	ba 00 00 00 00       	mov    $0x0,%edx
  409af4:	48 89 ce             	mov    %rcx,%rsi
  409af7:	48 89 c7             	mov    %rax,%rdi
  409afa:	e8 23 01 00 00       	callq  409c22 <_ZN9__gnu_cxx13new_allocatorISt23_Sp_counted_ptr_inplaceINSt6thread5_ImplISt12_Bind_simpleIFZ10run_serveriSt8functionIFviEEEUlvE_vEEEESaISB_ELNS_12_Lock_policyE2EEE8allocateEmPKv>
  409aff:	c9                   	leaveq 
  409b00:	c3                   	retq   
  409b01:	90                   	nop

0000000000409b02 <_ZNSt15__allocated_ptrISaISt23_Sp_counted_ptr_inplaceINSt6thread5_ImplISt12_Bind_simpleIFZ10run_serveriSt8functionIFviEEEUlvE_vEEEESaISA_ELN9__gnu_cxx12_Lock_policyE2EEEEC1ERSF_PSE_>:
  409b02:	55                   	push   %rbp
  409b03:	48 89 e5             	mov    %rsp,%rbp
  409b06:	48 89 7d f8          	mov    %rdi,-0x8(%rbp)
  409b0a:	48 89 75 f0          	mov    %rsi,-0x10(%rbp)
  409b0e:	48 89 55 e8          	mov    %rdx,-0x18(%rbp)
  409b12:	48 8b 45 f8          	mov    -0x8(%rbp),%rax
  409b16:	48 8b 55 f0          	mov    -0x10(%rbp),%rdx
  409b1a:	48 89 10             	mov    %rdx,(%rax)
  409b1d:	48 8b 45 f8          	mov    -0x8(%rbp),%rax
  409b21:	48 8b 55 e8          	mov    -0x18(%rbp),%rdx
  409b25:	48 89 50 08          	mov    %rdx,0x8(%rax)
  409b29:	90                   	nop
  409b2a:	5d                   	pop    %rbp
  409b2b:	c3                   	retq   

0000000000409b2c <_ZNSt16allocator_traitsISaISt23_Sp_counted_ptr_inplaceINSt6thread5_ImplISt12_Bind_simpleIFZ10run_serveriSt8functionIFviEEEUlvE_vEEEESaISA_ELN9__gnu_cxx12_Lock_policyE2EEEE10deallocateERSF_PSE_m>:
  409b2c:	55                   	push   %rbp
  409b2d:	48 89 e5             	mov    %rsp,%rbp
  409b30:	48 83 ec 20          	sub    $0x20,%rsp
  409b34:	48 89 7d f8          	mov    %rdi,-0x8(%rbp)
  409b38:	48 89 75 f0          	mov    %rsi,-0x10(%rbp)
  409b3c:	48 89 55 e8          	mov    %rdx,-0x18(%rbp)
  409b40:	48 8b 55 e8          	mov    -0x18(%rbp),%rdx
  409b44:	48 8b 4d f0          	mov    -0x10(%rbp),%rcx
  409b48:	48 8b 45 f8          	mov    -0x8(%rbp),%rax
  409b4c:	48 89 ce             	mov    %rcx,%rsi
  409b4f:	48 89 c7             	mov    %rax,%rdi
  409b52:	e8 17 01 00 00       	callq  409c6e <_ZN9__gnu_cxx13new_allocatorISt23_Sp_counted_ptr_inplaceINSt6thread5_ImplISt12_Bind_simpleIFZ10run_serveriSt8functionIFviEEEUlvE_vEEEESaISB_ELNS_12_Lock_policyE2EEE10deallocateEPSE_m>
  409b57:	90                   	nop
  409b58:	c9                   	leaveq 
  409b59:	c3                   	retq   

0000000000409b5a <_ZNSt15__allocated_ptrISaISt23_Sp_counted_ptr_inplaceINSt6thread5_ImplISt12_Bind_simpleIFZ10run_serveriSt8functionIFviEEEUlvE_vEEEESaISA_ELN9__gnu_cxx12_Lock_policyE2EEEE10_S_raw_ptrEPSE_>:
  409b5a:	55                   	push   %rbp
  409b5b:	48 89 e5             	mov    %rsp,%rbp
  409b5e:	48 89 7d f8          	mov    %rdi,-0x8(%rbp)
  409b62:	48 89 75 f0          	mov    %rsi,-0x10(%rbp)
  409b66:	48 8b 45 f0          	mov    -0x10(%rbp),%rax
  409b6a:	5d                   	pop    %rbp
  409b6b:	c3                   	retq   

0000000000409b6c <_ZN9__gnu_cxx13new_allocatorINSt6thread5_ImplISt12_Bind_simpleIFZ10run_serveriSt8functionIFviEEEUlvE_vEEEEEC2ERKSB_>:
  409b6c:	55                   	push   %rbp
  409b6d:	48 89 e5             	mov    %rsp,%rbp
  409b70:	48 89 7d f8          	mov    %rdi,-0x8(%rbp)
  409b74:	48 89 75 f0          	mov    %rsi,-0x10(%rbp)
  409b78:	90                   	nop
  409b79:	5d                   	pop    %rbp
  409b7a:	c3                   	retq   
  409b7b:	90                   	nop

0000000000409b7c <_ZN9__gnu_cxx16__aligned_bufferINSt6thread5_ImplISt12_Bind_simpleIFZ10run_serveriSt8functionIFviEEEUlvE_vEEEEEC1Ev>:
  409b7c:	55                   	push   %rbp
  409b7d:	48 89 e5             	mov    %rsp,%rbp
  409b80:	48 83 ec 10          	sub    $0x10,%rsp
  409b84:	48 89 7d f8          	mov    %rdi,-0x8(%rbp)
  409b88:	48 8b 45 f8          	mov    -0x8(%rbp),%rax
  409b8c:	48 89 c7             	mov    %rax,%rdi
  409b8f:	e8 e0 41 00 00       	callq  40dd74 <_ZNSt15aligned_storageILm56ELm8EEC1Ev>
  409b94:	90                   	nop
  409b95:	c9                   	leaveq 
  409b96:	c3                   	retq   
  409b97:	90                   	nop

0000000000409b98 <_ZNSt23_Sp_counted_ptr_inplaceINSt6thread5_ImplISt12_Bind_simpleIFZ10run_serveriSt8functionIFviEEEUlvE_vEEEESaIS9_ELN9__gnu_cxx12_Lock_policyE2EE5_ImplC1ESA_>:
  409b98:	55                   	push   %rbp
  409b99:	48 89 e5             	mov    %rsp,%rbp
  409b9c:	48 83 ec 10          	sub    $0x10,%rsp
  409ba0:	48 89 7d f8          	mov    %rdi,-0x8(%rbp)
  409ba4:	48 89 75 f0          	mov    %rsi,-0x10(%rbp)
  409ba8:	48 8b 55 f0          	mov    -0x10(%rbp),%rdx
  409bac:	48 8b 45 f8          	mov    -0x8(%rbp),%rax
  409bb0:	48 89 d6             	mov    %rdx,%rsi
  409bb3:	48 89 c7             	mov    %rax,%rdi
  409bb6:	e8 d7 00 00 00       	callq  409c92 <_ZNSt14_Sp_ebo_helperILi0ESaINSt6thread5_ImplISt12_Bind_simpleIFZ10run_serveriSt8functionIFviEEEUlvE_vEEEEELb1EEC2ERKSA_>
  409bbb:	48 8b 45 f8          	mov    -0x8(%rbp),%rax
  409bbf:	48 89 c7             	mov    %rax,%rdi
  409bc2:	e8 b5 ff ff ff       	callq  409b7c <_ZN9__gnu_cxx16__aligned_bufferINSt6thread5_ImplISt12_Bind_simpleIFZ10run_serveriSt8functionIFviEEEUlvE_vEEEEEC1Ev>
  409bc7:	90                   	nop
  409bc8:	c9                   	leaveq 
  409bc9:	c3                   	retq   

0000000000409bca <_ZNSt23_Sp_counted_ptr_inplaceINSt6thread5_ImplISt12_Bind_simpleIFZ10run_serveriSt8functionIFviEEEUlvE_vEEEESaIS9_ELN9__gnu_cxx12_Lock_policyE2EE6_M_ptrEv>:
  409bca:	55                   	push   %rbp
  409bcb:	48 89 e5             	mov    %rsp,%rbp
  409bce:	48 83 ec 10          	sub    $0x10,%rsp
  409bd2:	48 89 7d f8          	mov    %rdi,-0x8(%rbp)
  409bd6:	48 8b 45 f8          	mov    -0x8(%rbp),%rax
  409bda:	48 83 c0 10          	add    $0x10,%rax
  409bde:	48 89 c7             	mov    %rax,%rdi
  409be1:	e8 d2 00 00 00       	callq  409cb8 <_ZN9__gnu_cxx16__aligned_bufferINSt6thread5_ImplISt12_Bind_simpleIFZ10run_serveriSt8functionIFviEEEUlvE_vEEEEE6_M_ptrEv>
  409be6:	c9                   	leaveq 
  409be7:	c3                   	retq   

0000000000409be8 <_ZNSt16allocator_traitsISaINSt6thread5_ImplISt12_Bind_simpleIFZ10run_serveriSt8functionIFviEEEUlvE_vEEEEEE9constructIS9_JS8_EEEvRSA_PT_DpOT0_>:
  409be8:	55                   	push   %rbp
  409be9:	48 89 e5             	mov    %rsp,%rbp
  409bec:	48 83 ec 20          	sub    $0x20,%rsp
  409bf0:	48 89 7d f8          	mov    %rdi,-0x8(%rbp)
  409bf4:	48 89 75 f0          	mov    %rsi,-0x10(%rbp)
  409bf8:	48 89 55 e8          	mov    %rdx,-0x18(%rbp)
  409bfc:	48 8b 45 e8          	mov    -0x18(%rbp),%rax
  409c00:	48 89 c7             	mov    %rax,%rdi
  409c03:	e8 0c f7 ff ff       	callq  409314 <_ZSt7forwardISt12_Bind_simpleIFZ10run_serveriSt8functionIFviEEEUlvE_vEEEOT_RNSt16remove_referenceIS7_E4typeE>
  409c08:	48 89 c2             	mov    %rax,%rdx
  409c0b:	48 8b 4d f0          	mov    -0x10(%rbp),%rcx
  409c0f:	48 8b 45 f8          	mov    -0x8(%rbp),%rax
  409c13:	48 89 ce             	mov    %rcx,%rsi
  409c16:	48 89 c7             	mov    %rax,%rdi
  409c19:	e8 b4 00 00 00       	callq  409cd2 <_ZN9__gnu_cxx13new_allocatorINSt6thread5_ImplISt12_Bind_simpleIFZ10run_serveriSt8functionIFviEEEUlvE_vEEEEE9constructISA_JS9_EEEvPT_DpOT0_>
  409c1e:	90                   	nop
  409c1f:	c9                   	leaveq 
  409c20:	c3                   	retq   
  409c21:	90                   	nop

0000000000409c22 <_ZN9__gnu_cxx13new_allocatorISt23_Sp_counted_ptr_inplaceINSt6thread5_ImplISt12_Bind_simpleIFZ10run_serveriSt8functionIFviEEEUlvE_vEEEESaISB_ELNS_12_Lock_policyE2EEE8allocateEmPKv>:
  409c22:	55                   	push   %rbp
  409c23:	48 89 e5             	mov    %rsp,%rbp
  409c26:	48 83 ec 20          	sub    $0x20,%rsp
  409c2a:	48 89 7d f8          	mov    %rdi,-0x8(%rbp)
  409c2e:	48 89 75 f0          	mov    %rsi,-0x10(%rbp)
  409c32:	48 89 55 e8          	mov    %rdx,-0x18(%rbp)
  409c36:	48 8b 45 f8          	mov    -0x8(%rbp),%rax
  409c3a:	48 89 c7             	mov    %rax,%rdi
  409c3d:	e8 de 00 00 00       	callq  409d20 <_ZNK9__gnu_cxx13new_allocatorISt23_Sp_counted_ptr_inplaceINSt6thread5_ImplISt12_Bind_simpleIFZ10run_serveriSt8functionIFviEEEUlvE_vEEEESaISB_ELNS_12_Lock_policyE2EEE8max_sizeEv>
  409c42:	48 3b 45 f0          	cmp    -0x10(%rbp),%rax
  409c46:	0f 92 c0             	setb   %al
  409c49:	84 c0                	test   %al,%al
  409c4b:	74 05                	je     409c52 <_ZN9__gnu_cxx13new_allocatorISt23_Sp_counted_ptr_inplaceINSt6thread5_ImplISt12_Bind_simpleIFZ10run_serveriSt8functionIFviEEEUlvE_vEEEESaISB_ELNS_12_Lock_policyE2EEE8allocateEmPKv+0x30>
  409c4d:	e8 fe 8e ff ff       	callq  402b50 <_ZSt17__throw_bad_allocv@plt>
  409c52:	48 8b 55 f0          	mov    -0x10(%rbp),%rdx
  409c56:	48 89 d0             	mov    %rdx,%rax
  409c59:	48 c1 e0 03          	shl    $0x3,%rax
  409c5d:	48 01 d0             	add    %rdx,%rax
  409c60:	48 c1 e0 03          	shl    $0x3,%rax
  409c64:	48 89 c7             	mov    %rax,%rdi
  409c67:	e8 14 91 ff ff       	callq  402d80 <_Znwm@plt>
  409c6c:	c9                   	leaveq 
  409c6d:	c3                   	retq   

0000000000409c6e <_ZN9__gnu_cxx13new_allocatorISt23_Sp_counted_ptr_inplaceINSt6thread5_ImplISt12_Bind_simpleIFZ10run_serveriSt8functionIFviEEEUlvE_vEEEESaISB_ELNS_12_Lock_policyE2EEE10deallocateEPSE_m>:
  409c6e:	55                   	push   %rbp
  409c6f:	48 89 e5             	mov    %rsp,%rbp
  409c72:	48 83 ec 20          	sub    $0x20,%rsp
  409c76:	48 89 7d f8          	mov    %rdi,-0x8(%rbp)
  409c7a:	48 89 75 f0          	mov    %rsi,-0x10(%rbp)
  409c7e:	48 89 55 e8          	mov    %rdx,-0x18(%rbp)
  409c82:	48 8b 45 f0          	mov    -0x10(%rbp),%rax
  409c86:	48 89 c7             	mov    %rax,%rdi
  409c89:	e8 c2 90 ff ff       	callq  402d50 <_ZdlPv@plt>
  409c8e:	90                   	nop
  409c8f:	c9                   	leaveq 
  409c90:	c3                   	retq   
  409c91:	90                   	nop

0000000000409c92 <_ZNSt14_Sp_ebo_helperILi0ESaINSt6thread5_ImplISt12_Bind_simpleIFZ10run_serveriSt8functionIFviEEEUlvE_vEEEEELb1EEC2ERKSA_>:
  409c92:	55                   	push   %rbp
  409c93:	48 89 e5             	mov    %rsp,%rbp
  409c96:	48 83 ec 10          	sub    $0x10,%rsp
  409c9a:	48 89 7d f8          	mov    %rdi,-0x8(%rbp)
  409c9e:	48 89 75 f0          	mov    %rsi,-0x10(%rbp)
  409ca2:	48 8b 55 f0          	mov    -0x10(%rbp),%rdx
  409ca6:	48 8b 45 f8          	mov    -0x8(%rbp),%rax
  409caa:	48 89 d6             	mov    %rdx,%rsi
  409cad:	48 89 c7             	mov    %rax,%rdi
  409cb0:	e8 a5 fc ff ff       	callq  40995a <_ZNSaINSt6thread5_ImplISt12_Bind_simpleIFZ10run_serveriSt8functionIFviEEEUlvE_vEEEEEC1ERKS9_>
  409cb5:	90                   	nop
  409cb6:	c9                   	leaveq 
  409cb7:	c3                   	retq   

0000000000409cb8 <_ZN9__gnu_cxx16__aligned_bufferINSt6thread5_ImplISt12_Bind_simpleIFZ10run_serveriSt8functionIFviEEEUlvE_vEEEEE6_M_ptrEv>:
  409cb8:	55                   	push   %rbp
  409cb9:	48 89 e5             	mov    %rsp,%rbp
  409cbc:	48 83 ec 10          	sub    $0x10,%rsp
  409cc0:	48 89 7d f8          	mov    %rdi,-0x8(%rbp)
  409cc4:	48 8b 45 f8          	mov    -0x8(%rbp),%rax
  409cc8:	48 89 c7             	mov    %rax,%rdi
  409ccb:	e8 64 00 00 00       	callq  409d34 <_ZN9__gnu_cxx16__aligned_bufferINSt6thread5_ImplISt12_Bind_simpleIFZ10run_serveriSt8functionIFviEEEUlvE_vEEEEE7_M_addrEv>
  409cd0:	c9                   	leaveq 
  409cd1:	c3                   	retq   

0000000000409cd2 <_ZN9__gnu_cxx13new_allocatorINSt6thread5_ImplISt12_Bind_simpleIFZ10run_serveriSt8functionIFviEEEUlvE_vEEEEE9constructISA_JS9_EEEvPT_DpOT0_>:
  409cd2:	55                   	push   %rbp
  409cd3:	48 89 e5             	mov    %rsp,%rbp
  409cd6:	53                   	push   %rbx
  409cd7:	48 83 ec 28          	sub    $0x28,%rsp
  409cdb:	48 89 7d e8          	mov    %rdi,-0x18(%rbp)
  409cdf:	48 89 75 e0          	mov    %rsi,-0x20(%rbp)
  409ce3:	48 89 55 d8          	mov    %rdx,-0x28(%rbp)
  409ce7:	48 8b 45 d8          	mov    -0x28(%rbp),%rax
  409ceb:	48 89 c7             	mov    %rax,%rdi
  409cee:	e8 21 f6 ff ff       	callq  409314 <_ZSt7forwardISt12_Bind_simpleIFZ10run_serveriSt8functionIFviEEEUlvE_vEEEOT_RNSt16remove_referenceIS7_E4typeE>
  409cf3:	48 89 c3             	mov    %rax,%rbx
  409cf6:	48 8b 45 e0          	mov    -0x20(%rbp),%rax
  409cfa:	48 89 c6             	mov    %rax,%rsi
  409cfd:	bf 38 00 00 00       	mov    $0x38,%edi
  409d02:	e8 62 9f ff ff       	callq  403c69 <_ZnwmPv>
  409d07:	48 85 c0             	test   %rax,%rax
  409d0a:	74 0b                	je     409d17 <_ZN9__gnu_cxx13new_allocatorINSt6thread5_ImplISt12_Bind_simpleIFZ10run_serveriSt8functionIFviEEEUlvE_vEEEEE9constructISA_JS9_EEEvPT_DpOT0_+0x45>
  409d0c:	48 89 de             	mov    %rbx,%rsi
  409d0f:	48 89 c7             	mov    %rax,%rdi
  409d12:	e8 2b 00 00 00       	callq  409d42 <_ZNSt6thread5_ImplISt12_Bind_simpleIFZ10run_serveriSt8functionIFviEEEUlvE_vEEEC1EOS7_>
  409d17:	90                   	nop
  409d18:	48 83 c4 28          	add    $0x28,%rsp
  409d1c:	5b                   	pop    %rbx
  409d1d:	5d                   	pop    %rbp
  409d1e:	c3                   	retq   
  409d1f:	90                   	nop

0000000000409d20 <_ZNK9__gnu_cxx13new_allocatorISt23_Sp_counted_ptr_inplaceINSt6thread5_ImplISt12_Bind_simpleIFZ10run_serveriSt8functionIFviEEEUlvE_vEEEESaISB_ELNS_12_Lock_policyE2EEE8max_sizeEv>:
  409d20:	55                   	push   %rbp
  409d21:	48 89 e5             	mov    %rsp,%rbp
  409d24:	48 89 7d f8          	mov    %rdi,-0x8(%rbp)
  409d28:	48 b8 8e e3 38 8e e3 	movabs $0x38e38e38e38e38e,%rax
  409d2f:	38 8e 03 
  409d32:	5d                   	pop    %rbp
  409d33:	c3                   	retq   

0000000000409d34 <_ZN9__gnu_cxx16__aligned_bufferINSt6thread5_ImplISt12_Bind_simpleIFZ10run_serveriSt8functionIFviEEEUlvE_vEEEEE7_M_addrEv>:
  409d34:	55                   	push   %rbp
  409d35:	48 89 e5             	mov    %rsp,%rbp
  409d38:	48 89 7d f8          	mov    %rdi,-0x8(%rbp)
  409d3c:	48 8b 45 f8          	mov    -0x8(%rbp),%rax
  409d40:	5d                   	pop    %rbp
  409d41:	c3                   	retq   

0000000000409d42 <_ZNSt6thread5_ImplISt12_Bind_simpleIFZ10run_serveriSt8functionIFviEEEUlvE_vEEEC1EOS7_>:
  409d42:	55                   	push   %rbp
  409d43:	48 89 e5             	mov    %rsp,%rbp
  409d46:	48 83 ec 10          	sub    $0x10,%rsp
  409d4a:	48 89 7d f8          	mov    %rdi,-0x8(%rbp)
  409d4e:	48 89 75 f0          	mov    %rsi,-0x10(%rbp)
  409d52:	48 8b 45 f8          	mov    -0x8(%rbp),%rax
  409d56:	48 89 c7             	mov    %rax,%rdi
  409d59:	e8 68 40 00 00       	callq  40ddc6 <_ZNSt6thread10_Impl_baseC1Ev>
  409d5e:	ba 58 e0 40 00       	mov    $0x40e058,%edx
  409d63:	48 8b 45 f8          	mov    -0x8(%rbp),%rax
  409d67:	48 89 10             	mov    %rdx,(%rax)
  409d6a:	48 8b 45 f0          	mov    -0x10(%rbp),%rax
  409d6e:	48 89 c7             	mov    %rax,%rdi
  409d71:	e8 9e f5 ff ff       	callq  409314 <_ZSt7forwardISt12_Bind_simpleIFZ10run_serveriSt8functionIFviEEEUlvE_vEEEOT_RNSt16remove_referenceIS7_E4typeE>
  409d76:	48 89 c2             	mov    %rax,%rdx
  409d79:	48 8b 45 f8          	mov    -0x8(%rbp),%rax
  409d7d:	48 83 c0 18          	add    $0x18,%rax
  409d81:	48 89 d6             	mov    %rdx,%rsi
  409d84:	48 89 c7             	mov    %rax,%rdi
  409d87:	e8 26 f5 ff ff       	callq  4092b2 <_ZNSt12_Bind_simpleIFZ10run_serveriSt8functionIFviEEEUlvE_vEEC1EOS5_>
  409d8c:	90                   	nop
  409d8d:	c9                   	leaveq 
  409d8e:	c3                   	retq   
  409d8f:	90                   	nop

0000000000409d90 <_ZNSt6thread5_ImplISt12_Bind_simpleIFZ10run_serveriSt8functionIFviEEEUlvE_vEEED1Ev>:
  409d90:	55                   	push   %rbp
  409d91:	48 89 e5             	mov    %rsp,%rbp
  409d94:	48 83 ec 10          	sub    $0x10,%rsp
  409d98:	48 89 7d f8          	mov    %rdi,-0x8(%rbp)
  409d9c:	ba 58 e0 40 00       	mov    $0x40e058,%edx
  409da1:	48 8b 45 f8          	mov    -0x8(%rbp),%rax
  409da5:	48 89 10             	mov    %rdx,(%rax)
  409da8:	48 8b 45 f8          	mov    -0x8(%rbp),%rax
  409dac:	48 89 c7             	mov    %rax,%rdi
  409daf:	e8 f4 05 00 00       	callq  40a3a8 <_ZNSt6thread10_Impl_baseD1Ev>
  409db4:	b8 00 00 00 00       	mov    $0x0,%eax
  409db9:	85 c0                	test   %eax,%eax
  409dbb:	74 11                	je     409dce <_ZNSt6thread5_ImplISt12_Bind_simpleIFZ10run_serveriSt8functionIFviEEEUlvE_vEEED1Ev+0x3e>
  409dbd:	48 8b 45 f8          	mov    -0x8(%rbp),%rax
  409dc1:	be 38 00 00 00       	mov    $0x38,%esi
  409dc6:	48 89 c7             	mov    %rax,%rdi
  409dc9:	e8 d2 8f ff ff       	callq  402da0 <_ZdlPvm@plt>
  409dce:	c9                   	leaveq 
  409dcf:	c3                   	retq   

0000000000409dd0 <_ZNSt6thread5_ImplISt12_Bind_simpleIFZ10run_serveriSt8functionIFviEEEUlvE_vEEED0Ev>:
  409dd0:	55                   	push   %rbp
  409dd1:	48 89 e5             	mov    %rsp,%rbp
  409dd4:	48 83 ec 10          	sub    $0x10,%rsp
  409dd8:	48 89 7d f8          	mov    %rdi,-0x8(%rbp)
  409ddc:	48 8b 45 f8          	mov    -0x8(%rbp),%rax
  409de0:	48 89 c7             	mov    %rax,%rdi
  409de3:	e8 a8 ff ff ff       	callq  409d90 <_ZNSt6thread5_ImplISt12_Bind_simpleIFZ10run_serveriSt8functionIFviEEEUlvE_vEEED1Ev>
  409de8:	48 8b 45 f8          	mov    -0x8(%rbp),%rax
  409dec:	be 38 00 00 00       	mov    $0x38,%esi
  409df1:	48 89 c7             	mov    %rax,%rdi
  409df4:	e8 a7 8f ff ff       	callq  402da0 <_ZdlPvm@plt>
  409df9:	c9                   	leaveq 
  409dfa:	c3                   	retq   
  409dfb:	90                   	nop

0000000000409dfc <_ZNSt23_Sp_counted_ptr_inplaceINSt6thread5_ImplISt12_Bind_simpleIFZ10run_serveriSt8functionIFviEEEUlvE_vEEEESaIS9_ELN9__gnu_cxx12_Lock_policyE2EED1Ev>:
  409dfc:	55                   	push   %rbp
  409dfd:	48 89 e5             	mov    %rsp,%rbp
  409e00:	48 83 ec 10          	sub    $0x10,%rsp
  409e04:	48 89 7d f8          	mov    %rdi,-0x8(%rbp)
  409e08:	ba 20 e0 40 00       	mov    $0x40e020,%edx
  409e0d:	48 8b 45 f8          	mov    -0x8(%rbp),%rax
  409e11:	48 89 10             	mov    %rdx,(%rax)
  409e14:	48 8b 45 f8          	mov    -0x8(%rbp),%rax
  409e18:	48 83 c0 10          	add    $0x10,%rax
  409e1c:	48 89 c7             	mov    %rax,%rdi
  409e1f:	e8 78 fb ff ff       	callq  40999c <_ZNSt23_Sp_counted_ptr_inplaceINSt6thread5_ImplISt12_Bind_simpleIFZ10run_serveriSt8functionIFviEEEUlvE_vEEEESaIS9_ELN9__gnu_cxx12_Lock_policyE2EE5_ImplD1Ev>
  409e24:	48 8b 45 f8          	mov    -0x8(%rbp),%rax
  409e28:	48 89 c7             	mov    %rax,%rdi
  409e2b:	e8 30 28 00 00       	callq  40c660 <_ZNSt16_Sp_counted_baseILN9__gnu_cxx12_Lock_policyE2EED1Ev>
  409e30:	b8 00 00 00 00       	mov    $0x0,%eax
  409e35:	85 c0                	test   %eax,%eax
  409e37:	74 11                	je     409e4a <_ZNSt23_Sp_counted_ptr_inplaceINSt6thread5_ImplISt12_Bind_simpleIFZ10run_serveriSt8functionIFviEEEUlvE_vEEEESaIS9_ELN9__gnu_cxx12_Lock_policyE2EED1Ev+0x4e>
  409e39:	48 8b 45 f8          	mov    -0x8(%rbp),%rax
  409e3d:	be 48 00 00 00       	mov    $0x48,%esi
  409e42:	48 89 c7             	mov    %rax,%rdi
  409e45:	e8 56 8f ff ff       	callq  402da0 <_ZdlPvm@plt>
  409e4a:	c9                   	leaveq 
  409e4b:	c3                   	retq   

0000000000409e4c <_ZNSt23_Sp_counted_ptr_inplaceINSt6thread5_ImplISt12_Bind_simpleIFZ10run_serveriSt8functionIFviEEEUlvE_vEEEESaIS9_ELN9__gnu_cxx12_Lock_policyE2EED0Ev>:
  409e4c:	55                   	push   %rbp
  409e4d:	48 89 e5             	mov    %rsp,%rbp
  409e50:	48 83 ec 10          	sub    $0x10,%rsp
  409e54:	48 89 7d f8          	mov    %rdi,-0x8(%rbp)
  409e58:	48 8b 45 f8          	mov    -0x8(%rbp),%rax
  409e5c:	48 89 c7             	mov    %rax,%rdi
  409e5f:	e8 98 ff ff ff       	callq  409dfc <_ZNSt23_Sp_counted_ptr_inplaceINSt6thread5_ImplISt12_Bind_simpleIFZ10run_serveriSt8functionIFviEEEUlvE_vEEEESaIS9_ELN9__gnu_cxx12_Lock_policyE2EED1Ev>
  409e64:	48 8b 45 f8          	mov    -0x8(%rbp),%rax
  409e68:	be 48 00 00 00       	mov    $0x48,%esi
  409e6d:	48 89 c7             	mov    %rax,%rdi
  409e70:	e8 2b 8f ff ff       	callq  402da0 <_ZdlPvm@plt>
  409e75:	c9                   	leaveq 
  409e76:	c3                   	retq   
  409e77:	90                   	nop

0000000000409e78 <_ZNSt23_Sp_counted_ptr_inplaceINSt6thread5_ImplISt12_Bind_simpleIFZ10run_serveriSt8functionIFviEEEUlvE_vEEEESaIS9_ELN9__gnu_cxx12_Lock_policyE2EE10_M_disposeEv>:
  409e78:	55                   	push   %rbp
  409e79:	48 89 e5             	mov    %rsp,%rbp
  409e7c:	53                   	push   %rbx
  409e7d:	48 83 ec 18          	sub    $0x18,%rsp
  409e81:	48 89 7d e8          	mov    %rdi,-0x18(%rbp)
  409e85:	48 8b 45 e8          	mov    -0x18(%rbp),%rax
  409e89:	48 89 c7             	mov    %rax,%rdi
  409e8c:	e8 39 fd ff ff       	callq  409bca <_ZNSt23_Sp_counted_ptr_inplaceINSt6thread5_ImplISt12_Bind_simpleIFZ10run_serveriSt8functionIFviEEEUlvE_vEEEESaIS9_ELN9__gnu_cxx12_Lock_policyE2EE6_M_ptrEv>
  409e91:	48 89 c3             	mov    %rax,%rbx
  409e94:	48 8b 45 e8          	mov    -0x18(%rbp),%rax
  409e98:	48 83 c0 10          	add    $0x10,%rax
  409e9c:	48 89 c7             	mov    %rax,%rdi
  409e9f:	e8 fe 00 00 00       	callq  409fa2 <_ZNSt23_Sp_counted_ptr_inplaceINSt6thread5_ImplISt12_Bind_simpleIFZ10run_serveriSt8functionIFviEEEUlvE_vEEEESaIS9_ELN9__gnu_cxx12_Lock_policyE2EE5_Impl8_M_allocEv>
  409ea4:	48 89 de             	mov    %rbx,%rsi
  409ea7:	48 89 c7             	mov    %rax,%rdi
  409eaa:	e8 0d 01 00 00       	callq  409fbc <_ZNSt16allocator_traitsISaINSt6thread5_ImplISt12_Bind_simpleIFZ10run_serveriSt8functionIFviEEEUlvE_vEEEEEE7destroyIS9_EEvRSA_PT_>
  409eaf:	90                   	nop
  409eb0:	48 83 c4 18          	add    $0x18,%rsp
  409eb4:	5b                   	pop    %rbx
  409eb5:	5d                   	pop    %rbp
  409eb6:	c3                   	retq   
  409eb7:	90                   	nop

0000000000409eb8 <_ZNSt23_Sp_counted_ptr_inplaceINSt6thread5_ImplISt12_Bind_simpleIFZ10run_serveriSt8functionIFviEEEUlvE_vEEEESaIS9_ELN9__gnu_cxx12_Lock_policyE2EE10_M_destroyEv>:
  409eb8:	55                   	push   %rbp
  409eb9:	48 89 e5             	mov    %rsp,%rbp
  409ebc:	48 83 ec 40          	sub    $0x40,%rsp
  409ec0:	48 89 7d c8          	mov    %rdi,-0x38(%rbp)
  409ec4:	64 48 8b 04 25 28 00 	mov    %fs:0x28,%rax
  409ecb:	00 00 
  409ecd:	48 89 45 f8          	mov    %rax,-0x8(%rbp)
  409ed1:	31 c0                	xor    %eax,%eax
  409ed3:	48 8b 45 c8          	mov    -0x38(%rbp),%rax
  409ed7:	48 83 c0 10          	add    $0x10,%rax
  409edb:	48 89 c7             	mov    %rax,%rdi
  409ede:	e8 bf 00 00 00       	callq  409fa2 <_ZNSt23_Sp_counted_ptr_inplaceINSt6thread5_ImplISt12_Bind_simpleIFZ10run_serveriSt8functionIFviEEEUlvE_vEEEESaIS9_ELN9__gnu_cxx12_Lock_policyE2EE5_Impl8_M_allocEv>
  409ee3:	48 89 c2             	mov    %rax,%rdx
  409ee6:	48 8d 45 df          	lea    -0x21(%rbp),%rax
  409eea:	48 89 d6             	mov    %rdx,%rsi
  409eed:	48 89 c7             	mov    %rax,%rdi
  409ef0:	e8 8b f9 ff ff       	callq  409880 <_ZNSaISt23_Sp_counted_ptr_inplaceINSt6thread5_ImplISt12_Bind_simpleIFZ10run_serveriSt8functionIFviEEEUlvE_vEEEESaIS9_ELN9__gnu_cxx12_Lock_policyE2EEEC1IS9_EERKSaIT_E>
  409ef5:	48 8b 55 c8          	mov    -0x38(%rbp),%rdx
  409ef9:	48 8d 4d df          	lea    -0x21(%rbp),%rcx
  409efd:	48 8d 45 e0          	lea    -0x20(%rbp),%rax
  409f01:	48 89 ce             	mov    %rcx,%rsi
  409f04:	48 89 c7             	mov    %rax,%rdi
  409f07:	e8 f6 fb ff ff       	callq  409b02 <_ZNSt15__allocated_ptrISaISt23_Sp_counted_ptr_inplaceINSt6thread5_ImplISt12_Bind_simpleIFZ10run_serveriSt8functionIFviEEEUlvE_vEEEESaISA_ELN9__gnu_cxx12_Lock_policyE2EEEEC1ERSF_PSE_>
  409f0c:	48 8b 45 c8          	mov    -0x38(%rbp),%rax
  409f10:	48 89 c7             	mov    %rax,%rdi
  409f13:	e8 e4 fe ff ff       	callq  409dfc <_ZNSt23_Sp_counted_ptr_inplaceINSt6thread5_ImplISt12_Bind_simpleIFZ10run_serveriSt8functionIFviEEEUlvE_vEEEESaIS9_ELN9__gnu_cxx12_Lock_policyE2EED1Ev>
  409f18:	48 8d 45 e0          	lea    -0x20(%rbp),%rax
  409f1c:	48 89 c7             	mov    %rax,%rdi
  409f1f:	e8 d4 f9 ff ff       	callq  4098f8 <_ZNSt15__allocated_ptrISaISt23_Sp_counted_ptr_inplaceINSt6thread5_ImplISt12_Bind_simpleIFZ10run_serveriSt8functionIFviEEEUlvE_vEEEESaISA_ELN9__gnu_cxx12_Lock_policyE2EEEED1Ev>
  409f24:	48 8d 45 df          	lea    -0x21(%rbp),%rax
  409f28:	48 89 c7             	mov    %rax,%rdi
  409f2b:	e8 70 f9 ff ff       	callq  4098a0 <_ZNSaISt23_Sp_counted_ptr_inplaceINSt6thread5_ImplISt12_Bind_simpleIFZ10run_serveriSt8functionIFviEEEUlvE_vEEEESaIS9_ELN9__gnu_cxx12_Lock_policyE2EEED1Ev>
  409f30:	90                   	nop
  409f31:	48 8b 45 f8          	mov    -0x8(%rbp),%rax
  409f35:	64 48 33 04 25 28 00 	xor    %fs:0x28,%rax
  409f3c:	00 00 
  409f3e:	74 05                	je     409f45 <_ZNSt23_Sp_counted_ptr_inplaceINSt6thread5_ImplISt12_Bind_simpleIFZ10run_serveriSt8functionIFviEEEUlvE_vEEEESaIS9_ELN9__gnu_cxx12_Lock_policyE2EE10_M_destroyEv+0x8d>
  409f40:	e8 cb 8e ff ff       	callq  402e10 <__stack_chk_fail@plt>
  409f45:	c9                   	leaveq 
  409f46:	c3                   	retq   
  409f47:	90                   	nop

0000000000409f48 <_ZNSt23_Sp_counted_ptr_inplaceINSt6thread5_ImplISt12_Bind_simpleIFZ10run_serveriSt8functionIFviEEEUlvE_vEEEESaIS9_ELN9__gnu_cxx12_Lock_policyE2EE14_M_get_deleterERKSt9type_info>:
  409f48:	55                   	push   %rbp
  409f49:	48 89 e5             	mov    %rsp,%rbp
  409f4c:	48 83 ec 10          	sub    $0x10,%rsp
  409f50:	48 89 7d f8          	mov    %rdi,-0x8(%rbp)
  409f54:	48 89 75 f0          	mov    %rsi,-0x10(%rbp)
  409f58:	48 8b 45 f0          	mov    -0x10(%rbp),%rax
  409f5c:	be 10 e2 40 00       	mov    $0x40e210,%esi
  409f61:	48 89 c7             	mov    %rax,%rdi
  409f64:	e8 b3 01 00 00       	callq  40a11c <_ZNKSt9type_infoeqERKS_>
  409f69:	84 c0                	test   %al,%al
  409f6b:	74 0e                	je     409f7b <_ZNSt23_Sp_counted_ptr_inplaceINSt6thread5_ImplISt12_Bind_simpleIFZ10run_serveriSt8functionIFviEEEUlvE_vEEEESaIS9_ELN9__gnu_cxx12_Lock_policyE2EE14_M_get_deleterERKSt9type_info+0x33>
  409f6d:	48 8b 45 f8          	mov    -0x8(%rbp),%rax
  409f71:	48 89 c7             	mov    %rax,%rdi
  409f74:	e8 51 fc ff ff       	callq  409bca <_ZNSt23_Sp_counted_ptr_inplaceINSt6thread5_ImplISt12_Bind_simpleIFZ10run_serveriSt8functionIFviEEEUlvE_vEEEESaIS9_ELN9__gnu_cxx12_Lock_policyE2EE6_M_ptrEv>
  409f79:	eb 05                	jmp    409f80 <_ZNSt23_Sp_counted_ptr_inplaceINSt6thread5_ImplISt12_Bind_simpleIFZ10run_serveriSt8functionIFviEEEUlvE_vEEEESaIS9_ELN9__gnu_cxx12_Lock_policyE2EE14_M_get_deleterERKSt9type_info+0x38>
  409f7b:	b8 00 00 00 00       	mov    $0x0,%eax
  409f80:	c9                   	leaveq 
  409f81:	c3                   	retq   

0000000000409f82 <_ZNSt6thread5_ImplISt12_Bind_simpleIFZ10run_serveriSt8functionIFviEEEUlvE_vEEE6_M_runEv>:
  409f82:	55                   	push   %rbp
  409f83:	48 89 e5             	mov    %rsp,%rbp
  409f86:	48 83 ec 10          	sub    $0x10,%rsp
  409f8a:	48 89 7d f8          	mov    %rdi,-0x8(%rbp)
  409f8e:	48 8b 45 f8          	mov    -0x8(%rbp),%rax
  409f92:	48 83 c0 18          	add    $0x18,%rax
  409f96:	48 89 c7             	mov    %rax,%rdi
  409f99:	e8 44 00 00 00       	callq  409fe2 <_ZNSt12_Bind_simpleIFZ10run_serveriSt8functionIFviEEEUlvE_vEEclEv>
  409f9e:	90                   	nop
  409f9f:	c9                   	leaveq 
  409fa0:	c3                   	retq   
  409fa1:	90                   	nop

0000000000409fa2 <_ZNSt23_Sp_counted_ptr_inplaceINSt6thread5_ImplISt12_Bind_simpleIFZ10run_serveriSt8functionIFviEEEUlvE_vEEEESaIS9_ELN9__gnu_cxx12_Lock_policyE2EE5_Impl8_M_allocEv>:
  409fa2:	55                   	push   %rbp
  409fa3:	48 89 e5             	mov    %rsp,%rbp
  409fa6:	48 83 ec 10          	sub    $0x10,%rsp
  409faa:	48 89 7d f8          	mov    %rdi,-0x8(%rbp)
  409fae:	48 8b 45 f8          	mov    -0x8(%rbp),%rax
  409fb2:	48 89 c7             	mov    %rax,%rdi
  409fb5:	e8 6e 00 00 00       	callq  40a028 <_ZNSt14_Sp_ebo_helperILi0ESaINSt6thread5_ImplISt12_Bind_simpleIFZ10run_serveriSt8functionIFviEEEUlvE_vEEEEELb1EE6_S_getERSB_>
  409fba:	c9                   	leaveq 
  409fbb:	c3                   	retq   

0000000000409fbc <_ZNSt16allocator_traitsISaINSt6thread5_ImplISt12_Bind_simpleIFZ10run_serveriSt8functionIFviEEEUlvE_vEEEEEE7destroyIS9_EEvRSA_PT_>:
  409fbc:	55                   	push   %rbp
  409fbd:	48 89 e5             	mov    %rsp,%rbp
  409fc0:	48 83 ec 10          	sub    $0x10,%rsp
  409fc4:	48 89 7d f8          	mov    %rdi,-0x8(%rbp)
  409fc8:	48 89 75 f0          	mov    %rsi,-0x10(%rbp)
  409fcc:	48 8b 55 f0          	mov    -0x10(%rbp),%rdx
  409fd0:	48 8b 45 f8          	mov    -0x8(%rbp),%rax
  409fd4:	48 89 d6             	mov    %rdx,%rsi
  409fd7:	48 89 c7             	mov    %rax,%rdi
  409fda:	e8 57 00 00 00       	callq  40a036 <_ZN9__gnu_cxx13new_allocatorINSt6thread5_ImplISt12_Bind_simpleIFZ10run_serveriSt8functionIFviEEEUlvE_vEEEEE7destroyISA_EEvPT_>
  409fdf:	90                   	nop
  409fe0:	c9                   	leaveq 
  409fe1:	c3                   	retq   

0000000000409fe2 <_ZNSt12_Bind_simpleIFZ10run_serveriSt8functionIFviEEEUlvE_vEEclEv>:
  409fe2:	55                   	push   %rbp
  409fe3:	48 89 e5             	mov    %rsp,%rbp
  409fe6:	48 83 ec 20          	sub    $0x20,%rsp
  409fea:	48 89 7d e8          	mov    %rdi,-0x18(%rbp)
  409fee:	64 48 8b 04 25 28 00 	mov    %fs:0x28,%rax
  409ff5:	00 00 
  409ff7:	48 89 45 f8          	mov    %rax,-0x8(%rbp)
  409ffb:	31 c0                	xor    %eax,%eax
  409ffd:	48 8b 45 e8          	mov    -0x18(%rbp),%rax
  40a001:	48 83 ec 08          	sub    $0x8,%rsp
  40a005:	52                   	push   %rdx
  40a006:	48 89 c7             	mov    %rax,%rdi
  40a009:	e8 82 00 00 00       	callq  40a090 <_ZNSt12_Bind_simpleIFZ10run_serveriSt8functionIFviEEEUlvE_vEE9_M_invokeIJEEEvSt12_Index_tupleIJXspT_EEE>
  40a00e:	48 83 c4 10          	add    $0x10,%rsp
  40a012:	48 8b 45 f8          	mov    -0x8(%rbp),%rax
  40a016:	64 48 33 04 25 28 00 	xor    %fs:0x28,%rax
  40a01d:	00 00 
  40a01f:	74 05                	je     40a026 <_ZNSt12_Bind_simpleIFZ10run_serveriSt8functionIFviEEEUlvE_vEEclEv+0x44>
  40a021:	e8 ea 8d ff ff       	callq  402e10 <__stack_chk_fail@plt>
  40a026:	c9                   	leaveq 
  40a027:	c3                   	retq   

000000000040a028 <_ZNSt14_Sp_ebo_helperILi0ESaINSt6thread5_ImplISt12_Bind_simpleIFZ10run_serveriSt8functionIFviEEEUlvE_vEEEEELb1EE6_S_getERSB_>:
  40a028:	55                   	push   %rbp
  40a029:	48 89 e5             	mov    %rsp,%rbp
  40a02c:	48 89 7d f8          	mov    %rdi,-0x8(%rbp)
  40a030:	48 8b 45 f8          	mov    -0x8(%rbp),%rax
  40a034:	5d                   	pop    %rbp
  40a035:	c3                   	retq   

000000000040a036 <_ZN9__gnu_cxx13new_allocatorINSt6thread5_ImplISt12_Bind_simpleIFZ10run_serveriSt8functionIFviEEEUlvE_vEEEEE7destroyISA_EEvPT_>:
  40a036:	55                   	push   %rbp
  40a037:	48 89 e5             	mov    %rsp,%rbp
  40a03a:	48 83 ec 10          	sub    $0x10,%rsp
  40a03e:	48 89 7d f8          	mov    %rdi,-0x8(%rbp)
  40a042:	48 89 75 f0          	mov    %rsi,-0x10(%rbp)
  40a046:	48 8b 45 f0          	mov    -0x10(%rbp),%rax
  40a04a:	48 8b 00             	mov    (%rax),%rax
  40a04d:	48 8b 00             	mov    (%rax),%rax
  40a050:	48 8b 55 f0          	mov    -0x10(%rbp),%rdx
  40a054:	48 89 d7             	mov    %rdx,%rdi
  40a057:	ff d0                	callq  *%rax
  40a059:	90                   	nop
  40a05a:	c9                   	leaveq 
  40a05b:	c3                   	retq   

000000000040a05c <_ZSt12__get_helperILm0EZ10run_serveriSt8functionIFviEEEUlvE_JEERT0_RSt11_Tuple_implIXT_EJS4_DpT1_EE>:
  40a05c:	55                   	push   %rbp
  40a05d:	48 89 e5             	mov    %rsp,%rbp
  40a060:	48 83 ec 08          	sub    $0x8,%rsp
  40a064:	48 89 7d f8          	mov    %rdi,-0x8(%rbp)
  40a068:	48 8b 45 f8          	mov    -0x8(%rbp),%rax
  40a06c:	48 89 c7             	mov    %rax,%rdi
  40a06f:	e8 80 f1 ff ff       	callq  4091f4 <_ZNSt11_Tuple_implILm0EJZ10run_serveriSt8functionIFviEEEUlvE_EE7_M_headERS4_>
  40a074:	c9                   	leaveq 
  40a075:	c3                   	retq   

000000000040a076 <_ZSt3getILm0EJZ10run_serveriSt8functionIFviEEEUlvE_EERNSt13tuple_elementIXT_ESt5tupleIJDpT0_EEE4typeERS8_>:
  40a076:	55                   	push   %rbp
  40a077:	48 89 e5             	mov    %rsp,%rbp
  40a07a:	48 83 ec 08          	sub    $0x8,%rsp
  40a07e:	48 89 7d f8          	mov    %rdi,-0x8(%rbp)
  40a082:	48 8b 45 f8          	mov    -0x8(%rbp),%rax
  40a086:	48 89 c7             	mov    %rax,%rdi
  40a089:	e8 ce ff ff ff       	callq  40a05c <_ZSt12__get_helperILm0EZ10run_serveriSt8functionIFviEEEUlvE_JEERT0_RSt11_Tuple_implIXT_EJS4_DpT1_EE>
  40a08e:	c9                   	leaveq 
  40a08f:	c3                   	retq   

000000000040a090 <_ZNSt12_Bind_simpleIFZ10run_serveriSt8functionIFviEEEUlvE_vEE9_M_invokeIJEEEvSt12_Index_tupleIJXspT_EEE>:
  40a090:	55                   	push   %rbp
  40a091:	48 89 e5             	mov    %rsp,%rbp
  40a094:	48 83 ec 10          	sub    $0x10,%rsp
  40a098:	48 89 7d f8          	mov    %rdi,-0x8(%rbp)
  40a09c:	48 8b 45 f8          	mov    -0x8(%rbp),%rax
  40a0a0:	48 89 c7             	mov    %rax,%rdi
  40a0a3:	e8 ce ff ff ff       	callq  40a076 <_ZSt3getILm0EJZ10run_serveriSt8functionIFviEEEUlvE_EERNSt13tuple_elementIXT_ESt5tupleIJDpT0_EEE4typeERS8_>
  40a0a8:	48 89 c7             	mov    %rax,%rdi
  40a0ab:	e8 94 e5 ff ff       	callq  408644 <_ZSt7forwardIZ10run_serveriSt8functionIFviEEEUlvE_EOT_RNSt16remove_referenceIS4_E4typeE>
  40a0b0:	48 89 c7             	mov    %rax,%rdi
  40a0b3:	e8 8c e0 ff ff       	callq  408144 <_ZZ10run_serveriSt8functionIFviEEENKUlvE_clEv>
  40a0b8:	c9                   	leaveq 
  40a0b9:	c3                   	retq   

000000000040a0ba <_ZNSt7__cxx119to_stringEi>:
  40a0ba:	55                   	push   %rbp
  40a0bb:	48 89 e5             	mov    %rsp,%rbp
  40a0be:	48 83 ec 20          	sub    $0x20,%rsp
  40a0c2:	48 89 7d e8          	mov    %rdi,-0x18(%rbp)
  40a0c6:	89 75 e4             	mov    %esi,-0x1c(%rbp)
  40a0c9:	64 48 8b 04 25 28 00 	mov    %fs:0x28,%rax
  40a0d0:	00 00 
  40a0d2:	48 89 45 f8          	mov    %rax,-0x8(%rbp)
  40a0d6:	31 c0                	xor    %eax,%eax
  40a0d8:	be 10 00 00 00       	mov    $0x10,%esi
  40a0dd:	48 8b 45 e8          	mov    -0x18(%rbp),%rax
  40a0e1:	8b 55 e4             	mov    -0x1c(%rbp),%edx
  40a0e4:	41 89 d0             	mov    %edx,%r8d
  40a0e7:	b9 41 df 40 00       	mov    $0x40df41,%ecx
  40a0ec:	48 89 f2             	mov    %rsi,%rdx
  40a0ef:	be 30 2c 40 00       	mov    $0x402c30,%esi
  40a0f4:	48 89 c7             	mov    %rax,%rdi
  40a0f7:	b8 00 00 00 00       	mov    $0x0,%eax
  40a0fc:	e8 5e 03 00 00       	callq  40a45f <_ZN9__gnu_cxx12__to_xstringINSt7__cxx1112basic_stringIcSt11char_traitsIcESaIcEEEcEET_PFiPT0_mPKS8_P13__va_list_tagEmSB_z>
  40a101:	48 8b 45 e8          	mov    -0x18(%rbp),%rax
  40a105:	48 8b 4d f8          	mov    -0x8(%rbp),%rcx
  40a109:	64 48 33 0c 25 28 00 	xor    %fs:0x28,%rcx
  40a110:	00 00 
  40a112:	74 05                	je     40a119 <_ZNSt7__cxx119to_stringEi+0x5f>
  40a114:	e8 f7 8c ff ff       	callq  402e10 <__stack_chk_fail@plt>
  40a119:	c9                   	leaveq 
  40a11a:	c3                   	retq   
  40a11b:	90                   	nop

000000000040a11c <_ZNKSt9type_infoeqERKS_>:
  40a11c:	55                   	push   %rbp
  40a11d:	48 89 e5             	mov    %rsp,%rbp
  40a120:	48 83 ec 10          	sub    $0x10,%rsp
  40a124:	48 89 7d f8          	mov    %rdi,-0x8(%rbp)
  40a128:	48 89 75 f0          	mov    %rsi,-0x10(%rbp)
  40a12c:	48 8b 45 f8          	mov    -0x8(%rbp),%rax
  40a130:	48 8b 50 08          	mov    0x8(%rax),%rdx
  40a134:	48 8b 45 f0          	mov    -0x10(%rbp),%rax
  40a138:	48 8b 40 08          	mov    0x8(%rax),%rax
  40a13c:	48 39 c2             	cmp    %rax,%rdx
  40a13f:	74 2e                	je     40a16f <_ZNKSt9type_infoeqERKS_+0x53>
  40a141:	48 8b 45 f8          	mov    -0x8(%rbp),%rax
  40a145:	48 8b 40 08          	mov    0x8(%rax),%rax
  40a149:	0f b6 00             	movzbl (%rax),%eax
  40a14c:	3c 2a                	cmp    $0x2a,%al
  40a14e:	74 26                	je     40a176 <_ZNKSt9type_infoeqERKS_+0x5a>
  40a150:	48 8b 45 f0          	mov    -0x10(%rbp),%rax
  40a154:	48 8b 50 08          	mov    0x8(%rax),%rdx
  40a158:	48 8b 45 f8          	mov    -0x8(%rbp),%rax
  40a15c:	48 8b 40 08          	mov    0x8(%rax),%rax
  40a160:	48 89 d6             	mov    %rdx,%rsi
  40a163:	48 89 c7             	mov    %rax,%rdi
  40a166:	e8 35 8d ff ff       	callq  402ea0 <strcmp@plt>
  40a16b:	85 c0                	test   %eax,%eax
  40a16d:	75 07                	jne    40a176 <_ZNKSt9type_infoeqERKS_+0x5a>
  40a16f:	b8 01 00 00 00       	mov    $0x1,%eax
  40a174:	eb 05                	jmp    40a17b <_ZNKSt9type_infoeqERKS_+0x5f>
  40a176:	b8 00 00 00 00       	mov    $0x0,%eax
  40a17b:	c9                   	leaveq 
  40a17c:	c3                   	retq   
  40a17d:	90                   	nop

000000000040a17e <_ZNKSt14_Function_base8_M_emptyEv>:
  40a17e:	55                   	push   %rbp
  40a17f:	48 89 e5             	mov    %rsp,%rbp
  40a182:	48 89 7d f8          	mov    %rdi,-0x8(%rbp)
  40a186:	48 8b 45 f8          	mov    -0x8(%rbp),%rax
  40a18a:	48 8b 40 10          	mov    0x10(%rax),%rax
  40a18e:	48 85 c0             	test   %rax,%rax
  40a191:	0f 94 c0             	sete   %al
  40a194:	5d                   	pop    %rbp
  40a195:	c3                   	retq   

000000000040a196 <_ZStorSt13_Ios_OpenmodeS_>:
  40a196:	55                   	push   %rbp
  40a197:	48 89 e5             	mov    %rsp,%rbp
  40a19a:	89 7d fc             	mov    %edi,-0x4(%rbp)
  40a19d:	89 75 f8             	mov    %esi,-0x8(%rbp)
  40a1a0:	8b 45 fc             	mov    -0x4(%rbp),%eax
  40a1a3:	0b 45 f8             	or     -0x8(%rbp),%eax
  40a1a6:	5d                   	pop    %rbp
  40a1a7:	c3                   	retq   

000000000040a1a8 <_ZNSt5mutex4lockEv>:
  40a1a8:	55                   	push   %rbp
  40a1a9:	48 89 e5             	mov    %rsp,%rbp
  40a1ac:	48 83 ec 20          	sub    $0x20,%rsp
  40a1b0:	48 89 7d e8          	mov    %rdi,-0x18(%rbp)
  40a1b4:	48 8b 45 e8          	mov    -0x18(%rbp),%rax
  40a1b8:	48 89 c7             	mov    %rax,%rdi
  40a1bb:	e8 12 cf ff ff       	callq  4070d2 <_ZL20__gthread_mutex_lockP15pthread_mutex_t>
  40a1c0:	89 45 fc             	mov    %eax,-0x4(%rbp)
  40a1c3:	83 7d fc 00          	cmpl   $0x0,-0x4(%rbp)
  40a1c7:	74 0a                	je     40a1d3 <_ZNSt5mutex4lockEv+0x2b>
  40a1c9:	8b 45 fc             	mov    -0x4(%rbp),%eax
  40a1cc:	89 c7                	mov    %eax,%edi
  40a1ce:	e8 6d 8a ff ff       	callq  402c40 <_ZSt20__throw_system_errori@plt>
  40a1d3:	90                   	nop
  40a1d4:	c9                   	leaveq 
  40a1d5:	c3                   	retq   

000000000040a1d6 <_ZNSt5mutex6unlockEv>:
  40a1d6:	55                   	push   %rbp
  40a1d7:	48 89 e5             	mov    %rsp,%rbp
  40a1da:	48 83 ec 10          	sub    $0x10,%rsp
  40a1de:	48 89 7d f8          	mov    %rdi,-0x8(%rbp)
  40a1e2:	48 8b 45 f8          	mov    -0x8(%rbp),%rax
  40a1e6:	48 89 c7             	mov    %rax,%rdi
  40a1e9:	e8 13 cf ff ff       	callq  407101 <_ZL22__gthread_mutex_unlockP15pthread_mutex_t>
  40a1ee:	90                   	nop
  40a1ef:	c9                   	leaveq 
  40a1f0:	c3                   	retq   
  40a1f1:	90                   	nop

000000000040a1f2 <_ZNSt6thread2idC1Ev>:
  40a1f2:	55                   	push   %rbp
  40a1f3:	48 89 e5             	mov    %rsp,%rbp
  40a1f6:	48 89 7d f8          	mov    %rdi,-0x8(%rbp)
  40a1fa:	48 8b 45 f8          	mov    -0x8(%rbp),%rax
  40a1fe:	48 c7 00 00 00 00 00 	movq   $0x0,(%rax)
  40a205:	90                   	nop
  40a206:	5d                   	pop    %rbp
  40a207:	c3                   	retq   

000000000040a208 <_ZNSt6thread2idC1Em>:
  40a208:	55                   	push   %rbp
  40a209:	48 89 e5             	mov    %rsp,%rbp
  40a20c:	48 89 7d f8          	mov    %rdi,-0x8(%rbp)
  40a210:	48 89 75 f0          	mov    %rsi,-0x10(%rbp)
  40a214:	48 8b 45 f8          	mov    -0x8(%rbp),%rax
  40a218:	48 8b 55 f0          	mov    -0x10(%rbp),%rdx
  40a21c:	48 89 10             	mov    %rdx,(%rax)
  40a21f:	90                   	nop
  40a220:	5d                   	pop    %rbp
  40a221:	c3                   	retq   

000000000040a222 <_ZSteqNSt6thread2idES0_>:
  40a222:	55                   	push   %rbp
  40a223:	48 89 e5             	mov    %rsp,%rbp
  40a226:	48 83 ec 20          	sub    $0x20,%rsp
  40a22a:	48 89 7d f0          	mov    %rdi,-0x10(%rbp)
  40a22e:	48 89 75 e0          	mov    %rsi,-0x20(%rbp)
  40a232:	48 8b 55 e0          	mov    -0x20(%rbp),%rdx
  40a236:	48 8b 45 f0          	mov    -0x10(%rbp),%rax
  40a23a:	48 89 d6             	mov    %rdx,%rsi
  40a23d:	48 89 c7             	mov    %rax,%rdi
  40a240:	e8 5d ce ff ff       	callq  4070a2 <_ZL15__gthread_equalmm>
  40a245:	85 c0                	test   %eax,%eax
  40a247:	0f 95 c0             	setne  %al
  40a24a:	c9                   	leaveq 
  40a24b:	c3                   	retq   

000000000040a24c <_ZNSt6threadC1EOS_>:
  40a24c:	55                   	push   %rbp
  40a24d:	48 89 e5             	mov    %rsp,%rbp
  40a250:	48 83 ec 10          	sub    $0x10,%rsp
  40a254:	48 89 7d f8          	mov    %rdi,-0x8(%rbp)
  40a258:	48 89 75 f0          	mov    %rsi,-0x10(%rbp)
  40a25c:	48 8b 45 f8          	mov    -0x8(%rbp),%rax
  40a260:	48 89 c7             	mov    %rax,%rdi
  40a263:	e8 8a ff ff ff       	callq  40a1f2 <_ZNSt6thread2idC1Ev>
  40a268:	48 8b 55 f0          	mov    -0x10(%rbp),%rdx
  40a26c:	48 8b 45 f8          	mov    -0x8(%rbp),%rax
  40a270:	48 89 d6             	mov    %rdx,%rsi
  40a273:	48 89 c7             	mov    %rax,%rdi
  40a276:	e8 65 00 00 00       	callq  40a2e0 <_ZNSt6thread4swapERS_>
  40a27b:	90                   	nop
  40a27c:	c9                   	leaveq 
  40a27d:	c3                   	retq   

000000000040a27e <_ZNSt6threadD1Ev>:
  40a27e:	55                   	push   %rbp
  40a27f:	48 89 e5             	mov    %rsp,%rbp
  40a282:	48 83 ec 10          	sub    $0x10,%rsp
  40a286:	48 89 7d f8          	mov    %rdi,-0x8(%rbp)
  40a28a:	48 8b 45 f8          	mov    -0x8(%rbp),%rax
  40a28e:	48 89 c7             	mov    %rax,%rdi
  40a291:	e8 70 00 00 00       	callq  40a306 <_ZNKSt6thread8joinableEv>
  40a296:	84 c0                	test   %al,%al
  40a298:	74 05                	je     40a29f <_ZNSt6threadD1Ev+0x21>
  40a29a:	e8 51 88 ff ff       	callq  402af0 <_ZSt9terminatev@plt>
  40a29f:	90                   	nop
  40a2a0:	c9                   	leaveq 
  40a2a1:	c3                   	retq   

000000000040a2a2 <_ZNSt6threadaSEOS_>:
  40a2a2:	55                   	push   %rbp
  40a2a3:	48 89 e5             	mov    %rsp,%rbp
  40a2a6:	48 83 ec 10          	sub    $0x10,%rsp
  40a2aa:	48 89 7d f8          	mov    %rdi,-0x8(%rbp)
  40a2ae:	48 89 75 f0          	mov    %rsi,-0x10(%rbp)
  40a2b2:	48 8b 45 f8          	mov    -0x8(%rbp),%rax
  40a2b6:	48 89 c7             	mov    %rax,%rdi
  40a2b9:	e8 48 00 00 00       	callq  40a306 <_ZNKSt6thread8joinableEv>
  40a2be:	84 c0                	test   %al,%al
  40a2c0:	74 05                	je     40a2c7 <_ZNSt6threadaSEOS_+0x25>
  40a2c2:	e8 29 88 ff ff       	callq  402af0 <_ZSt9terminatev@plt>
  40a2c7:	48 8b 55 f0          	mov    -0x10(%rbp),%rdx
  40a2cb:	48 8b 45 f8          	mov    -0x8(%rbp),%rax
  40a2cf:	48 89 d6             	mov    %rdx,%rsi
  40a2d2:	48 89 c7             	mov    %rax,%rdi
  40a2d5:	e8 06 00 00 00       	callq  40a2e0 <_ZNSt6thread4swapERS_>
  40a2da:	48 8b 45 f8          	mov    -0x8(%rbp),%rax
  40a2de:	c9                   	leaveq 
  40a2df:	c3                   	retq   

000000000040a2e0 <_ZNSt6thread4swapERS_>:
  40a2e0:	55                   	push   %rbp
  40a2e1:	48 89 e5             	mov    %rsp,%rbp
  40a2e4:	48 83 ec 10          	sub    $0x10,%rsp
  40a2e8:	48 89 7d f8          	mov    %rdi,-0x8(%rbp)
  40a2ec:	48 89 75 f0          	mov    %rsi,-0x10(%rbp)
  40a2f0:	48 8b 55 f0          	mov    -0x10(%rbp),%rdx
  40a2f4:	48 8b 45 f8          	mov    -0x8(%rbp),%rax
  40a2f8:	48 89 d6             	mov    %rdx,%rsi
  40a2fb:	48 89 c7             	mov    %rax,%rdi
  40a2fe:	e8 26 03 00 00       	callq  40a629 <_ZSt4swapINSt6thread2idEEvRT_S3_>
  40a303:	90                   	nop
  40a304:	c9                   	leaveq 
  40a305:	c3                   	retq   

000000000040a306 <_ZNKSt6thread8joinableEv>:
  40a306:	55                   	push   %rbp
  40a307:	48 89 e5             	mov    %rsp,%rbp
  40a30a:	48 83 ec 20          	sub    $0x20,%rsp
  40a30e:	48 89 7d e8          	mov    %rdi,-0x18(%rbp)
  40a312:	64 48 8b 04 25 28 00 	mov    %fs:0x28,%rax
  40a319:	00 00 
  40a31b:	48 89 45 f8          	mov    %rax,-0x8(%rbp)
  40a31f:	31 c0                	xor    %eax,%eax
  40a321:	48 8d 45 f0          	lea    -0x10(%rbp),%rax
  40a325:	48 89 c7             	mov    %rax,%rdi
  40a328:	e8 c5 fe ff ff       	callq  40a1f2 <_ZNSt6thread2idC1Ev>
  40a32d:	48 8b 55 f0          	mov    -0x10(%rbp),%rdx
  40a331:	48 8b 45 e8          	mov    -0x18(%rbp),%rax
  40a335:	48 89 d6             	mov    %rdx,%rsi
  40a338:	48 8b 38             	mov    (%rax),%rdi
  40a33b:	e8 e2 fe ff ff       	callq  40a222 <_ZSteqNSt6thread2idES0_>
  40a340:	83 f0 01             	xor    $0x1,%eax
  40a343:	48 8b 4d f8          	mov    -0x8(%rbp),%rcx
  40a347:	64 48 33 0c 25 28 00 	xor    %fs:0x28,%rcx
  40a34e:	00 00 
  40a350:	74 05                	je     40a357 <_ZNKSt6thread8joinableEv+0x51>
  40a352:	e8 b9 8a ff ff       	callq  402e10 <__stack_chk_fail@plt>
  40a357:	c9                   	leaveq 
  40a358:	c3                   	retq   
  40a359:	90                   	nop

000000000040a35a <_ZNKSt6thread6get_idEv>:
  40a35a:	55                   	push   %rbp
  40a35b:	48 89 e5             	mov    %rsp,%rbp
  40a35e:	48 89 7d f8          	mov    %rdi,-0x8(%rbp)
  40a362:	48 8b 45 f8          	mov    -0x8(%rbp),%rax
  40a366:	48 8b 00             	mov    (%rax),%rax
  40a369:	5d                   	pop    %rbp
  40a36a:	c3                   	retq   
  40a36b:	90                   	nop

000000000040a36c <_ZNSt12__shared_ptrINSt6thread10_Impl_baseELN9__gnu_cxx12_Lock_policyE2EED1Ev>:
  40a36c:	55                   	push   %rbp
  40a36d:	48 89 e5             	mov    %rsp,%rbp
  40a370:	48 83 ec 10          	sub    $0x10,%rsp
  40a374:	48 89 7d f8          	mov    %rdi,-0x8(%rbp)
  40a378:	48 8b 45 f8          	mov    -0x8(%rbp),%rax
  40a37c:	48 83 c0 08          	add    $0x8,%rax
  40a380:	48 89 c7             	mov    %rax,%rdi
  40a383:	e8 1c 03 00 00       	callq  40a6a4 <_ZNSt14__shared_countILN9__gnu_cxx12_Lock_policyE2EED1Ev>
  40a388:	90                   	nop
  40a389:	c9                   	leaveq 
  40a38a:	c3                   	retq   
  40a38b:	90                   	nop

000000000040a38c <_ZNSt10shared_ptrINSt6thread10_Impl_baseEED1Ev>:
  40a38c:	55                   	push   %rbp
  40a38d:	48 89 e5             	mov    %rsp,%rbp
  40a390:	48 83 ec 10          	sub    $0x10,%rsp
  40a394:	48 89 7d f8          	mov    %rdi,-0x8(%rbp)
  40a398:	48 8b 45 f8          	mov    -0x8(%rbp),%rax
  40a39c:	48 89 c7             	mov    %rax,%rdi
  40a39f:	e8 c8 ff ff ff       	callq  40a36c <_ZNSt12__shared_ptrINSt6thread10_Impl_baseELN9__gnu_cxx12_Lock_policyE2EED1Ev>
  40a3a4:	90                   	nop
  40a3a5:	c9                   	leaveq 
  40a3a6:	c3                   	retq   
  40a3a7:	90                   	nop

000000000040a3a8 <_ZNSt6thread10_Impl_baseD1Ev>:
  40a3a8:	55                   	push   %rbp
  40a3a9:	48 89 e5             	mov    %rsp,%rbp
  40a3ac:	48 83 ec 10          	sub    $0x10,%rsp
  40a3b0:	48 89 7d f8          	mov    %rdi,-0x8(%rbp)
  40a3b4:	ba c0 e1 40 00       	mov    $0x40e1c0,%edx
  40a3b9:	48 8b 45 f8          	mov    -0x8(%rbp),%rax
  40a3bd:	48 89 10             	mov    %rdx,(%rax)
  40a3c0:	48 8b 45 f8          	mov    -0x8(%rbp),%rax
  40a3c4:	48 83 c0 08          	add    $0x8,%rax
  40a3c8:	48 89 c7             	mov    %rax,%rdi
  40a3cb:	e8 bc ff ff ff       	callq  40a38c <_ZNSt10shared_ptrINSt6thread10_Impl_baseEED1Ev>
  40a3d0:	b8 00 00 00 00       	mov    $0x0,%eax
  40a3d5:	85 c0                	test   %eax,%eax
  40a3d7:	74 11                	je     40a3ea <_ZNSt6thread10_Impl_baseD1Ev+0x42>
  40a3d9:	48 8b 45 f8          	mov    -0x8(%rbp),%rax
  40a3dd:	be 18 00 00 00       	mov    $0x18,%esi
  40a3e2:	48 89 c7             	mov    %rax,%rdi
  40a3e5:	e8 b6 89 ff ff       	callq  402da0 <_ZdlPvm@plt>
  40a3ea:	c9                   	leaveq 
  40a3eb:	c3                   	retq   

000000000040a3ec <_ZNSt6thread10_Impl_baseD0Ev>:
  40a3ec:	55                   	push   %rbp
  40a3ed:	48 89 e5             	mov    %rsp,%rbp
  40a3f0:	48 83 ec 10          	sub    $0x10,%rsp
  40a3f4:	48 89 7d f8          	mov    %rdi,-0x8(%rbp)
  40a3f8:	48 8b 45 f8          	mov    -0x8(%rbp),%rax
  40a3fc:	48 89 c7             	mov    %rax,%rdi
  40a3ff:	e8 a4 ff ff ff       	callq  40a3a8 <_ZNSt6thread10_Impl_baseD1Ev>
  40a404:	48 8b 45 f8          	mov    -0x8(%rbp),%rax
  40a408:	be 18 00 00 00       	mov    $0x18,%esi
  40a40d:	48 89 c7             	mov    %rax,%rdi
  40a410:	e8 8b 89 ff ff       	callq  402da0 <_ZdlPvm@plt>
  40a415:	c9                   	leaveq 
  40a416:	c3                   	retq   

000000000040a417 <_ZNSt11this_thread6get_idEv>:
  40a417:	55                   	push   %rbp
  40a418:	48 89 e5             	mov    %rsp,%rbp
  40a41b:	48 83 ec 10          	sub    $0x10,%rsp
  40a41f:	64 48 8b 04 25 28 00 	mov    %fs:0x28,%rax
  40a426:	00 00 
  40a428:	48 89 45 f8          	mov    %rax,-0x8(%rbp)
  40a42c:	31 c0                	xor    %eax,%eax
  40a42e:	e8 94 cc ff ff       	callq  4070c7 <_ZL14__gthread_selfv>
  40a433:	48 89 c2             	mov    %rax,%rdx
  40a436:	48 8d 45 f0          	lea    -0x10(%rbp),%rax
  40a43a:	48 89 d6             	mov    %rdx,%rsi
  40a43d:	48 89 c7             	mov    %rax,%rdi
  40a440:	e8 c3 fd ff ff       	callq  40a208 <_ZNSt6thread2idC1Em>
  40a445:	48 8b 45 f0          	mov    -0x10(%rbp),%rax
  40a449:	48 8b 4d f8          	mov    -0x8(%rbp),%rcx
  40a44d:	64 48 33 0c 25 28 00 	xor    %fs:0x28,%rcx
  40a454:	00 00 
  40a456:	74 05                	je     40a45d <_ZNSt11this_thread6get_idEv+0x46>
  40a458:	e8 b3 89 ff ff       	callq  402e10 <__stack_chk_fail@plt>
  40a45d:	c9                   	leaveq 
  40a45e:	c3                   	retq   

000000000040a45f <_ZN9__gnu_cxx12__to_xstringINSt7__cxx1112basic_stringIcSt11char_traitsIcESaIcEEEcEET_PFiPT0_mPKS8_P13__va_list_tagEmSB_z>:
  40a45f:	55                   	push   %rbp
  40a460:	48 89 e5             	mov    %rsp,%rbp
  40a463:	53                   	push   %rbx
  40a464:	48 81 ec 08 01 00 00 	sub    $0x108,%rsp
  40a46b:	48 89 bd 08 ff ff ff 	mov    %rdi,-0xf8(%rbp)
  40a472:	48 89 b5 00 ff ff ff 	mov    %rsi,-0x100(%rbp)
  40a479:	48 89 95 f8 fe ff ff 	mov    %rdx,-0x108(%rbp)
  40a480:	48 89 8d f0 fe ff ff 	mov    %rcx,-0x110(%rbp)
  40a487:	4c 89 85 60 ff ff ff 	mov    %r8,-0xa0(%rbp)
  40a48e:	4c 89 8d 68 ff ff ff 	mov    %r9,-0x98(%rbp)
  40a495:	84 c0                	test   %al,%al
  40a497:	74 23                	je     40a4bc <_ZN9__gnu_cxx12__to_xstringINSt7__cxx1112basic_stringIcSt11char_traitsIcESaIcEEEcEET_PFiPT0_mPKS8_P13__va_list_tagEmSB_z+0x5d>
  40a499:	0f 29 85 70 ff ff ff 	movaps %xmm0,-0x90(%rbp)
  40a4a0:	0f 29 4d 80          	movaps %xmm1,-0x80(%rbp)
  40a4a4:	0f 29 55 90          	movaps %xmm2,-0x70(%rbp)
  40a4a8:	0f 29 5d a0          	movaps %xmm3,-0x60(%rbp)
  40a4ac:	0f 29 65 b0          	movaps %xmm4,-0x50(%rbp)
  40a4b0:	0f 29 6d c0          	movaps %xmm5,-0x40(%rbp)
  40a4b4:	0f 29 75 d0          	movaps %xmm6,-0x30(%rbp)
  40a4b8:	0f 29 7d e0          	movaps %xmm7,-0x20(%rbp)
  40a4bc:	64 48 8b 04 25 28 00 	mov    %fs:0x28,%rax
  40a4c3:	00 00 
  40a4c5:	48 89 85 38 ff ff ff 	mov    %rax,-0xc8(%rbp)
  40a4cc:	31 c0                	xor    %eax,%eax
  40a4ce:	48 8b 85 f8 fe ff ff 	mov    -0x108(%rbp),%rax
  40a4d5:	48 8d 50 0f          	lea    0xf(%rax),%rdx
  40a4d9:	b8 10 00 00 00       	mov    $0x10,%eax
  40a4de:	48 83 e8 01          	sub    $0x1,%rax
  40a4e2:	48 01 d0             	add    %rdx,%rax
  40a4e5:	bb 10 00 00 00       	mov    $0x10,%ebx
  40a4ea:	ba 00 00 00 00       	mov    $0x0,%edx
  40a4ef:	48 f7 f3             	div    %rbx
  40a4f2:	48 6b c0 10          	imul   $0x10,%rax,%rax
  40a4f6:	48 29 c4             	sub    %rax,%rsp
  40a4f9:	48 89 e0             	mov    %rsp,%rax
  40a4fc:	48 83 c0 0f          	add    $0xf,%rax
  40a500:	48 c1 e8 04          	shr    $0x4,%rax
  40a504:	48 c1 e0 04          	shl    $0x4,%rax
  40a508:	48 89 85 18 ff ff ff 	mov    %rax,-0xe8(%rbp)
  40a50f:	c7 85 20 ff ff ff 20 	movl   $0x20,-0xe0(%rbp)
  40a516:	00 00 00 
  40a519:	c7 85 24 ff ff ff 30 	movl   $0x30,-0xdc(%rbp)
  40a520:	00 00 00 
  40a523:	48 8d 45 10          	lea    0x10(%rbp),%rax
  40a527:	48 89 85 28 ff ff ff 	mov    %rax,-0xd8(%rbp)
  40a52e:	48 8d 85 40 ff ff ff 	lea    -0xc0(%rbp),%rax
  40a535:	48 89 85 30 ff ff ff 	mov    %rax,-0xd0(%rbp)
  40a53c:	48 8d 8d 20 ff ff ff 	lea    -0xe0(%rbp),%rcx
  40a543:	48 8b 95 f0 fe ff ff 	mov    -0x110(%rbp),%rdx
  40a54a:	48 8b b5 f8 fe ff ff 	mov    -0x108(%rbp),%rsi
  40a551:	48 8b bd 18 ff ff ff 	mov    -0xe8(%rbp),%rdi
  40a558:	48 8b 85 00 ff ff ff 	mov    -0x100(%rbp),%rax
  40a55f:	ff d0                	callq  *%rax
  40a561:	89 85 14 ff ff ff    	mov    %eax,-0xec(%rbp)
  40a567:	48 8d 85 13 ff ff ff 	lea    -0xed(%rbp),%rax
  40a56e:	48 89 c7             	mov    %rax,%rdi
  40a571:	e8 5a 8a ff ff       	callq  402fd0 <_ZNSaIcEC1Ev@plt>
  40a576:	8b 85 14 ff ff ff    	mov    -0xec(%rbp),%eax
  40a57c:	48 63 d0             	movslq %eax,%rdx
  40a57f:	48 8b 85 18 ff ff ff 	mov    -0xe8(%rbp),%rax
  40a586:	48 8d 3c 02          	lea    (%rdx,%rax,1),%rdi
  40a58a:	48 8d 95 13 ff ff ff 	lea    -0xed(%rbp),%rdx
  40a591:	48 8b b5 18 ff ff ff 	mov    -0xe8(%rbp),%rsi
  40a598:	48 8b 85 08 ff ff ff 	mov    -0xf8(%rbp),%rax
  40a59f:	48 89 d1             	mov    %rdx,%rcx
  40a5a2:	48 89 fa             	mov    %rdi,%rdx
  40a5a5:	48 89 c7             	mov    %rax,%rdi
  40a5a8:	e8 51 0a 00 00       	callq  40affe <_ZNSt7__cxx1112basic_stringIcSt11char_traitsIcESaIcEEC1IPcvEET_S7_RKS3_>
  40a5ad:	48 8d 85 13 ff ff ff 	lea    -0xed(%rbp),%rax
  40a5b4:	48 89 c7             	mov    %rax,%rdi
  40a5b7:	e8 34 88 ff ff       	callq  402df0 <_ZNSaIcED1Ev@plt>
  40a5bc:	48 8b 85 08 ff ff ff 	mov    -0xf8(%rbp),%rax
  40a5c3:	48 8b 9d 38 ff ff ff 	mov    -0xc8(%rbp),%rbx
  40a5ca:	64 48 33 1c 25 28 00 	xor    %fs:0x28,%rbx
  40a5d1:	00 00 
  40a5d3:	74 24                	je     40a5f9 <_ZN9__gnu_cxx12__to_xstringINSt7__cxx1112basic_stringIcSt11char_traitsIcESaIcEEEcEET_PFiPT0_mPKS8_P13__va_list_tagEmSB_z+0x19a>
  40a5d5:	eb 1d                	jmp    40a5f4 <_ZN9__gnu_cxx12__to_xstringINSt7__cxx1112basic_stringIcSt11char_traitsIcESaIcEEEcEET_PFiPT0_mPKS8_P13__va_list_tagEmSB_z+0x195>
  40a5d7:	48 89 c3             	mov    %rax,%rbx
  40a5da:	48 8d 85 13 ff ff ff 	lea    -0xed(%rbp),%rax
  40a5e1:	48 89 c7             	mov    %rax,%rdi
  40a5e4:	e8 07 88 ff ff       	callq  402df0 <_ZNSaIcED1Ev@plt>
  40a5e9:	48 89 d8             	mov    %rbx,%rax
  40a5ec:	48 89 c7             	mov    %rax,%rdi
  40a5ef:	e8 cc 89 ff ff       	callq  402fc0 <_Unwind_Resume@plt>
  40a5f4:	e8 17 88 ff ff       	callq  402e10 <__stack_chk_fail@plt>
  40a5f9:	48 8b 5d f8          	mov    -0x8(%rbp),%rbx
  40a5fd:	c9                   	leaveq 
  40a5fe:	c3                   	retq   
  40a5ff:	90                   	nop

000000000040a600 <_ZNSt7__cxx1112basic_stringIcSt11char_traitsIcESaIcEE12_Alloc_hiderD1Ev>:
  40a600:	55                   	push   %rbp
  40a601:	48 89 e5             	mov    %rsp,%rbp
  40a604:	48 83 ec 10          	sub    $0x10,%rsp
  40a608:	48 89 7d f8          	mov    %rdi,-0x8(%rbp)
  40a60c:	48 8b 45 f8          	mov    -0x8(%rbp),%rax
  40a610:	48 89 c7             	mov    %rax,%rdi
  40a613:	e8 78 84 ff ff       	callq  402a90 <_ZNSaIcED2Ev@plt>
  40a618:	90                   	nop
  40a619:	c9                   	leaveq 
  40a61a:	c3                   	retq   

000000000040a61b <_ZSt4moveIRNSt6thread2idEEONSt16remove_referenceIT_E4typeEOS4_>:
  40a61b:	55                   	push   %rbp
  40a61c:	48 89 e5             	mov    %rsp,%rbp
  40a61f:	48 89 7d f8          	mov    %rdi,-0x8(%rbp)
  40a623:	48 8b 45 f8          	mov    -0x8(%rbp),%rax
  40a627:	5d                   	pop    %rbp
  40a628:	c3                   	retq   

000000000040a629 <_ZSt4swapINSt6thread2idEEvRT_S3_>:
  40a629:	55                   	push   %rbp
  40a62a:	48 89 e5             	mov    %rsp,%rbp
  40a62d:	48 83 ec 20          	sub    $0x20,%rsp
  40a631:	48 89 7d e8          	mov    %rdi,-0x18(%rbp)
  40a635:	48 89 75 e0          	mov    %rsi,-0x20(%rbp)
  40a639:	64 48 8b 04 25 28 00 	mov    %fs:0x28,%rax
  40a640:	00 00 
  40a642:	48 89 45 f8          	mov    %rax,-0x8(%rbp)
  40a646:	31 c0                	xor    %eax,%eax
  40a648:	48 8b 45 e8          	mov    -0x18(%rbp),%rax
  40a64c:	48 89 c7             	mov    %rax,%rdi
  40a64f:	e8 c7 ff ff ff       	callq  40a61b <_ZSt4moveIRNSt6thread2idEEONSt16remove_referenceIT_E4typeEOS4_>
  40a654:	48 8b 00             	mov    (%rax),%rax
  40a657:	48 89 45 f0          	mov    %rax,-0x10(%rbp)
  40a65b:	48 8b 45 e0          	mov    -0x20(%rbp),%rax
  40a65f:	48 89 c7             	mov    %rax,%rdi
  40a662:	e8 b4 ff ff ff       	callq  40a61b <_ZSt4moveIRNSt6thread2idEEONSt16remove_referenceIT_E4typeEOS4_>
  40a667:	48 89 c2             	mov    %rax,%rdx
  40a66a:	48 8b 45 e8          	mov    -0x18(%rbp),%rax
  40a66e:	48 8b 12             	mov    (%rdx),%rdx
  40a671:	48 89 10             	mov    %rdx,(%rax)
  40a674:	48 8d 45 f0          	lea    -0x10(%rbp),%rax
  40a678:	48 89 c7             	mov    %rax,%rdi
  40a67b:	e8 9b ff ff ff       	callq  40a61b <_ZSt4moveIRNSt6thread2idEEONSt16remove_referenceIT_E4typeEOS4_>
  40a680:	48 89 c2             	mov    %rax,%rdx
  40a683:	48 8b 45 e0          	mov    -0x20(%rbp),%rax
  40a687:	48 8b 12             	mov    (%rdx),%rdx
  40a68a:	48 89 10             	mov    %rdx,(%rax)
  40a68d:	90                   	nop
  40a68e:	48 8b 45 f8          	mov    -0x8(%rbp),%rax
  40a692:	64 48 33 04 25 28 00 	xor    %fs:0x28,%rax
  40a699:	00 00 
  40a69b:	74 05                	je     40a6a2 <_ZSt4swapINSt6thread2idEEvRT_S3_+0x79>
  40a69d:	e8 6e 87 ff ff       	callq  402e10 <__stack_chk_fail@plt>
  40a6a2:	c9                   	leaveq 
  40a6a3:	c3                   	retq   

000000000040a6a4 <_ZNSt14__shared_countILN9__gnu_cxx12_Lock_policyE2EED1Ev>:
  40a6a4:	55                   	push   %rbp
  40a6a5:	48 89 e5             	mov    %rsp,%rbp
  40a6a8:	48 83 ec 10          	sub    $0x10,%rsp
  40a6ac:	48 89 7d f8          	mov    %rdi,-0x8(%rbp)
  40a6b0:	48 8b 45 f8          	mov    -0x8(%rbp),%rax
  40a6b4:	48 8b 00             	mov    (%rax),%rax
  40a6b7:	48 85 c0             	test   %rax,%rax
  40a6ba:	74 0f                	je     40a6cb <_ZNSt14__shared_countILN9__gnu_cxx12_Lock_policyE2EED1Ev+0x27>
  40a6bc:	48 8b 45 f8          	mov    -0x8(%rbp),%rax
  40a6c0:	48 8b 00             	mov    (%rax),%rax
  40a6c3:	48 89 c7             	mov    %rax,%rdi
  40a6c6:	e8 a9 09 00 00       	callq  40b074 <_ZNSt16_Sp_counted_baseILN9__gnu_cxx12_Lock_policyE2EE10_M_releaseEv>
  40a6cb:	90                   	nop
  40a6cc:	c9                   	leaveq 
  40a6cd:	c3                   	retq   

000000000040a6ce <_ZStplIcSt11char_traitsIcESaIcEENSt7__cxx1112basic_stringIT_T0_T1_EEOS8_PKS5_>:
  40a6ce:	55                   	push   %rbp
  40a6cf:	48 89 e5             	mov    %rsp,%rbp
  40a6d2:	48 83 ec 20          	sub    $0x20,%rsp
  40a6d6:	48 89 7d f8          	mov    %rdi,-0x8(%rbp)
  40a6da:	48 89 75 f0          	mov    %rsi,-0x10(%rbp)
  40a6de:	48 89 55 e8          	mov    %rdx,-0x18(%rbp)
  40a6e2:	48 8b 55 e8          	mov    -0x18(%rbp),%rdx
  40a6e6:	48 8b 45 f0          	mov    -0x10(%rbp),%rax
  40a6ea:	48 89 d6             	mov    %rdx,%rsi
  40a6ed:	48 89 c7             	mov    %rax,%rdi
  40a6f0:	e8 4b 89 ff ff       	callq  403040 <_ZNSt7__cxx1112basic_stringIcSt11char_traitsIcESaIcEE6appendEPKc@plt>
  40a6f5:	48 89 c7             	mov    %rax,%rdi
  40a6f8:	e8 49 99 ff ff       	callq  404046 <_ZSt4moveIRNSt7__cxx1112basic_stringIcSt11char_traitsIcESaIcEEEEONSt16remove_referenceIT_E4typeEOS8_>
  40a6fd:	48 89 c2             	mov    %rax,%rdx
  40a700:	48 8b 45 f8          	mov    -0x8(%rbp),%rax
  40a704:	48 89 d6             	mov    %rdx,%rsi
  40a707:	48 89 c7             	mov    %rax,%rdi
  40a70a:	e8 01 85 ff ff       	callq  402c10 <_ZNSt7__cxx1112basic_stringIcSt11char_traitsIcESaIcEEC1EOS4_@plt>
  40a70f:	48 8b 45 f8          	mov    -0x8(%rbp),%rax
  40a713:	c9                   	leaveq 
  40a714:	c3                   	retq   
  40a715:	90                   	nop

000000000040a716 <_ZNSt3mapINSt7__cxx1112basic_stringIcSt11char_traitsIcESaIcEEES5_St4lessIS5_ESaISt4pairIKS5_S5_EEE5beginEv>:
  40a716:	55                   	push   %rbp
  40a717:	48 89 e5             	mov    %rsp,%rbp
  40a71a:	48 83 ec 10          	sub    $0x10,%rsp
  40a71e:	48 89 7d f8          	mov    %rdi,-0x8(%rbp)
  40a722:	48 8b 45 f8          	mov    -0x8(%rbp),%rax
  40a726:	48 89 c7             	mov    %rax,%rdi
  40a729:	e8 5c bb ff ff       	callq  40628a <_ZNSt8_Rb_treeINSt7__cxx1112basic_stringIcSt11char_traitsIcESaIcEEESt4pairIKS5_S5_ESt10_Select1stIS8_ESt4lessIS5_ESaIS8_EE5beginEv>
  40a72e:	c9                   	leaveq 
  40a72f:	c3                   	retq   

000000000040a730 <_ZNKSt17_Rb_tree_iteratorISt4pairIKNSt7__cxx1112basic_stringIcSt11char_traitsIcESaIcEEES6_EEneERKS9_>:
  40a730:	55                   	push   %rbp
  40a731:	48 89 e5             	mov    %rsp,%rbp
  40a734:	48 89 7d f8          	mov    %rdi,-0x8(%rbp)
  40a738:	48 89 75 f0          	mov    %rsi,-0x10(%rbp)
  40a73c:	48 8b 45 f8          	mov    -0x8(%rbp),%rax
  40a740:	48 8b 10             	mov    (%rax),%rdx
  40a743:	48 8b 45 f0          	mov    -0x10(%rbp),%rax
  40a747:	48 8b 00             	mov    (%rax),%rax
  40a74a:	48 39 c2             	cmp    %rax,%rdx
  40a74d:	0f 95 c0             	setne  %al
  40a750:	5d                   	pop    %rbp
  40a751:	c3                   	retq   

000000000040a752 <_ZNSt3mapINSt7__cxx1112basic_stringIcSt11char_traitsIcESaIcEEES5_St4lessIS5_ESaISt4pairIKS5_S5_EEE5clearEv>:
  40a752:	55                   	push   %rbp
  40a753:	48 89 e5             	mov    %rsp,%rbp
  40a756:	48 83 ec 10          	sub    $0x10,%rsp
  40a75a:	48 89 7d f8          	mov    %rdi,-0x8(%rbp)
  40a75e:	48 8b 45 f8          	mov    -0x8(%rbp),%rax
  40a762:	48 89 c7             	mov    %rax,%rdi
  40a765:	e8 86 09 00 00       	callq  40b0f0 <_ZNSt8_Rb_treeINSt7__cxx1112basic_stringIcSt11char_traitsIcESaIcEEESt4pairIKS5_S5_ESt10_Select1stIS8_ESt4lessIS5_ESaIS8_EE5clearEv>
  40a76a:	90                   	nop
  40a76b:	c9                   	leaveq 
  40a76c:	c3                   	retq   
  40a76d:	90                   	nop

000000000040a76e <_ZNSt6vectorIhSaIhEE5clearEv>:
  40a76e:	55                   	push   %rbp
  40a76f:	48 89 e5             	mov    %rsp,%rbp
  40a772:	48 83 ec 10          	sub    $0x10,%rsp
  40a776:	48 89 7d f8          	mov    %rdi,-0x8(%rbp)
  40a77a:	48 8b 45 f8          	mov    -0x8(%rbp),%rax
  40a77e:	48 8b 10             	mov    (%rax),%rdx
  40a781:	48 8b 45 f8          	mov    -0x8(%rbp),%rax
  40a785:	48 89 d6             	mov    %rdx,%rsi
  40a788:	48 89 c7             	mov    %rax,%rdi
  40a78b:	e8 9a 09 00 00       	callq  40b12a <_ZNSt6vectorIhSaIhEE15_M_erase_at_endEPh>
  40a790:	90                   	nop
  40a791:	c9                   	leaveq 
  40a792:	c3                   	retq   
  40a793:	90                   	nop

000000000040a794 <_ZNSt10_Head_baseILm0ERKNSt7__cxx1112basic_stringIcSt11char_traitsIcESaIcEEELb0EEC1ES7_>:
  40a794:	55                   	push   %rbp
  40a795:	48 89 e5             	mov    %rsp,%rbp
  40a798:	48 89 7d f8          	mov    %rdi,-0x8(%rbp)
  40a79c:	48 89 75 f0          	mov    %rsi,-0x10(%rbp)
  40a7a0:	48 8b 45 f8          	mov    -0x8(%rbp),%rax
  40a7a4:	48 8b 55 f0          	mov    -0x10(%rbp),%rdx
  40a7a8:	48 89 10             	mov    %rdx,(%rax)
  40a7ab:	90                   	nop
  40a7ac:	5d                   	pop    %rbp
  40a7ad:	c3                   	retq   

000000000040a7ae <_ZNSt11_Tuple_implILm0EIRKNSt7__cxx1112basic_stringIcSt11char_traitsIcESaIcEEEEEC1ES7_>:
  40a7ae:	55                   	push   %rbp
  40a7af:	48 89 e5             	mov    %rsp,%rbp
  40a7b2:	48 83 ec 10          	sub    $0x10,%rsp
  40a7b6:	48 89 7d f8          	mov    %rdi,-0x8(%rbp)
  40a7ba:	48 89 75 f0          	mov    %rsi,-0x10(%rbp)
  40a7be:	48 8b 45 f8          	mov    -0x8(%rbp),%rax
  40a7c2:	48 8b 55 f0          	mov    -0x10(%rbp),%rdx
  40a7c6:	48 89 d6             	mov    %rdx,%rsi
  40a7c9:	48 89 c7             	mov    %rax,%rdi
  40a7cc:	e8 c3 ff ff ff       	callq  40a794 <_ZNSt10_Head_baseILm0ERKNSt7__cxx1112basic_stringIcSt11char_traitsIcESaIcEEELb0EEC1ES7_>
  40a7d1:	90                   	nop
  40a7d2:	c9                   	leaveq 
  40a7d3:	c3                   	retq   

000000000040a7d4 <_ZNSt5tupleIIRKNSt7__cxx1112basic_stringIcSt11char_traitsIcESaIcEEEEEC1ES7_>:
  40a7d4:	55                   	push   %rbp
  40a7d5:	48 89 e5             	mov    %rsp,%rbp
  40a7d8:	48 83 ec 10          	sub    $0x10,%rsp
  40a7dc:	48 89 7d f8          	mov    %rdi,-0x8(%rbp)
  40a7e0:	48 89 75 f0          	mov    %rsi,-0x10(%rbp)
  40a7e4:	48 8b 45 f8          	mov    -0x8(%rbp),%rax
  40a7e8:	48 8b 55 f0          	mov    -0x10(%rbp),%rdx
  40a7ec:	48 89 d6             	mov    %rdx,%rsi
  40a7ef:	48 89 c7             	mov    %rax,%rdi
  40a7f2:	e8 b7 ff ff ff       	callq  40a7ae <_ZNSt11_Tuple_implILm0EIRKNSt7__cxx1112basic_stringIcSt11char_traitsIcESaIcEEEEEC1ES7_>
  40a7f7:	90                   	nop
  40a7f8:	c9                   	leaveq 
  40a7f9:	c3                   	retq   

000000000040a7fa <_ZNSt3mapINSt7__cxx1112basic_stringIcSt11char_traitsIcESaIcEEES5_St4lessIS5_ESaISt4pairIKS5_S5_EEEixERS9_>:
  40a7fa:	55                   	push   %rbp
  40a7fb:	48 89 e5             	mov    %rsp,%rbp
  40a7fe:	41 55                	push   %r13
  40a800:	41 54                	push   %r12
  40a802:	53                   	push   %rbx
  40a803:	48 83 ec 68          	sub    $0x68,%rsp
  40a807:	48 89 7d 88          	mov    %rdi,-0x78(%rbp)
  40a80b:	48 89 75 80          	mov    %rsi,-0x80(%rbp)
  40a80f:	64 48 8b 04 25 28 00 	mov    %fs:0x28,%rax
  40a816:	00 00 
  40a818:	48 89 45 d8          	mov    %rax,-0x28(%rbp)
  40a81c:	31 c0                	xor    %eax,%eax
  40a81e:	48 8b 55 80          	mov    -0x80(%rbp),%rdx
  40a822:	48 8b 45 88          	mov    -0x78(%rbp),%rax
  40a826:	48 89 d6             	mov    %rdx,%rsi
  40a829:	48 89 c7             	mov    %rax,%rdi
  40a82c:	e8 11 9f ff ff       	callq  404742 <_ZNSt3mapINSt7__cxx1112basic_stringIcSt11char_traitsIcESaIcEEES5_St4lessIS5_ESaISt4pairIKS5_S5_EEE11lower_boundERS9_>
  40a831:	48 89 45 a0          	mov    %rax,-0x60(%rbp)
  40a835:	bb 00 00 00 00       	mov    $0x0,%ebx
  40a83a:	48 8b 45 88          	mov    -0x78(%rbp),%rax
  40a83e:	48 89 c7             	mov    %rax,%rdi
  40a841:	e8 22 9f ff ff       	callq  404768 <_ZNSt3mapINSt7__cxx1112basic_stringIcSt11char_traitsIcESaIcEEES5_St4lessIS5_ESaISt4pairIKS5_S5_EEE3endEv>
  40a846:	48 89 45 b0          	mov    %rax,-0x50(%rbp)
  40a84a:	41 bc 01 00 00 00    	mov    $0x1,%r12d
  40a850:	48 8d 55 b0          	lea    -0x50(%rbp),%rdx
  40a854:	48 8d 45 a0          	lea    -0x60(%rbp),%rax
  40a858:	48 89 d6             	mov    %rdx,%rsi
  40a85b:	48 89 c7             	mov    %rax,%rdi
  40a85e:	e8 1f 9f ff ff       	callq  404782 <_ZNKSt17_Rb_tree_iteratorISt4pairIKNSt7__cxx1112basic_stringIcSt11char_traitsIcESaIcEEES6_EEeqERKS9_>
  40a863:	84 c0                	test   %al,%al
  40a865:	75 3a                	jne    40a8a1 <_ZNSt3mapINSt7__cxx1112basic_stringIcSt11char_traitsIcESaIcEEES5_St4lessIS5_ESaISt4pairIKS5_S5_EEEixERS9_+0xa7>
  40a867:	48 8d 45 a0          	lea    -0x60(%rbp),%rax
  40a86b:	48 89 c7             	mov    %rax,%rdi
  40a86e:	e8 53 9f ff ff       	callq  4047c6 <_ZNKSt17_Rb_tree_iteratorISt4pairIKNSt7__cxx1112basic_stringIcSt11char_traitsIcESaIcEEES6_EEdeEv>
  40a873:	49 89 c5             	mov    %rax,%r13
  40a876:	48 8b 45 88          	mov    -0x78(%rbp),%rax
  40a87a:	48 89 c7             	mov    %rax,%rdi
  40a87d:	e8 22 9f ff ff       	callq  4047a4 <_ZNKSt3mapINSt7__cxx1112basic_stringIcSt11char_traitsIcESaIcEEES5_St4lessIS5_ESaISt4pairIKS5_S5_EEE8key_compEv>
  40a882:	bb 01 00 00 00       	mov    $0x1,%ebx
  40a887:	48 8b 4d 80          	mov    -0x80(%rbp),%rcx
  40a88b:	48 8d 45 9e          	lea    -0x62(%rbp),%rax
  40a88f:	4c 89 ea             	mov    %r13,%rdx
  40a892:	48 89 ce             	mov    %rcx,%rsi
  40a895:	48 89 c7             	mov    %rax,%rdi
  40a898:	e8 89 98 ff ff       	callq  404126 <_ZNKSt4lessINSt7__cxx1112basic_stringIcSt11char_traitsIcESaIcEEEEclERKS5_S8_>
  40a89d:	84 c0                	test   %al,%al
  40a89f:	74 07                	je     40a8a8 <_ZNSt3mapINSt7__cxx1112basic_stringIcSt11char_traitsIcESaIcEEES5_St4lessIS5_ESaISt4pairIKS5_S5_EEEixERS9_+0xae>
  40a8a1:	b8 01 00 00 00       	mov    $0x1,%eax
  40a8a6:	eb 05                	jmp    40a8ad <_ZNSt3mapINSt7__cxx1112basic_stringIcSt11char_traitsIcESaIcEEES5_St4lessIS5_ESaISt4pairIKS5_S5_EEEixERS9_+0xb3>
  40a8a8:	b8 00 00 00 00       	mov    $0x0,%eax
  40a8ad:	84 db                	test   %bl,%bl
  40a8af:	45 84 e4             	test   %r12b,%r12b
  40a8b2:	84 c0                	test   %al,%al
  40a8b4:	74 4d                	je     40a903 <_ZNSt3mapINSt7__cxx1112basic_stringIcSt11char_traitsIcESaIcEEES5_St4lessIS5_ESaISt4pairIKS5_S5_EEEixERS9_+0x109>
  40a8b6:	48 8b 55 80          	mov    -0x80(%rbp),%rdx
  40a8ba:	48 8d 45 c0          	lea    -0x40(%rbp),%rax
  40a8be:	48 89 d6             	mov    %rdx,%rsi
  40a8c1:	48 89 c7             	mov    %rax,%rdi
  40a8c4:	e8 0b ff ff ff       	callq  40a7d4 <_ZNSt5tupleIIRKNSt7__cxx1112basic_stringIcSt11char_traitsIcESaIcEEEEEC1ES7_>
  40a8c9:	48 8d 55 a0          	lea    -0x60(%rbp),%rdx
  40a8cd:	48 8d 45 d0          	lea    -0x30(%rbp),%rax
  40a8d1:	48 89 d6             	mov    %rdx,%rsi
  40a8d4:	48 89 c7             	mov    %rax,%rdi
  40a8d7:	e8 98 a0 ff ff       	callq  404974 <_ZNSt23_Rb_tree_const_iteratorISt4pairIKNSt7__cxx1112basic_stringIcSt11char_traitsIcESaIcEEES6_EEC1ERKSt17_Rb_tree_iteratorIS8_E>
  40a8dc:	48 8b 45 88          	mov    -0x78(%rbp),%rax
  40a8e0:	48 8d 4d 9f          	lea    -0x61(%rbp),%rcx
  40a8e4:	48 8d 55 c0          	lea    -0x40(%rbp),%rdx
  40a8e8:	48 8b 75 d0          	mov    -0x30(%rbp),%rsi
  40a8ec:	49 89 c8             	mov    %rcx,%r8
  40a8ef:	48 89 d1             	mov    %rdx,%rcx
  40a8f2:	ba 40 df 40 00       	mov    $0x40df40,%edx
  40a8f7:	48 89 c7             	mov    %rax,%rdi
  40a8fa:	e8 7f 08 00 00       	callq  40b17e <_ZNSt8_Rb_treeINSt7__cxx1112basic_stringIcSt11char_traitsIcESaIcEEESt4pairIKS5_S5_ESt10_Select1stIS8_ESt4lessIS5_ESaIS8_EE22_M_emplace_hint_uniqueIIRKSt21piecewise_construct_tSt5tupleIIRS7_EESJ_IIEEEEESt17_Rb_tree_iteratorIS8_ESt23_Rb_tree_const_iteratorIS8_EDpOT_>
  40a8ff:	48 89 45 a0          	mov    %rax,-0x60(%rbp)
  40a903:	48 8d 45 a0          	lea    -0x60(%rbp),%rax
  40a907:	48 89 c7             	mov    %rax,%rdi
  40a90a:	e8 b7 9e ff ff       	callq  4047c6 <_ZNKSt17_Rb_tree_iteratorISt4pairIKNSt7__cxx1112basic_stringIcSt11char_traitsIcESaIcEEES6_EEdeEv>
  40a90f:	48 83 c0 20          	add    $0x20,%rax
  40a913:	48 8b 5d d8          	mov    -0x28(%rbp),%rbx
  40a917:	64 48 33 1c 25 28 00 	xor    %fs:0x28,%rbx
  40a91e:	00 00 
  40a920:	74 15                	je     40a937 <_ZNSt3mapINSt7__cxx1112basic_stringIcSt11char_traitsIcESaIcEEES5_St4lessIS5_ESaISt4pairIKS5_S5_EEEixERS9_+0x13d>
  40a922:	eb 0e                	jmp    40a932 <_ZNSt3mapINSt7__cxx1112basic_stringIcSt11char_traitsIcESaIcEEES5_St4lessIS5_ESaISt4pairIKS5_S5_EEEixERS9_+0x138>
  40a924:	84 db                	test   %bl,%bl
  40a926:	45 84 e4             	test   %r12b,%r12b
  40a929:	90                   	nop
  40a92a:	48 89 c7             	mov    %rax,%rdi
  40a92d:	e8 8e 86 ff ff       	callq  402fc0 <_Unwind_Resume@plt>
  40a932:	e8 d9 84 ff ff       	callq  402e10 <__stack_chk_fail@plt>
  40a937:	48 83 c4 68          	add    $0x68,%rsp
  40a93b:	5b                   	pop    %rbx
  40a93c:	41 5c                	pop    %r12
  40a93e:	41 5d                	pop    %r13
  40a940:	5d                   	pop    %rbp
  40a941:	c3                   	retq   

000000000040a942 <_ZNSt3mapINSt7__cxx1112basic_stringIcSt11char_traitsIcESaIcEEES5_St4lessIS5_ESaISt4pairIKS5_S5_EEE4findERS9_>:
  40a942:	55                   	push   %rbp
  40a943:	48 89 e5             	mov    %rsp,%rbp
  40a946:	48 83 ec 10          	sub    $0x10,%rsp
  40a94a:	48 89 7d f8          	mov    %rdi,-0x8(%rbp)
  40a94e:	48 89 75 f0          	mov    %rsi,-0x10(%rbp)
  40a952:	48 8b 45 f8          	mov    -0x8(%rbp),%rax
  40a956:	48 8b 55 f0          	mov    -0x10(%rbp),%rdx
  40a95a:	48 89 d6             	mov    %rdx,%rsi
  40a95d:	48 89 c7             	mov    %rax,%rdi
  40a960:	e8 53 09 00 00       	callq  40b2b8 <_ZNSt8_Rb_treeINSt7__cxx1112basic_stringIcSt11char_traitsIcESaIcEEESt4pairIKS5_S5_ESt10_Select1stIS8_ESt4lessIS5_ESaIS8_EE4findERS7_>
  40a965:	c9                   	leaveq 
  40a966:	c3                   	retq   
  40a967:	90                   	nop

000000000040a968 <_ZNKSt4fposI11__mbstate_tEcvlEv>:
  40a968:	55                   	push   %rbp
  40a969:	48 89 e5             	mov    %rsp,%rbp
  40a96c:	48 89 7d f8          	mov    %rdi,-0x8(%rbp)
  40a970:	48 8b 45 f8          	mov    -0x8(%rbp),%rax
  40a974:	48 8b 00             	mov    (%rax),%rax
  40a977:	5d                   	pop    %rbp
  40a978:	c3                   	retq   
  40a979:	90                   	nop

000000000040a97a <_ZNSt6vectorIhSaIhEE3endEv>:
  40a97a:	55                   	push   %rbp
  40a97b:	48 89 e5             	mov    %rsp,%rbp
  40a97e:	48 83 ec 20          	sub    $0x20,%rsp
  40a982:	48 89 7d e8          	mov    %rdi,-0x18(%rbp)
  40a986:	64 48 8b 04 25 28 00 	mov    %fs:0x28,%rax
  40a98d:	00 00 
  40a98f:	48 89 45 f8          	mov    %rax,-0x8(%rbp)
  40a993:	31 c0                	xor    %eax,%eax
  40a995:	48 8b 45 e8          	mov    -0x18(%rbp),%rax
  40a999:	48 8d 50 08          	lea    0x8(%rax),%rdx
  40a99d:	48 8d 45 f0          	lea    -0x10(%rbp),%rax
  40a9a1:	48 89 d6             	mov    %rdx,%rsi
  40a9a4:	48 89 c7             	mov    %rax,%rdi
  40a9a7:	e8 f2 09 00 00       	callq  40b39e <_ZN9__gnu_cxx17__normal_iteratorIPhSt6vectorIhSaIhEEEC1ERKS1_>
  40a9ac:	48 8b 45 f0          	mov    -0x10(%rbp),%rax
  40a9b0:	48 8b 4d f8          	mov    -0x8(%rbp),%rcx
  40a9b4:	64 48 33 0c 25 28 00 	xor    %fs:0x28,%rcx
  40a9bb:	00 00 
  40a9bd:	74 05                	je     40a9c4 <_ZNSt6vectorIhSaIhEE3endEv+0x4a>
  40a9bf:	e8 4c 84 ff ff       	callq  402e10 <__stack_chk_fail@plt>
  40a9c4:	c9                   	leaveq 
  40a9c5:	c3                   	retq   

000000000040a9c6 <_ZN9__gnu_cxx17__normal_iteratorIPKhSt6vectorIhSaIhEEEC1IPhEERKNS0_IT_NS_11__enable_ifIXsrSt10__are_sameIS9_S8_E7__valueES5_E6__typeEEE>:
  40a9c6:	55                   	push   %rbp
  40a9c7:	48 89 e5             	mov    %rsp,%rbp
  40a9ca:	48 83 ec 10          	sub    $0x10,%rsp
  40a9ce:	48 89 7d f8          	mov    %rdi,-0x8(%rbp)
  40a9d2:	48 89 75 f0          	mov    %rsi,-0x10(%rbp)
  40a9d6:	48 8b 45 f0          	mov    -0x10(%rbp),%rax
  40a9da:	48 89 c7             	mov    %rax,%rdi
  40a9dd:	e8 da 09 00 00       	callq  40b3bc <_ZNK9__gnu_cxx17__normal_iteratorIPhSt6vectorIhSaIhEEE4baseEv>
  40a9e2:	48 8b 10             	mov    (%rax),%rdx
  40a9e5:	48 8b 45 f8          	mov    -0x8(%rbp),%rax
  40a9e9:	48 89 10             	mov    %rdx,(%rax)
  40a9ec:	90                   	nop
  40a9ed:	c9                   	leaveq 
  40a9ee:	c3                   	retq   
  40a9ef:	90                   	nop

000000000040a9f0 <_ZNSt6vectorIhSaIhEE6insertIPKcvEEN9__gnu_cxx17__normal_iteratorIPhS1_EENS6_IPKhS1_EET_SC_>:
  40a9f0:	55                   	push   %rbp
  40a9f1:	48 89 e5             	mov    %rsp,%rbp
  40a9f4:	53                   	push   %rbx
  40a9f5:	48 83 ec 48          	sub    $0x48,%rsp
  40a9f9:	48 89 7d c8          	mov    %rdi,-0x38(%rbp)
  40a9fd:	48 89 75 c0          	mov    %rsi,-0x40(%rbp)
  40aa01:	48 89 55 b8          	mov    %rdx,-0x48(%rbp)
  40aa05:	48 89 4d b0          	mov    %rcx,-0x50(%rbp)
  40aa09:	64 48 8b 04 25 28 00 	mov    %fs:0x28,%rax
  40aa10:	00 00 
  40aa12:	48 89 45 e8          	mov    %rax,-0x18(%rbp)
  40aa16:	31 c0                	xor    %eax,%eax
  40aa18:	48 8b 45 c8          	mov    -0x38(%rbp),%rax
  40aa1c:	48 89 c7             	mov    %rax,%rdi
  40aa1f:	e8 a6 09 00 00       	callq  40b3ca <_ZNKSt6vectorIhSaIhEE6cbeginEv>
  40aa24:	48 89 45 d0          	mov    %rax,-0x30(%rbp)
  40aa28:	48 8d 55 d0          	lea    -0x30(%rbp),%rdx
  40aa2c:	48 8d 45 c0          	lea    -0x40(%rbp),%rax
  40aa30:	48 89 d6             	mov    %rdx,%rsi
  40aa33:	48 89 c7             	mov    %rax,%rdi
  40aa36:	e8 e2 09 00 00       	callq  40b41d <_ZN9__gnu_cxxmiIPKhSt6vectorIhSaIhEEEENS_17__normal_iteratorIT_T0_E15difference_typeERKS9_SC_>
  40aa3b:	48 89 45 e0          	mov    %rax,-0x20(%rbp)
  40aa3f:	48 8b 45 c8          	mov    -0x38(%rbp),%rax
  40aa43:	48 89 c7             	mov    %rax,%rdi
  40aa46:	e8 11 0a 00 00       	callq  40b45c <_ZNSt6vectorIhSaIhEE5beginEv>
  40aa4b:	48 89 45 d0          	mov    %rax,-0x30(%rbp)
  40aa4f:	48 8b 55 e0          	mov    -0x20(%rbp),%rdx
  40aa53:	48 8d 45 d0          	lea    -0x30(%rbp),%rax
  40aa57:	48 89 d6             	mov    %rdx,%rsi
  40aa5a:	48 89 c7             	mov    %rax,%rdi
  40aa5d:	e8 42 0a 00 00       	callq  40b4a4 <_ZNK9__gnu_cxx17__normal_iteratorIPhSt6vectorIhSaIhEEEplEl>
  40aa62:	48 89 c6             	mov    %rax,%rsi
  40aa65:	48 8b 4d b0          	mov    -0x50(%rbp),%rcx
  40aa69:	48 8b 55 b8          	mov    -0x48(%rbp),%rdx
  40aa6d:	48 8b 45 c8          	mov    -0x38(%rbp),%rax
  40aa71:	48 83 ec 08          	sub    $0x8,%rsp
  40aa75:	53                   	push   %rbx
  40aa76:	48 89 c7             	mov    %rax,%rdi
  40aa79:	e8 84 0a 00 00       	callq  40b502 <_ZNSt6vectorIhSaIhEE18_M_insert_dispatchIPKcEEvN9__gnu_cxx17__normal_iteratorIPhS1_EET_S9_St12__false_type>
  40aa7e:	48 83 c4 10          	add    $0x10,%rsp
  40aa82:	48 8b 45 c8          	mov    -0x38(%rbp),%rax
  40aa86:	48 89 c7             	mov    %rax,%rdi
  40aa89:	e8 ce 09 00 00       	callq  40b45c <_ZNSt6vectorIhSaIhEE5beginEv>
  40aa8e:	48 89 45 d0          	mov    %rax,-0x30(%rbp)
  40aa92:	48 8b 55 e0          	mov    -0x20(%rbp),%rdx
  40aa96:	48 8d 45 d0          	lea    -0x30(%rbp),%rax
  40aa9a:	48 89 d6             	mov    %rdx,%rsi
  40aa9d:	48 89 c7             	mov    %rax,%rdi
  40aaa0:	e8 ff 09 00 00       	callq  40b4a4 <_ZNK9__gnu_cxx17__normal_iteratorIPhSt6vectorIhSaIhEEEplEl>
  40aaa5:	48 8b 5d e8          	mov    -0x18(%rbp),%rbx
  40aaa9:	64 48 33 1c 25 28 00 	xor    %fs:0x28,%rbx
  40aab0:	00 00 
  40aab2:	74 05                	je     40aab9 <_ZNSt6vectorIhSaIhEE6insertIPKcvEEN9__gnu_cxx17__normal_iteratorIPhS1_EENS6_IPKhS1_EET_SC_+0xc9>
  40aab4:	e8 57 83 ff ff       	callq  402e10 <__stack_chk_fail@plt>
  40aab9:	48 8b 5d f8          	mov    -0x8(%rbp),%rbx
  40aabd:	c9                   	leaveq 
  40aabe:	c3                   	retq   
  40aabf:	90                   	nop

000000000040aac0 <_ZNSt6vectorIhSaIhEE6insertIPcvEEN9__gnu_cxx17__normal_iteratorIPhS1_EENS5_IPKhS1_EET_SB_>:
  40aac0:	55                   	push   %rbp
  40aac1:	48 89 e5             	mov    %rsp,%rbp
  40aac4:	53                   	push   %rbx
  40aac5:	48 83 ec 48          	sub    $0x48,%rsp
  40aac9:	48 89 7d c8          	mov    %rdi,-0x38(%rbp)
  40aacd:	48 89 75 c0          	mov    %rsi,-0x40(%rbp)
  40aad1:	48 89 55 b8          	mov    %rdx,-0x48(%rbp)
  40aad5:	48 89 4d b0          	mov    %rcx,-0x50(%rbp)
  40aad9:	64 48 8b 04 25 28 00 	mov    %fs:0x28,%rax
  40aae0:	00 00 
  40aae2:	48 89 45 e8          	mov    %rax,-0x18(%rbp)
  40aae6:	31 c0                	xor    %eax,%eax
  40aae8:	48 8b 45 c8          	mov    -0x38(%rbp),%rax
  40aaec:	48 89 c7             	mov    %rax,%rdi
  40aaef:	e8 d6 08 00 00       	callq  40b3ca <_ZNKSt6vectorIhSaIhEE6cbeginEv>
  40aaf4:	48 89 45 d0          	mov    %rax,-0x30(%rbp)
  40aaf8:	48 8d 55 d0          	lea    -0x30(%rbp),%rdx
  40aafc:	48 8d 45 c0          	lea    -0x40(%rbp),%rax
  40ab00:	48 89 d6             	mov    %rdx,%rsi
  40ab03:	48 89 c7             	mov    %rax,%rdi
  40ab06:	e8 12 09 00 00       	callq  40b41d <_ZN9__gnu_cxxmiIPKhSt6vectorIhSaIhEEEENS_17__normal_iteratorIT_T0_E15difference_typeERKS9_SC_>
  40ab0b:	48 89 45 e0          	mov    %rax,-0x20(%rbp)
  40ab0f:	48 8b 45 c8          	mov    -0x38(%rbp),%rax
  40ab13:	48 89 c7             	mov    %rax,%rdi
  40ab16:	e8 41 09 00 00       	callq  40b45c <_ZNSt6vectorIhSaIhEE5beginEv>
  40ab1b:	48 89 45 d0          	mov    %rax,-0x30(%rbp)
  40ab1f:	48 8b 55 e0          	mov    -0x20(%rbp),%rdx
  40ab23:	48 8d 45 d0          	lea    -0x30(%rbp),%rax
  40ab27:	48 89 d6             	mov    %rdx,%rsi
  40ab2a:	48 89 c7             	mov    %rax,%rdi
  40ab2d:	e8 72 09 00 00       	callq  40b4a4 <_ZNK9__gnu_cxx17__normal_iteratorIPhSt6vectorIhSaIhEEEplEl>
  40ab32:	48 89 c6             	mov    %rax,%rsi
  40ab35:	48 8b 4d b0          	mov    -0x50(%rbp),%rcx
  40ab39:	48 8b 55 b8          	mov    -0x48(%rbp),%rdx
  40ab3d:	48 8b 45 c8          	mov    -0x38(%rbp),%rax
  40ab41:	48 83 ec 08          	sub    $0x8,%rsp
  40ab45:	53                   	push   %rbx
  40ab46:	48 89 c7             	mov    %rax,%rdi
  40ab49:	e8 14 0a 00 00       	callq  40b562 <_ZNSt6vectorIhSaIhEE18_M_insert_dispatchIPcEEvN9__gnu_cxx17__normal_iteratorIPhS1_EET_S8_St12__false_type>
  40ab4e:	48 83 c4 10          	add    $0x10,%rsp
  40ab52:	48 8b 45 c8          	mov    -0x38(%rbp),%rax
  40ab56:	48 89 c7             	mov    %rax,%rdi
  40ab59:	e8 fe 08 00 00       	callq  40b45c <_ZNSt6vectorIhSaIhEE5beginEv>
  40ab5e:	48 89 45 d0          	mov    %rax,-0x30(%rbp)
  40ab62:	48 8b 55 e0          	mov    -0x20(%rbp),%rdx
  40ab66:	48 8d 45 d0          	lea    -0x30(%rbp),%rax
  40ab6a:	48 89 d6             	mov    %rdx,%rsi
  40ab6d:	48 89 c7             	mov    %rax,%rdi
  40ab70:	e8 2f 09 00 00       	callq  40b4a4 <_ZNK9__gnu_cxx17__normal_iteratorIPhSt6vectorIhSaIhEEEplEl>
  40ab75:	48 8b 5d e8          	mov    -0x18(%rbp),%rbx
  40ab79:	64 48 33 1c 25 28 00 	xor    %fs:0x28,%rbx
  40ab80:	00 00 
  40ab82:	74 05                	je     40ab89 <_ZNSt6vectorIhSaIhEE6insertIPcvEEN9__gnu_cxx17__normal_iteratorIPhS1_EENS5_IPKhS1_EET_SB_+0xc9>
  40ab84:	e8 87 82 ff ff       	callq  402e10 <__stack_chk_fail@plt>
  40ab89:	48 8b 5d f8          	mov    -0x8(%rbp),%rbx
  40ab8d:	c9                   	leaveq 
  40ab8e:	c3                   	retq   
  40ab8f:	90                   	nop

000000000040ab90 <_ZNSt6vectorISt4pairISt6threadbESaIS2_EEC1Ev>:
  40ab90:	55                   	push   %rbp
  40ab91:	48 89 e5             	mov    %rsp,%rbp
  40ab94:	48 83 ec 10          	sub    $0x10,%rsp
  40ab98:	48 89 7d f8          	mov    %rdi,-0x8(%rbp)
  40ab9c:	48 8b 45 f8          	mov    -0x8(%rbp),%rax
  40aba0:	48 89 c7             	mov    %rax,%rdi
  40aba3:	e8 36 0a 00 00       	callq  40b5de <_ZNSt12_Vector_baseISt4pairISt6threadbESaIS2_EEC1Ev>
  40aba8:	90                   	nop
  40aba9:	c9                   	leaveq 
  40abaa:	c3                   	retq   
  40abab:	90                   	nop

000000000040abac <_ZNSt6vectorISt4pairISt6threadbESaIS2_EED1Ev>:
  40abac:	55                   	push   %rbp
  40abad:	48 89 e5             	mov    %rsp,%rbp
  40abb0:	48 83 ec 10          	sub    $0x10,%rsp
  40abb4:	48 89 7d f8          	mov    %rdi,-0x8(%rbp)
  40abb8:	48 8b 45 f8          	mov    -0x8(%rbp),%rax
  40abbc:	48 89 c7             	mov    %rax,%rdi
  40abbf:	e8 86 0a 00 00       	callq  40b64a <_ZNSt12_Vector_baseISt4pairISt6threadbESaIS2_EE19_M_get_Tp_allocatorEv>
  40abc4:	48 89 c2             	mov    %rax,%rdx
  40abc7:	48 8b 45 f8          	mov    -0x8(%rbp),%rax
  40abcb:	48 8b 48 08          	mov    0x8(%rax),%rcx
  40abcf:	48 8b 45 f8          	mov    -0x8(%rbp),%rax
  40abd3:	48 8b 00             	mov    (%rax),%rax
  40abd6:	48 89 ce             	mov    %rcx,%rsi
  40abd9:	48 89 c7             	mov    %rax,%rdi
  40abdc:	e8 77 0a 00 00       	callq  40b658 <_ZSt8_DestroyIPSt4pairISt6threadbES2_EvT_S4_RSaIT0_E>
  40abe1:	48 8b 45 f8          	mov    -0x8(%rbp),%rax
  40abe5:	48 89 c7             	mov    %rax,%rdi
  40abe8:	e8 0d 0a 00 00       	callq  40b5fa <_ZNSt12_Vector_baseISt4pairISt6threadbESaIS2_EED1Ev>
  40abed:	90                   	nop
  40abee:	c9                   	leaveq 
  40abef:	c3                   	retq   

000000000040abf0 <_ZNSt10lock_guardISt5mutexEC1ERS0_>:
  40abf0:	55                   	push   %rbp
  40abf1:	48 89 e5             	mov    %rsp,%rbp
  40abf4:	48 83 ec 10          	sub    $0x10,%rsp
  40abf8:	48 89 7d f8          	mov    %rdi,-0x8(%rbp)
  40abfc:	48 89 75 f0          	mov    %rsi,-0x10(%rbp)
  40ac00:	48 8b 45 f8          	mov    -0x8(%rbp),%rax
  40ac04:	48 8b 55 f0          	mov    -0x10(%rbp),%rdx
  40ac08:	48 89 10             	mov    %rdx,(%rax)
  40ac0b:	48 8b 45 f8          	mov    -0x8(%rbp),%rax
  40ac0f:	48 8b 00             	mov    (%rax),%rax
  40ac12:	48 89 c7             	mov    %rax,%rdi
  40ac15:	e8 8e f5 ff ff       	callq  40a1a8 <_ZNSt5mutex4lockEv>
  40ac1a:	90                   	nop
  40ac1b:	c9                   	leaveq 
  40ac1c:	c3                   	retq   
  40ac1d:	90                   	nop

000000000040ac1e <_ZNSt10lock_guardISt5mutexED1Ev>:
  40ac1e:	55                   	push   %rbp
  40ac1f:	48 89 e5             	mov    %rsp,%rbp
  40ac22:	48 83 ec 10          	sub    $0x10,%rsp
  40ac26:	48 89 7d f8          	mov    %rdi,-0x8(%rbp)
  40ac2a:	48 8b 45 f8          	mov    -0x8(%rbp),%rax
  40ac2e:	48 8b 00             	mov    (%rax),%rax
  40ac31:	48 89 c7             	mov    %rax,%rdi
  40ac34:	e8 9d f5 ff ff       	callq  40a1d6 <_ZNSt5mutex6unlockEv>
  40ac39:	90                   	nop
  40ac3a:	c9                   	leaveq 
  40ac3b:	c3                   	retq   

000000000040ac3c <_ZSt7forwardIiEOT_RNSt16remove_referenceIS0_E4typeE>:
  40ac3c:	55                   	push   %rbp
  40ac3d:	48 89 e5             	mov    %rsp,%rbp
  40ac40:	48 89 7d f8          	mov    %rdi,-0x8(%rbp)
  40ac44:	48 8b 45 f8          	mov    -0x8(%rbp),%rax
  40ac48:	5d                   	pop    %rbp
  40ac49:	c3                   	retq   

000000000040ac4a <_ZNKSt8functionIFviEEclEi>:
  40ac4a:	55                   	push   %rbp
  40ac4b:	48 89 e5             	mov    %rsp,%rbp
  40ac4e:	53                   	push   %rbx
  40ac4f:	48 83 ec 18          	sub    $0x18,%rsp
  40ac53:	48 89 7d e8          	mov    %rdi,-0x18(%rbp)
  40ac57:	89 75 e4             	mov    %esi,-0x1c(%rbp)
  40ac5a:	48 8b 45 e8          	mov    -0x18(%rbp),%rax
  40ac5e:	48 89 c7             	mov    %rax,%rdi
  40ac61:	e8 18 f5 ff ff       	callq  40a17e <_ZNKSt14_Function_base8_M_emptyEv>
  40ac66:	84 c0                	test   %al,%al
  40ac68:	74 05                	je     40ac6f <_ZNKSt8functionIFviEEclEi+0x25>
  40ac6a:	e8 f1 7e ff ff       	callq  402b60 <_ZSt25__throw_bad_function_callv@plt>
  40ac6f:	48 8b 45 e8          	mov    -0x18(%rbp),%rax
  40ac73:	48 8b 58 18          	mov    0x18(%rax),%rbx
  40ac77:	48 8d 45 e4          	lea    -0x1c(%rbp),%rax
  40ac7b:	48 89 c7             	mov    %rax,%rdi
  40ac7e:	e8 b9 ff ff ff       	callq  40ac3c <_ZSt7forwardIiEOT_RNSt16remove_referenceIS0_E4typeE>
  40ac83:	48 89 c2             	mov    %rax,%rdx
  40ac86:	48 8b 45 e8          	mov    -0x18(%rbp),%rax
  40ac8a:	48 89 d6             	mov    %rdx,%rsi
  40ac8d:	48 89 c7             	mov    %rax,%rdi
  40ac90:	ff d3                	callq  *%rbx
  40ac92:	48 83 c4 18          	add    $0x18,%rsp
  40ac96:	5b                   	pop    %rbx
  40ac97:	5d                   	pop    %rbp
  40ac98:	c3                   	retq   
  40ac99:	90                   	nop

000000000040ac9a <_ZNSt6vectorISt4pairISt6threadbESaIS2_EE5beginEv>:
  40ac9a:	55                   	push   %rbp
  40ac9b:	48 89 e5             	mov    %rsp,%rbp
  40ac9e:	48 83 ec 20          	sub    $0x20,%rsp
  40aca2:	48 89 7d e8          	mov    %rdi,-0x18(%rbp)
  40aca6:	64 48 8b 04 25 28 00 	mov    %fs:0x28,%rax
  40acad:	00 00 
  40acaf:	48 89 45 f8          	mov    %rax,-0x8(%rbp)
  40acb3:	31 c0                	xor    %eax,%eax
  40acb5:	48 8b 55 e8          	mov    -0x18(%rbp),%rdx
  40acb9:	48 8d 45 f0          	lea    -0x10(%rbp),%rax
  40acbd:	48 89 d6             	mov    %rdx,%rsi
  40acc0:	48 89 c7             	mov    %rax,%rdi
  40acc3:	e8 ba 09 00 00       	callq  40b682 <_ZN9__gnu_cxx17__normal_iteratorIPSt4pairISt6threadbESt6vectorIS3_SaIS3_EEEC1ERKS4_>
  40acc8:	48 8b 45 f0          	mov    -0x10(%rbp),%rax
  40accc:	48 8b 4d f8          	mov    -0x8(%rbp),%rcx
  40acd0:	64 48 33 0c 25 28 00 	xor    %fs:0x28,%rcx
  40acd7:	00 00 
  40acd9:	74 05                	je     40ace0 <_ZNSt6vectorISt4pairISt6threadbESaIS2_EE5beginEv+0x46>
  40acdb:	e8 30 81 ff ff       	callq  402e10 <__stack_chk_fail@plt>
  40ace0:	c9                   	leaveq 
  40ace1:	c3                   	retq   

000000000040ace2 <_ZNSt6vectorISt4pairISt6threadbESaIS2_EE3endEv>:
  40ace2:	55                   	push   %rbp
  40ace3:	48 89 e5             	mov    %rsp,%rbp
  40ace6:	48 83 ec 20          	sub    $0x20,%rsp
  40acea:	48 89 7d e8          	mov    %rdi,-0x18(%rbp)
  40acee:	64 48 8b 04 25 28 00 	mov    %fs:0x28,%rax
  40acf5:	00 00 
  40acf7:	48 89 45 f8          	mov    %rax,-0x8(%rbp)
  40acfb:	31 c0                	xor    %eax,%eax
  40acfd:	48 8b 45 e8          	mov    -0x18(%rbp),%rax
  40ad01:	48 8d 50 08          	lea    0x8(%rax),%rdx
  40ad05:	48 8d 45 f0          	lea    -0x10(%rbp),%rax
  40ad09:	48 89 d6             	mov    %rdx,%rsi
  40ad0c:	48 89 c7             	mov    %rax,%rdi
  40ad0f:	e8 6e 09 00 00       	callq  40b682 <_ZN9__gnu_cxx17__normal_iteratorIPSt4pairISt6threadbESt6vectorIS3_SaIS3_EEEC1ERKS4_>
  40ad14:	48 8b 45 f0          	mov    -0x10(%rbp),%rax
  40ad18:	48 8b 4d f8          	mov    -0x8(%rbp),%rcx
  40ad1c:	64 48 33 0c 25 28 00 	xor    %fs:0x28,%rcx
  40ad23:	00 00 
  40ad25:	74 05                	je     40ad2c <_ZNSt6vectorISt4pairISt6threadbESaIS2_EE3endEv+0x4a>
  40ad27:	e8 e4 80 ff ff       	callq  402e10 <__stack_chk_fail@plt>
  40ad2c:	c9                   	leaveq 
  40ad2d:	c3                   	retq   

000000000040ad2e <_ZN9__gnu_cxxneIPSt4pairISt6threadbESt6vectorIS3_SaIS3_EEEEbRKNS_17__normal_iteratorIT_T0_EESD_>:
  40ad2e:	55                   	push   %rbp
  40ad2f:	48 89 e5             	mov    %rsp,%rbp
  40ad32:	53                   	push   %rbx
  40ad33:	48 83 ec 18          	sub    $0x18,%rsp
  40ad37:	48 89 7d e8          	mov    %rdi,-0x18(%rbp)
  40ad3b:	48 89 75 e0          	mov    %rsi,-0x20(%rbp)
  40ad3f:	48 8b 45 e8          	mov    -0x18(%rbp),%rax
  40ad43:	48 89 c7             	mov    %rax,%rdi
  40ad46:	e8 55 09 00 00       	callq  40b6a0 <_ZNK9__gnu_cxx17__normal_iteratorIPSt4pairISt6threadbESt6vectorIS3_SaIS3_EEE4baseEv>
  40ad4b:	48 8b 18             	mov    (%rax),%rbx
  40ad4e:	48 8b 45 e0          	mov    -0x20(%rbp),%rax
  40ad52:	48 89 c7             	mov    %rax,%rdi
  40ad55:	e8 46 09 00 00       	callq  40b6a0 <_ZNK9__gnu_cxx17__normal_iteratorIPSt4pairISt6threadbESt6vectorIS3_SaIS3_EEE4baseEv>
  40ad5a:	48 8b 00             	mov    (%rax),%rax
  40ad5d:	48 39 c3             	cmp    %rax,%rbx
  40ad60:	0f 95 c0             	setne  %al
  40ad63:	48 83 c4 18          	add    $0x18,%rsp
  40ad67:	5b                   	pop    %rbx
  40ad68:	5d                   	pop    %rbp
  40ad69:	c3                   	retq   

000000000040ad6a <_ZN9__gnu_cxx17__normal_iteratorIPSt4pairISt6threadbESt6vectorIS3_SaIS3_EEEppEv>:
  40ad6a:	55                   	push   %rbp
  40ad6b:	48 89 e5             	mov    %rsp,%rbp
  40ad6e:	48 89 7d f8          	mov    %rdi,-0x8(%rbp)
  40ad72:	48 8b 45 f8          	mov    -0x8(%rbp),%rax
  40ad76:	48 8b 00             	mov    (%rax),%rax
  40ad79:	48 8d 50 10          	lea    0x10(%rax),%rdx
  40ad7d:	48 8b 45 f8          	mov    -0x8(%rbp),%rax
  40ad81:	48 89 10             	mov    %rdx,(%rax)
  40ad84:	48 8b 45 f8          	mov    -0x8(%rbp),%rax
  40ad88:	5d                   	pop    %rbp
  40ad89:	c3                   	retq   

000000000040ad8a <_ZNK9__gnu_cxx17__normal_iteratorIPSt4pairISt6threadbESt6vectorIS3_SaIS3_EEEdeEv>:
  40ad8a:	55                   	push   %rbp
  40ad8b:	48 89 e5             	mov    %rsp,%rbp
  40ad8e:	48 89 7d f8          	mov    %rdi,-0x8(%rbp)
  40ad92:	48 8b 45 f8          	mov    -0x8(%rbp),%rax
  40ad96:	48 8b 00             	mov    (%rax),%rax
  40ad99:	5d                   	pop    %rbp
  40ad9a:	c3                   	retq   

000000000040ad9b <_ZSt7forwardIbEOT_RNSt16remove_referenceIS0_E4typeE>:
  40ad9b:	55                   	push   %rbp
  40ad9c:	48 89 e5             	mov    %rsp,%rbp
  40ad9f:	48 89 7d f8          	mov    %rdi,-0x8(%rbp)
  40ada3:	48 8b 45 f8          	mov    -0x8(%rbp),%rax
  40ada7:	5d                   	pop    %rbp
  40ada8:	c3                   	retq   
  40ada9:	90                   	nop

000000000040adaa <_ZNSt10_Head_baseILm0EObLb0EEC1IbEEOT_>:
  40adaa:	55                   	push   %rbp
  40adab:	48 89 e5             	mov    %rsp,%rbp
  40adae:	48 83 ec 10          	sub    $0x10,%rsp
  40adb2:	48 89 7d f8          	mov    %rdi,-0x8(%rbp)
  40adb6:	48 89 75 f0          	mov    %rsi,-0x10(%rbp)
  40adba:	48 8b 45 f0          	mov    -0x10(%rbp),%rax
  40adbe:	48 89 c7             	mov    %rax,%rdi
  40adc1:	e8 d5 ff ff ff       	callq  40ad9b <_ZSt7forwardIbEOT_RNSt16remove_referenceIS0_E4typeE>
  40adc6:	48 89 c2             	mov    %rax,%rdx
  40adc9:	48 8b 45 f8          	mov    -0x8(%rbp),%rax
  40adcd:	48 89 10             	mov    %rdx,(%rax)
  40add0:	90                   	nop
  40add1:	c9                   	leaveq 
  40add2:	c3                   	retq   
  40add3:	90                   	nop

000000000040add4 <_ZNSt11_Tuple_implILm0EIObEEC1IbEEOT_>:
  40add4:	55                   	push   %rbp
  40add5:	48 89 e5             	mov    %rsp,%rbp
  40add8:	48 83 ec 10          	sub    $0x10,%rsp
  40addc:	48 89 7d f8          	mov    %rdi,-0x8(%rbp)
  40ade0:	48 89 75 f0          	mov    %rsi,-0x10(%rbp)
  40ade4:	48 8b 45 f0          	mov    -0x10(%rbp),%rax
  40ade8:	48 89 c7             	mov    %rax,%rdi
  40adeb:	e8 ab ff ff ff       	callq  40ad9b <_ZSt7forwardIbEOT_RNSt16remove_referenceIS0_E4typeE>
  40adf0:	48 89 c2             	mov    %rax,%rdx
  40adf3:	48 8b 45 f8          	mov    -0x8(%rbp),%rax
  40adf7:	48 89 d6             	mov    %rdx,%rsi
  40adfa:	48 89 c7             	mov    %rax,%rdi
  40adfd:	e8 a8 ff ff ff       	callq  40adaa <_ZNSt10_Head_baseILm0EObLb0EEC1IbEEOT_>
  40ae02:	90                   	nop
  40ae03:	c9                   	leaveq 
  40ae04:	c3                   	retq   
  40ae05:	90                   	nop

000000000040ae06 <_ZNSt5tupleIIObEEC1IIbEvEEDpOT_>:
  40ae06:	55                   	push   %rbp
  40ae07:	48 89 e5             	mov    %rsp,%rbp
  40ae0a:	48 83 ec 10          	sub    $0x10,%rsp
  40ae0e:	48 89 7d f8          	mov    %rdi,-0x8(%rbp)
  40ae12:	48 89 75 f0          	mov    %rsi,-0x10(%rbp)
  40ae16:	48 8b 45 f0          	mov    -0x10(%rbp),%rax
  40ae1a:	48 89 c7             	mov    %rax,%rdi
  40ae1d:	e8 79 ff ff ff       	callq  40ad9b <_ZSt7forwardIbEOT_RNSt16remove_referenceIS0_E4typeE>
  40ae22:	48 89 c2             	mov    %rax,%rdx
  40ae25:	48 8b 45 f8          	mov    -0x8(%rbp),%rax
  40ae29:	48 89 d6             	mov    %rdx,%rsi
  40ae2c:	48 89 c7             	mov    %rax,%rdi
  40ae2f:	e8 a0 ff ff ff       	callq  40add4 <_ZNSt11_Tuple_implILm0EIObEEC1IbEEOT_>
  40ae34:	90                   	nop
  40ae35:	c9                   	leaveq 
  40ae36:	c3                   	retq   

000000000040ae37 <_ZNSt10_Head_baseILm0EObLb0EE7_M_headERS1_>:
  40ae37:	55                   	push   %rbp
  40ae38:	48 89 e5             	mov    %rsp,%rbp
  40ae3b:	48 89 7d f8          	mov    %rdi,-0x8(%rbp)
  40ae3f:	48 8b 45 f8          	mov    -0x8(%rbp),%rax
  40ae43:	48 8b 00             	mov    (%rax),%rax
  40ae46:	5d                   	pop    %rbp
  40ae47:	c3                   	retq   

000000000040ae48 <_ZNSt11_Tuple_implILm0EIObEE7_M_headERS1_>:
  40ae48:	55                   	push   %rbp
  40ae49:	48 89 e5             	mov    %rsp,%rbp
  40ae4c:	48 83 ec 10          	sub    $0x10,%rsp
  40ae50:	48 89 7d f8          	mov    %rdi,-0x8(%rbp)
  40ae54:	48 8b 45 f8          	mov    -0x8(%rbp),%rax
  40ae58:	48 89 c7             	mov    %rax,%rdi
  40ae5b:	e8 d7 ff ff ff       	callq  40ae37 <_ZNSt10_Head_baseILm0EObLb0EE7_M_headERS1_>
  40ae60:	c9                   	leaveq 
  40ae61:	c3                   	retq   

000000000040ae62 <_ZSt7forwardIObEOT_RNSt16remove_referenceIS1_E4typeE>:
  40ae62:	55                   	push   %rbp
  40ae63:	48 89 e5             	mov    %rsp,%rbp
  40ae66:	48 89 7d f8          	mov    %rdi,-0x8(%rbp)
  40ae6a:	48 8b 45 f8          	mov    -0x8(%rbp),%rax
  40ae6e:	5d                   	pop    %rbp
  40ae6f:	c3                   	retq   

000000000040ae70 <_ZNSt11_Tuple_implILm0EIObEEC1EOS1_>:
  40ae70:	55                   	push   %rbp
  40ae71:	48 89 e5             	mov    %rsp,%rbp
  40ae74:	48 83 ec 10          	sub    $0x10,%rsp
  40ae78:	48 89 7d f8          	mov    %rdi,-0x8(%rbp)
  40ae7c:	48 89 75 f0          	mov    %rsi,-0x10(%rbp)
  40ae80:	48 8b 45 f0          	mov    -0x10(%rbp),%rax
  40ae84:	48 89 c7             	mov    %rax,%rdi
  40ae87:	e8 bc ff ff ff       	callq  40ae48 <_ZNSt11_Tuple_implILm0EIObEE7_M_headERS1_>
  40ae8c:	48 89 c7             	mov    %rax,%rdi
  40ae8f:	e8 ce ff ff ff       	callq  40ae62 <_ZSt7forwardIObEOT_RNSt16remove_referenceIS1_E4typeE>
  40ae94:	48 89 c2             	mov    %rax,%rdx
  40ae97:	48 8b 45 f8          	mov    -0x8(%rbp),%rax
  40ae9b:	48 89 d6             	mov    %rdx,%rsi
  40ae9e:	48 89 c7             	mov    %rax,%rdi
  40aea1:	e8 04 ff ff ff       	callq  40adaa <_ZNSt10_Head_baseILm0EObLb0EEC1IbEEOT_>
  40aea6:	90                   	nop
  40aea7:	c9                   	leaveq 
  40aea8:	c3                   	retq   
  40aea9:	90                   	nop

000000000040aeaa <_ZNSt5tupleIIObEEC1EOS1_>:
  40aeaa:	55                   	push   %rbp
  40aeab:	48 89 e5             	mov    %rsp,%rbp
  40aeae:	48 83 ec 10          	sub    $0x10,%rsp
  40aeb2:	48 89 7d f8          	mov    %rdi,-0x8(%rbp)
  40aeb6:	48 89 75 f0          	mov    %rsi,-0x10(%rbp)
  40aeba:	48 8b 55 f0          	mov    -0x10(%rbp),%rdx
  40aebe:	48 8b 45 f8          	mov    -0x8(%rbp),%rax
  40aec2:	48 89 d6             	mov    %rdx,%rsi
  40aec5:	48 89 c7             	mov    %rax,%rdi
  40aec8:	e8 a3 ff ff ff       	callq  40ae70 <_ZNSt11_Tuple_implILm0EIObEEC1EOS1_>
  40aecd:	90                   	nop
  40aece:	c9                   	leaveq 
  40aecf:	c3                   	retq   

000000000040aed0 <_ZSt16forward_as_tupleIIbEESt5tupleIIDpOT_EES3_>:
  40aed0:	55                   	push   %rbp
  40aed1:	48 89 e5             	mov    %rsp,%rbp
  40aed4:	48 83 ec 10          	sub    $0x10,%rsp
  40aed8:	48 89 7d f8          	mov    %rdi,-0x8(%rbp)
  40aedc:	48 89 75 f0          	mov    %rsi,-0x10(%rbp)
  40aee0:	48 8b 45 f0          	mov    -0x10(%rbp),%rax
  40aee4:	48 89 c7             	mov    %rax,%rdi
  40aee7:	e8 af fe ff ff       	callq  40ad9b <_ZSt7forwardIbEOT_RNSt16remove_referenceIS0_E4typeE>
  40aeec:	48 89 c2             	mov    %rax,%rdx
  40aeef:	48 8b 45 f8          	mov    -0x8(%rbp),%rax
  40aef3:	48 89 d6             	mov    %rdx,%rsi
  40aef6:	48 89 c7             	mov    %rax,%rdi
  40aef9:	e8 08 ff ff ff       	callq  40ae06 <_ZNSt5tupleIIObEEC1IIbEvEEDpOT_>
  40aefe:	48 8b 45 f8          	mov    -0x8(%rbp),%rax
  40af02:	c9                   	leaveq 
  40af03:	c3                   	retq   

000000000040af04 <_ZSt7forwardISt5tupleIIObEEEOT_RNSt16remove_referenceIS3_E4typeE>:
  40af04:	55                   	push   %rbp
  40af05:	48 89 e5             	mov    %rsp,%rbp
  40af08:	48 89 7d f8          	mov    %rdi,-0x8(%rbp)
  40af0c:	48 8b 45 f8          	mov    -0x8(%rbp),%rax
  40af10:	5d                   	pop    %rbp
  40af11:	c3                   	retq   

000000000040af12 <_ZN9__gnu_cxx17__normal_iteratorIPKSt4pairISt6threadbESt6vectorIS3_SaIS3_EEEC1IPS3_EERKNS0_IT_NS_11__enable_ifIXsrSt10__are_sameISC_SB_E7__valueES8_E6__typeEEE>:
  40af12:	55                   	push   %rbp
  40af13:	48 89 e5             	mov    %rsp,%rbp
  40af16:	48 83 ec 10          	sub    $0x10,%rsp
  40af1a:	48 89 7d f8          	mov    %rdi,-0x8(%rbp)
  40af1e:	48 89 75 f0          	mov    %rsi,-0x10(%rbp)
  40af22:	48 8b 45 f0          	mov    -0x10(%rbp),%rax
  40af26:	48 89 c7             	mov    %rax,%rdi
  40af29:	e8 72 07 00 00       	callq  40b6a0 <_ZNK9__gnu_cxx17__normal_iteratorIPSt4pairISt6threadbESt6vectorIS3_SaIS3_EEE4baseEv>
  40af2e:	48 8b 10             	mov    (%rax),%rdx
  40af31:	48 8b 45 f8          	mov    -0x8(%rbp),%rax
  40af35:	48 89 10             	mov    %rdx,(%rax)
  40af38:	90                   	nop
  40af39:	c9                   	leaveq 
  40af3a:	c3                   	retq   
  40af3b:	90                   	nop

000000000040af3c <_ZNSt6vectorISt4pairISt6threadbESaIS2_EE5eraseEN9__gnu_cxx17__normal_iteratorIPKS2_S4_EES9_>:
  40af3c:	55                   	push   %rbp
  40af3d:	48 89 e5             	mov    %rsp,%rbp
  40af40:	53                   	push   %rbx
  40af41:	48 83 ec 48          	sub    $0x48,%rsp
  40af45:	48 89 7d c8          	mov    %rdi,-0x38(%rbp)
  40af49:	48 89 75 c0          	mov    %rsi,-0x40(%rbp)
  40af4d:	48 89 55 b0          	mov    %rdx,-0x50(%rbp)
  40af51:	64 48 8b 04 25 28 00 	mov    %fs:0x28,%rax
  40af58:	00 00 
  40af5a:	48 89 45 e8          	mov    %rax,-0x18(%rbp)
  40af5e:	31 c0                	xor    %eax,%eax
  40af60:	48 8b 45 c8          	mov    -0x38(%rbp),%rax
  40af64:	48 89 c7             	mov    %rax,%rdi
  40af67:	e8 2e fd ff ff       	callq  40ac9a <_ZNSt6vectorISt4pairISt6threadbESaIS2_EE5beginEv>
  40af6c:	48 89 45 d0          	mov    %rax,-0x30(%rbp)
  40af70:	48 8b 45 c8          	mov    -0x38(%rbp),%rax
  40af74:	48 89 c7             	mov    %rax,%rdi
  40af77:	e8 40 07 00 00       	callq  40b6bc <_ZNKSt6vectorISt4pairISt6threadbESaIS2_EE6cbeginEv>
  40af7c:	48 89 45 e0          	mov    %rax,-0x20(%rbp)
  40af80:	48 8d 55 e0          	lea    -0x20(%rbp),%rdx
  40af84:	48 8d 45 b0          	lea    -0x50(%rbp),%rax
  40af88:	48 89 d6             	mov    %rdx,%rsi
  40af8b:	48 89 c7             	mov    %rax,%rdi
  40af8e:	e8 7c 07 00 00       	callq  40b70f <_ZN9__gnu_cxxmiIPKSt4pairISt6threadbESt6vectorIS3_SaIS3_EEEENS_17__normal_iteratorIT_T0_E15difference_typeERKSC_SF_>
  40af93:	48 89 c2             	mov    %rax,%rdx
  40af96:	48 8d 45 d0          	lea    -0x30(%rbp),%rax
  40af9a:	48 89 d6             	mov    %rdx,%rsi
  40af9d:	48 89 c7             	mov    %rax,%rdi
  40afa0:	e8 ad 07 00 00       	callq  40b752 <_ZNK9__gnu_cxx17__normal_iteratorIPSt4pairISt6threadbESt6vectorIS3_SaIS3_EEEplEl>
  40afa5:	48 89 c3             	mov    %rax,%rbx
  40afa8:	48 8d 55 e0          	lea    -0x20(%rbp),%rdx
  40afac:	48 8d 45 c0          	lea    -0x40(%rbp),%rax
  40afb0:	48 89 d6             	mov    %rdx,%rsi
  40afb3:	48 89 c7             	mov    %rax,%rdi
  40afb6:	e8 54 07 00 00       	callq  40b70f <_ZN9__gnu_cxxmiIPKSt4pairISt6threadbESt6vectorIS3_SaIS3_EEEENS_17__normal_iteratorIT_T0_E15difference_typeERKSC_SF_>
  40afbb:	48 89 c2             	mov    %rax,%rdx
  40afbe:	48 8d 45 d0          	lea    -0x30(%rbp),%rax
  40afc2:	48 89 d6             	mov    %rdx,%rsi
  40afc5:	48 89 c7             	mov    %rax,%rdi
  40afc8:	e8 85 07 00 00       	callq  40b752 <_ZNK9__gnu_cxx17__normal_iteratorIPSt4pairISt6threadbESt6vectorIS3_SaIS3_EEEplEl>
  40afcd:	48 89 c1             	mov    %rax,%rcx
  40afd0:	48 8b 45 c8          	mov    -0x38(%rbp),%rax
  40afd4:	48 89 da             	mov    %rbx,%rdx
  40afd7:	48 89 ce             	mov    %rcx,%rsi
  40afda:	48 89 c7             	mov    %rax,%rdi
  40afdd:	e8 d2 07 00 00       	callq  40b7b4 <_ZNSt6vectorISt4pairISt6threadbESaIS2_EE8_M_eraseEN9__gnu_cxx17__normal_iteratorIPS2_S4_EES8_>
  40afe2:	48 8b 4d e8          	mov    -0x18(%rbp),%rcx
  40afe6:	64 48 33 0c 25 28 00 	xor    %fs:0x28,%rcx
  40afed:	00 00 
  40afef:	74 05                	je     40aff6 <_ZNSt6vectorISt4pairISt6threadbESaIS2_EE5eraseEN9__gnu_cxx17__normal_iteratorIPKS2_S4_EES9_+0xba>
  40aff1:	e8 1a 7e ff ff       	callq  402e10 <__stack_chk_fail@plt>
  40aff6:	48 83 c4 48          	add    $0x48,%rsp
  40affa:	5b                   	pop    %rbx
  40affb:	5d                   	pop    %rbp
  40affc:	c3                   	retq   
  40affd:	90                   	nop

000000000040affe <_ZNSt7__cxx1112basic_stringIcSt11char_traitsIcESaIcEEC1IPcvEET_S7_RKS3_>:
  40affe:	55                   	push   %rbp
  40afff:	48 89 e5             	mov    %rsp,%rbp
  40b002:	53                   	push   %rbx
  40b003:	48 83 ec 28          	sub    $0x28,%rsp
  40b007:	48 89 7d e8          	mov    %rdi,-0x18(%rbp)
  40b00b:	48 89 75 e0          	mov    %rsi,-0x20(%rbp)
  40b00f:	48 89 55 d8          	mov    %rdx,-0x28(%rbp)
  40b013:	48 89 4d d0          	mov    %rcx,-0x30(%rbp)
  40b017:	48 8b 45 e8          	mov    -0x18(%rbp),%rax
  40b01b:	48 89 c7             	mov    %rax,%rdi
  40b01e:	e8 bd 7c ff ff       	callq  402ce0 <_ZNSt7__cxx1112basic_stringIcSt11char_traitsIcESaIcEE13_M_local_dataEv@plt>
  40b023:	48 89 c1             	mov    %rax,%rcx
  40b026:	48 8b 45 e8          	mov    -0x18(%rbp),%rax
  40b02a:	48 8b 55 d0          	mov    -0x30(%rbp),%rdx
  40b02e:	48 89 ce             	mov    %rcx,%rsi
  40b031:	48 89 c7             	mov    %rax,%rdi
  40b034:	e8 a7 7d ff ff       	callq  402de0 <_ZNSt7__cxx1112basic_stringIcSt11char_traitsIcESaIcEE12_Alloc_hiderC1EPcRKS3_@plt>
  40b039:	48 8b 55 d8          	mov    -0x28(%rbp),%rdx
  40b03d:	48 8b 4d e0          	mov    -0x20(%rbp),%rcx
  40b041:	48 8b 45 e8          	mov    -0x18(%rbp),%rax
  40b045:	48 89 ce             	mov    %rcx,%rsi
  40b048:	48 89 c7             	mov    %rax,%rdi
  40b04b:	e8 54 08 00 00       	callq  40b8a4 <_ZNSt7__cxx1112basic_stringIcSt11char_traitsIcESaIcEE12_M_constructIPcEEvT_S7_>
  40b050:	eb 1a                	jmp    40b06c <_ZNSt7__cxx1112basic_stringIcSt11char_traitsIcESaIcEEC1IPcvEET_S7_RKS3_+0x6e>
  40b052:	48 89 c3             	mov    %rax,%rbx
  40b055:	48 8b 45 e8          	mov    -0x18(%rbp),%rax
  40b059:	48 89 c7             	mov    %rax,%rdi
  40b05c:	e8 9f f5 ff ff       	callq  40a600 <_ZNSt7__cxx1112basic_stringIcSt11char_traitsIcESaIcEE12_Alloc_hiderD1Ev>
  40b061:	48 89 d8             	mov    %rbx,%rax
  40b064:	48 89 c7             	mov    %rax,%rdi
  40b067:	e8 54 7f ff ff       	callq  402fc0 <_Unwind_Resume@plt>
  40b06c:	48 83 c4 28          	add    $0x28,%rsp
  40b070:	5b                   	pop    %rbx
  40b071:	5d                   	pop    %rbp
  40b072:	c3                   	retq   
  40b073:	90                   	nop

000000000040b074 <_ZNSt16_Sp_counted_baseILN9__gnu_cxx12_Lock_policyE2EE10_M_releaseEv>:
  40b074:	55                   	push   %rbp
  40b075:	48 89 e5             	mov    %rsp,%rbp
  40b078:	48 83 ec 10          	sub    $0x10,%rsp
  40b07c:	48 89 7d f8          	mov    %rdi,-0x8(%rbp)
  40b080:	48 8b 45 f8          	mov    -0x8(%rbp),%rax
  40b084:	48 83 c0 08          	add    $0x8,%rax
  40b088:	be ff ff ff ff       	mov    $0xffffffff,%esi
  40b08d:	48 89 c7             	mov    %rax,%rdi
  40b090:	e8 df c0 ff ff       	callq  407174 <_ZN9__gnu_cxxL27__exchange_and_add_dispatchEPii>
  40b095:	83 f8 01             	cmp    $0x1,%eax
  40b098:	0f 94 c0             	sete   %al
  40b09b:	84 c0                	test   %al,%al
  40b09d:	74 4d                	je     40b0ec <_ZNSt16_Sp_counted_baseILN9__gnu_cxx12_Lock_policyE2EE10_M_releaseEv+0x78>
  40b09f:	48 8b 45 f8          	mov    -0x8(%rbp),%rax
  40b0a3:	48 8b 00             	mov    (%rax),%rax
  40b0a6:	48 83 c0 10          	add    $0x10,%rax
  40b0aa:	48 8b 00             	mov    (%rax),%rax
  40b0ad:	48 8b 55 f8          	mov    -0x8(%rbp),%rdx
  40b0b1:	48 89 d7             	mov    %rdx,%rdi
  40b0b4:	ff d0                	callq  *%rax
  40b0b6:	48 8b 45 f8          	mov    -0x8(%rbp),%rax
  40b0ba:	48 83 c0 0c          	add    $0xc,%rax
  40b0be:	be ff ff ff ff       	mov    $0xffffffff,%esi
  40b0c3:	48 89 c7             	mov    %rax,%rdi
  40b0c6:	e8 a9 c0 ff ff       	callq  407174 <_ZN9__gnu_cxxL27__exchange_and_add_dispatchEPii>
  40b0cb:	83 f8 01             	cmp    $0x1,%eax
  40b0ce:	0f 94 c0             	sete   %al
  40b0d1:	84 c0                	test   %al,%al
  40b0d3:	74 17                	je     40b0ec <_ZNSt16_Sp_counted_baseILN9__gnu_cxx12_Lock_policyE2EE10_M_releaseEv+0x78>
  40b0d5:	48 8b 45 f8          	mov    -0x8(%rbp),%rax
  40b0d9:	48 8b 00             	mov    (%rax),%rax
  40b0dc:	48 83 c0 18          	add    $0x18,%rax
  40b0e0:	48 8b 00             	mov    (%rax),%rax
  40b0e3:	48 8b 55 f8          	mov    -0x8(%rbp),%rdx
  40b0e7:	48 89 d7             	mov    %rdx,%rdi
  40b0ea:	ff d0                	callq  *%rax
  40b0ec:	90                   	nop
  40b0ed:	c9                   	leaveq 
  40b0ee:	c3                   	retq   
  40b0ef:	90                   	nop

000000000040b0f0 <_ZNSt8_Rb_treeINSt7__cxx1112basic_stringIcSt11char_traitsIcESaIcEEESt4pairIKS5_S5_ESt10_Select1stIS8_ESt4lessIS5_ESaIS8_EE5clearEv>:
  40b0f0:	55                   	push   %rbp
  40b0f1:	48 89 e5             	mov    %rsp,%rbp
  40b0f4:	48 83 ec 10          	sub    $0x10,%rsp
  40b0f8:	48 89 7d f8          	mov    %rdi,-0x8(%rbp)
  40b0fc:	48 8b 45 f8          	mov    -0x8(%rbp),%rax
  40b100:	48 89 c7             	mov    %rax,%rdi
  40b103:	e8 6c 95 ff ff       	callq  404674 <_ZNSt8_Rb_treeINSt7__cxx1112basic_stringIcSt11char_traitsIcESaIcEEESt4pairIKS5_S5_ESt10_Select1stIS8_ESt4lessIS5_ESaIS8_EE8_M_beginEv>
  40b108:	48 89 c2             	mov    %rax,%rdx
  40b10b:	48 8b 45 f8          	mov    -0x8(%rbp),%rax
  40b10f:	48 89 d6             	mov    %rdx,%rsi
  40b112:	48 89 c7             	mov    %rax,%rdi
  40b115:	e8 f4 94 ff ff       	callq  40460e <_ZNSt8_Rb_treeINSt7__cxx1112basic_stringIcSt11char_traitsIcESaIcEEESt4pairIKS5_S5_ESt10_Select1stIS8_ESt4lessIS5_ESaIS8_EE8_M_eraseEPSt13_Rb_tree_nodeIS8_E>
  40b11a:	48 8b 45 f8          	mov    -0x8(%rbp),%rax
  40b11e:	48 89 c7             	mov    %rax,%rdi
  40b121:	e8 08 08 00 00       	callq  40b92e <_ZNSt8_Rb_treeINSt7__cxx1112basic_stringIcSt11char_traitsIcESaIcEEESt4pairIKS5_S5_ESt10_Select1stIS8_ESt4lessIS5_ESaIS8_EE13_Rb_tree_implISC_Lb1EE8_M_resetEv>
  40b126:	90                   	nop
  40b127:	c9                   	leaveq 
  40b128:	c3                   	retq   
  40b129:	90                   	nop

000000000040b12a <_ZNSt6vectorIhSaIhEE15_M_erase_at_endEPh>:
  40b12a:	55                   	push   %rbp
  40b12b:	48 89 e5             	mov    %rsp,%rbp
  40b12e:	48 83 ec 10          	sub    $0x10,%rsp
  40b132:	48 89 7d f8          	mov    %rdi,-0x8(%rbp)
  40b136:	48 89 75 f0          	mov    %rsi,-0x10(%rbp)
  40b13a:	48 8b 45 f8          	mov    -0x8(%rbp),%rax
  40b13e:	48 89 c7             	mov    %rax,%rdi
  40b141:	e8 c4 95 ff ff       	callq  40470a <_ZNSt12_Vector_baseIhSaIhEE19_M_get_Tp_allocatorEv>
  40b146:	48 89 c2             	mov    %rax,%rdx
  40b149:	48 8b 45 f8          	mov    -0x8(%rbp),%rax
  40b14d:	48 8b 48 08          	mov    0x8(%rax),%rcx
  40b151:	48 8b 45 f0          	mov    -0x10(%rbp),%rax
  40b155:	48 89 ce             	mov    %rcx,%rsi
  40b158:	48 89 c7             	mov    %rax,%rdi
  40b15b:	e8 b8 95 ff ff       	callq  404718 <_ZSt8_DestroyIPhhEvT_S1_RSaIT0_E>
  40b160:	48 8b 45 f8          	mov    -0x8(%rbp),%rax
  40b164:	48 8b 55 f0          	mov    -0x10(%rbp),%rdx
  40b168:	48 89 50 08          	mov    %rdx,0x8(%rax)
  40b16c:	90                   	nop
  40b16d:	c9                   	leaveq 
  40b16e:	c3                   	retq   

000000000040b16f <_ZSt7forwardISt5tupleIIRKNSt7__cxx1112basic_stringIcSt11char_traitsIcESaIcEEEEEEOT_RNSt16remove_referenceISA_E4typeE>:
  40b16f:	55                   	push   %rbp
  40b170:	48 89 e5             	mov    %rsp,%rbp
  40b173:	48 89 7d f8          	mov    %rdi,-0x8(%rbp)
  40b177:	48 8b 45 f8          	mov    -0x8(%rbp),%rax
  40b17b:	5d                   	pop    %rbp
  40b17c:	c3                   	retq   
  40b17d:	90                   	nop

000000000040b17e <_ZNSt8_Rb_treeINSt7__cxx1112basic_stringIcSt11char_traitsIcESaIcEEESt4pairIKS5_S5_ESt10_Select1stIS8_ESt4lessIS5_ESaIS8_EE22_M_emplace_hint_uniqueIIRKSt21piecewise_construct_tSt5tupleIIRS7_EESJ_IIEEEEESt17_Rb_tree_iteratorIS8_ESt23_Rb_tree_const_iteratorIS8_EDpOT_>:
  40b17e:	55                   	push   %rbp
  40b17f:	48 89 e5             	mov    %rsp,%rbp
  40b182:	41 54                	push   %r12
  40b184:	53                   	push   %rbx
  40b185:	48 83 ec 60          	sub    $0x60,%rsp
  40b189:	48 89 7d b8          	mov    %rdi,-0x48(%rbp)
  40b18d:	48 89 75 b0          	mov    %rsi,-0x50(%rbp)
  40b191:	48 89 55 a8          	mov    %rdx,-0x58(%rbp)
  40b195:	48 89 4d a0          	mov    %rcx,-0x60(%rbp)
  40b199:	4c 89 45 98          	mov    %r8,-0x68(%rbp)
  40b19d:	64 48 8b 04 25 28 00 	mov    %fs:0x28,%rax
  40b1a4:	00 00 
  40b1a6:	48 89 45 e8          	mov    %rax,-0x18(%rbp)
  40b1aa:	31 c0                	xor    %eax,%eax
  40b1ac:	48 8b 45 98          	mov    -0x68(%rbp),%rax
  40b1b0:	48 89 c7             	mov    %rax,%rdi
  40b1b3:	e8 f5 97 ff ff       	callq  4049ad <_ZSt7forwardISt5tupleIIEEEOT_RNSt16remove_referenceIS2_E4typeE>
  40b1b8:	49 89 c4             	mov    %rax,%r12
  40b1bb:	48 8b 45 a0          	mov    -0x60(%rbp),%rax
  40b1bf:	48 89 c7             	mov    %rax,%rdi
  40b1c2:	e8 a8 ff ff ff       	callq  40b16f <_ZSt7forwardISt5tupleIIRKNSt7__cxx1112basic_stringIcSt11char_traitsIcESaIcEEEEEEOT_RNSt16remove_referenceISA_E4typeE>
  40b1c7:	48 89 c3             	mov    %rax,%rbx
  40b1ca:	48 8b 45 a8          	mov    -0x58(%rbp),%rax
  40b1ce:	48 89 c7             	mov    %rax,%rdi
  40b1d1:	e8 bb 97 ff ff       	callq  404991 <_ZSt7forwardIRKSt21piecewise_construct_tEOT_RNSt16remove_referenceIS3_E4typeE>
  40b1d6:	48 89 c6             	mov    %rax,%rsi
  40b1d9:	48 8b 45 b8          	mov    -0x48(%rbp),%rax
  40b1dd:	4c 89 e1             	mov    %r12,%rcx
  40b1e0:	48 89 da             	mov    %rbx,%rdx
  40b1e3:	48 89 c7             	mov    %rax,%rdi
  40b1e6:	e8 87 07 00 00       	callq  40b972 <_ZNSt8_Rb_treeINSt7__cxx1112basic_stringIcSt11char_traitsIcESaIcEEESt4pairIKS5_S5_ESt10_Select1stIS8_ESt4lessIS5_ESaIS8_EE14_M_create_nodeIIRKSt21piecewise_construct_tSt5tupleIIRS7_EESJ_IIEEEEEPSt13_Rb_tree_nodeIS8_EDpOT_>
  40b1eb:	48 89 45 c8          	mov    %rax,-0x38(%rbp)
  40b1ef:	48 8b 45 c8          	mov    -0x38(%rbp),%rax
  40b1f3:	48 89 c7             	mov    %rax,%rdi
  40b1f6:	e8 3b a2 ff ff       	callq  405436 <_ZNSt8_Rb_treeINSt7__cxx1112basic_stringIcSt11char_traitsIcESaIcEEESt4pairIKS5_S5_ESt10_Select1stIS8_ESt4lessIS5_ESaIS8_EE6_S_keyEPKSt13_Rb_tree_nodeIS8_E>
  40b1fb:	48 89 c2             	mov    %rax,%rdx
  40b1fe:	48 8b 4d b0          	mov    -0x50(%rbp),%rcx
  40b202:	48 8b 45 b8          	mov    -0x48(%rbp),%rax
  40b206:	48 89 ce             	mov    %rcx,%rsi
  40b209:	48 89 c7             	mov    %rax,%rdi
  40b20c:	e8 89 9e ff ff       	callq  40509a <_ZNSt8_Rb_treeINSt7__cxx1112basic_stringIcSt11char_traitsIcESaIcEEESt4pairIKS5_S5_ESt10_Select1stIS8_ESt4lessIS5_ESaIS8_EE29_M_get_insert_hint_unique_posESt23_Rb_tree_const_iteratorIS8_ERS7_>
  40b211:	48 89 45 d0          	mov    %rax,-0x30(%rbp)
  40b215:	48 89 55 d8          	mov    %rdx,-0x28(%rbp)
  40b219:	48 8b 45 d8          	mov    -0x28(%rbp),%rax
  40b21d:	48 85 c0             	test   %rax,%rax
  40b220:	74 1a                	je     40b23c <_ZNSt8_Rb_treeINSt7__cxx1112basic_stringIcSt11char_traitsIcESaIcEEESt4pairIKS5_S5_ESt10_Select1stIS8_ESt4lessIS5_ESaIS8_EE22_M_emplace_hint_uniqueIIRKSt21piecewise_construct_tSt5tupleIIRS7_EESJ_IIEEEEESt17_Rb_tree_iteratorIS8_ESt23_Rb_tree_const_iteratorIS8_EDpOT_+0xbe>
  40b222:	48 8b 55 d8          	mov    -0x28(%rbp),%rdx
  40b226:	48 8b 75 d0          	mov    -0x30(%rbp),%rsi
  40b22a:	48 8b 4d c8          	mov    -0x38(%rbp),%rcx
  40b22e:	48 8b 45 b8          	mov    -0x48(%rbp),%rax
  40b232:	48 89 c7             	mov    %rax,%rdi
  40b235:	e8 4c a2 ff ff       	callq  405486 <_ZNSt8_Rb_treeINSt7__cxx1112basic_stringIcSt11char_traitsIcESaIcEEESt4pairIKS5_S5_ESt10_Select1stIS8_ESt4lessIS5_ESaIS8_EE14_M_insert_nodeEPSt18_Rb_tree_node_baseSG_PSt13_Rb_tree_nodeIS8_E>
  40b23a:	eb 2a                	jmp    40b266 <_ZNSt8_Rb_treeINSt7__cxx1112basic_stringIcSt11char_traitsIcESaIcEEESt4pairIKS5_S5_ESt10_Select1stIS8_ESt4lessIS5_ESaIS8_EE22_M_emplace_hint_uniqueIIRKSt21piecewise_construct_tSt5tupleIIRS7_EESJ_IIEEEEESt17_Rb_tree_iteratorIS8_ESt23_Rb_tree_const_iteratorIS8_EDpOT_+0xe8>
  40b23c:	48 8b 55 c8          	mov    -0x38(%rbp),%rdx
  40b240:	48 8b 45 b8          	mov    -0x48(%rbp),%rax
  40b244:	48 89 d6             	mov    %rdx,%rsi
  40b247:	48 89 c7             	mov    %rax,%rdi
  40b24a:	e8 71 9b ff ff       	callq  404dc0 <_ZNSt8_Rb_treeINSt7__cxx1112basic_stringIcSt11char_traitsIcESaIcEEESt4pairIKS5_S5_ESt10_Select1stIS8_ESt4lessIS5_ESaIS8_EE12_M_drop_nodeEPSt13_Rb_tree_nodeIS8_E>
  40b24f:	48 8b 55 d0          	mov    -0x30(%rbp),%rdx
  40b253:	48 8d 45 c0          	lea    -0x40(%rbp),%rax
  40b257:	48 89 d6             	mov    %rdx,%rsi
  40b25a:	48 89 c7             	mov    %rax,%rdi
  40b25d:	e8 0a a3 ff ff       	callq  40556c <_ZNSt17_Rb_tree_iteratorISt4pairIKNSt7__cxx1112basic_stringIcSt11char_traitsIcESaIcEEES6_EEC1EPSt18_Rb_tree_node_base>
  40b262:	48 8b 45 c0          	mov    -0x40(%rbp),%rax
  40b266:	48 8b 5d e8          	mov    -0x18(%rbp),%rbx
  40b26a:	64 48 33 1c 25 28 00 	xor    %fs:0x28,%rbx
  40b271:	00 00 
  40b273:	74 3a                	je     40b2af <_ZNSt8_Rb_treeINSt7__cxx1112basic_stringIcSt11char_traitsIcESaIcEEESt4pairIKS5_S5_ESt10_Select1stIS8_ESt4lessIS5_ESaIS8_EE22_M_emplace_hint_uniqueIIRKSt21piecewise_construct_tSt5tupleIIRS7_EESJ_IIEEEEESt17_Rb_tree_iteratorIS8_ESt23_Rb_tree_const_iteratorIS8_EDpOT_+0x131>
  40b275:	eb 33                	jmp    40b2aa <_ZNSt8_Rb_treeINSt7__cxx1112basic_stringIcSt11char_traitsIcESaIcEEESt4pairIKS5_S5_ESt10_Select1stIS8_ESt4lessIS5_ESaIS8_EE22_M_emplace_hint_uniqueIIRKSt21piecewise_construct_tSt5tupleIIRS7_EESJ_IIEEEEESt17_Rb_tree_iteratorIS8_ESt23_Rb_tree_const_iteratorIS8_EDpOT_+0x12c>
  40b277:	48 89 c7             	mov    %rax,%rdi
  40b27a:	e8 f1 78 ff ff       	callq  402b70 <__cxa_begin_catch@plt>
  40b27f:	48 8b 55 c8          	mov    -0x38(%rbp),%rdx
  40b283:	48 8b 45 b8          	mov    -0x48(%rbp),%rax
  40b287:	48 89 d6             	mov    %rdx,%rsi
  40b28a:	48 89 c7             	mov    %rax,%rdi
  40b28d:	e8 2e 9b ff ff       	callq  404dc0 <_ZNSt8_Rb_treeINSt7__cxx1112basic_stringIcSt11char_traitsIcESaIcEEESt4pairIKS5_S5_ESt10_Select1stIS8_ESt4lessIS5_ESaIS8_EE12_M_drop_nodeEPSt13_Rb_tree_nodeIS8_E>
  40b292:	e8 19 7c ff ff       	callq  402eb0 <__cxa_rethrow@plt>
  40b297:	48 89 c3             	mov    %rax,%rbx
  40b29a:	e8 91 7c ff ff       	callq  402f30 <__cxa_end_catch@plt>
  40b29f:	48 89 d8             	mov    %rbx,%rax
  40b2a2:	48 89 c7             	mov    %rax,%rdi
  40b2a5:	e8 16 7d ff ff       	callq  402fc0 <_Unwind_Resume@plt>
  40b2aa:	e8 61 7b ff ff       	callq  402e10 <__stack_chk_fail@plt>
  40b2af:	48 83 c4 60          	add    $0x60,%rsp
  40b2b3:	5b                   	pop    %rbx
  40b2b4:	41 5c                	pop    %r12
  40b2b6:	5d                   	pop    %rbp
  40b2b7:	c3                   	retq   

000000000040b2b8 <_ZNSt8_Rb_treeINSt7__cxx1112basic_stringIcSt11char_traitsIcESaIcEEESt4pairIKS5_S5_ESt10_Select1stIS8_ESt4lessIS5_ESaIS8_EE4findERS7_>:
  40b2b8:	55                   	push   %rbp
  40b2b9:	48 89 e5             	mov    %rsp,%rbp
  40b2bc:	53                   	push   %rbx
  40b2bd:	48 83 ec 38          	sub    $0x38,%rsp
  40b2c1:	48 89 7d c8          	mov    %rdi,-0x38(%rbp)
  40b2c5:	48 89 75 c0          	mov    %rsi,-0x40(%rbp)
  40b2c9:	64 48 8b 04 25 28 00 	mov    %fs:0x28,%rax
  40b2d0:	00 00 
  40b2d2:	48 89 45 e8          	mov    %rax,-0x18(%rbp)
  40b2d6:	31 c0                	xor    %eax,%eax
  40b2d8:	48 8b 45 c8          	mov    -0x38(%rbp),%rax
  40b2dc:	48 89 c7             	mov    %rax,%rdi
  40b2df:	e8 3a a6 ff ff       	callq  40591e <_ZNSt8_Rb_treeINSt7__cxx1112basic_stringIcSt11char_traitsIcESaIcEEESt4pairIKS5_S5_ESt10_Select1stIS8_ESt4lessIS5_ESaIS8_EE6_M_endEv>
  40b2e4:	48 89 c3             	mov    %rax,%rbx
  40b2e7:	48 8b 45 c8          	mov    -0x38(%rbp),%rax
  40b2eb:	48 89 c7             	mov    %rax,%rdi
  40b2ee:	e8 81 93 ff ff       	callq  404674 <_ZNSt8_Rb_treeINSt7__cxx1112basic_stringIcSt11char_traitsIcESaIcEEESt4pairIKS5_S5_ESt10_Select1stIS8_ESt4lessIS5_ESaIS8_EE8_M_beginEv>
  40b2f3:	48 89 c6             	mov    %rax,%rsi
  40b2f6:	48 8b 55 c0          	mov    -0x40(%rbp),%rdx
  40b2fa:	48 8b 45 c8          	mov    -0x38(%rbp),%rax
  40b2fe:	48 89 d1             	mov    %rdx,%rcx
  40b301:	48 89 da             	mov    %rbx,%rdx
  40b304:	48 89 c7             	mov    %rax,%rdi
  40b307:	e8 24 a6 ff ff       	callq  405930 <_ZNSt8_Rb_treeINSt7__cxx1112basic_stringIcSt11char_traitsIcESaIcEEESt4pairIKS5_S5_ESt10_Select1stIS8_ESt4lessIS5_ESaIS8_EE14_M_lower_boundEPSt13_Rb_tree_nodeIS8_ESH_RS7_>
  40b30c:	48 89 45 d0          	mov    %rax,-0x30(%rbp)
  40b310:	48 8b 45 c8          	mov    -0x38(%rbp),%rax
  40b314:	48 89 c7             	mov    %rax,%rdi
  40b317:	e8 c4 9b ff ff       	callq  404ee0 <_ZNSt8_Rb_treeINSt7__cxx1112basic_stringIcSt11char_traitsIcESaIcEEESt4pairIKS5_S5_ESt10_Select1stIS8_ESt4lessIS5_ESaIS8_EE3endEv>
  40b31c:	48 89 45 e0          	mov    %rax,-0x20(%rbp)
  40b320:	bb 01 00 00 00       	mov    $0x1,%ebx
  40b325:	48 8d 55 e0          	lea    -0x20(%rbp),%rdx
  40b329:	48 8d 45 d0          	lea    -0x30(%rbp),%rax
  40b32d:	48 89 d6             	mov    %rdx,%rsi
  40b330:	48 89 c7             	mov    %rax,%rdi
  40b333:	e8 4a 94 ff ff       	callq  404782 <_ZNKSt17_Rb_tree_iteratorISt4pairIKNSt7__cxx1112basic_stringIcSt11char_traitsIcESaIcEEES6_EEeqERKS9_>
  40b338:	84 c0                	test   %al,%al
  40b33a:	75 26                	jne    40b362 <_ZNSt8_Rb_treeINSt7__cxx1112basic_stringIcSt11char_traitsIcESaIcEEESt4pairIKS5_S5_ESt10_Select1stIS8_ESt4lessIS5_ESaIS8_EE4findERS7_+0xaa>
  40b33c:	48 8b 45 d0          	mov    -0x30(%rbp),%rax
  40b340:	48 89 c7             	mov    %rax,%rdi
  40b343:	e8 6e a8 ff ff       	callq  405bb6 <_ZNSt8_Rb_treeINSt7__cxx1112basic_stringIcSt11char_traitsIcESaIcEEESt4pairIKS5_S5_ESt10_Select1stIS8_ESt4lessIS5_ESaIS8_EE6_S_keyEPKSt18_Rb_tree_node_base>
  40b348:	48 89 c2             	mov    %rax,%rdx
  40b34b:	48 8b 45 c8          	mov    -0x38(%rbp),%rax
  40b34f:	48 8b 4d c0          	mov    -0x40(%rbp),%rcx
  40b353:	48 89 ce             	mov    %rcx,%rsi
  40b356:	48 89 c7             	mov    %rax,%rdi
  40b359:	e8 c8 8d ff ff       	callq  404126 <_ZNKSt4lessINSt7__cxx1112basic_stringIcSt11char_traitsIcESaIcEEEEclERKS5_S8_>
  40b35e:	84 c0                	test   %al,%al
  40b360:	74 0e                	je     40b370 <_ZNSt8_Rb_treeINSt7__cxx1112basic_stringIcSt11char_traitsIcESaIcEEESt4pairIKS5_S5_ESt10_Select1stIS8_ESt4lessIS5_ESaIS8_EE4findERS7_+0xb8>
  40b362:	48 8b 45 c8          	mov    -0x38(%rbp),%rax
  40b366:	48 89 c7             	mov    %rax,%rdi
  40b369:	e8 72 9b ff ff       	callq  404ee0 <_ZNSt8_Rb_treeINSt7__cxx1112basic_stringIcSt11char_traitsIcESaIcEEESt4pairIKS5_S5_ESt10_Select1stIS8_ESt4lessIS5_ESaIS8_EE3endEv>
  40b36e:	eb 04                	jmp    40b374 <_ZNSt8_Rb_treeINSt7__cxx1112basic_stringIcSt11char_traitsIcESaIcEEESt4pairIKS5_S5_ESt10_Select1stIS8_ESt4lessIS5_ESaIS8_EE4findERS7_+0xbc>
  40b370:	48 8b 45 d0          	mov    -0x30(%rbp),%rax
  40b374:	84 db                	test   %bl,%bl
  40b376:	48 8b 4d e8          	mov    -0x18(%rbp),%rcx
  40b37a:	64 48 33 0c 25 28 00 	xor    %fs:0x28,%rcx
  40b381:	00 00 
  40b383:	74 12                	je     40b397 <_ZNSt8_Rb_treeINSt7__cxx1112basic_stringIcSt11char_traitsIcESaIcEEESt4pairIKS5_S5_ESt10_Select1stIS8_ESt4lessIS5_ESaIS8_EE4findERS7_+0xdf>
  40b385:	eb 0b                	jmp    40b392 <_ZNSt8_Rb_treeINSt7__cxx1112basic_stringIcSt11char_traitsIcESaIcEEESt4pairIKS5_S5_ESt10_Select1stIS8_ESt4lessIS5_ESaIS8_EE4findERS7_+0xda>
  40b387:	84 db                	test   %bl,%bl
  40b389:	90                   	nop
  40b38a:	48 89 c7             	mov    %rax,%rdi
  40b38d:	e8 2e 7c ff ff       	callq  402fc0 <_Unwind_Resume@plt>
  40b392:	e8 79 7a ff ff       	callq  402e10 <__stack_chk_fail@plt>
  40b397:	48 83 c4 38          	add    $0x38,%rsp
  40b39b:	5b                   	pop    %rbx
  40b39c:	5d                   	pop    %rbp
  40b39d:	c3                   	retq   

000000000040b39e <_ZN9__gnu_cxx17__normal_iteratorIPhSt6vectorIhSaIhEEEC1ERKS1_>:
  40b39e:	55                   	push   %rbp
  40b39f:	48 89 e5             	mov    %rsp,%rbp
  40b3a2:	48 89 7d f8          	mov    %rdi,-0x8(%rbp)
  40b3a6:	48 89 75 f0          	mov    %rsi,-0x10(%rbp)
  40b3aa:	48 8b 45 f0          	mov    -0x10(%rbp),%rax
  40b3ae:	48 8b 10             	mov    (%rax),%rdx
  40b3b1:	48 8b 45 f8          	mov    -0x8(%rbp),%rax
  40b3b5:	48 89 10             	mov    %rdx,(%rax)
  40b3b8:	90                   	nop
  40b3b9:	5d                   	pop    %rbp
  40b3ba:	c3                   	retq   
  40b3bb:	90                   	nop

000000000040b3bc <_ZNK9__gnu_cxx17__normal_iteratorIPhSt6vectorIhSaIhEEE4baseEv>:
  40b3bc:	55                   	push   %rbp
  40b3bd:	48 89 e5             	mov    %rsp,%rbp
  40b3c0:	48 89 7d f8          	mov    %rdi,-0x8(%rbp)
  40b3c4:	48 8b 45 f8          	mov    -0x8(%rbp),%rax
  40b3c8:	5d                   	pop    %rbp
  40b3c9:	c3                   	retq   

000000000040b3ca <_ZNKSt6vectorIhSaIhEE6cbeginEv>:
  40b3ca:	55                   	push   %rbp
  40b3cb:	48 89 e5             	mov    %rsp,%rbp
  40b3ce:	48 83 ec 30          	sub    $0x30,%rsp
  40b3d2:	48 89 7d d8          	mov    %rdi,-0x28(%rbp)
  40b3d6:	64 48 8b 04 25 28 00 	mov    %fs:0x28,%rax
  40b3dd:	00 00 
  40b3df:	48 89 45 f8          	mov    %rax,-0x8(%rbp)
  40b3e3:	31 c0                	xor    %eax,%eax
  40b3e5:	48 8b 45 d8          	mov    -0x28(%rbp),%rax
  40b3e9:	48 8b 00             	mov    (%rax),%rax
  40b3ec:	48 89 45 f0          	mov    %rax,-0x10(%rbp)
  40b3f0:	48 8d 55 f0          	lea    -0x10(%rbp),%rdx
  40b3f4:	48 8d 45 e0          	lea    -0x20(%rbp),%rax
  40b3f8:	48 89 d6             	mov    %rdx,%rsi
  40b3fb:	48 89 c7             	mov    %rax,%rdi
  40b3fe:	e8 eb 05 00 00       	callq  40b9ee <_ZN9__gnu_cxx17__normal_iteratorIPKhSt6vectorIhSaIhEEEC1ERKS2_>
  40b403:	48 8b 45 e0          	mov    -0x20(%rbp),%rax
  40b407:	48 8b 4d f8          	mov    -0x8(%rbp),%rcx
  40b40b:	64 48 33 0c 25 28 00 	xor    %fs:0x28,%rcx
  40b412:	00 00 
  40b414:	74 05                	je     40b41b <_ZNKSt6vectorIhSaIhEE6cbeginEv+0x51>
  40b416:	e8 f5 79 ff ff       	callq  402e10 <__stack_chk_fail@plt>
  40b41b:	c9                   	leaveq 
  40b41c:	c3                   	retq   

000000000040b41d <_ZN9__gnu_cxxmiIPKhSt6vectorIhSaIhEEEENS_17__normal_iteratorIT_T0_E15difference_typeERKS9_SC_>:
  40b41d:	55                   	push   %rbp
  40b41e:	48 89 e5             	mov    %rsp,%rbp
  40b421:	53                   	push   %rbx
  40b422:	48 83 ec 18          	sub    $0x18,%rsp
  40b426:	48 89 7d e8          	mov    %rdi,-0x18(%rbp)
  40b42a:	48 89 75 e0          	mov    %rsi,-0x20(%rbp)
  40b42e:	48 8b 45 e8          	mov    -0x18(%rbp),%rax
  40b432:	48 89 c7             	mov    %rax,%rdi
  40b435:	e8 d2 05 00 00       	callq  40ba0c <_ZNK9__gnu_cxx17__normal_iteratorIPKhSt6vectorIhSaIhEEE4baseEv>
  40b43a:	48 8b 00             	mov    (%rax),%rax
  40b43d:	48 89 c3             	mov    %rax,%rbx
  40b440:	48 8b 45 e0          	mov    -0x20(%rbp),%rax
  40b444:	48 89 c7             	mov    %rax,%rdi
  40b447:	e8 c0 05 00 00       	callq  40ba0c <_ZNK9__gnu_cxx17__normal_iteratorIPKhSt6vectorIhSaIhEEE4baseEv>
  40b44c:	48 8b 00             	mov    (%rax),%rax
  40b44f:	48 29 c3             	sub    %rax,%rbx
  40b452:	48 89 d8             	mov    %rbx,%rax
  40b455:	48 83 c4 18          	add    $0x18,%rsp
  40b459:	5b                   	pop    %rbx
  40b45a:	5d                   	pop    %rbp
  40b45b:	c3                   	retq   

000000000040b45c <_ZNSt6vectorIhSaIhEE5beginEv>:
  40b45c:	55                   	push   %rbp
  40b45d:	48 89 e5             	mov    %rsp,%rbp
  40b460:	48 83 ec 20          	sub    $0x20,%rsp
  40b464:	48 89 7d e8          	mov    %rdi,-0x18(%rbp)
  40b468:	64 48 8b 04 25 28 00 	mov    %fs:0x28,%rax
  40b46f:	00 00 
  40b471:	48 89 45 f8          	mov    %rax,-0x8(%rbp)
  40b475:	31 c0                	xor    %eax,%eax
  40b477:	48 8b 55 e8          	mov    -0x18(%rbp),%rdx
  40b47b:	48 8d 45 f0          	lea    -0x10(%rbp),%rax
  40b47f:	48 89 d6             	mov    %rdx,%rsi
  40b482:	48 89 c7             	mov    %rax,%rdi
  40b485:	e8 14 ff ff ff       	callq  40b39e <_ZN9__gnu_cxx17__normal_iteratorIPhSt6vectorIhSaIhEEEC1ERKS1_>
  40b48a:	48 8b 45 f0          	mov    -0x10(%rbp),%rax
  40b48e:	48 8b 4d f8          	mov    -0x8(%rbp),%rcx
  40b492:	64 48 33 0c 25 28 00 	xor    %fs:0x28,%rcx
  40b499:	00 00 
  40b49b:	74 05                	je     40b4a2 <_ZNSt6vectorIhSaIhEE5beginEv+0x46>
  40b49d:	e8 6e 79 ff ff       	callq  402e10 <__stack_chk_fail@plt>
  40b4a2:	c9                   	leaveq 
  40b4a3:	c3                   	retq   

000000000040b4a4 <_ZNK9__gnu_cxx17__normal_iteratorIPhSt6vectorIhSaIhEEEplEl>:
  40b4a4:	55                   	push   %rbp
  40b4a5:	48 89 e5             	mov    %rsp,%rbp
  40b4a8:	48 83 ec 30          	sub    $0x30,%rsp
  40b4ac:	48 89 7d d8          	mov    %rdi,-0x28(%rbp)
  40b4b0:	48 89 75 d0          	mov    %rsi,-0x30(%rbp)
  40b4b4:	64 48 8b 04 25 28 00 	mov    %fs:0x28,%rax
  40b4bb:	00 00 
  40b4bd:	48 89 45 f8          	mov    %rax,-0x8(%rbp)
  40b4c1:	31 c0                	xor    %eax,%eax
  40b4c3:	48 8b 45 d8          	mov    -0x28(%rbp),%rax
  40b4c7:	48 8b 10             	mov    (%rax),%rdx
  40b4ca:	48 8b 45 d0          	mov    -0x30(%rbp),%rax
  40b4ce:	48 01 d0             	add    %rdx,%rax
  40b4d1:	48 89 45 f0          	mov    %rax,-0x10(%rbp)
  40b4d5:	48 8d 55 f0          	lea    -0x10(%rbp),%rdx
  40b4d9:	48 8d 45 e0          	lea    -0x20(%rbp),%rax
  40b4dd:	48 89 d6             	mov    %rdx,%rsi
  40b4e0:	48 89 c7             	mov    %rax,%rdi
  40b4e3:	e8 b6 fe ff ff       	callq  40b39e <_ZN9__gnu_cxx17__normal_iteratorIPhSt6vectorIhSaIhEEEC1ERKS1_>
  40b4e8:	48 8b 45 e0          	mov    -0x20(%rbp),%rax
  40b4ec:	48 8b 4d f8          	mov    -0x8(%rbp),%rcx
  40b4f0:	64 48 33 0c 25 28 00 	xor    %fs:0x28,%rcx
  40b4f7:	00 00 
  40b4f9:	74 05                	je     40b500 <_ZNK9__gnu_cxx17__normal_iteratorIPhSt6vectorIhSaIhEEEplEl+0x5c>
  40b4fb:	e8 10 79 ff ff       	callq  402e10 <__stack_chk_fail@plt>
  40b500:	c9                   	leaveq 
  40b501:	c3                   	retq   

000000000040b502 <_ZNSt6vectorIhSaIhEE18_M_insert_dispatchIPKcEEvN9__gnu_cxx17__normal_iteratorIPhS1_EET_S9_St12__false_type>:
  40b502:	55                   	push   %rbp
  40b503:	48 89 e5             	mov    %rsp,%rbp
  40b506:	48 83 ec 30          	sub    $0x30,%rsp
  40b50a:	48 89 7d e8          	mov    %rdi,-0x18(%rbp)
  40b50e:	48 89 75 e0          	mov    %rsi,-0x20(%rbp)
  40b512:	48 89 55 d8          	mov    %rdx,-0x28(%rbp)
  40b516:	48 89 4d d0          	mov    %rcx,-0x30(%rbp)
  40b51a:	64 48 8b 04 25 28 00 	mov    %fs:0x28,%rax
  40b521:	00 00 
  40b523:	48 89 45 f8          	mov    %rax,-0x8(%rbp)
  40b527:	31 c0                	xor    %eax,%eax
  40b529:	48 8b 4d d0          	mov    -0x30(%rbp),%rcx
  40b52d:	48 8b 55 d8          	mov    -0x28(%rbp),%rdx
  40b531:	48 8b 75 e0          	mov    -0x20(%rbp),%rsi
  40b535:	48 8b 45 e8          	mov    -0x18(%rbp),%rax
  40b539:	48 83 ec 08          	sub    $0x8,%rsp
  40b53d:	41 50                	push   %r8
  40b53f:	48 89 c7             	mov    %rax,%rdi
  40b542:	e8 d3 04 00 00       	callq  40ba1a <_ZNSt6vectorIhSaIhEE15_M_range_insertIPKcEEvN9__gnu_cxx17__normal_iteratorIPhS1_EET_S9_St20forward_iterator_tag>
  40b547:	48 83 c4 10          	add    $0x10,%rsp
  40b54b:	90                   	nop
  40b54c:	48 8b 45 f8          	mov    -0x8(%rbp),%rax
  40b550:	64 48 33 04 25 28 00 	xor    %fs:0x28,%rax
  40b557:	00 00 
  40b559:	74 05                	je     40b560 <_ZNSt6vectorIhSaIhEE18_M_insert_dispatchIPKcEEvN9__gnu_cxx17__normal_iteratorIPhS1_EET_S9_St12__false_type+0x5e>
  40b55b:	e8 b0 78 ff ff       	callq  402e10 <__stack_chk_fail@plt>
  40b560:	c9                   	leaveq 
  40b561:	c3                   	retq   

000000000040b562 <_ZNSt6vectorIhSaIhEE18_M_insert_dispatchIPcEEvN9__gnu_cxx17__normal_iteratorIPhS1_EET_S8_St12__false_type>:
  40b562:	55                   	push   %rbp
  40b563:	48 89 e5             	mov    %rsp,%rbp
  40b566:	48 83 ec 30          	sub    $0x30,%rsp
  40b56a:	48 89 7d e8          	mov    %rdi,-0x18(%rbp)
  40b56e:	48 89 75 e0          	mov    %rsi,-0x20(%rbp)
  40b572:	48 89 55 d8          	mov    %rdx,-0x28(%rbp)
  40b576:	48 89 4d d0          	mov    %rcx,-0x30(%rbp)
  40b57a:	64 48 8b 04 25 28 00 	mov    %fs:0x28,%rax
  40b581:	00 00 
  40b583:	48 89 45 f8          	mov    %rax,-0x8(%rbp)
  40b587:	31 c0                	xor    %eax,%eax
  40b589:	48 8b 4d d0          	mov    -0x30(%rbp),%rcx
  40b58d:	48 8b 55 d8          	mov    -0x28(%rbp),%rdx
  40b591:	48 8b 75 e0          	mov    -0x20(%rbp),%rsi
  40b595:	48 8b 45 e8          	mov    -0x18(%rbp),%rax
  40b599:	48 83 ec 08          	sub    $0x8,%rsp
  40b59d:	41 50                	push   %r8
  40b59f:	48 89 c7             	mov    %rax,%rdi
  40b5a2:	e8 61 08 00 00       	callq  40be08 <_ZNSt6vectorIhSaIhEE15_M_range_insertIPcEEvN9__gnu_cxx17__normal_iteratorIPhS1_EET_S8_St20forward_iterator_tag>
  40b5a7:	48 83 c4 10          	add    $0x10,%rsp
  40b5ab:	90                   	nop
  40b5ac:	48 8b 45 f8          	mov    -0x8(%rbp),%rax
  40b5b0:	64 48 33 04 25 28 00 	xor    %fs:0x28,%rax
  40b5b7:	00 00 
  40b5b9:	74 05                	je     40b5c0 <_ZNSt6vectorIhSaIhEE18_M_insert_dispatchIPcEEvN9__gnu_cxx17__normal_iteratorIPhS1_EET_S8_St12__false_type+0x5e>
  40b5bb:	e8 50 78 ff ff       	callq  402e10 <__stack_chk_fail@plt>
  40b5c0:	c9                   	leaveq 
  40b5c1:	c3                   	retq   

000000000040b5c2 <_ZNSt12_Vector_baseISt4pairISt6threadbESaIS2_EE12_Vector_implD1Ev>:
  40b5c2:	55                   	push   %rbp
  40b5c3:	48 89 e5             	mov    %rsp,%rbp
  40b5c6:	48 83 ec 10          	sub    $0x10,%rsp
  40b5ca:	48 89 7d f8          	mov    %rdi,-0x8(%rbp)
  40b5ce:	48 8b 45 f8          	mov    -0x8(%rbp),%rax
  40b5d2:	48 89 c7             	mov    %rax,%rdi
  40b5d5:	e8 5a 0c 00 00       	callq  40c234 <_ZNSaISt4pairISt6threadbEED1Ev>
  40b5da:	90                   	nop
  40b5db:	c9                   	leaveq 
  40b5dc:	c3                   	retq   
  40b5dd:	90                   	nop

000000000040b5de <_ZNSt12_Vector_baseISt4pairISt6threadbESaIS2_EEC1Ev>:
  40b5de:	55                   	push   %rbp
  40b5df:	48 89 e5             	mov    %rsp,%rbp
  40b5e2:	48 83 ec 10          	sub    $0x10,%rsp
  40b5e6:	48 89 7d f8          	mov    %rdi,-0x8(%rbp)
  40b5ea:	48 8b 45 f8          	mov    -0x8(%rbp),%rax
  40b5ee:	48 89 c7             	mov    %rax,%rdi
  40b5f1:	e8 00 0c 00 00       	callq  40c1f6 <_ZNSt12_Vector_baseISt4pairISt6threadbESaIS2_EE12_Vector_implC1Ev>
  40b5f6:	90                   	nop
  40b5f7:	c9                   	leaveq 
  40b5f8:	c3                   	retq   
  40b5f9:	90                   	nop

000000000040b5fa <_ZNSt12_Vector_baseISt4pairISt6threadbESaIS2_EED1Ev>:
  40b5fa:	55                   	push   %rbp
  40b5fb:	48 89 e5             	mov    %rsp,%rbp
  40b5fe:	48 83 ec 10          	sub    $0x10,%rsp
  40b602:	48 89 7d f8          	mov    %rdi,-0x8(%rbp)
  40b606:	48 8b 45 f8          	mov    -0x8(%rbp),%rax
  40b60a:	48 8b 40 10          	mov    0x10(%rax),%rax
  40b60e:	48 89 c2             	mov    %rax,%rdx
  40b611:	48 8b 45 f8          	mov    -0x8(%rbp),%rax
  40b615:	48 8b 00             	mov    (%rax),%rax
  40b618:	48 29 c2             	sub    %rax,%rdx
  40b61b:	48 89 d0             	mov    %rdx,%rax
  40b61e:	48 c1 f8 04          	sar    $0x4,%rax
  40b622:	48 89 c2             	mov    %rax,%rdx
  40b625:	48 8b 45 f8          	mov    -0x8(%rbp),%rax
  40b629:	48 8b 08             	mov    (%rax),%rcx
  40b62c:	48 8b 45 f8          	mov    -0x8(%rbp),%rax
  40b630:	48 89 ce             	mov    %rcx,%rsi
  40b633:	48 89 c7             	mov    %rax,%rdi
  40b636:	e8 15 0c 00 00       	callq  40c250 <_ZNSt12_Vector_baseISt4pairISt6threadbESaIS2_EE13_M_deallocateEPS2_m>
  40b63b:	48 8b 45 f8          	mov    -0x8(%rbp),%rax
  40b63f:	48 89 c7             	mov    %rax,%rdi
  40b642:	e8 7b ff ff ff       	callq  40b5c2 <_ZNSt12_Vector_baseISt4pairISt6threadbESaIS2_EE12_Vector_implD1Ev>
  40b647:	90                   	nop
  40b648:	c9                   	leaveq 
  40b649:	c3                   	retq   

000000000040b64a <_ZNSt12_Vector_baseISt4pairISt6threadbESaIS2_EE19_M_get_Tp_allocatorEv>:
  40b64a:	55                   	push   %rbp
  40b64b:	48 89 e5             	mov    %rsp,%rbp
  40b64e:	48 89 7d f8          	mov    %rdi,-0x8(%rbp)
  40b652:	48 8b 45 f8          	mov    -0x8(%rbp),%rax
  40b656:	5d                   	pop    %rbp
  40b657:	c3                   	retq   

000000000040b658 <_ZSt8_DestroyIPSt4pairISt6threadbES2_EvT_S4_RSaIT0_E>:
  40b658:	55                   	push   %rbp
  40b659:	48 89 e5             	mov    %rsp,%rbp
  40b65c:	48 83 ec 20          	sub    $0x20,%rsp
  40b660:	48 89 7d f8          	mov    %rdi,-0x8(%rbp)
  40b664:	48 89 75 f0          	mov    %rsi,-0x10(%rbp)
  40b668:	48 89 55 e8          	mov    %rdx,-0x18(%rbp)
  40b66c:	48 8b 55 f0          	mov    -0x10(%rbp),%rdx
  40b670:	48 8b 45 f8          	mov    -0x8(%rbp),%rax
  40b674:	48 89 d6             	mov    %rdx,%rsi
  40b677:	48 89 c7             	mov    %rax,%rdi
  40b67a:	e8 06 0c 00 00       	callq  40c285 <_ZSt8_DestroyIPSt4pairISt6threadbEEvT_S4_>
  40b67f:	90                   	nop
  40b680:	c9                   	leaveq 
  40b681:	c3                   	retq   

000000000040b682 <_ZN9__gnu_cxx17__normal_iteratorIPSt4pairISt6threadbESt6vectorIS3_SaIS3_EEEC1ERKS4_>:
  40b682:	55                   	push   %rbp
  40b683:	48 89 e5             	mov    %rsp,%rbp
  40b686:	48 89 7d f8          	mov    %rdi,-0x8(%rbp)
  40b68a:	48 89 75 f0          	mov    %rsi,-0x10(%rbp)
  40b68e:	48 8b 45 f0          	mov    -0x10(%rbp),%rax
  40b692:	48 8b 10             	mov    (%rax),%rdx
  40b695:	48 8b 45 f8          	mov    -0x8(%rbp),%rax
  40b699:	48 89 10             	mov    %rdx,(%rax)
  40b69c:	90                   	nop
  40b69d:	5d                   	pop    %rbp
  40b69e:	c3                   	retq   
  40b69f:	90                   	nop

000000000040b6a0 <_ZNK9__gnu_cxx17__normal_iteratorIPSt4pairISt6threadbESt6vectorIS3_SaIS3_EEE4baseEv>:
  40b6a0:	55                   	push   %rbp
  40b6a1:	48 89 e5             	mov    %rsp,%rbp
  40b6a4:	48 89 7d f8          	mov    %rdi,-0x8(%rbp)
  40b6a8:	48 8b 45 f8          	mov    -0x8(%rbp),%rax
  40b6ac:	5d                   	pop    %rbp
  40b6ad:	c3                   	retq   

000000000040b6ae <_ZSt4moveIRSt4pairISt6threadbEEONSt16remove_referenceIT_E4typeEOS5_>:
  40b6ae:	55                   	push   %rbp
  40b6af:	48 89 e5             	mov    %rsp,%rbp
  40b6b2:	48 89 7d f8          	mov    %rdi,-0x8(%rbp)
  40b6b6:	48 8b 45 f8          	mov    -0x8(%rbp),%rax
  40b6ba:	5d                   	pop    %rbp
  40b6bb:	c3                   	retq   

000000000040b6bc <_ZNKSt6vectorISt4pairISt6threadbESaIS2_EE6cbeginEv>:
  40b6bc:	55                   	push   %rbp
  40b6bd:	48 89 e5             	mov    %rsp,%rbp
  40b6c0:	48 83 ec 30          	sub    $0x30,%rsp
  40b6c4:	48 89 7d d8          	mov    %rdi,-0x28(%rbp)
  40b6c8:	64 48 8b 04 25 28 00 	mov    %fs:0x28,%rax
  40b6cf:	00 00 
  40b6d1:	48 89 45 f8          	mov    %rax,-0x8(%rbp)
  40b6d5:	31 c0                	xor    %eax,%eax
  40b6d7:	48 8b 45 d8          	mov    -0x28(%rbp),%rax
  40b6db:	48 8b 00             	mov    (%rax),%rax
  40b6de:	48 89 45 f0          	mov    %rax,-0x10(%rbp)
  40b6e2:	48 8d 55 f0          	lea    -0x10(%rbp),%rdx
  40b6e6:	48 8d 45 e0          	lea    -0x20(%rbp),%rax
  40b6ea:	48 89 d6             	mov    %rdx,%rsi
  40b6ed:	48 89 c7             	mov    %rax,%rdi
  40b6f0:	e8 0f 0e 00 00       	callq  40c504 <_ZN9__gnu_cxx17__normal_iteratorIPKSt4pairISt6threadbESt6vectorIS3_SaIS3_EEEC1ERKS5_>
  40b6f5:	48 8b 45 e0          	mov    -0x20(%rbp),%rax
  40b6f9:	48 8b 4d f8          	mov    -0x8(%rbp),%rcx
  40b6fd:	64 48 33 0c 25 28 00 	xor    %fs:0x28,%rcx
  40b704:	00 00 
  40b706:	74 05                	je     40b70d <_ZNKSt6vectorISt4pairISt6threadbESaIS2_EE6cbeginEv+0x51>
  40b708:	e8 03 77 ff ff       	callq  402e10 <__stack_chk_fail@plt>
  40b70d:	c9                   	leaveq 
  40b70e:	c3                   	retq   

000000000040b70f <_ZN9__gnu_cxxmiIPKSt4pairISt6threadbESt6vectorIS3_SaIS3_EEEENS_17__normal_iteratorIT_T0_E15difference_typeERKSC_SF_>:
  40b70f:	55                   	push   %rbp
  40b710:	48 89 e5             	mov    %rsp,%rbp
  40b713:	53                   	push   %rbx
  40b714:	48 83 ec 18          	sub    $0x18,%rsp
  40b718:	48 89 7d e8          	mov    %rdi,-0x18(%rbp)
  40b71c:	48 89 75 e0          	mov    %rsi,-0x20(%rbp)
  40b720:	48 8b 45 e8          	mov    -0x18(%rbp),%rax
  40b724:	48 89 c7             	mov    %rax,%rdi
  40b727:	e8 f6 0d 00 00       	callq  40c522 <_ZNK9__gnu_cxx17__normal_iteratorIPKSt4pairISt6threadbESt6vectorIS3_SaIS3_EEE4baseEv>
  40b72c:	48 8b 00             	mov    (%rax),%rax
  40b72f:	48 89 c3             	mov    %rax,%rbx
  40b732:	48 8b 45 e0          	mov    -0x20(%rbp),%rax
  40b736:	48 89 c7             	mov    %rax,%rdi
  40b739:	e8 e4 0d 00 00       	callq  40c522 <_ZNK9__gnu_cxx17__normal_iteratorIPKSt4pairISt6threadbESt6vectorIS3_SaIS3_EEE4baseEv>
  40b73e:	48 8b 00             	mov    (%rax),%rax
  40b741:	48 29 c3             	sub    %rax,%rbx
  40b744:	48 89 d8             	mov    %rbx,%rax
  40b747:	48 c1 f8 04          	sar    $0x4,%rax
  40b74b:	48 83 c4 18          	add    $0x18,%rsp
  40b74f:	5b                   	pop    %rbx
  40b750:	5d                   	pop    %rbp
  40b751:	c3                   	retq   

000000000040b752 <_ZNK9__gnu_cxx17__normal_iteratorIPSt4pairISt6threadbESt6vectorIS3_SaIS3_EEEplEl>:
  40b752:	55                   	push   %rbp
  40b753:	48 89 e5             	mov    %rsp,%rbp
  40b756:	48 83 ec 30          	sub    $0x30,%rsp
  40b75a:	48 89 7d d8          	mov    %rdi,-0x28(%rbp)
  40b75e:	48 89 75 d0          	mov    %rsi,-0x30(%rbp)
  40b762:	64 48 8b 04 25 28 00 	mov    %fs:0x28,%rax
  40b769:	00 00 
  40b76b:	48 89 45 f8          	mov    %rax,-0x8(%rbp)
  40b76f:	31 c0                	xor    %eax,%eax
  40b771:	48 8b 45 d8          	mov    -0x28(%rbp),%rax
  40b775:	48 8b 00             	mov    (%rax),%rax
  40b778:	48 8b 55 d0          	mov    -0x30(%rbp),%rdx
  40b77c:	48 c1 e2 04          	shl    $0x4,%rdx
  40b780:	48 01 d0             	add    %rdx,%rax
  40b783:	48 89 45 f0          	mov    %rax,-0x10(%rbp)
  40b787:	48 8d 55 f0          	lea    -0x10(%rbp),%rdx
  40b78b:	48 8d 45 e0          	lea    -0x20(%rbp),%rax
  40b78f:	48 89 d6             	mov    %rdx,%rsi
  40b792:	48 89 c7             	mov    %rax,%rdi
  40b795:	e8 e8 fe ff ff       	callq  40b682 <_ZN9__gnu_cxx17__normal_iteratorIPSt4pairISt6threadbESt6vectorIS3_SaIS3_EEEC1ERKS4_>
  40b79a:	48 8b 45 e0          	mov    -0x20(%rbp),%rax
  40b79e:	48 8b 4d f8          	mov    -0x8(%rbp),%rcx
  40b7a2:	64 48 33 0c 25 28 00 	xor    %fs:0x28,%rcx
  40b7a9:	00 00 
  40b7ab:	74 05                	je     40b7b2 <_ZNK9__gnu_cxx17__normal_iteratorIPSt4pairISt6threadbESt6vectorIS3_SaIS3_EEEplEl+0x60>
  40b7ad:	e8 5e 76 ff ff       	callq  402e10 <__stack_chk_fail@plt>
  40b7b2:	c9                   	leaveq 
  40b7b3:	c3                   	retq   

000000000040b7b4 <_ZNSt6vectorISt4pairISt6threadbESaIS2_EE8_M_eraseEN9__gnu_cxx17__normal_iteratorIPS2_S4_EES8_>:
  40b7b4:	55                   	push   %rbp
  40b7b5:	48 89 e5             	mov    %rsp,%rbp
  40b7b8:	53                   	push   %rbx
  40b7b9:	48 83 ec 38          	sub    $0x38,%rsp
  40b7bd:	48 89 7d d8          	mov    %rdi,-0x28(%rbp)
  40b7c1:	48 89 75 d0          	mov    %rsi,-0x30(%rbp)
  40b7c5:	48 89 55 c0          	mov    %rdx,-0x40(%rbp)
  40b7c9:	64 48 8b 04 25 28 00 	mov    %fs:0x28,%rax
  40b7d0:	00 00 
  40b7d2:	48 89 45 e8          	mov    %rax,-0x18(%rbp)
  40b7d6:	31 c0                	xor    %eax,%eax
  40b7d8:	48 8d 55 c0          	lea    -0x40(%rbp),%rdx
  40b7dc:	48 8d 45 d0          	lea    -0x30(%rbp),%rax
  40b7e0:	48 89 d6             	mov    %rdx,%rsi
  40b7e3:	48 89 c7             	mov    %rax,%rdi
  40b7e6:	e8 43 f5 ff ff       	callq  40ad2e <_ZN9__gnu_cxxneIPSt4pairISt6threadbESt6vectorIS3_SaIS3_EEEEbRKNS_17__normal_iteratorIT_T0_EESD_>
  40b7eb:	84 c0                	test   %al,%al
  40b7ed:	0f 84 92 00 00 00    	je     40b885 <_ZNSt6vectorISt4pairISt6threadbESaIS2_EE8_M_eraseEN9__gnu_cxx17__normal_iteratorIPS2_S4_EES8_+0xd1>
  40b7f3:	48 8b 45 d8          	mov    -0x28(%rbp),%rax
  40b7f7:	48 89 c7             	mov    %rax,%rdi
  40b7fa:	e8 e3 f4 ff ff       	callq  40ace2 <_ZNSt6vectorISt4pairISt6threadbESaIS2_EE3endEv>
  40b7ff:	48 89 45 e0          	mov    %rax,-0x20(%rbp)
  40b803:	48 8d 55 e0          	lea    -0x20(%rbp),%rdx
  40b807:	48 8d 45 c0          	lea    -0x40(%rbp),%rax
  40b80b:	48 89 d6             	mov    %rdx,%rsi
  40b80e:	48 89 c7             	mov    %rax,%rdi
  40b811:	e8 18 f5 ff ff       	callq  40ad2e <_ZN9__gnu_cxxneIPSt4pairISt6threadbESt6vectorIS3_SaIS3_EEEEbRKNS_17__normal_iteratorIT_T0_EESD_>
  40b816:	84 c0                	test   %al,%al
  40b818:	74 22                	je     40b83c <_ZNSt6vectorISt4pairISt6threadbESaIS2_EE8_M_eraseEN9__gnu_cxx17__normal_iteratorIPS2_S4_EES8_+0x88>
  40b81a:	48 8b 45 d8          	mov    -0x28(%rbp),%rax
  40b81e:	48 89 c7             	mov    %rax,%rdi
  40b821:	e8 bc f4 ff ff       	callq  40ace2 <_ZNSt6vectorISt4pairISt6threadbESaIS2_EE3endEv>
  40b826:	48 89 c1             	mov    %rax,%rcx
  40b829:	48 8b 55 d0          	mov    -0x30(%rbp),%rdx
  40b82d:	48 8b 45 c0          	mov    -0x40(%rbp),%rax
  40b831:	48 89 ce             	mov    %rcx,%rsi
  40b834:	48 89 c7             	mov    %rax,%rdi
  40b837:	e8 f4 0c 00 00       	callq  40c530 <_ZSt4moveIN9__gnu_cxx17__normal_iteratorIPSt4pairISt6threadbESt6vectorIS4_SaIS4_EEEES9_ET0_T_SB_SA_>
  40b83c:	48 8d 45 d0          	lea    -0x30(%rbp),%rax
  40b840:	48 89 c7             	mov    %rax,%rdi
  40b843:	e8 58 fe ff ff       	callq  40b6a0 <_ZNK9__gnu_cxx17__normal_iteratorIPSt4pairISt6threadbESt6vectorIS3_SaIS3_EEE4baseEv>
  40b848:	48 8b 18             	mov    (%rax),%rbx
  40b84b:	48 8b 45 d8          	mov    -0x28(%rbp),%rax
  40b84f:	48 89 c7             	mov    %rax,%rdi
  40b852:	e8 8b f4 ff ff       	callq  40ace2 <_ZNSt6vectorISt4pairISt6threadbESaIS2_EE3endEv>
  40b857:	48 89 45 e0          	mov    %rax,-0x20(%rbp)
  40b85b:	48 8d 55 c0          	lea    -0x40(%rbp),%rdx
  40b85f:	48 8d 45 e0          	lea    -0x20(%rbp),%rax
  40b863:	48 89 d6             	mov    %rdx,%rsi
  40b866:	48 89 c7             	mov    %rax,%rdi
  40b869:	e8 53 0d 00 00       	callq  40c5c1 <_ZN9__gnu_cxxmiIPSt4pairISt6threadbESt6vectorIS3_SaIS3_EEEENS_17__normal_iteratorIT_T0_E15difference_typeERKSB_SE_>
  40b86e:	48 c1 e0 04          	shl    $0x4,%rax
  40b872:	48 8d 14 03          	lea    (%rbx,%rax,1),%rdx
  40b876:	48 8b 45 d8          	mov    -0x28(%rbp),%rax
  40b87a:	48 89 d6             	mov    %rdx,%rsi
  40b87d:	48 89 c7             	mov    %rax,%rdi
  40b880:	e8 f7 0c 00 00       	callq  40c57c <_ZNSt6vectorISt4pairISt6threadbESaIS2_EE15_M_erase_at_endEPS2_>
  40b885:	48 8b 45 d0          	mov    -0x30(%rbp),%rax
  40b889:	48 8b 4d e8          	mov    -0x18(%rbp),%rcx
  40b88d:	64 48 33 0c 25 28 00 	xor    %fs:0x28,%rcx
  40b894:	00 00 
  40b896:	74 05                	je     40b89d <_ZNSt6vectorISt4pairISt6threadbESaIS2_EE8_M_eraseEN9__gnu_cxx17__normal_iteratorIPS2_S4_EES8_+0xe9>
  40b898:	e8 73 75 ff ff       	callq  402e10 <__stack_chk_fail@plt>
  40b89d:	48 83 c4 38          	add    $0x38,%rsp
  40b8a1:	5b                   	pop    %rbx
  40b8a2:	5d                   	pop    %rbp
  40b8a3:	c3                   	retq   

000000000040b8a4 <_ZNSt7__cxx1112basic_stringIcSt11char_traitsIcESaIcEE12_M_constructIPcEEvT_S7_>:
  40b8a4:	55                   	push   %rbp
  40b8a5:	48 89 e5             	mov    %rsp,%rbp
  40b8a8:	48 83 ec 30          	sub    $0x30,%rsp
  40b8ac:	48 89 7d e8          	mov    %rdi,-0x18(%rbp)
  40b8b0:	48 89 75 e0          	mov    %rsi,-0x20(%rbp)
  40b8b4:	48 89 55 d8          	mov    %rdx,-0x28(%rbp)
  40b8b8:	64 48 8b 04 25 28 00 	mov    %fs:0x28,%rax
  40b8bf:	00 00 
  40b8c1:	48 89 45 f8          	mov    %rax,-0x8(%rbp)
  40b8c5:	31 c0                	xor    %eax,%eax
  40b8c7:	48 8b 55 d8          	mov    -0x28(%rbp),%rdx
  40b8cb:	48 8b 4d e0          	mov    -0x20(%rbp),%rcx
  40b8cf:	48 8b 45 e8          	mov    -0x18(%rbp),%rax
  40b8d3:	48 83 ec 08          	sub    $0x8,%rsp
  40b8d7:	41 50                	push   %r8
  40b8d9:	48 89 ce             	mov    %rcx,%rsi
  40b8dc:	48 89 c7             	mov    %rax,%rdi
  40b8df:	e8 20 0d 00 00       	callq  40c604 <_ZNSt7__cxx1112basic_stringIcSt11char_traitsIcESaIcEE16_M_construct_auxIPcEEvT_S7_St12__false_type>
  40b8e4:	48 83 c4 10          	add    $0x10,%rsp
  40b8e8:	90                   	nop
  40b8e9:	48 8b 45 f8          	mov    -0x8(%rbp),%rax
  40b8ed:	64 48 33 04 25 28 00 	xor    %fs:0x28,%rax
  40b8f4:	00 00 
  40b8f6:	74 05                	je     40b8fd <_ZNSt7__cxx1112basic_stringIcSt11char_traitsIcESaIcEE12_M_constructIPcEEvT_S7_+0x59>
  40b8f8:	e8 13 75 ff ff       	callq  402e10 <__stack_chk_fail@plt>
  40b8fd:	c9                   	leaveq 
  40b8fe:	c3                   	retq   
  40b8ff:	90                   	nop

000000000040b900 <_ZNSt16_Sp_counted_baseILN9__gnu_cxx12_Lock_policyE2EE10_M_destroyEv>:
  40b900:	55                   	push   %rbp
  40b901:	48 89 e5             	mov    %rsp,%rbp
  40b904:	48 83 ec 10          	sub    $0x10,%rsp
  40b908:	48 89 7d f8          	mov    %rdi,-0x8(%rbp)
  40b90c:	48 83 7d f8 00       	cmpq   $0x0,-0x8(%rbp)
  40b911:	74 17                	je     40b92a <_ZNSt16_Sp_counted_baseILN9__gnu_cxx12_Lock_policyE2EE10_M_destroyEv+0x2a>
  40b913:	48 8b 45 f8          	mov    -0x8(%rbp),%rax
  40b917:	48 8b 00             	mov    (%rax),%rax
  40b91a:	48 83 c0 08          	add    $0x8,%rax
  40b91e:	48 8b 00             	mov    (%rax),%rax
  40b921:	48 8b 55 f8          	mov    -0x8(%rbp),%rdx
  40b925:	48 89 d7             	mov    %rdx,%rdi
  40b928:	ff d0                	callq  *%rax
  40b92a:	90                   	nop
  40b92b:	c9                   	leaveq 
  40b92c:	c3                   	retq   
  40b92d:	90                   	nop

000000000040b92e <_ZNSt8_Rb_treeINSt7__cxx1112basic_stringIcSt11char_traitsIcESaIcEEESt4pairIKS5_S5_ESt10_Select1stIS8_ESt4lessIS5_ESaIS8_EE13_Rb_tree_implISC_Lb1EE8_M_resetEv>:
  40b92e:	55                   	push   %rbp
  40b92f:	48 89 e5             	mov    %rsp,%rbp
  40b932:	48 89 7d f8          	mov    %rdi,-0x8(%rbp)
  40b936:	48 8b 45 f8          	mov    -0x8(%rbp),%rax
  40b93a:	48 c7 40 10 00 00 00 	movq   $0x0,0x10(%rax)
  40b941:	00 
  40b942:	48 8b 45 f8          	mov    -0x8(%rbp),%rax
  40b946:	48 8d 50 08          	lea    0x8(%rax),%rdx
  40b94a:	48 8b 45 f8          	mov    -0x8(%rbp),%rax
  40b94e:	48 89 50 18          	mov    %rdx,0x18(%rax)
  40b952:	48 8b 45 f8          	mov    -0x8(%rbp),%rax
  40b956:	48 8d 50 08          	lea    0x8(%rax),%rdx
  40b95a:	48 8b 45 f8          	mov    -0x8(%rbp),%rax
  40b95e:	48 89 50 20          	mov    %rdx,0x20(%rax)
  40b962:	48 8b 45 f8          	mov    -0x8(%rbp),%rax
  40b966:	48 c7 40 28 00 00 00 	movq   $0x0,0x28(%rax)
  40b96d:	00 
  40b96e:	90                   	nop
  40b96f:	5d                   	pop    %rbp
  40b970:	c3                   	retq   
  40b971:	90                   	nop

000000000040b972 <_ZNSt8_Rb_treeINSt7__cxx1112basic_stringIcSt11char_traitsIcESaIcEEESt4pairIKS5_S5_ESt10_Select1stIS8_ESt4lessIS5_ESaIS8_EE14_M_create_nodeIIRKSt21piecewise_construct_tSt5tupleIIRS7_EESJ_IIEEEEEPSt13_Rb_tree_nodeIS8_EDpOT_>:
  40b972:	55                   	push   %rbp
  40b973:	48 89 e5             	mov    %rsp,%rbp
  40b976:	41 54                	push   %r12
  40b978:	53                   	push   %rbx
  40b979:	48 83 ec 30          	sub    $0x30,%rsp
  40b97d:	48 89 7d d8          	mov    %rdi,-0x28(%rbp)
  40b981:	48 89 75 d0          	mov    %rsi,-0x30(%rbp)
  40b985:	48 89 55 c8          	mov    %rdx,-0x38(%rbp)
  40b989:	48 89 4d c0          	mov    %rcx,-0x40(%rbp)
  40b98d:	48 8b 45 d8          	mov    -0x28(%rbp),%rax
  40b991:	48 89 c7             	mov    %rax,%rdi
  40b994:	e8 61 a0 ff ff       	callq  4059fa <_ZNSt8_Rb_treeINSt7__cxx1112basic_stringIcSt11char_traitsIcESaIcEEESt4pairIKS5_S5_ESt10_Select1stIS8_ESt4lessIS5_ESaIS8_EE11_M_get_nodeEv>
  40b999:	48 89 45 e8          	mov    %rax,-0x18(%rbp)
  40b99d:	48 8b 45 c0          	mov    -0x40(%rbp),%rax
  40b9a1:	48 89 c7             	mov    %rax,%rdi
  40b9a4:	e8 04 90 ff ff       	callq  4049ad <_ZSt7forwardISt5tupleIIEEEOT_RNSt16remove_referenceIS2_E4typeE>
  40b9a9:	49 89 c4             	mov    %rax,%r12
  40b9ac:	48 8b 45 c8          	mov    -0x38(%rbp),%rax
  40b9b0:	48 89 c7             	mov    %rax,%rdi
  40b9b3:	e8 b7 f7 ff ff       	callq  40b16f <_ZSt7forwardISt5tupleIIRKNSt7__cxx1112basic_stringIcSt11char_traitsIcESaIcEEEEEEOT_RNSt16remove_referenceISA_E4typeE>
  40b9b8:	48 89 c3             	mov    %rax,%rbx
  40b9bb:	48 8b 45 d0          	mov    -0x30(%rbp),%rax
  40b9bf:	48 89 c7             	mov    %rax,%rdi
  40b9c2:	e8 ca 8f ff ff       	callq  404991 <_ZSt7forwardIRKSt21piecewise_construct_tEOT_RNSt16remove_referenceIS3_E4typeE>
  40b9c7:	48 89 c2             	mov    %rax,%rdx
  40b9ca:	48 8b 75 e8          	mov    -0x18(%rbp),%rsi
  40b9ce:	48 8b 45 d8          	mov    -0x28(%rbp),%rax
  40b9d2:	4d 89 e0             	mov    %r12,%r8
  40b9d5:	48 89 d9             	mov    %rbx,%rcx
  40b9d8:	48 89 c7             	mov    %rax,%rdi
  40b9db:	e8 e0 0c 00 00       	callq  40c6c0 <_ZNSt8_Rb_treeINSt7__cxx1112basic_stringIcSt11char_traitsIcESaIcEEESt4pairIKS5_S5_ESt10_Select1stIS8_ESt4lessIS5_ESaIS8_EE17_M_construct_nodeIIRKSt21piecewise_construct_tSt5tupleIIRS7_EESJ_IIEEEEEvPSt13_Rb_tree_nodeIS8_EDpOT_>
  40b9e0:	48 8b 45 e8          	mov    -0x18(%rbp),%rax
  40b9e4:	48 83 c4 30          	add    $0x30,%rsp
  40b9e8:	5b                   	pop    %rbx
  40b9e9:	41 5c                	pop    %r12
  40b9eb:	5d                   	pop    %rbp
  40b9ec:	c3                   	retq   
  40b9ed:	90                   	nop

000000000040b9ee <_ZN9__gnu_cxx17__normal_iteratorIPKhSt6vectorIhSaIhEEEC1ERKS2_>:
  40b9ee:	55                   	push   %rbp
  40b9ef:	48 89 e5             	mov    %rsp,%rbp
  40b9f2:	48 89 7d f8          	mov    %rdi,-0x8(%rbp)
  40b9f6:	48 89 75 f0          	mov    %rsi,-0x10(%rbp)
  40b9fa:	48 8b 45 f0          	mov    -0x10(%rbp),%rax
  40b9fe:	48 8b 10             	mov    (%rax),%rdx
  40ba01:	48 8b 45 f8          	mov    -0x8(%rbp),%rax
  40ba05:	48 89 10             	mov    %rdx,(%rax)
  40ba08:	90                   	nop
  40ba09:	5d                   	pop    %rbp
  40ba0a:	c3                   	retq   
  40ba0b:	90                   	nop

000000000040ba0c <_ZNK9__gnu_cxx17__normal_iteratorIPKhSt6vectorIhSaIhEEE4baseEv>:
  40ba0c:	55                   	push   %rbp
  40ba0d:	48 89 e5             	mov    %rsp,%rbp
  40ba10:	48 89 7d f8          	mov    %rdi,-0x8(%rbp)
  40ba14:	48 8b 45 f8          	mov    -0x8(%rbp),%rax
  40ba18:	5d                   	pop    %rbp
  40ba19:	c3                   	retq   

000000000040ba1a <_ZNSt6vectorIhSaIhEE15_M_range_insertIPKcEEvN9__gnu_cxx17__normal_iteratorIPhS1_EET_S9_St20forward_iterator_tag>:
  40ba1a:	55                   	push   %rbp
  40ba1b:	48 89 e5             	mov    %rsp,%rbp
  40ba1e:	41 54                	push   %r12
  40ba20:	53                   	push   %rbx
  40ba21:	48 83 ec 60          	sub    $0x60,%rsp
  40ba25:	48 89 7d a8          	mov    %rdi,-0x58(%rbp)
  40ba29:	48 89 75 a0          	mov    %rsi,-0x60(%rbp)
  40ba2d:	48 89 55 98          	mov    %rdx,-0x68(%rbp)
  40ba31:	48 89 4d 90          	mov    %rcx,-0x70(%rbp)
  40ba35:	64 48 8b 04 25 28 00 	mov    %fs:0x28,%rax
  40ba3c:	00 00 
  40ba3e:	48 89 45 e8          	mov    %rax,-0x18(%rbp)
  40ba42:	31 c0                	xor    %eax,%eax
  40ba44:	48 8b 45 98          	mov    -0x68(%rbp),%rax
  40ba48:	48 3b 45 90          	cmp    -0x70(%rbp),%rax
  40ba4c:	0f 84 98 03 00 00    	je     40bdea <_ZNSt6vectorIhSaIhEE15_M_range_insertIPKcEEvN9__gnu_cxx17__normal_iteratorIPhS1_EET_S9_St20forward_iterator_tag+0x3d0>
  40ba52:	48 8b 55 90          	mov    -0x70(%rbp),%rdx
  40ba56:	48 8b 45 98          	mov    -0x68(%rbp),%rax
  40ba5a:	48 89 d6             	mov    %rdx,%rsi
  40ba5d:	48 89 c7             	mov    %rax,%rdi
  40ba60:	e8 3a 0d 00 00       	callq  40c79f <_ZSt8distanceIPKcENSt15iterator_traitsIT_E15difference_typeES3_S3_>
  40ba65:	48 89 45 c0          	mov    %rax,-0x40(%rbp)
  40ba69:	48 8b 45 a8          	mov    -0x58(%rbp),%rax
  40ba6d:	48 8b 40 10          	mov    0x10(%rax),%rax
  40ba71:	48 89 c2             	mov    %rax,%rdx
  40ba74:	48 8b 45 a8          	mov    -0x58(%rbp),%rax
  40ba78:	48 8b 40 08          	mov    0x8(%rax),%rax
  40ba7c:	48 29 c2             	sub    %rax,%rdx
  40ba7f:	48 89 d0             	mov    %rdx,%rax
  40ba82:	48 3b 45 c0          	cmp    -0x40(%rbp),%rax
  40ba86:	0f 82 a9 01 00 00    	jb     40bc35 <_ZNSt6vectorIhSaIhEE15_M_range_insertIPKcEEvN9__gnu_cxx17__normal_iteratorIPhS1_EET_S9_St20forward_iterator_tag+0x21b>
  40ba8c:	48 8b 45 a8          	mov    -0x58(%rbp),%rax
  40ba90:	48 89 c7             	mov    %rax,%rdi
  40ba93:	e8 e2 ee ff ff       	callq  40a97a <_ZNSt6vectorIhSaIhEE3endEv>
  40ba98:	48 89 45 b0          	mov    %rax,-0x50(%rbp)
  40ba9c:	48 8d 55 a0          	lea    -0x60(%rbp),%rdx
  40baa0:	48 8d 45 b0          	lea    -0x50(%rbp),%rax
  40baa4:	48 89 d6             	mov    %rdx,%rsi
  40baa7:	48 89 c7             	mov    %rax,%rdi
  40baaa:	e8 52 0d 00 00       	callq  40c801 <_ZN9__gnu_cxxmiIPhSt6vectorIhSaIhEEEENS_17__normal_iteratorIT_T0_E15difference_typeERKS8_SB_>
  40baaf:	48 89 45 c8          	mov    %rax,-0x38(%rbp)
  40bab3:	48 8b 45 a8          	mov    -0x58(%rbp),%rax
  40bab7:	48 8b 40 08          	mov    0x8(%rax),%rax
  40babb:	48 89 45 d0          	mov    %rax,-0x30(%rbp)
  40babf:	48 8b 45 c8          	mov    -0x38(%rbp),%rax
  40bac3:	48 3b 45 c0          	cmp    -0x40(%rbp),%rax
  40bac7:	0f 86 a0 00 00 00    	jbe    40bb6d <_ZNSt6vectorIhSaIhEE15_M_range_insertIPKcEEvN9__gnu_cxx17__normal_iteratorIPhS1_EET_S9_St20forward_iterator_tag+0x153>
  40bacd:	48 8b 45 a8          	mov    -0x58(%rbp),%rax
  40bad1:	48 89 c7             	mov    %rax,%rdi
  40bad4:	e8 31 8c ff ff       	callq  40470a <_ZNSt12_Vector_baseIhSaIhEE19_M_get_Tp_allocatorEv>
  40bad9:	49 89 c0             	mov    %rax,%r8
  40badc:	48 8b 45 a8          	mov    -0x58(%rbp),%rax
  40bae0:	48 8b 50 08          	mov    0x8(%rax),%rdx
  40bae4:	48 8b 45 a8          	mov    -0x58(%rbp),%rax
  40bae8:	48 8b 40 08          	mov    0x8(%rax),%rax
  40baec:	48 8b 4d a8          	mov    -0x58(%rbp),%rcx
  40baf0:	48 8b 49 08          	mov    0x8(%rcx),%rcx
  40baf4:	48 8b 75 c0          	mov    -0x40(%rbp),%rsi
  40baf8:	48 f7 de             	neg    %rsi
  40bafb:	48 8d 3c 31          	lea    (%rcx,%rsi,1),%rdi
  40baff:	4c 89 c1             	mov    %r8,%rcx
  40bb02:	48 89 c6             	mov    %rax,%rsi
  40bb05:	e8 36 0d 00 00       	callq  40c840 <_ZSt22__uninitialized_move_aIPhS0_SaIhEET0_T_S3_S2_RT1_>
  40bb0a:	48 8b 45 a8          	mov    -0x58(%rbp),%rax
  40bb0e:	48 8b 50 08          	mov    0x8(%rax),%rdx
  40bb12:	48 8b 45 c0          	mov    -0x40(%rbp),%rax
  40bb16:	48 01 c2             	add    %rax,%rdx
  40bb19:	48 8b 45 a8          	mov    -0x58(%rbp),%rax
  40bb1d:	48 89 50 08          	mov    %rdx,0x8(%rax)
  40bb21:	48 8b 45 c0          	mov    -0x40(%rbp),%rax
  40bb25:	48 f7 d8             	neg    %rax
  40bb28:	48 89 c2             	mov    %rax,%rdx
  40bb2b:	48 8b 45 d0          	mov    -0x30(%rbp),%rax
  40bb2f:	48 8d 1c 02          	lea    (%rdx,%rax,1),%rbx
  40bb33:	48 8d 45 a0          	lea    -0x60(%rbp),%rax
  40bb37:	48 89 c7             	mov    %rax,%rdi
  40bb3a:	e8 7d f8 ff ff       	callq  40b3bc <_ZNK9__gnu_cxx17__normal_iteratorIPhSt6vectorIhSaIhEEE4baseEv>
  40bb3f:	48 8b 00             	mov    (%rax),%rax
  40bb42:	48 8b 55 d0          	mov    -0x30(%rbp),%rdx
  40bb46:	48 89 de             	mov    %rbx,%rsi
  40bb49:	48 89 c7             	mov    %rax,%rdi
  40bb4c:	e8 43 0d 00 00       	callq  40c894 <_ZSt13move_backwardIPhS0_ET0_T_S2_S1_>
  40bb51:	48 8b 55 a0          	mov    -0x60(%rbp),%rdx
  40bb55:	48 8b 4d 90          	mov    -0x70(%rbp),%rcx
  40bb59:	48 8b 45 98          	mov    -0x68(%rbp),%rax
  40bb5d:	48 89 ce             	mov    %rcx,%rsi
  40bb60:	48 89 c7             	mov    %rax,%rdi
  40bb63:	e8 78 0d 00 00       	callq  40c8e0 <_ZSt4copyIPKcN9__gnu_cxx17__normal_iteratorIPhSt6vectorIhSaIhEEEEET0_T_SA_S9_>
  40bb68:	e9 7d 02 00 00       	jmpq   40bdea <_ZNSt6vectorIhSaIhEE15_M_range_insertIPKcEEvN9__gnu_cxx17__normal_iteratorIPhS1_EET_S9_St20forward_iterator_tag+0x3d0>
  40bb6d:	48 8b 45 98          	mov    -0x68(%rbp),%rax
  40bb71:	48 89 45 b0          	mov    %rax,-0x50(%rbp)
  40bb75:	48 8b 55 c8          	mov    -0x38(%rbp),%rdx
  40bb79:	48 8d 45 b0          	lea    -0x50(%rbp),%rax
  40bb7d:	48 89 d6             	mov    %rdx,%rsi
  40bb80:	48 89 c7             	mov    %rax,%rdi
  40bb83:	e8 a4 0d 00 00       	callq  40c92c <_ZSt7advanceIPKcmEvRT_T0_>
  40bb88:	48 8b 45 a8          	mov    -0x58(%rbp),%rax
  40bb8c:	48 89 c7             	mov    %rax,%rdi
  40bb8f:	e8 76 8b ff ff       	callq  40470a <_ZNSt12_Vector_baseIhSaIhEE19_M_get_Tp_allocatorEv>
  40bb94:	48 89 c1             	mov    %rax,%rcx
  40bb97:	48 8b 45 a8          	mov    -0x58(%rbp),%rax
  40bb9b:	48 8b 50 08          	mov    0x8(%rax),%rdx
  40bb9f:	48 8b 45 b0          	mov    -0x50(%rbp),%rax
  40bba3:	48 8b 75 90          	mov    -0x70(%rbp),%rsi
  40bba7:	48 89 c7             	mov    %rax,%rdi
  40bbaa:	e8 e8 0d 00 00       	callq  40c997 <_ZSt22__uninitialized_copy_aIPKcPhhET0_T_S4_S3_RSaIT1_E>
  40bbaf:	48 8b 45 a8          	mov    -0x58(%rbp),%rax
  40bbb3:	48 8b 50 08          	mov    0x8(%rax),%rdx
  40bbb7:	48 8b 45 c0          	mov    -0x40(%rbp),%rax
  40bbbb:	48 2b 45 c8          	sub    -0x38(%rbp),%rax
  40bbbf:	48 01 c2             	add    %rax,%rdx
  40bbc2:	48 8b 45 a8          	mov    -0x58(%rbp),%rax
  40bbc6:	48 89 50 08          	mov    %rdx,0x8(%rax)
  40bbca:	48 8b 45 a8          	mov    -0x58(%rbp),%rax
  40bbce:	48 89 c7             	mov    %rax,%rdi
  40bbd1:	e8 34 8b ff ff       	callq  40470a <_ZNSt12_Vector_baseIhSaIhEE19_M_get_Tp_allocatorEv>
  40bbd6:	49 89 c4             	mov    %rax,%r12
  40bbd9:	48 8b 45 a8          	mov    -0x58(%rbp),%rax
  40bbdd:	48 8b 58 08          	mov    0x8(%rax),%rbx
  40bbe1:	48 8d 45 a0          	lea    -0x60(%rbp),%rax
  40bbe5:	48 89 c7             	mov    %rax,%rdi
  40bbe8:	e8 cf f7 ff ff       	callq  40b3bc <_ZNK9__gnu_cxx17__normal_iteratorIPhSt6vectorIhSaIhEEE4baseEv>
  40bbed:	48 8b 00             	mov    (%rax),%rax
  40bbf0:	48 8b 75 d0          	mov    -0x30(%rbp),%rsi
  40bbf4:	4c 89 e1             	mov    %r12,%rcx
  40bbf7:	48 89 da             	mov    %rbx,%rdx
  40bbfa:	48 89 c7             	mov    %rax,%rdi
  40bbfd:	e8 3e 0c 00 00       	callq  40c840 <_ZSt22__uninitialized_move_aIPhS0_SaIhEET0_T_S3_S2_RT1_>
  40bc02:	48 8b 45 a8          	mov    -0x58(%rbp),%rax
  40bc06:	48 8b 50 08          	mov    0x8(%rax),%rdx
  40bc0a:	48 8b 45 c8          	mov    -0x38(%rbp),%rax
  40bc0e:	48 01 c2             	add    %rax,%rdx
  40bc11:	48 8b 45 a8          	mov    -0x58(%rbp),%rax
  40bc15:	48 89 50 08          	mov    %rdx,0x8(%rax)
  40bc19:	48 8b 4d b0          	mov    -0x50(%rbp),%rcx
  40bc1d:	48 8b 55 a0          	mov    -0x60(%rbp),%rdx
  40bc21:	48 8b 45 98          	mov    -0x68(%rbp),%rax
  40bc25:	48 89 ce             	mov    %rcx,%rsi
  40bc28:	48 89 c7             	mov    %rax,%rdi
  40bc2b:	e8 b0 0c 00 00       	callq  40c8e0 <_ZSt4copyIPKcN9__gnu_cxx17__normal_iteratorIPhSt6vectorIhSaIhEEEEET0_T_SA_S9_>
  40bc30:	e9 b5 01 00 00       	jmpq   40bdea <_ZNSt6vectorIhSaIhEE15_M_range_insertIPKcEEvN9__gnu_cxx17__normal_iteratorIPhS1_EET_S9_St20forward_iterator_tag+0x3d0>
  40bc35:	48 8b 4d c0          	mov    -0x40(%rbp),%rcx
  40bc39:	48 8b 45 a8          	mov    -0x58(%rbp),%rax
  40bc3d:	ba c3 df 40 00       	mov    $0x40dfc3,%edx
  40bc42:	48 89 ce             	mov    %rcx,%rsi
  40bc45:	48 89 c7             	mov    %rax,%rdi
  40bc48:	e8 97 ac ff ff       	callq  4068e4 <_ZNKSt6vectorIhSaIhEE12_M_check_lenEmPKc>
  40bc4d:	48 89 45 d8          	mov    %rax,-0x28(%rbp)
  40bc51:	48 8b 45 a8          	mov    -0x58(%rbp),%rax
  40bc55:	48 8b 55 d8          	mov    -0x28(%rbp),%rdx
  40bc59:	48 89 d6             	mov    %rdx,%rsi
  40bc5c:	48 89 c7             	mov    %rax,%rdi
  40bc5f:	e8 6c ad ff ff       	callq  4069d0 <_ZNSt12_Vector_baseIhSaIhEE11_M_allocateEm>
  40bc64:	48 89 45 e0          	mov    %rax,-0x20(%rbp)
  40bc68:	48 8b 45 e0          	mov    -0x20(%rbp),%rax
  40bc6c:	48 89 45 b8          	mov    %rax,-0x48(%rbp)
  40bc70:	48 8b 45 a8          	mov    -0x58(%rbp),%rax
  40bc74:	48 89 c7             	mov    %rax,%rdi
  40bc77:	e8 8e 8a ff ff       	callq  40470a <_ZNSt12_Vector_baseIhSaIhEE19_M_get_Tp_allocatorEv>
  40bc7c:	48 89 c3             	mov    %rax,%rbx
  40bc7f:	48 8d 45 a0          	lea    -0x60(%rbp),%rax
  40bc83:	48 89 c7             	mov    %rax,%rdi
  40bc86:	e8 31 f7 ff ff       	callq  40b3bc <_ZNK9__gnu_cxx17__normal_iteratorIPhSt6vectorIhSaIhEEE4baseEv>
  40bc8b:	48 8b 30             	mov    (%rax),%rsi
  40bc8e:	48 8b 45 a8          	mov    -0x58(%rbp),%rax
  40bc92:	48 8b 00             	mov    (%rax),%rax
  40bc95:	48 8b 55 e0          	mov    -0x20(%rbp),%rdx
  40bc99:	48 89 d9             	mov    %rbx,%rcx
  40bc9c:	48 89 c7             	mov    %rax,%rdi
  40bc9f:	e8 5f ad ff ff       	callq  406a03 <_ZSt34__uninitialized_move_if_noexcept_aIPhS0_SaIhEET0_T_S3_S2_RT1_>
  40bca4:	48 89 45 b8          	mov    %rax,-0x48(%rbp)
  40bca8:	48 8b 45 a8          	mov    -0x58(%rbp),%rax
  40bcac:	48 89 c7             	mov    %rax,%rdi
  40bcaf:	e8 56 8a ff ff       	callq  40470a <_ZNSt12_Vector_baseIhSaIhEE19_M_get_Tp_allocatorEv>
  40bcb4:	48 89 c1             	mov    %rax,%rcx
  40bcb7:	48 8b 55 b8          	mov    -0x48(%rbp),%rdx
  40bcbb:	48 8b 75 90          	mov    -0x70(%rbp),%rsi
  40bcbf:	48 8b 45 98          	mov    -0x68(%rbp),%rax
  40bcc3:	48 89 c7             	mov    %rax,%rdi
  40bcc6:	e8 cc 0c 00 00       	callq  40c997 <_ZSt22__uninitialized_copy_aIPKcPhhET0_T_S4_S3_RSaIT1_E>
  40bccb:	48 89 45 b8          	mov    %rax,-0x48(%rbp)
  40bccf:	48 8b 45 a8          	mov    -0x58(%rbp),%rax
  40bcd3:	48 89 c7             	mov    %rax,%rdi
  40bcd6:	e8 2f 8a ff ff       	callq  40470a <_ZNSt12_Vector_baseIhSaIhEE19_M_get_Tp_allocatorEv>
  40bcdb:	49 89 c4             	mov    %rax,%r12
  40bcde:	48 8b 45 a8          	mov    -0x58(%rbp),%rax
  40bce2:	48 8b 58 08          	mov    0x8(%rax),%rbx
  40bce6:	48 8d 45 a0          	lea    -0x60(%rbp),%rax
  40bcea:	48 89 c7             	mov    %rax,%rdi
  40bced:	e8 ca f6 ff ff       	callq  40b3bc <_ZNK9__gnu_cxx17__normal_iteratorIPhSt6vectorIhSaIhEEE4baseEv>
  40bcf2:	48 8b 00             	mov    (%rax),%rax
  40bcf5:	48 8b 55 b8          	mov    -0x48(%rbp),%rdx
  40bcf9:	4c 89 e1             	mov    %r12,%rcx
  40bcfc:	48 89 de             	mov    %rbx,%rsi
  40bcff:	48 89 c7             	mov    %rax,%rdi
  40bd02:	e8 fc ac ff ff       	callq  406a03 <_ZSt34__uninitialized_move_if_noexcept_aIPhS0_SaIhEET0_T_S3_S2_RT1_>
  40bd07:	48 89 45 b8          	mov    %rax,-0x48(%rbp)
  40bd0b:	48 8b 45 a8          	mov    -0x58(%rbp),%rax
  40bd0f:	48 89 c7             	mov    %rax,%rdi
  40bd12:	e8 f3 89 ff ff       	callq  40470a <_ZNSt12_Vector_baseIhSaIhEE19_M_get_Tp_allocatorEv>
  40bd17:	48 89 c2             	mov    %rax,%rdx
  40bd1a:	48 8b 45 a8          	mov    -0x58(%rbp),%rax
  40bd1e:	48 8b 48 08          	mov    0x8(%rax),%rcx
  40bd22:	48 8b 45 a8          	mov    -0x58(%rbp),%rax
  40bd26:	48 8b 00             	mov    (%rax),%rax
  40bd29:	48 89 ce             	mov    %rcx,%rsi
  40bd2c:	48 89 c7             	mov    %rax,%rdi
  40bd2f:	e8 e4 89 ff ff       	callq  404718 <_ZSt8_DestroyIPhhEvT_S1_RSaIT0_E>
  40bd34:	48 8b 45 a8          	mov    -0x58(%rbp),%rax
  40bd38:	48 8b 40 10          	mov    0x10(%rax),%rax
  40bd3c:	48 89 c2             	mov    %rax,%rdx
  40bd3f:	48 8b 45 a8          	mov    -0x58(%rbp),%rax
  40bd43:	48 8b 00             	mov    (%rax),%rax
  40bd46:	48 29 c2             	sub    %rax,%rdx
  40bd49:	48 89 d0             	mov    %rdx,%rax
  40bd4c:	48 89 c2             	mov    %rax,%rdx
  40bd4f:	48 8b 45 a8          	mov    -0x58(%rbp),%rax
  40bd53:	48 8b 08             	mov    (%rax),%rcx
  40bd56:	48 8b 45 a8          	mov    -0x58(%rbp),%rax
  40bd5a:	48 89 ce             	mov    %rcx,%rsi
  40bd5d:	48 89 c7             	mov    %rax,%rdi
  40bd60:	e8 d3 90 ff ff       	callq  404e38 <_ZNSt12_Vector_baseIhSaIhEE13_M_deallocateEPhm>
  40bd65:	48 8b 45 a8          	mov    -0x58(%rbp),%rax
  40bd69:	48 8b 55 e0          	mov    -0x20(%rbp),%rdx
  40bd6d:	48 89 10             	mov    %rdx,(%rax)
  40bd70:	48 8b 45 a8          	mov    -0x58(%rbp),%rax
  40bd74:	48 8b 55 b8          	mov    -0x48(%rbp),%rdx
  40bd78:	48 89 50 08          	mov    %rdx,0x8(%rax)
  40bd7c:	48 8b 55 e0          	mov    -0x20(%rbp),%rdx
  40bd80:	48 8b 45 d8          	mov    -0x28(%rbp),%rax
  40bd84:	48 01 c2             	add    %rax,%rdx
  40bd87:	48 8b 45 a8          	mov    -0x58(%rbp),%rax
  40bd8b:	48 89 50 10          	mov    %rdx,0x10(%rax)
  40bd8f:	eb 59                	jmp    40bdea <_ZNSt6vectorIhSaIhEE15_M_range_insertIPKcEEvN9__gnu_cxx17__normal_iteratorIPhS1_EET_S9_St20forward_iterator_tag+0x3d0>
  40bd91:	48 89 c7             	mov    %rax,%rdi
  40bd94:	e8 d7 6d ff ff       	callq  402b70 <__cxa_begin_catch@plt>
  40bd99:	48 8b 45 a8          	mov    -0x58(%rbp),%rax
  40bd9d:	48 89 c7             	mov    %rax,%rdi
  40bda0:	e8 65 89 ff ff       	callq  40470a <_ZNSt12_Vector_baseIhSaIhEE19_M_get_Tp_allocatorEv>
  40bda5:	48 89 c2             	mov    %rax,%rdx
  40bda8:	48 8b 4d b8          	mov    -0x48(%rbp),%rcx
  40bdac:	48 8b 45 e0          	mov    -0x20(%rbp),%rax
  40bdb0:	48 89 ce             	mov    %rcx,%rsi
  40bdb3:	48 89 c7             	mov    %rax,%rdi
  40bdb6:	e8 5d 89 ff ff       	callq  404718 <_ZSt8_DestroyIPhhEvT_S1_RSaIT0_E>
  40bdbb:	48 8b 45 a8          	mov    -0x58(%rbp),%rax
  40bdbf:	48 8b 55 d8          	mov    -0x28(%rbp),%rdx
  40bdc3:	48 8b 4d e0          	mov    -0x20(%rbp),%rcx
  40bdc7:	48 89 ce             	mov    %rcx,%rsi
  40bdca:	48 89 c7             	mov    %rax,%rdi
  40bdcd:	e8 66 90 ff ff       	callq  404e38 <_ZNSt12_Vector_baseIhSaIhEE13_M_deallocateEPhm>
  40bdd2:	e8 d9 70 ff ff       	callq  402eb0 <__cxa_rethrow@plt>
  40bdd7:	48 89 c3             	mov    %rax,%rbx
  40bdda:	e8 51 71 ff ff       	callq  402f30 <__cxa_end_catch@plt>
  40bddf:	48 89 d8             	mov    %rbx,%rax
  40bde2:	48 89 c7             	mov    %rax,%rdi
  40bde5:	e8 d6 71 ff ff       	callq  402fc0 <_Unwind_Resume@plt>
  40bdea:	90                   	nop
  40bdeb:	48 8b 45 e8          	mov    -0x18(%rbp),%rax
  40bdef:	64 48 33 04 25 28 00 	xor    %fs:0x28,%rax
  40bdf6:	00 00 
  40bdf8:	74 05                	je     40bdff <_ZNSt6vectorIhSaIhEE15_M_range_insertIPKcEEvN9__gnu_cxx17__normal_iteratorIPhS1_EET_S9_St20forward_iterator_tag+0x3e5>
  40bdfa:	e8 11 70 ff ff       	callq  402e10 <__stack_chk_fail@plt>
  40bdff:	48 83 c4 60          	add    $0x60,%rsp
  40be03:	5b                   	pop    %rbx
  40be04:	41 5c                	pop    %r12
  40be06:	5d                   	pop    %rbp
  40be07:	c3                   	retq   

000000000040be08 <_ZNSt6vectorIhSaIhEE15_M_range_insertIPcEEvN9__gnu_cxx17__normal_iteratorIPhS1_EET_S8_St20forward_iterator_tag>:
  40be08:	55                   	push   %rbp
  40be09:	48 89 e5             	mov    %rsp,%rbp
  40be0c:	41 54                	push   %r12
  40be0e:	53                   	push   %rbx
  40be0f:	48 83 ec 60          	sub    $0x60,%rsp
  40be13:	48 89 7d a8          	mov    %rdi,-0x58(%rbp)
  40be17:	48 89 75 a0          	mov    %rsi,-0x60(%rbp)
  40be1b:	48 89 55 98          	mov    %rdx,-0x68(%rbp)
  40be1f:	48 89 4d 90          	mov    %rcx,-0x70(%rbp)
  40be23:	64 48 8b 04 25 28 00 	mov    %fs:0x28,%rax
  40be2a:	00 00 
  40be2c:	48 89 45 e8          	mov    %rax,-0x18(%rbp)
  40be30:	31 c0                	xor    %eax,%eax
  40be32:	48 8b 45 98          	mov    -0x68(%rbp),%rax
  40be36:	48 3b 45 90          	cmp    -0x70(%rbp),%rax
  40be3a:	0f 84 98 03 00 00    	je     40c1d8 <_ZNSt6vectorIhSaIhEE15_M_range_insertIPcEEvN9__gnu_cxx17__normal_iteratorIPhS1_EET_S8_St20forward_iterator_tag+0x3d0>
  40be40:	48 8b 55 90          	mov    -0x70(%rbp),%rdx
  40be44:	48 8b 45 98          	mov    -0x68(%rbp),%rax
  40be48:	48 89 d6             	mov    %rdx,%rsi
  40be4b:	48 89 c7             	mov    %rax,%rdi
  40be4e:	e8 75 0b 00 00       	callq  40c9c8 <_ZSt8distanceIPcENSt15iterator_traitsIT_E15difference_typeES2_S2_>
  40be53:	48 89 45 c0          	mov    %rax,-0x40(%rbp)
  40be57:	48 8b 45 a8          	mov    -0x58(%rbp),%rax
  40be5b:	48 8b 40 10          	mov    0x10(%rax),%rax
  40be5f:	48 89 c2             	mov    %rax,%rdx
  40be62:	48 8b 45 a8          	mov    -0x58(%rbp),%rax
  40be66:	48 8b 40 08          	mov    0x8(%rax),%rax
  40be6a:	48 29 c2             	sub    %rax,%rdx
  40be6d:	48 89 d0             	mov    %rdx,%rax
  40be70:	48 3b 45 c0          	cmp    -0x40(%rbp),%rax
  40be74:	0f 82 a9 01 00 00    	jb     40c023 <_ZNSt6vectorIhSaIhEE15_M_range_insertIPcEEvN9__gnu_cxx17__normal_iteratorIPhS1_EET_S8_St20forward_iterator_tag+0x21b>
  40be7a:	48 8b 45 a8          	mov    -0x58(%rbp),%rax
  40be7e:	48 89 c7             	mov    %rax,%rdi
  40be81:	e8 f4 ea ff ff       	callq  40a97a <_ZNSt6vectorIhSaIhEE3endEv>
  40be86:	48 89 45 b0          	mov    %rax,-0x50(%rbp)
  40be8a:	48 8d 55 a0          	lea    -0x60(%rbp),%rdx
  40be8e:	48 8d 45 b0          	lea    -0x50(%rbp),%rax
  40be92:	48 89 d6             	mov    %rdx,%rsi
  40be95:	48 89 c7             	mov    %rax,%rdi
  40be98:	e8 64 09 00 00       	callq  40c801 <_ZN9__gnu_cxxmiIPhSt6vectorIhSaIhEEEENS_17__normal_iteratorIT_T0_E15difference_typeERKS8_SB_>
  40be9d:	48 89 45 c8          	mov    %rax,-0x38(%rbp)
  40bea1:	48 8b 45 a8          	mov    -0x58(%rbp),%rax
  40bea5:	48 8b 40 08          	mov    0x8(%rax),%rax
  40bea9:	48 89 45 d0          	mov    %rax,-0x30(%rbp)
  40bead:	48 8b 45 c8          	mov    -0x38(%rbp),%rax
  40beb1:	48 3b 45 c0          	cmp    -0x40(%rbp),%rax
  40beb5:	0f 86 a0 00 00 00    	jbe    40bf5b <_ZNSt6vectorIhSaIhEE15_M_range_insertIPcEEvN9__gnu_cxx17__normal_iteratorIPhS1_EET_S8_St20forward_iterator_tag+0x153>
  40bebb:	48 8b 45 a8          	mov    -0x58(%rbp),%rax
  40bebf:	48 89 c7             	mov    %rax,%rdi
  40bec2:	e8 43 88 ff ff       	callq  40470a <_ZNSt12_Vector_baseIhSaIhEE19_M_get_Tp_allocatorEv>
  40bec7:	49 89 c0             	mov    %rax,%r8
  40beca:	48 8b 45 a8          	mov    -0x58(%rbp),%rax
  40bece:	48 8b 50 08          	mov    0x8(%rax),%rdx
  40bed2:	48 8b 45 a8          	mov    -0x58(%rbp),%rax
  40bed6:	48 8b 40 08          	mov    0x8(%rax),%rax
  40beda:	48 8b 4d a8          	mov    -0x58(%rbp),%rcx
  40bede:	48 8b 49 08          	mov    0x8(%rcx),%rcx
  40bee2:	48 8b 75 c0          	mov    -0x40(%rbp),%rsi
  40bee6:	48 f7 de             	neg    %rsi
  40bee9:	48 8d 3c 31          	lea    (%rcx,%rsi,1),%rdi
  40beed:	4c 89 c1             	mov    %r8,%rcx
  40bef0:	48 89 c6             	mov    %rax,%rsi
  40bef3:	e8 48 09 00 00       	callq  40c840 <_ZSt22__uninitialized_move_aIPhS0_SaIhEET0_T_S3_S2_RT1_>
  40bef8:	48 8b 45 a8          	mov    -0x58(%rbp),%rax
  40befc:	48 8b 50 08          	mov    0x8(%rax),%rdx
  40bf00:	48 8b 45 c0          	mov    -0x40(%rbp),%rax
  40bf04:	48 01 c2             	add    %rax,%rdx
  40bf07:	48 8b 45 a8          	mov    -0x58(%rbp),%rax
  40bf0b:	48 89 50 08          	mov    %rdx,0x8(%rax)
  40bf0f:	48 8b 45 c0          	mov    -0x40(%rbp),%rax
  40bf13:	48 f7 d8             	neg    %rax
  40bf16:	48 89 c2             	mov    %rax,%rdx
  40bf19:	48 8b 45 d0          	mov    -0x30(%rbp),%rax
  40bf1d:	48 8d 1c 02          	lea    (%rdx,%rax,1),%rbx
  40bf21:	48 8d 45 a0          	lea    -0x60(%rbp),%rax
  40bf25:	48 89 c7             	mov    %rax,%rdi
  40bf28:	e8 8f f4 ff ff       	callq  40b3bc <_ZNK9__gnu_cxx17__normal_iteratorIPhSt6vectorIhSaIhEEE4baseEv>
  40bf2d:	48 8b 00             	mov    (%rax),%rax
  40bf30:	48 8b 55 d0          	mov    -0x30(%rbp),%rdx
  40bf34:	48 89 de             	mov    %rbx,%rsi
  40bf37:	48 89 c7             	mov    %rax,%rdi
  40bf3a:	e8 55 09 00 00       	callq  40c894 <_ZSt13move_backwardIPhS0_ET0_T_S2_S1_>
  40bf3f:	48 8b 55 a0          	mov    -0x60(%rbp),%rdx
  40bf43:	48 8b 4d 90          	mov    -0x70(%rbp),%rcx
  40bf47:	48 8b 45 98          	mov    -0x68(%rbp),%rax
  40bf4b:	48 89 ce             	mov    %rcx,%rsi
  40bf4e:	48 89 c7             	mov    %rax,%rdi
  40bf51:	e8 d4 0a 00 00       	callq  40ca2a <_ZSt4copyIPcN9__gnu_cxx17__normal_iteratorIPhSt6vectorIhSaIhEEEEET0_T_S9_S8_>
  40bf56:	e9 7d 02 00 00       	jmpq   40c1d8 <_ZNSt6vectorIhSaIhEE15_M_range_insertIPcEEvN9__gnu_cxx17__normal_iteratorIPhS1_EET_S8_St20forward_iterator_tag+0x3d0>
  40bf5b:	48 8b 45 98          	mov    -0x68(%rbp),%rax
  40bf5f:	48 89 45 b0          	mov    %rax,-0x50(%rbp)
  40bf63:	48 8b 55 c8          	mov    -0x38(%rbp),%rdx
  40bf67:	48 8d 45 b0          	lea    -0x50(%rbp),%rax
  40bf6b:	48 89 d6             	mov    %rdx,%rsi
  40bf6e:	48 89 c7             	mov    %rax,%rdi
  40bf71:	e8 00 0b 00 00       	callq  40ca76 <_ZSt7advanceIPcmEvRT_T0_>
  40bf76:	48 8b 45 a8          	mov    -0x58(%rbp),%rax
  40bf7a:	48 89 c7             	mov    %rax,%rdi
  40bf7d:	e8 88 87 ff ff       	callq  40470a <_ZNSt12_Vector_baseIhSaIhEE19_M_get_Tp_allocatorEv>
  40bf82:	48 89 c1             	mov    %rax,%rcx
  40bf85:	48 8b 45 a8          	mov    -0x58(%rbp),%rax
  40bf89:	48 8b 50 08          	mov    0x8(%rax),%rdx
  40bf8d:	48 8b 45 b0          	mov    -0x50(%rbp),%rax
  40bf91:	48 8b 75 90          	mov    -0x70(%rbp),%rsi
  40bf95:	48 89 c7             	mov    %rax,%rdi
  40bf98:	e8 44 0b 00 00       	callq  40cae1 <_ZSt22__uninitialized_copy_aIPcPhhET0_T_S3_S2_RSaIT1_E>
  40bf9d:	48 8b 45 a8          	mov    -0x58(%rbp),%rax
  40bfa1:	48 8b 50 08          	mov    0x8(%rax),%rdx
  40bfa5:	48 8b 45 c0          	mov    -0x40(%rbp),%rax
  40bfa9:	48 2b 45 c8          	sub    -0x38(%rbp),%rax
  40bfad:	48 01 c2             	add    %rax,%rdx
  40bfb0:	48 8b 45 a8          	mov    -0x58(%rbp),%rax
  40bfb4:	48 89 50 08          	mov    %rdx,0x8(%rax)
  40bfb8:	48 8b 45 a8          	mov    -0x58(%rbp),%rax
  40bfbc:	48 89 c7             	mov    %rax,%rdi
  40bfbf:	e8 46 87 ff ff       	callq  40470a <_ZNSt12_Vector_baseIhSaIhEE19_M_get_Tp_allocatorEv>
  40bfc4:	49 89 c4             	mov    %rax,%r12
  40bfc7:	48 8b 45 a8          	mov    -0x58(%rbp),%rax
  40bfcb:	48 8b 58 08          	mov    0x8(%rax),%rbx
  40bfcf:	48 8d 45 a0          	lea    -0x60(%rbp),%rax
  40bfd3:	48 89 c7             	mov    %rax,%rdi
  40bfd6:	e8 e1 f3 ff ff       	callq  40b3bc <_ZNK9__gnu_cxx17__normal_iteratorIPhSt6vectorIhSaIhEEE4baseEv>
  40bfdb:	48 8b 00             	mov    (%rax),%rax
  40bfde:	48 8b 75 d0          	mov    -0x30(%rbp),%rsi
  40bfe2:	4c 89 e1             	mov    %r12,%rcx
  40bfe5:	48 89 da             	mov    %rbx,%rdx
  40bfe8:	48 89 c7             	mov    %rax,%rdi
  40bfeb:	e8 50 08 00 00       	callq  40c840 <_ZSt22__uninitialized_move_aIPhS0_SaIhEET0_T_S3_S2_RT1_>
  40bff0:	48 8b 45 a8          	mov    -0x58(%rbp),%rax
  40bff4:	48 8b 50 08          	mov    0x8(%rax),%rdx
  40bff8:	48 8b 45 c8          	mov    -0x38(%rbp),%rax
  40bffc:	48 01 c2             	add    %rax,%rdx
  40bfff:	48 8b 45 a8          	mov    -0x58(%rbp),%rax
  40c003:	48 89 50 08          	mov    %rdx,0x8(%rax)
  40c007:	48 8b 4d b0          	mov    -0x50(%rbp),%rcx
  40c00b:	48 8b 55 a0          	mov    -0x60(%rbp),%rdx
  40c00f:	48 8b 45 98          	mov    -0x68(%rbp),%rax
  40c013:	48 89 ce             	mov    %rcx,%rsi
  40c016:	48 89 c7             	mov    %rax,%rdi
  40c019:	e8 0c 0a 00 00       	callq  40ca2a <_ZSt4copyIPcN9__gnu_cxx17__normal_iteratorIPhSt6vectorIhSaIhEEEEET0_T_S9_S8_>
  40c01e:	e9 b5 01 00 00       	jmpq   40c1d8 <_ZNSt6vectorIhSaIhEE15_M_range_insertIPcEEvN9__gnu_cxx17__normal_iteratorIPhS1_EET_S8_St20forward_iterator_tag+0x3d0>
  40c023:	48 8b 4d c0          	mov    -0x40(%rbp),%rcx
  40c027:	48 8b 45 a8          	mov    -0x58(%rbp),%rax
  40c02b:	ba c3 df 40 00       	mov    $0x40dfc3,%edx
  40c030:	48 89 ce             	mov    %rcx,%rsi
  40c033:	48 89 c7             	mov    %rax,%rdi
  40c036:	e8 a9 a8 ff ff       	callq  4068e4 <_ZNKSt6vectorIhSaIhEE12_M_check_lenEmPKc>
  40c03b:	48 89 45 d8          	mov    %rax,-0x28(%rbp)
  40c03f:	48 8b 45 a8          	mov    -0x58(%rbp),%rax
  40c043:	48 8b 55 d8          	mov    -0x28(%rbp),%rdx
  40c047:	48 89 d6             	mov    %rdx,%rsi
  40c04a:	48 89 c7             	mov    %rax,%rdi
  40c04d:	e8 7e a9 ff ff       	callq  4069d0 <_ZNSt12_Vector_baseIhSaIhEE11_M_allocateEm>
  40c052:	48 89 45 e0          	mov    %rax,-0x20(%rbp)
  40c056:	48 8b 45 e0          	mov    -0x20(%rbp),%rax
  40c05a:	48 89 45 b8          	mov    %rax,-0x48(%rbp)
  40c05e:	48 8b 45 a8          	mov    -0x58(%rbp),%rax
  40c062:	48 89 c7             	mov    %rax,%rdi
  40c065:	e8 a0 86 ff ff       	callq  40470a <_ZNSt12_Vector_baseIhSaIhEE19_M_get_Tp_allocatorEv>
  40c06a:	48 89 c3             	mov    %rax,%rbx
  40c06d:	48 8d 45 a0          	lea    -0x60(%rbp),%rax
  40c071:	48 89 c7             	mov    %rax,%rdi
  40c074:	e8 43 f3 ff ff       	callq  40b3bc <_ZNK9__gnu_cxx17__normal_iteratorIPhSt6vectorIhSaIhEEE4baseEv>
  40c079:	48 8b 30             	mov    (%rax),%rsi
  40c07c:	48 8b 45 a8          	mov    -0x58(%rbp),%rax
  40c080:	48 8b 00             	mov    (%rax),%rax
  40c083:	48 8b 55 e0          	mov    -0x20(%rbp),%rdx
  40c087:	48 89 d9             	mov    %rbx,%rcx
  40c08a:	48 89 c7             	mov    %rax,%rdi
  40c08d:	e8 71 a9 ff ff       	callq  406a03 <_ZSt34__uninitialized_move_if_noexcept_aIPhS0_SaIhEET0_T_S3_S2_RT1_>
  40c092:	48 89 45 b8          	mov    %rax,-0x48(%rbp)
  40c096:	48 8b 45 a8          	mov    -0x58(%rbp),%rax
  40c09a:	48 89 c7             	mov    %rax,%rdi
  40c09d:	e8 68 86 ff ff       	callq  40470a <_ZNSt12_Vector_baseIhSaIhEE19_M_get_Tp_allocatorEv>
  40c0a2:	48 89 c1             	mov    %rax,%rcx
  40c0a5:	48 8b 55 b8          	mov    -0x48(%rbp),%rdx
  40c0a9:	48 8b 75 90          	mov    -0x70(%rbp),%rsi
  40c0ad:	48 8b 45 98          	mov    -0x68(%rbp),%rax
  40c0b1:	48 89 c7             	mov    %rax,%rdi
  40c0b4:	e8 28 0a 00 00       	callq  40cae1 <_ZSt22__uninitialized_copy_aIPcPhhET0_T_S3_S2_RSaIT1_E>
  40c0b9:	48 89 45 b8          	mov    %rax,-0x48(%rbp)
  40c0bd:	48 8b 45 a8          	mov    -0x58(%rbp),%rax
  40c0c1:	48 89 c7             	mov    %rax,%rdi
  40c0c4:	e8 41 86 ff ff       	callq  40470a <_ZNSt12_Vector_baseIhSaIhEE19_M_get_Tp_allocatorEv>
  40c0c9:	49 89 c4             	mov    %rax,%r12
  40c0cc:	48 8b 45 a8          	mov    -0x58(%rbp),%rax
  40c0d0:	48 8b 58 08          	mov    0x8(%rax),%rbx
  40c0d4:	48 8d 45 a0          	lea    -0x60(%rbp),%rax
  40c0d8:	48 89 c7             	mov    %rax,%rdi
  40c0db:	e8 dc f2 ff ff       	callq  40b3bc <_ZNK9__gnu_cxx17__normal_iteratorIPhSt6vectorIhSaIhEEE4baseEv>
  40c0e0:	48 8b 00             	mov    (%rax),%rax
  40c0e3:	48 8b 55 b8          	mov    -0x48(%rbp),%rdx
  40c0e7:	4c 89 e1             	mov    %r12,%rcx
  40c0ea:	48 89 de             	mov    %rbx,%rsi
  40c0ed:	48 89 c7             	mov    %rax,%rdi
  40c0f0:	e8 0e a9 ff ff       	callq  406a03 <_ZSt34__uninitialized_move_if_noexcept_aIPhS0_SaIhEET0_T_S3_S2_RT1_>
  40c0f5:	48 89 45 b8          	mov    %rax,-0x48(%rbp)
  40c0f9:	48 8b 45 a8          	mov    -0x58(%rbp),%rax
  40c0fd:	48 89 c7             	mov    %rax,%rdi
  40c100:	e8 05 86 ff ff       	callq  40470a <_ZNSt12_Vector_baseIhSaIhEE19_M_get_Tp_allocatorEv>
  40c105:	48 89 c2             	mov    %rax,%rdx
  40c108:	48 8b 45 a8          	mov    -0x58(%rbp),%rax
  40c10c:	48 8b 48 08          	mov    0x8(%rax),%rcx
  40c110:	48 8b 45 a8          	mov    -0x58(%rbp),%rax
  40c114:	48 8b 00             	mov    (%rax),%rax
  40c117:	48 89 ce             	mov    %rcx,%rsi
  40c11a:	48 89 c7             	mov    %rax,%rdi
  40c11d:	e8 f6 85 ff ff       	callq  404718 <_ZSt8_DestroyIPhhEvT_S1_RSaIT0_E>
  40c122:	48 8b 45 a8          	mov    -0x58(%rbp),%rax
  40c126:	48 8b 40 10          	mov    0x10(%rax),%rax
  40c12a:	48 89 c2             	mov    %rax,%rdx
  40c12d:	48 8b 45 a8          	mov    -0x58(%rbp),%rax
  40c131:	48 8b 00             	mov    (%rax),%rax
  40c134:	48 29 c2             	sub    %rax,%rdx
  40c137:	48 89 d0             	mov    %rdx,%rax
  40c13a:	48 89 c2             	mov    %rax,%rdx
  40c13d:	48 8b 45 a8          	mov    -0x58(%rbp),%rax
  40c141:	48 8b 08             	mov    (%rax),%rcx
  40c144:	48 8b 45 a8          	mov    -0x58(%rbp),%rax
  40c148:	48 89 ce             	mov    %rcx,%rsi
  40c14b:	48 89 c7             	mov    %rax,%rdi
  40c14e:	e8 e5 8c ff ff       	callq  404e38 <_ZNSt12_Vector_baseIhSaIhEE13_M_deallocateEPhm>
  40c153:	48 8b 45 a8          	mov    -0x58(%rbp),%rax
  40c157:	48 8b 55 e0          	mov    -0x20(%rbp),%rdx
  40c15b:	48 89 10             	mov    %rdx,(%rax)
  40c15e:	48 8b 45 a8          	mov    -0x58(%rbp),%rax
  40c162:	48 8b 55 b8          	mov    -0x48(%rbp),%rdx
  40c166:	48 89 50 08          	mov    %rdx,0x8(%rax)
  40c16a:	48 8b 55 e0          	mov    -0x20(%rbp),%rdx
  40c16e:	48 8b 45 d8          	mov    -0x28(%rbp),%rax
  40c172:	48 01 c2             	add    %rax,%rdx
  40c175:	48 8b 45 a8          	mov    -0x58(%rbp),%rax
  40c179:	48 89 50 10          	mov    %rdx,0x10(%rax)
  40c17d:	eb 59                	jmp    40c1d8 <_ZNSt6vectorIhSaIhEE15_M_range_insertIPcEEvN9__gnu_cxx17__normal_iteratorIPhS1_EET_S8_St20forward_iterator_tag+0x3d0>
  40c17f:	48 89 c7             	mov    %rax,%rdi
  40c182:	e8 e9 69 ff ff       	callq  402b70 <__cxa_begin_catch@plt>
  40c187:	48 8b 45 a8          	mov    -0x58(%rbp),%rax
  40c18b:	48 89 c7             	mov    %rax,%rdi
  40c18e:	e8 77 85 ff ff       	callq  40470a <_ZNSt12_Vector_baseIhSaIhEE19_M_get_Tp_allocatorEv>
  40c193:	48 89 c2             	mov    %rax,%rdx
  40c196:	48 8b 4d b8          	mov    -0x48(%rbp),%rcx
  40c19a:	48 8b 45 e0          	mov    -0x20(%rbp),%rax
  40c19e:	48 89 ce             	mov    %rcx,%rsi
  40c1a1:	48 89 c7             	mov    %rax,%rdi
  40c1a4:	e8 6f 85 ff ff       	callq  404718 <_ZSt8_DestroyIPhhEvT_S1_RSaIT0_E>
  40c1a9:	48 8b 45 a8          	mov    -0x58(%rbp),%rax
  40c1ad:	48 8b 55 d8          	mov    -0x28(%rbp),%rdx
  40c1b1:	48 8b 4d e0          	mov    -0x20(%rbp),%rcx
  40c1b5:	48 89 ce             	mov    %rcx,%rsi
  40c1b8:	48 89 c7             	mov    %rax,%rdi
  40c1bb:	e8 78 8c ff ff       	callq  404e38 <_ZNSt12_Vector_baseIhSaIhEE13_M_deallocateEPhm>
  40c1c0:	e8 eb 6c ff ff       	callq  402eb0 <__cxa_rethrow@plt>
  40c1c5:	48 89 c3             	mov    %rax,%rbx
  40c1c8:	e8 63 6d ff ff       	callq  402f30 <__cxa_end_catch@plt>
  40c1cd:	48 89 d8             	mov    %rbx,%rax
  40c1d0:	48 89 c7             	mov    %rax,%rdi
  40c1d3:	e8 e8 6d ff ff       	callq  402fc0 <_Unwind_Resume@plt>
  40c1d8:	90                   	nop
  40c1d9:	48 8b 45 e8          	mov    -0x18(%rbp),%rax
  40c1dd:	64 48 33 04 25 28 00 	xor    %fs:0x28,%rax
  40c1e4:	00 00 
  40c1e6:	74 05                	je     40c1ed <_ZNSt6vectorIhSaIhEE15_M_range_insertIPcEEvN9__gnu_cxx17__normal_iteratorIPhS1_EET_S8_St20forward_iterator_tag+0x3e5>
  40c1e8:	e8 23 6c ff ff       	callq  402e10 <__stack_chk_fail@plt>
  40c1ed:	48 83 c4 60          	add    $0x60,%rsp
  40c1f1:	5b                   	pop    %rbx
  40c1f2:	41 5c                	pop    %r12
  40c1f4:	5d                   	pop    %rbp
  40c1f5:	c3                   	retq   

000000000040c1f6 <_ZNSt12_Vector_baseISt4pairISt6threadbESaIS2_EE12_Vector_implC1Ev>:
  40c1f6:	55                   	push   %rbp
  40c1f7:	48 89 e5             	mov    %rsp,%rbp
  40c1fa:	48 83 ec 10          	sub    $0x10,%rsp
  40c1fe:	48 89 7d f8          	mov    %rdi,-0x8(%rbp)
  40c202:	48 8b 45 f8          	mov    -0x8(%rbp),%rax
  40c206:	48 89 c7             	mov    %rax,%rdi
  40c209:	e8 04 09 00 00       	callq  40cb12 <_ZNSaISt4pairISt6threadbEEC1Ev>
  40c20e:	48 8b 45 f8          	mov    -0x8(%rbp),%rax
  40c212:	48 c7 00 00 00 00 00 	movq   $0x0,(%rax)
  40c219:	48 8b 45 f8          	mov    -0x8(%rbp),%rax
  40c21d:	48 c7 40 08 00 00 00 	movq   $0x0,0x8(%rax)
  40c224:	00 
  40c225:	48 8b 45 f8          	mov    -0x8(%rbp),%rax
  40c229:	48 c7 40 10 00 00 00 	movq   $0x0,0x10(%rax)
  40c230:	00 
  40c231:	90                   	nop
  40c232:	c9                   	leaveq 
  40c233:	c3                   	retq   

000000000040c234 <_ZNSaISt4pairISt6threadbEED1Ev>:
  40c234:	55                   	push   %rbp
  40c235:	48 89 e5             	mov    %rsp,%rbp
  40c238:	48 83 ec 10          	sub    $0x10,%rsp
  40c23c:	48 89 7d f8          	mov    %rdi,-0x8(%rbp)
  40c240:	48 8b 45 f8          	mov    -0x8(%rbp),%rax
  40c244:	48 89 c7             	mov    %rax,%rdi
  40c247:	e8 e2 08 00 00       	callq  40cb2e <_ZN9__gnu_cxx13new_allocatorISt4pairISt6threadbEED1Ev>
  40c24c:	90                   	nop
  40c24d:	c9                   	leaveq 
  40c24e:	c3                   	retq   
  40c24f:	90                   	nop

000000000040c250 <_ZNSt12_Vector_baseISt4pairISt6threadbESaIS2_EE13_M_deallocateEPS2_m>:
  40c250:	55                   	push   %rbp
  40c251:	48 89 e5             	mov    %rsp,%rbp
  40c254:	48 83 ec 20          	sub    $0x20,%rsp
  40c258:	48 89 7d f8          	mov    %rdi,-0x8(%rbp)
  40c25c:	48 89 75 f0          	mov    %rsi,-0x10(%rbp)
  40c260:	48 89 55 e8          	mov    %rdx,-0x18(%rbp)
  40c264:	48 83 7d f0 00       	cmpq   $0x0,-0x10(%rbp)
  40c269:	74 17                	je     40c282 <_ZNSt12_Vector_baseISt4pairISt6threadbESaIS2_EE13_M_deallocateEPS2_m+0x32>
  40c26b:	48 8b 45 f8          	mov    -0x8(%rbp),%rax
  40c26f:	48 8b 55 e8          	mov    -0x18(%rbp),%rdx
  40c273:	48 8b 4d f0          	mov    -0x10(%rbp),%rcx
  40c277:	48 89 ce             	mov    %rcx,%rsi
  40c27a:	48 89 c7             	mov    %rax,%rdi
  40c27d:	e8 b7 08 00 00       	callq  40cb39 <_ZNSt16allocator_traitsISaISt4pairISt6threadbEEE10deallocateERS3_PS2_m>
  40c282:	90                   	nop
  40c283:	c9                   	leaveq 
  40c284:	c3                   	retq   

000000000040c285 <_ZSt8_DestroyIPSt4pairISt6threadbEEvT_S4_>:
  40c285:	55                   	push   %rbp
  40c286:	48 89 e5             	mov    %rsp,%rbp
  40c289:	48 83 ec 10          	sub    $0x10,%rsp
  40c28d:	48 89 7d f8          	mov    %rdi,-0x8(%rbp)
  40c291:	48 89 75 f0          	mov    %rsi,-0x10(%rbp)
  40c295:	48 8b 55 f0          	mov    -0x10(%rbp),%rdx
  40c299:	48 8b 45 f8          	mov    -0x8(%rbp),%rax
  40c29d:	48 89 d6             	mov    %rdx,%rsi
  40c2a0:	48 89 c7             	mov    %rax,%rdi
  40c2a3:	e8 bf 08 00 00       	callq  40cb67 <_ZNSt12_Destroy_auxILb0EE9__destroyIPSt4pairISt6threadbEEEvT_S6_>
  40c2a8:	90                   	nop
  40c2a9:	c9                   	leaveq 
  40c2aa:	c3                   	retq   
  40c2ab:	90                   	nop

000000000040c2ac <_ZNKSt6vectorISt4pairISt6threadbESaIS2_EE12_M_check_lenEmPKc>:
  40c2ac:	55                   	push   %rbp
  40c2ad:	48 89 e5             	mov    %rsp,%rbp
  40c2b0:	53                   	push   %rbx
  40c2b1:	48 83 ec 48          	sub    $0x48,%rsp
  40c2b5:	48 89 7d c8          	mov    %rdi,-0x38(%rbp)
  40c2b9:	48 89 75 c0          	mov    %rsi,-0x40(%rbp)
  40c2bd:	48 89 55 b8          	mov    %rdx,-0x48(%rbp)
  40c2c1:	64 48 8b 04 25 28 00 	mov    %fs:0x28,%rax
  40c2c8:	00 00 
  40c2ca:	48 89 45 e8          	mov    %rax,-0x18(%rbp)
  40c2ce:	31 c0                	xor    %eax,%eax
  40c2d0:	48 8b 45 c8          	mov    -0x38(%rbp),%rax
  40c2d4:	48 89 c7             	mov    %rax,%rdi
  40c2d7:	e8 e0 08 00 00       	callq  40cbbc <_ZNKSt6vectorISt4pairISt6threadbESaIS2_EE8max_sizeEv>
  40c2dc:	48 89 c3             	mov    %rax,%rbx
  40c2df:	48 8b 45 c8          	mov    -0x38(%rbp),%rax
  40c2e3:	48 89 c7             	mov    %rax,%rdi
  40c2e6:	e8 e1 00 00 00       	callq  40c3cc <_ZNKSt6vectorISt4pairISt6threadbESaIS2_EE4sizeEv>
  40c2eb:	48 29 c3             	sub    %rax,%rbx
  40c2ee:	48 89 da             	mov    %rbx,%rdx
  40c2f1:	48 8b 45 c0          	mov    -0x40(%rbp),%rax
  40c2f5:	48 39 c2             	cmp    %rax,%rdx
  40c2f8:	0f 92 c0             	setb   %al
  40c2fb:	84 c0                	test   %al,%al
  40c2fd:	74 0c                	je     40c30b <_ZNKSt6vectorISt4pairISt6threadbESaIS2_EE12_M_check_lenEmPKc+0x5f>
  40c2ff:	48 8b 45 b8          	mov    -0x48(%rbp),%rax
  40c303:	48 89 c7             	mov    %rax,%rdi
  40c306:	e8 d5 68 ff ff       	callq  402be0 <_ZSt20__throw_length_errorPKc@plt>
  40c30b:	48 8b 45 c8          	mov    -0x38(%rbp),%rax
  40c30f:	48 89 c7             	mov    %rax,%rdi
  40c312:	e8 b5 00 00 00       	callq  40c3cc <_ZNKSt6vectorISt4pairISt6threadbESaIS2_EE4sizeEv>
  40c317:	48 89 c3             	mov    %rax,%rbx
  40c31a:	48 8b 45 c8          	mov    -0x38(%rbp),%rax
  40c31e:	48 89 c7             	mov    %rax,%rdi
  40c321:	e8 a6 00 00 00       	callq  40c3cc <_ZNKSt6vectorISt4pairISt6threadbESaIS2_EE4sizeEv>
  40c326:	48 89 45 d8          	mov    %rax,-0x28(%rbp)
  40c32a:	48 8d 55 c0          	lea    -0x40(%rbp),%rdx
  40c32e:	48 8d 45 d8          	lea    -0x28(%rbp),%rax
  40c332:	48 89 d6             	mov    %rdx,%rsi
  40c335:	48 89 c7             	mov    %rax,%rdi
  40c338:	e8 7b a5 ff ff       	callq  4068b8 <_ZSt3maxImERKT_S2_S2_>
  40c33d:	48 8b 00             	mov    (%rax),%rax
  40c340:	48 01 d8             	add    %rbx,%rax
  40c343:	48 89 45 e0          	mov    %rax,-0x20(%rbp)
  40c347:	48 8b 45 c8          	mov    -0x38(%rbp),%rax
  40c34b:	48 89 c7             	mov    %rax,%rdi
  40c34e:	e8 79 00 00 00       	callq  40c3cc <_ZNKSt6vectorISt4pairISt6threadbESaIS2_EE4sizeEv>
  40c353:	48 3b 45 e0          	cmp    -0x20(%rbp),%rax
  40c357:	77 12                	ja     40c36b <_ZNKSt6vectorISt4pairISt6threadbESaIS2_EE12_M_check_lenEmPKc+0xbf>
  40c359:	48 8b 45 c8          	mov    -0x38(%rbp),%rax
  40c35d:	48 89 c7             	mov    %rax,%rdi
  40c360:	e8 57 08 00 00       	callq  40cbbc <_ZNKSt6vectorISt4pairISt6threadbESaIS2_EE8max_sizeEv>
  40c365:	48 3b 45 e0          	cmp    -0x20(%rbp),%rax
  40c369:	73 0e                	jae    40c379 <_ZNKSt6vectorISt4pairISt6threadbESaIS2_EE12_M_check_lenEmPKc+0xcd>
  40c36b:	48 8b 45 c8          	mov    -0x38(%rbp),%rax
  40c36f:	48 89 c7             	mov    %rax,%rdi
  40c372:	e8 45 08 00 00       	callq  40cbbc <_ZNKSt6vectorISt4pairISt6threadbESaIS2_EE8max_sizeEv>
  40c377:	eb 04                	jmp    40c37d <_ZNKSt6vectorISt4pairISt6threadbESaIS2_EE12_M_check_lenEmPKc+0xd1>
  40c379:	48 8b 45 e0          	mov    -0x20(%rbp),%rax
  40c37d:	48 8b 4d e8          	mov    -0x18(%rbp),%rcx
  40c381:	64 48 33 0c 25 28 00 	xor    %fs:0x28,%rcx
  40c388:	00 00 
  40c38a:	74 05                	je     40c391 <_ZNKSt6vectorISt4pairISt6threadbESaIS2_EE12_M_check_lenEmPKc+0xe5>
  40c38c:	e8 7f 6a ff ff       	callq  402e10 <__stack_chk_fail@plt>
  40c391:	48 83 c4 48          	add    $0x48,%rsp
  40c395:	5b                   	pop    %rbx
  40c396:	5d                   	pop    %rbp
  40c397:	c3                   	retq   

000000000040c398 <_ZNSt12_Vector_baseISt4pairISt6threadbESaIS2_EE11_M_allocateEm>:
  40c398:	55                   	push   %rbp
  40c399:	48 89 e5             	mov    %rsp,%rbp
  40c39c:	48 83 ec 10          	sub    $0x10,%rsp
  40c3a0:	48 89 7d f8          	mov    %rdi,-0x8(%rbp)
  40c3a4:	48 89 75 f0          	mov    %rsi,-0x10(%rbp)
  40c3a8:	48 83 7d f0 00       	cmpq   $0x0,-0x10(%rbp)
  40c3ad:	74 15                	je     40c3c4 <_ZNSt12_Vector_baseISt4pairISt6threadbESaIS2_EE11_M_allocateEm+0x2c>
  40c3af:	48 8b 45 f8          	mov    -0x8(%rbp),%rax
  40c3b3:	48 8b 55 f0          	mov    -0x10(%rbp),%rdx
  40c3b7:	48 89 d6             	mov    %rdx,%rsi
  40c3ba:	48 89 c7             	mov    %rax,%rdi
  40c3bd:	e8 1c 08 00 00       	callq  40cbde <_ZNSt16allocator_traitsISaISt4pairISt6threadbEEE8allocateERS3_m>
  40c3c2:	eb 05                	jmp    40c3c9 <_ZNSt12_Vector_baseISt4pairISt6threadbESaIS2_EE11_M_allocateEm+0x31>
  40c3c4:	b8 00 00 00 00       	mov    $0x0,%eax
  40c3c9:	c9                   	leaveq 
  40c3ca:	c3                   	retq   
  40c3cb:	90                   	nop

000000000040c3cc <_ZNKSt6vectorISt4pairISt6threadbESaIS2_EE4sizeEv>:
  40c3cc:	55                   	push   %rbp
  40c3cd:	48 89 e5             	mov    %rsp,%rbp
  40c3d0:	48 89 7d f8          	mov    %rdi,-0x8(%rbp)
  40c3d4:	48 8b 45 f8          	mov    -0x8(%rbp),%rax
  40c3d8:	48 8b 40 08          	mov    0x8(%rax),%rax
  40c3dc:	48 89 c2             	mov    %rax,%rdx
  40c3df:	48 8b 45 f8          	mov    -0x8(%rbp),%rax
  40c3e3:	48 8b 00             	mov    (%rax),%rax
  40c3e6:	48 29 c2             	sub    %rax,%rdx
  40c3e9:	48 89 d0             	mov    %rdx,%rax
  40c3ec:	48 c1 f8 04          	sar    $0x4,%rax
  40c3f0:	5d                   	pop    %rbp
  40c3f1:	c3                   	retq   

000000000040c3f2 <_ZSt34__uninitialized_move_if_noexcept_aIPSt4pairISt6threadbES3_SaIS2_EET0_T_S6_S5_RT1_>:
  40c3f2:	55                   	push   %rbp
  40c3f3:	48 89 e5             	mov    %rsp,%rbp
  40c3f6:	53                   	push   %rbx
  40c3f7:	48 83 ec 28          	sub    $0x28,%rsp
  40c3fb:	48 89 7d e8          	mov    %rdi,-0x18(%rbp)
  40c3ff:	48 89 75 e0          	mov    %rsi,-0x20(%rbp)
  40c403:	48 89 55 d8          	mov    %rdx,-0x28(%rbp)
  40c407:	48 89 4d d0          	mov    %rcx,-0x30(%rbp)
  40c40b:	48 8b 45 e0          	mov    -0x20(%rbp),%rax
  40c40f:	48 89 c7             	mov    %rax,%rdi
  40c412:	e8 f1 07 00 00       	callq  40cc08 <_ZSt32__make_move_if_noexcept_iteratorIPSt4pairISt6threadbESt13move_iteratorIS3_EET0_T_>
  40c417:	48 89 c3             	mov    %rax,%rbx
  40c41a:	48 8b 45 e8          	mov    -0x18(%rbp),%rax
  40c41e:	48 89 c7             	mov    %rax,%rdi
  40c421:	e8 e2 07 00 00       	callq  40cc08 <_ZSt32__make_move_if_noexcept_iteratorIPSt4pairISt6threadbESt13move_iteratorIS3_EET0_T_>
  40c426:	48 89 c7             	mov    %rax,%rdi
  40c429:	48 8b 55 d0          	mov    -0x30(%rbp),%rdx
  40c42d:	48 8b 45 d8          	mov    -0x28(%rbp),%rax
  40c431:	48 89 d1             	mov    %rdx,%rcx
  40c434:	48 89 c2             	mov    %rax,%rdx
  40c437:	48 89 de             	mov    %rbx,%rsi
  40c43a:	e8 11 08 00 00       	callq  40cc50 <_ZSt22__uninitialized_copy_aISt13move_iteratorIPSt4pairISt6threadbEES4_S3_ET0_T_S7_S6_RSaIT1_E>
  40c43f:	48 83 c4 28          	add    $0x28,%rsp
  40c443:	5b                   	pop    %rbx
  40c444:	5d                   	pop    %rbp
  40c445:	c3                   	retq   

000000000040c446 <_ZNSt16allocator_traitsISaISt4pairISt6threadbEEE7destroyIS2_EEvRS3_PT_>:
  40c446:	55                   	push   %rbp
  40c447:	48 89 e5             	mov    %rsp,%rbp
  40c44a:	48 83 ec 10          	sub    $0x10,%rsp
  40c44e:	48 89 7d f8          	mov    %rdi,-0x8(%rbp)
  40c452:	48 89 75 f0          	mov    %rsi,-0x10(%rbp)
  40c456:	48 8b 55 f0          	mov    -0x10(%rbp),%rdx
  40c45a:	48 8b 45 f8          	mov    -0x8(%rbp),%rax
  40c45e:	48 89 d6             	mov    %rdx,%rsi
  40c461:	48 89 c7             	mov    %rax,%rdi
  40c464:	e8 19 08 00 00       	callq  40cc82 <_ZN9__gnu_cxx13new_allocatorISt4pairISt6threadbEE7destroyIS3_EEvPT_>
  40c469:	90                   	nop
  40c46a:	c9                   	leaveq 
  40c46b:	c3                   	retq   

000000000040c46c <_ZN9__gnu_cxxeqIPSt4pairISt6threadbESt6vectorIS3_SaIS3_EEEEbRKNS_17__normal_iteratorIT_T0_EESD_>:
  40c46c:	55                   	push   %rbp
  40c46d:	48 89 e5             	mov    %rsp,%rbp
  40c470:	53                   	push   %rbx
  40c471:	48 83 ec 18          	sub    $0x18,%rsp
  40c475:	48 89 7d e8          	mov    %rdi,-0x18(%rbp)
  40c479:	48 89 75 e0          	mov    %rsi,-0x20(%rbp)
  40c47d:	48 8b 45 e8          	mov    -0x18(%rbp),%rax
  40c481:	48 89 c7             	mov    %rax,%rdi
  40c484:	e8 17 f2 ff ff       	callq  40b6a0 <_ZNK9__gnu_cxx17__normal_iteratorIPSt4pairISt6threadbESt6vectorIS3_SaIS3_EEE4baseEv>
  40c489:	48 8b 18             	mov    (%rax),%rbx
  40c48c:	48 8b 45 e0          	mov    -0x20(%rbp),%rax
  40c490:	48 89 c7             	mov    %rax,%rdi
  40c493:	e8 08 f2 ff ff       	callq  40b6a0 <_ZNK9__gnu_cxx17__normal_iteratorIPSt4pairISt6threadbESt6vectorIS3_SaIS3_EEE4baseEv>
  40c498:	48 8b 00             	mov    (%rax),%rax
  40c49b:	48 39 c3             	cmp    %rax,%rbx
  40c49e:	0f 94 c0             	sete   %al
  40c4a1:	48 83 c4 18          	add    $0x18,%rsp
  40c4a5:	5b                   	pop    %rbx
  40c4a6:	5d                   	pop    %rbp
  40c4a7:	c3                   	retq   

000000000040c4a8 <_ZSt7forwardISt6threadEOT_RNSt16remove_referenceIS1_E4typeE>:
  40c4a8:	55                   	push   %rbp
  40c4a9:	48 89 e5             	mov    %rsp,%rbp
  40c4ac:	48 89 7d f8          	mov    %rdi,-0x8(%rbp)
  40c4b0:	48 8b 45 f8          	mov    -0x8(%rbp),%rax
  40c4b4:	5d                   	pop    %rbp
  40c4b5:	c3                   	retq   

000000000040c4b6 <_ZNSt4pairISt6threadbEaSEOS1_>:
  40c4b6:	55                   	push   %rbp
  40c4b7:	48 89 e5             	mov    %rsp,%rbp
  40c4ba:	48 83 ec 10          	sub    $0x10,%rsp
  40c4be:	48 89 7d f8          	mov    %rdi,-0x8(%rbp)
  40c4c2:	48 89 75 f0          	mov    %rsi,-0x10(%rbp)
  40c4c6:	48 8b 45 f0          	mov    -0x10(%rbp),%rax
  40c4ca:	48 89 c7             	mov    %rax,%rdi
  40c4cd:	e8 d6 ff ff ff       	callq  40c4a8 <_ZSt7forwardISt6threadEOT_RNSt16remove_referenceIS1_E4typeE>
  40c4d2:	48 89 c2             	mov    %rax,%rdx
  40c4d5:	48 8b 45 f8          	mov    -0x8(%rbp),%rax
  40c4d9:	48 89 d6             	mov    %rdx,%rsi
  40c4dc:	48 89 c7             	mov    %rax,%rdi
  40c4df:	e8 be dd ff ff       	callq  40a2a2 <_ZNSt6threadaSEOS_>
  40c4e4:	48 8b 45 f0          	mov    -0x10(%rbp),%rax
  40c4e8:	48 83 c0 08          	add    $0x8,%rax
  40c4ec:	48 89 c7             	mov    %rax,%rdi
  40c4ef:	e8 a7 e8 ff ff       	callq  40ad9b <_ZSt7forwardIbEOT_RNSt16remove_referenceIS0_E4typeE>
  40c4f4:	0f b6 10             	movzbl (%rax),%edx
  40c4f7:	48 8b 45 f8          	mov    -0x8(%rbp),%rax
  40c4fb:	88 50 08             	mov    %dl,0x8(%rax)
  40c4fe:	48 8b 45 f8          	mov    -0x8(%rbp),%rax
  40c502:	c9                   	leaveq 
  40c503:	c3                   	retq   

000000000040c504 <_ZN9__gnu_cxx17__normal_iteratorIPKSt4pairISt6threadbESt6vectorIS3_SaIS3_EEEC1ERKS5_>:
  40c504:	55                   	push   %rbp
  40c505:	48 89 e5             	mov    %rsp,%rbp
  40c508:	48 89 7d f8          	mov    %rdi,-0x8(%rbp)
  40c50c:	48 89 75 f0          	mov    %rsi,-0x10(%rbp)
  40c510:	48 8b 45 f0          	mov    -0x10(%rbp),%rax
  40c514:	48 8b 10             	mov    (%rax),%rdx
  40c517:	48 8b 45 f8          	mov    -0x8(%rbp),%rax
  40c51b:	48 89 10             	mov    %rdx,(%rax)
  40c51e:	90                   	nop
  40c51f:	5d                   	pop    %rbp
  40c520:	c3                   	retq   
  40c521:	90                   	nop

000000000040c522 <_ZNK9__gnu_cxx17__normal_iteratorIPKSt4pairISt6threadbESt6vectorIS3_SaIS3_EEE4baseEv>:
  40c522:	55                   	push   %rbp
  40c523:	48 89 e5             	mov    %rsp,%rbp
  40c526:	48 89 7d f8          	mov    %rdi,-0x8(%rbp)
  40c52a:	48 8b 45 f8          	mov    -0x8(%rbp),%rax
  40c52e:	5d                   	pop    %rbp
  40c52f:	c3                   	retq   

000000000040c530 <_ZSt4moveIN9__gnu_cxx17__normal_iteratorIPSt4pairISt6threadbESt6vectorIS4_SaIS4_EEEES9_ET0_T_SB_SA_>:
  40c530:	55                   	push   %rbp
  40c531:	48 89 e5             	mov    %rsp,%rbp
  40c534:	53                   	push   %rbx
  40c535:	48 83 ec 38          	sub    $0x38,%rsp
  40c539:	48 89 7d e0          	mov    %rdi,-0x20(%rbp)
  40c53d:	48 89 75 d0          	mov    %rsi,-0x30(%rbp)
  40c541:	48 89 55 c0          	mov    %rdx,-0x40(%rbp)
  40c545:	48 8b 45 d0          	mov    -0x30(%rbp),%rax
  40c549:	48 89 c7             	mov    %rax,%rdi
  40c54c:	e8 5a 07 00 00       	callq  40ccab <_ZSt12__miter_baseIN9__gnu_cxx17__normal_iteratorIPSt4pairISt6threadbESt6vectorIS4_SaIS4_EEEEENSt11_Miter_baseIT_E13iterator_typeESB_>
  40c551:	48 89 c3             	mov    %rax,%rbx
  40c554:	48 8b 45 e0          	mov    -0x20(%rbp),%rax
  40c558:	48 89 c7             	mov    %rax,%rdi
  40c55b:	e8 4b 07 00 00       	callq  40ccab <_ZSt12__miter_baseIN9__gnu_cxx17__normal_iteratorIPSt4pairISt6threadbESt6vectorIS4_SaIS4_EEEEENSt11_Miter_baseIT_E13iterator_typeESB_>
  40c560:	48 89 c1             	mov    %rax,%rcx
  40c563:	48 8b 45 c0          	mov    -0x40(%rbp),%rax
  40c567:	48 89 c2             	mov    %rax,%rdx
  40c56a:	48 89 de             	mov    %rbx,%rsi
  40c56d:	48 89 cf             	mov    %rcx,%rdi
  40c570:	e8 50 07 00 00       	callq  40ccc5 <_ZSt14__copy_move_a2ILb1EN9__gnu_cxx17__normal_iteratorIPSt4pairISt6threadbESt6vectorIS4_SaIS4_EEEES9_ET1_T0_SB_SA_>
  40c575:	48 83 c4 38          	add    $0x38,%rsp
  40c579:	5b                   	pop    %rbx
  40c57a:	5d                   	pop    %rbp
  40c57b:	c3                   	retq   

000000000040c57c <_ZNSt6vectorISt4pairISt6threadbESaIS2_EE15_M_erase_at_endEPS2_>:
  40c57c:	55                   	push   %rbp
  40c57d:	48 89 e5             	mov    %rsp,%rbp
  40c580:	48 83 ec 10          	sub    $0x10,%rsp
  40c584:	48 89 7d f8          	mov    %rdi,-0x8(%rbp)
  40c588:	48 89 75 f0          	mov    %rsi,-0x10(%rbp)
  40c58c:	48 8b 45 f8          	mov    -0x8(%rbp),%rax
  40c590:	48 89 c7             	mov    %rax,%rdi
  40c593:	e8 b2 f0 ff ff       	callq  40b64a <_ZNSt12_Vector_baseISt4pairISt6threadbESaIS2_EE19_M_get_Tp_allocatorEv>
  40c598:	48 89 c2             	mov    %rax,%rdx
  40c59b:	48 8b 45 f8          	mov    -0x8(%rbp),%rax
  40c59f:	48 8b 48 08          	mov    0x8(%rax),%rcx
  40c5a3:	48 8b 45 f0          	mov    -0x10(%rbp),%rax
  40c5a7:	48 89 ce             	mov    %rcx,%rsi
  40c5aa:	48 89 c7             	mov    %rax,%rdi
  40c5ad:	e8 a6 f0 ff ff       	callq  40b658 <_ZSt8_DestroyIPSt4pairISt6threadbES2_EvT_S4_RSaIT0_E>
  40c5b2:	48 8b 45 f8          	mov    -0x8(%rbp),%rax
  40c5b6:	48 8b 55 f0          	mov    -0x10(%rbp),%rdx
  40c5ba:	48 89 50 08          	mov    %rdx,0x8(%rax)
  40c5be:	90                   	nop
  40c5bf:	c9                   	leaveq 
  40c5c0:	c3                   	retq   

000000000040c5c1 <_ZN9__gnu_cxxmiIPSt4pairISt6threadbESt6vectorIS3_SaIS3_EEEENS_17__normal_iteratorIT_T0_E15difference_typeERKSB_SE_>:
  40c5c1:	55                   	push   %rbp
  40c5c2:	48 89 e5             	mov    %rsp,%rbp
  40c5c5:	53                   	push   %rbx
  40c5c6:	48 83 ec 18          	sub    $0x18,%rsp
  40c5ca:	48 89 7d e8          	mov    %rdi,-0x18(%rbp)
  40c5ce:	48 89 75 e0          	mov    %rsi,-0x20(%rbp)
  40c5d2:	48 8b 45 e8          	mov    -0x18(%rbp),%rax
  40c5d6:	48 89 c7             	mov    %rax,%rdi
  40c5d9:	e8 c2 f0 ff ff       	callq  40b6a0 <_ZNK9__gnu_cxx17__normal_iteratorIPSt4pairISt6threadbESt6vectorIS3_SaIS3_EEE4baseEv>
  40c5de:	48 8b 00             	mov    (%rax),%rax
  40c5e1:	48 89 c3             	mov    %rax,%rbx
  40c5e4:	48 8b 45 e0          	mov    -0x20(%rbp),%rax
  40c5e8:	48 89 c7             	mov    %rax,%rdi
  40c5eb:	e8 b0 f0 ff ff       	callq  40b6a0 <_ZNK9__gnu_cxx17__normal_iteratorIPSt4pairISt6threadbESt6vectorIS3_SaIS3_EEE4baseEv>
  40c5f0:	48 8b 00             	mov    (%rax),%rax
  40c5f3:	48 29 c3             	sub    %rax,%rbx
  40c5f6:	48 89 d8             	mov    %rbx,%rax
  40c5f9:	48 c1 f8 04          	sar    $0x4,%rax
  40c5fd:	48 83 c4 18          	add    $0x18,%rsp
  40c601:	5b                   	pop    %rbx
  40c602:	5d                   	pop    %rbp
  40c603:	c3                   	retq   

000000000040c604 <_ZNSt7__cxx1112basic_stringIcSt11char_traitsIcESaIcEE16_M_construct_auxIPcEEvT_S7_St12__false_type>:
  40c604:	55                   	push   %rbp
  40c605:	48 89 e5             	mov    %rsp,%rbp
  40c608:	48 83 ec 30          	sub    $0x30,%rsp
  40c60c:	48 89 7d e8          	mov    %rdi,-0x18(%rbp)
  40c610:	48 89 75 e0          	mov    %rsi,-0x20(%rbp)
  40c614:	48 89 55 d8          	mov    %rdx,-0x28(%rbp)
  40c618:	64 48 8b 04 25 28 00 	mov    %fs:0x28,%rax
  40c61f:	00 00 
  40c621:	48 89 45 f8          	mov    %rax,-0x8(%rbp)
  40c625:	31 c0                	xor    %eax,%eax
  40c627:	48 8b 55 d8          	mov    -0x28(%rbp),%rdx
  40c62b:	48 8b 4d e0          	mov    -0x20(%rbp),%rcx
  40c62f:	48 8b 45 e8          	mov    -0x18(%rbp),%rax
  40c633:	48 83 ec 08          	sub    $0x8,%rsp
  40c637:	41 50                	push   %r8
  40c639:	48 89 ce             	mov    %rcx,%rsi
  40c63c:	48 89 c7             	mov    %rax,%rdi
  40c63f:	e8 18 07 00 00       	callq  40cd5c <_ZNSt7__cxx1112basic_stringIcSt11char_traitsIcESaIcEE12_M_constructIPcEEvT_S7_St20forward_iterator_tag>
  40c644:	48 83 c4 10          	add    $0x10,%rsp
  40c648:	90                   	nop
  40c649:	48 8b 45 f8          	mov    -0x8(%rbp),%rax
  40c64d:	64 48 33 04 25 28 00 	xor    %fs:0x28,%rax
  40c654:	00 00 
  40c656:	74 05                	je     40c65d <_ZNSt7__cxx1112basic_stringIcSt11char_traitsIcESaIcEE16_M_construct_auxIPcEEvT_S7_St12__false_type+0x59>
  40c658:	e8 b3 67 ff ff       	callq  402e10 <__stack_chk_fail@plt>
  40c65d:	c9                   	leaveq 
  40c65e:	c3                   	retq   
  40c65f:	90                   	nop

000000000040c660 <_ZNSt16_Sp_counted_baseILN9__gnu_cxx12_Lock_policyE2EED1Ev>:
  40c660:	55                   	push   %rbp
  40c661:	48 89 e5             	mov    %rsp,%rbp
  40c664:	48 83 ec 10          	sub    $0x10,%rsp
  40c668:	48 89 7d f8          	mov    %rdi,-0x8(%rbp)
  40c66c:	ba e8 e1 40 00       	mov    $0x40e1e8,%edx
  40c671:	48 8b 45 f8          	mov    -0x8(%rbp),%rax
  40c675:	48 89 10             	mov    %rdx,(%rax)
  40c678:	b8 00 00 00 00       	mov    $0x0,%eax
  40c67d:	85 c0                	test   %eax,%eax
  40c67f:	74 11                	je     40c692 <_ZNSt16_Sp_counted_baseILN9__gnu_cxx12_Lock_policyE2EED1Ev+0x32>
  40c681:	48 8b 45 f8          	mov    -0x8(%rbp),%rax
  40c685:	be 10 00 00 00       	mov    $0x10,%esi
  40c68a:	48 89 c7             	mov    %rax,%rdi
  40c68d:	e8 0e 67 ff ff       	callq  402da0 <_ZdlPvm@plt>
  40c692:	c9                   	leaveq 
  40c693:	c3                   	retq   

000000000040c694 <_ZNSt16_Sp_counted_baseILN9__gnu_cxx12_Lock_policyE2EED0Ev>:
  40c694:	55                   	push   %rbp
  40c695:	48 89 e5             	mov    %rsp,%rbp
  40c698:	48 83 ec 10          	sub    $0x10,%rsp
  40c69c:	48 89 7d f8          	mov    %rdi,-0x8(%rbp)
  40c6a0:	48 8b 45 f8          	mov    -0x8(%rbp),%rax
  40c6a4:	48 89 c7             	mov    %rax,%rdi
  40c6a7:	e8 b4 ff ff ff       	callq  40c660 <_ZNSt16_Sp_counted_baseILN9__gnu_cxx12_Lock_policyE2EED1Ev>
  40c6ac:	48 8b 45 f8          	mov    -0x8(%rbp),%rax
  40c6b0:	be 10 00 00 00       	mov    $0x10,%esi
  40c6b5:	48 89 c7             	mov    %rax,%rdi
  40c6b8:	e8 e3 66 ff ff       	callq  402da0 <_ZdlPvm@plt>
  40c6bd:	c9                   	leaveq 
  40c6be:	c3                   	retq   
  40c6bf:	90                   	nop

000000000040c6c0 <_ZNSt8_Rb_treeINSt7__cxx1112basic_stringIcSt11char_traitsIcESaIcEEESt4pairIKS5_S5_ESt10_Select1stIS8_ESt4lessIS5_ESaIS8_EE17_M_construct_nodeIIRKSt21piecewise_construct_tSt5tupleIIRS7_EESJ_IIEEEEEvPSt13_Rb_tree_nodeIS8_EDpOT_>:
  40c6c0:	55                   	push   %rbp
  40c6c1:	48 89 e5             	mov    %rsp,%rbp
  40c6c4:	41 56                	push   %r14
  40c6c6:	41 55                	push   %r13
  40c6c8:	41 54                	push   %r12
  40c6ca:	53                   	push   %rbx
  40c6cb:	48 83 ec 30          	sub    $0x30,%rsp
  40c6cf:	48 89 7d d8          	mov    %rdi,-0x28(%rbp)
  40c6d3:	48 89 75 d0          	mov    %rsi,-0x30(%rbp)
  40c6d7:	48 89 55 c8          	mov    %rdx,-0x38(%rbp)
  40c6db:	48 89 4d c0          	mov    %rcx,-0x40(%rbp)
  40c6df:	4c 89 45 b8          	mov    %r8,-0x48(%rbp)
  40c6e3:	48 8b 45 d0          	mov    -0x30(%rbp),%rax
  40c6e7:	48 89 c6             	mov    %rax,%rsi
  40c6ea:	bf 60 00 00 00       	mov    $0x60,%edi
  40c6ef:	e8 75 75 ff ff       	callq  403c69 <_ZnwmPv>
  40c6f4:	48 85 c0             	test   %rax,%rax
  40c6f7:	74 08                	je     40c701 <_ZNSt8_Rb_treeINSt7__cxx1112basic_stringIcSt11char_traitsIcESaIcEEESt4pairIKS5_S5_ESt10_Select1stIS8_ESt4lessIS5_ESaIS8_EE17_M_construct_nodeIIRKSt21piecewise_construct_tSt5tupleIIRS7_EESJ_IIEEEEEvPSt13_Rb_tree_nodeIS8_EDpOT_+0x41>
  40c6f9:	48 89 c7             	mov    %rax,%rdi
  40c6fc:	e8 39 93 ff ff       	callq  405a3a <_ZNSt13_Rb_tree_nodeISt4pairIKNSt7__cxx1112basic_stringIcSt11char_traitsIcESaIcEEES6_EEC1Ev>
  40c701:	48 8b 45 b8          	mov    -0x48(%rbp),%rax
  40c705:	48 89 c7             	mov    %rax,%rdi
  40c708:	e8 a0 82 ff ff       	callq  4049ad <_ZSt7forwardISt5tupleIIEEEOT_RNSt16remove_referenceIS2_E4typeE>
  40c70d:	49 89 c6             	mov    %rax,%r14
  40c710:	48 8b 45 c0          	mov    -0x40(%rbp),%rax
  40c714:	48 89 c7             	mov    %rax,%rdi
  40c717:	e8 53 ea ff ff       	callq  40b16f <_ZSt7forwardISt5tupleIIRKNSt7__cxx1112basic_stringIcSt11char_traitsIcESaIcEEEEEEOT_RNSt16remove_referenceISA_E4typeE>
  40c71c:	49 89 c5             	mov    %rax,%r13
  40c71f:	48 8b 45 c8          	mov    -0x38(%rbp),%rax
  40c723:	48 89 c7             	mov    %rax,%rdi
  40c726:	e8 66 82 ff ff       	callq  404991 <_ZSt7forwardIRKSt21piecewise_construct_tEOT_RNSt16remove_referenceIS3_E4typeE>
  40c72b:	49 89 c4             	mov    %rax,%r12
  40c72e:	48 8b 45 d0          	mov    -0x30(%rbp),%rax
  40c732:	48 89 c7             	mov    %rax,%rdi
  40c735:	e8 fc 87 ff ff       	callq  404f36 <_ZNSt13_Rb_tree_nodeISt4pairIKNSt7__cxx1112basic_stringIcSt11char_traitsIcESaIcEEES6_EE9_M_valptrEv>
  40c73a:	48 89 c3             	mov    %rax,%rbx
  40c73d:	48 8b 45 d8          	mov    -0x28(%rbp),%rax
  40c741:	48 89 c7             	mov    %rax,%rdi
  40c744:	e8 fd 99 ff ff       	callq  406146 <_ZNSt8_Rb_treeINSt7__cxx1112basic_stringIcSt11char_traitsIcESaIcEEESt4pairIKS5_S5_ESt10_Select1stIS8_ESt4lessIS5_ESaIS8_EE21_M_get_Node_allocatorEv>
  40c749:	4d 89 f0             	mov    %r14,%r8
  40c74c:	4c 89 e9             	mov    %r13,%rcx
  40c74f:	4c 89 e2             	mov    %r12,%rdx
  40c752:	48 89 de             	mov    %rbx,%rsi
  40c755:	48 89 c7             	mov    %rax,%rdi
  40c758:	e8 34 07 00 00       	callq  40ce91 <_ZNSt16allocator_traitsISaISt13_Rb_tree_nodeISt4pairIKNSt7__cxx1112basic_stringIcSt11char_traitsIcESaIcEEES7_EEEE9constructIS9_IRKSt21piecewise_construct_tSt5tupleIIRS8_EESH_IIEEEEEvRSB_PT_DpOT0_>
  40c75d:	eb 33                	jmp    40c792 <_ZNSt8_Rb_treeINSt7__cxx1112basic_stringIcSt11char_traitsIcESaIcEEESt4pairIKS5_S5_ESt10_Select1stIS8_ESt4lessIS5_ESaIS8_EE17_M_construct_nodeIIRKSt21piecewise_construct_tSt5tupleIIRS7_EESJ_IIEEEEEvPSt13_Rb_tree_nodeIS8_EDpOT_+0xd2>
  40c75f:	48 89 c7             	mov    %rax,%rdi
  40c762:	e8 09 64 ff ff       	callq  402b70 <__cxa_begin_catch@plt>
  40c767:	48 8b 55 d0          	mov    -0x30(%rbp),%rdx
  40c76b:	48 8b 45 d8          	mov    -0x28(%rbp),%rax
  40c76f:	48 89 d6             	mov    %rdx,%rsi
  40c772:	48 89 c7             	mov    %rax,%rdi
  40c775:	e8 30 91 ff ff       	callq  4058aa <_ZNSt8_Rb_treeINSt7__cxx1112basic_stringIcSt11char_traitsIcESaIcEEESt4pairIKS5_S5_ESt10_Select1stIS8_ESt4lessIS5_ESaIS8_EE11_M_put_nodeEPSt13_Rb_tree_nodeIS8_E>
  40c77a:	e8 31 67 ff ff       	callq  402eb0 <__cxa_rethrow@plt>
  40c77f:	48 89 c3             	mov    %rax,%rbx
  40c782:	e8 a9 67 ff ff       	callq  402f30 <__cxa_end_catch@plt>
  40c787:	48 89 d8             	mov    %rbx,%rax
  40c78a:	48 89 c7             	mov    %rax,%rdi
  40c78d:	e8 2e 68 ff ff       	callq  402fc0 <_Unwind_Resume@plt>
  40c792:	48 83 c4 30          	add    $0x30,%rsp
  40c796:	5b                   	pop    %rbx
  40c797:	41 5c                	pop    %r12
  40c799:	41 5d                	pop    %r13
  40c79b:	41 5e                	pop    %r14
  40c79d:	5d                   	pop    %rbp
  40c79e:	c3                   	retq   

000000000040c79f <_ZSt8distanceIPKcENSt15iterator_traitsIT_E15difference_typeES3_S3_>:
  40c79f:	55                   	push   %rbp
  40c7a0:	48 89 e5             	mov    %rsp,%rbp
  40c7a3:	53                   	push   %rbx
  40c7a4:	48 83 ec 28          	sub    $0x28,%rsp
  40c7a8:	48 89 7d d8          	mov    %rdi,-0x28(%rbp)
  40c7ac:	48 89 75 d0          	mov    %rsi,-0x30(%rbp)
  40c7b0:	64 48 8b 04 25 28 00 	mov    %fs:0x28,%rax
  40c7b7:	00 00 
  40c7b9:	48 89 45 e8          	mov    %rax,-0x18(%rbp)
  40c7bd:	31 c0                	xor    %eax,%eax
  40c7bf:	48 8d 45 d8          	lea    -0x28(%rbp),%rax
  40c7c3:	48 89 c7             	mov    %rax,%rdi
  40c7c6:	e8 32 07 00 00       	callq  40cefd <_ZSt19__iterator_categoryIPKcENSt15iterator_traitsIT_E17iterator_categoryERKS3_>
  40c7cb:	48 8b 45 d8          	mov    -0x28(%rbp),%rax
  40c7cf:	48 8b 55 d0          	mov    -0x30(%rbp),%rdx
  40c7d3:	48 83 ec 08          	sub    $0x8,%rsp
  40c7d7:	53                   	push   %rbx
  40c7d8:	48 89 d6             	mov    %rdx,%rsi
  40c7db:	48 89 c7             	mov    %rax,%rdi
  40c7de:	e8 24 07 00 00       	callq  40cf07 <_ZSt10__distanceIPKcENSt15iterator_traitsIT_E15difference_typeES3_S3_St26random_access_iterator_tag>
  40c7e3:	48 83 c4 10          	add    $0x10,%rsp
  40c7e7:	48 8b 4d e8          	mov    -0x18(%rbp),%rcx
  40c7eb:	64 48 33 0c 25 28 00 	xor    %fs:0x28,%rcx
  40c7f2:	00 00 
  40c7f4:	74 05                	je     40c7fb <_ZSt8distanceIPKcENSt15iterator_traitsIT_E15difference_typeES3_S3_+0x5c>
  40c7f6:	e8 15 66 ff ff       	callq  402e10 <__stack_chk_fail@plt>
  40c7fb:	48 8b 5d f8          	mov    -0x8(%rbp),%rbx
  40c7ff:	c9                   	leaveq 
  40c800:	c3                   	retq   

000000000040c801 <_ZN9__gnu_cxxmiIPhSt6vectorIhSaIhEEEENS_17__normal_iteratorIT_T0_E15difference_typeERKS8_SB_>:
  40c801:	55                   	push   %rbp
  40c802:	48 89 e5             	mov    %rsp,%rbp
  40c805:	53                   	push   %rbx
  40c806:	48 83 ec 18          	sub    $0x18,%rsp
  40c80a:	48 89 7d e8          	mov    %rdi,-0x18(%rbp)
  40c80e:	48 89 75 e0          	mov    %rsi,-0x20(%rbp)
  40c812:	48 8b 45 e8          	mov    -0x18(%rbp),%rax
  40c816:	48 89 c7             	mov    %rax,%rdi
  40c819:	e8 9e eb ff ff       	callq  40b3bc <_ZNK9__gnu_cxx17__normal_iteratorIPhSt6vectorIhSaIhEEE4baseEv>
  40c81e:	48 8b 00             	mov    (%rax),%rax
  40c821:	48 89 c3             	mov    %rax,%rbx
  40c824:	48 8b 45 e0          	mov    -0x20(%rbp),%rax
  40c828:	48 89 c7             	mov    %rax,%rdi
  40c82b:	e8 8c eb ff ff       	callq  40b3bc <_ZNK9__gnu_cxx17__normal_iteratorIPhSt6vectorIhSaIhEEE4baseEv>
  40c830:	48 8b 00             	mov    (%rax),%rax
  40c833:	48 29 c3             	sub    %rax,%rbx
  40c836:	48 89 d8             	mov    %rbx,%rax
  40c839:	48 83 c4 18          	add    $0x18,%rsp
  40c83d:	5b                   	pop    %rbx
  40c83e:	5d                   	pop    %rbp
  40c83f:	c3                   	retq   

000000000040c840 <_ZSt22__uninitialized_move_aIPhS0_SaIhEET0_T_S3_S2_RT1_>:
  40c840:	55                   	push   %rbp
  40c841:	48 89 e5             	mov    %rsp,%rbp
  40c844:	53                   	push   %rbx
  40c845:	48 83 ec 28          	sub    $0x28,%rsp
  40c849:	48 89 7d e8          	mov    %rdi,-0x18(%rbp)
  40c84d:	48 89 75 e0          	mov    %rsi,-0x20(%rbp)
  40c851:	48 89 55 d8          	mov    %rdx,-0x28(%rbp)
  40c855:	48 89 4d d0          	mov    %rcx,-0x30(%rbp)
  40c859:	48 8b 45 e0          	mov    -0x20(%rbp),%rax
  40c85d:	48 89 c7             	mov    %rax,%rdi
  40c860:	e8 be 06 00 00       	callq  40cf23 <_ZSt18make_move_iteratorIPhESt13move_iteratorIT_ES2_>
  40c865:	48 89 c3             	mov    %rax,%rbx
  40c868:	48 8b 45 e8          	mov    -0x18(%rbp),%rax
  40c86c:	48 89 c7             	mov    %rax,%rdi
  40c86f:	e8 af 06 00 00       	callq  40cf23 <_ZSt18make_move_iteratorIPhESt13move_iteratorIT_ES2_>
  40c874:	48 89 c7             	mov    %rax,%rdi
  40c877:	48 8b 55 d0          	mov    -0x30(%rbp),%rdx
  40c87b:	48 8b 45 d8          	mov    -0x28(%rbp),%rax
  40c87f:	48 89 d1             	mov    %rdx,%rcx
  40c882:	48 89 c2             	mov    %rax,%rdx
  40c885:	48 89 de             	mov    %rbx,%rsi
  40c888:	e8 a9 a3 ff ff       	callq  406c36 <_ZSt22__uninitialized_copy_aISt13move_iteratorIPhES1_hET0_T_S4_S3_RSaIT1_E>
  40c88d:	48 83 c4 28          	add    $0x28,%rsp
  40c891:	5b                   	pop    %rbx
  40c892:	5d                   	pop    %rbp
  40c893:	c3                   	retq   

000000000040c894 <_ZSt13move_backwardIPhS0_ET0_T_S2_S1_>:
  40c894:	55                   	push   %rbp
  40c895:	48 89 e5             	mov    %rsp,%rbp
  40c898:	53                   	push   %rbx
  40c899:	48 83 ec 28          	sub    $0x28,%rsp
  40c89d:	48 89 7d e8          	mov    %rdi,-0x18(%rbp)
  40c8a1:	48 89 75 e0          	mov    %rsi,-0x20(%rbp)
  40c8a5:	48 89 55 d8          	mov    %rdx,-0x28(%rbp)
  40c8a9:	48 8b 45 e0          	mov    -0x20(%rbp),%rax
  40c8ad:	48 89 c7             	mov    %rax,%rdi
  40c8b0:	e8 b6 06 00 00       	callq  40cf6b <_ZSt12__miter_baseIPhENSt11_Miter_baseIT_E13iterator_typeES2_>
  40c8b5:	48 89 c3             	mov    %rax,%rbx
  40c8b8:	48 8b 45 e8          	mov    -0x18(%rbp),%rax
  40c8bc:	48 89 c7             	mov    %rax,%rdi
  40c8bf:	e8 a7 06 00 00       	callq  40cf6b <_ZSt12__miter_baseIPhENSt11_Miter_baseIT_E13iterator_typeES2_>
  40c8c4:	48 89 c1             	mov    %rax,%rcx
  40c8c7:	48 8b 45 d8          	mov    -0x28(%rbp),%rax
  40c8cb:	48 89 c2             	mov    %rax,%rdx
  40c8ce:	48 89 de             	mov    %rbx,%rsi
  40c8d1:	48 89 cf             	mov    %rcx,%rdi
  40c8d4:	e8 ac 06 00 00       	callq  40cf85 <_ZSt23__copy_move_backward_a2ILb1EPhS0_ET1_T0_S2_S1_>
  40c8d9:	48 83 c4 28          	add    $0x28,%rsp
  40c8dd:	5b                   	pop    %rbx
  40c8de:	5d                   	pop    %rbp
  40c8df:	c3                   	retq   

000000000040c8e0 <_ZSt4copyIPKcN9__gnu_cxx17__normal_iteratorIPhSt6vectorIhSaIhEEEEET0_T_SA_S9_>:
  40c8e0:	55                   	push   %rbp
  40c8e1:	48 89 e5             	mov    %rsp,%rbp
  40c8e4:	53                   	push   %rbx
  40c8e5:	48 83 ec 28          	sub    $0x28,%rsp
  40c8e9:	48 89 7d e8          	mov    %rdi,-0x18(%rbp)
  40c8ed:	48 89 75 e0          	mov    %rsi,-0x20(%rbp)
  40c8f1:	48 89 55 d0          	mov    %rdx,-0x30(%rbp)
  40c8f5:	48 8b 45 e0          	mov    -0x20(%rbp),%rax
  40c8f9:	48 89 c7             	mov    %rax,%rdi
  40c8fc:	e8 dc 06 00 00       	callq  40cfdd <_ZSt12__miter_baseIPKcENSt11_Miter_baseIT_E13iterator_typeES3_>
  40c901:	48 89 c3             	mov    %rax,%rbx
  40c904:	48 8b 45 e8          	mov    -0x18(%rbp),%rax
  40c908:	48 89 c7             	mov    %rax,%rdi
  40c90b:	e8 cd 06 00 00       	callq  40cfdd <_ZSt12__miter_baseIPKcENSt11_Miter_baseIT_E13iterator_typeES3_>
  40c910:	48 89 c1             	mov    %rax,%rcx
  40c913:	48 8b 45 d0          	mov    -0x30(%rbp),%rax
  40c917:	48 89 c2             	mov    %rax,%rdx
  40c91a:	48 89 de             	mov    %rbx,%rsi
  40c91d:	48 89 cf             	mov    %rcx,%rdi
  40c920:	e8 d2 06 00 00       	callq  40cff7 <_ZSt14__copy_move_a2ILb0EPKcN9__gnu_cxx17__normal_iteratorIPhSt6vectorIhSaIhEEEEET1_T0_SA_S9_>
  40c925:	48 83 c4 28          	add    $0x28,%rsp
  40c929:	5b                   	pop    %rbx
  40c92a:	5d                   	pop    %rbp
  40c92b:	c3                   	retq   

000000000040c92c <_ZSt7advanceIPKcmEvRT_T0_>:
  40c92c:	55                   	push   %rbp
  40c92d:	48 89 e5             	mov    %rsp,%rbp
  40c930:	53                   	push   %rbx
  40c931:	48 83 ec 38          	sub    $0x38,%rsp
  40c935:	48 89 7d c8          	mov    %rdi,-0x38(%rbp)
  40c939:	48 89 75 c0          	mov    %rsi,-0x40(%rbp)
  40c93d:	64 48 8b 04 25 28 00 	mov    %fs:0x28,%rax
  40c944:	00 00 
  40c946:	48 89 45 e8          	mov    %rax,-0x18(%rbp)
  40c94a:	31 c0                	xor    %eax,%eax
  40c94c:	48 8b 45 c0          	mov    -0x40(%rbp),%rax
  40c950:	48 89 45 e0          	mov    %rax,-0x20(%rbp)
  40c954:	48 8b 45 c8          	mov    -0x38(%rbp),%rax
  40c958:	48 89 c7             	mov    %rax,%rdi
  40c95b:	e8 9d 05 00 00       	callq  40cefd <_ZSt19__iterator_categoryIPKcENSt15iterator_traitsIT_E17iterator_categoryERKS3_>
  40c960:	48 8b 55 e0          	mov    -0x20(%rbp),%rdx
  40c964:	48 8b 45 c8          	mov    -0x38(%rbp),%rax
  40c968:	48 83 ec 08          	sub    $0x8,%rsp
  40c96c:	53                   	push   %rbx
  40c96d:	48 89 d6             	mov    %rdx,%rsi
  40c970:	48 89 c7             	mov    %rax,%rdi
  40c973:	e8 15 07 00 00       	callq  40d08d <_ZSt9__advanceIPKclEvRT_T0_St26random_access_iterator_tag>
  40c978:	48 83 c4 10          	add    $0x10,%rsp
  40c97c:	90                   	nop
  40c97d:	48 8b 45 e8          	mov    -0x18(%rbp),%rax
  40c981:	64 48 33 04 25 28 00 	xor    %fs:0x28,%rax
  40c988:	00 00 
  40c98a:	74 05                	je     40c991 <_ZSt7advanceIPKcmEvRT_T0_+0x65>
  40c98c:	e8 7f 64 ff ff       	callq  402e10 <__stack_chk_fail@plt>
  40c991:	48 8b 5d f8          	mov    -0x8(%rbp),%rbx
  40c995:	c9                   	leaveq 
  40c996:	c3                   	retq   

000000000040c997 <_ZSt22__uninitialized_copy_aIPKcPhhET0_T_S4_S3_RSaIT1_E>:
  40c997:	55                   	push   %rbp
  40c998:	48 89 e5             	mov    %rsp,%rbp
  40c99b:	48 83 ec 20          	sub    $0x20,%rsp
  40c99f:	48 89 7d f8          	mov    %rdi,-0x8(%rbp)
  40c9a3:	48 89 75 f0          	mov    %rsi,-0x10(%rbp)
  40c9a7:	48 89 55 e8          	mov    %rdx,-0x18(%rbp)
  40c9ab:	48 89 4d e0          	mov    %rcx,-0x20(%rbp)
  40c9af:	48 8b 55 e8          	mov    -0x18(%rbp),%rdx
  40c9b3:	48 8b 4d f0          	mov    -0x10(%rbp),%rcx
  40c9b7:	48 8b 45 f8          	mov    -0x8(%rbp),%rax
  40c9bb:	48 89 ce             	mov    %rcx,%rsi
  40c9be:	48 89 c7             	mov    %rax,%rdi
  40c9c1:	e8 eb 06 00 00       	callq  40d0b1 <_ZSt18uninitialized_copyIPKcPhET0_T_S4_S3_>
  40c9c6:	c9                   	leaveq 
  40c9c7:	c3                   	retq   

000000000040c9c8 <_ZSt8distanceIPcENSt15iterator_traitsIT_E15difference_typeES2_S2_>:
  40c9c8:	55                   	push   %rbp
  40c9c9:	48 89 e5             	mov    %rsp,%rbp
  40c9cc:	53                   	push   %rbx
  40c9cd:	48 83 ec 28          	sub    $0x28,%rsp
  40c9d1:	48 89 7d d8          	mov    %rdi,-0x28(%rbp)
  40c9d5:	48 89 75 d0          	mov    %rsi,-0x30(%rbp)
  40c9d9:	64 48 8b 04 25 28 00 	mov    %fs:0x28,%rax
  40c9e0:	00 00 
  40c9e2:	48 89 45 e8          	mov    %rax,-0x18(%rbp)
  40c9e6:	31 c0                	xor    %eax,%eax
  40c9e8:	48 8d 45 d8          	lea    -0x28(%rbp),%rax
  40c9ec:	48 89 c7             	mov    %rax,%rdi
  40c9ef:	e8 ee 06 00 00       	callq  40d0e2 <_ZSt19__iterator_categoryIPcENSt15iterator_traitsIT_E17iterator_categoryERKS2_>
  40c9f4:	48 8b 45 d8          	mov    -0x28(%rbp),%rax
  40c9f8:	48 8b 55 d0          	mov    -0x30(%rbp),%rdx
  40c9fc:	48 83 ec 08          	sub    $0x8,%rsp
  40ca00:	53                   	push   %rbx
  40ca01:	48 89 d6             	mov    %rdx,%rsi
  40ca04:	48 89 c7             	mov    %rax,%rdi
  40ca07:	e8 e0 06 00 00       	callq  40d0ec <_ZSt10__distanceIPcENSt15iterator_traitsIT_E15difference_typeES2_S2_St26random_access_iterator_tag>
  40ca0c:	48 83 c4 10          	add    $0x10,%rsp
  40ca10:	48 8b 4d e8          	mov    -0x18(%rbp),%rcx
  40ca14:	64 48 33 0c 25 28 00 	xor    %fs:0x28,%rcx
  40ca1b:	00 00 
  40ca1d:	74 05                	je     40ca24 <_ZSt8distanceIPcENSt15iterator_traitsIT_E15difference_typeES2_S2_+0x5c>
  40ca1f:	e8 ec 63 ff ff       	callq  402e10 <__stack_chk_fail@plt>
  40ca24:	48 8b 5d f8          	mov    -0x8(%rbp),%rbx
  40ca28:	c9                   	leaveq 
  40ca29:	c3                   	retq   

000000000040ca2a <_ZSt4copyIPcN9__gnu_cxx17__normal_iteratorIPhSt6vectorIhSaIhEEEEET0_T_S9_S8_>:
  40ca2a:	55                   	push   %rbp
  40ca2b:	48 89 e5             	mov    %rsp,%rbp
  40ca2e:	53                   	push   %rbx
  40ca2f:	48 83 ec 28          	sub    $0x28,%rsp
  40ca33:	48 89 7d e8          	mov    %rdi,-0x18(%rbp)
  40ca37:	48 89 75 e0          	mov    %rsi,-0x20(%rbp)
  40ca3b:	48 89 55 d0          	mov    %rdx,-0x30(%rbp)
  40ca3f:	48 8b 45 e0          	mov    -0x20(%rbp),%rax
  40ca43:	48 89 c7             	mov    %rax,%rdi
  40ca46:	e8 bd 06 00 00       	callq  40d108 <_ZSt12__miter_baseIPcENSt11_Miter_baseIT_E13iterator_typeES2_>
  40ca4b:	48 89 c3             	mov    %rax,%rbx
  40ca4e:	48 8b 45 e8          	mov    -0x18(%rbp),%rax
  40ca52:	48 89 c7             	mov    %rax,%rdi
  40ca55:	e8 ae 06 00 00       	callq  40d108 <_ZSt12__miter_baseIPcENSt11_Miter_baseIT_E13iterator_typeES2_>
  40ca5a:	48 89 c1             	mov    %rax,%rcx
  40ca5d:	48 8b 45 d0          	mov    -0x30(%rbp),%rax
  40ca61:	48 89 c2             	mov    %rax,%rdx
  40ca64:	48 89 de             	mov    %rbx,%rsi
  40ca67:	48 89 cf             	mov    %rcx,%rdi
  40ca6a:	e8 b3 06 00 00       	callq  40d122 <_ZSt14__copy_move_a2ILb0EPcN9__gnu_cxx17__normal_iteratorIPhSt6vectorIhSaIhEEEEET1_T0_S9_S8_>
  40ca6f:	48 83 c4 28          	add    $0x28,%rsp
  40ca73:	5b                   	pop    %rbx
  40ca74:	5d                   	pop    %rbp
  40ca75:	c3                   	retq   

000000000040ca76 <_ZSt7advanceIPcmEvRT_T0_>:
  40ca76:	55                   	push   %rbp
  40ca77:	48 89 e5             	mov    %rsp,%rbp
  40ca7a:	53                   	push   %rbx
  40ca7b:	48 83 ec 38          	sub    $0x38,%rsp
  40ca7f:	48 89 7d c8          	mov    %rdi,-0x38(%rbp)
  40ca83:	48 89 75 c0          	mov    %rsi,-0x40(%rbp)
  40ca87:	64 48 8b 04 25 28 00 	mov    %fs:0x28,%rax
  40ca8e:	00 00 
  40ca90:	48 89 45 e8          	mov    %rax,-0x18(%rbp)
  40ca94:	31 c0                	xor    %eax,%eax
  40ca96:	48 8b 45 c0          	mov    -0x40(%rbp),%rax
  40ca9a:	48 89 45 e0          	mov    %rax,-0x20(%rbp)
  40ca9e:	48 8b 45 c8          	mov    -0x38(%rbp),%rax
  40caa2:	48 89 c7             	mov    %rax,%rdi
  40caa5:	e8 38 06 00 00       	callq  40d0e2 <_ZSt19__iterator_categoryIPcENSt15iterator_traitsIT_E17iterator_categoryERKS2_>
  40caaa:	48 8b 55 e0          	mov    -0x20(%rbp),%rdx
  40caae:	48 8b 45 c8          	mov    -0x38(%rbp),%rax
  40cab2:	48 83 ec 08          	sub    $0x8,%rsp
  40cab6:	53                   	push   %rbx
  40cab7:	48 89 d6             	mov    %rdx,%rsi
  40caba:	48 89 c7             	mov    %rax,%rdi
  40cabd:	e8 f6 06 00 00       	callq  40d1b8 <_ZSt9__advanceIPclEvRT_T0_St26random_access_iterator_tag>
  40cac2:	48 83 c4 10          	add    $0x10,%rsp
  40cac6:	90                   	nop
  40cac7:	48 8b 45 e8          	mov    -0x18(%rbp),%rax
  40cacb:	64 48 33 04 25 28 00 	xor    %fs:0x28,%rax
  40cad2:	00 00 
  40cad4:	74 05                	je     40cadb <_ZSt7advanceIPcmEvRT_T0_+0x65>
  40cad6:	e8 35 63 ff ff       	callq  402e10 <__stack_chk_fail@plt>
  40cadb:	48 8b 5d f8          	mov    -0x8(%rbp),%rbx
  40cadf:	c9                   	leaveq 
  40cae0:	c3                   	retq   

000000000040cae1 <_ZSt22__uninitialized_copy_aIPcPhhET0_T_S3_S2_RSaIT1_E>:
  40cae1:	55                   	push   %rbp
  40cae2:	48 89 e5             	mov    %rsp,%rbp
  40cae5:	48 83 ec 20          	sub    $0x20,%rsp
  40cae9:	48 89 7d f8          	mov    %rdi,-0x8(%rbp)
  40caed:	48 89 75 f0          	mov    %rsi,-0x10(%rbp)
  40caf1:	48 89 55 e8          	mov    %rdx,-0x18(%rbp)
  40caf5:	48 89 4d e0          	mov    %rcx,-0x20(%rbp)
  40caf9:	48 8b 55 e8          	mov    -0x18(%rbp),%rdx
  40cafd:	48 8b 4d f0          	mov    -0x10(%rbp),%rcx
  40cb01:	48 8b 45 f8          	mov    -0x8(%rbp),%rax
  40cb05:	48 89 ce             	mov    %rcx,%rsi
  40cb08:	48 89 c7             	mov    %rax,%rdi
  40cb0b:	e8 cc 06 00 00       	callq  40d1dc <_ZSt18uninitialized_copyIPcPhET0_T_S3_S2_>
  40cb10:	c9                   	leaveq 
  40cb11:	c3                   	retq   

000000000040cb12 <_ZNSaISt4pairISt6threadbEEC1Ev>:
  40cb12:	55                   	push   %rbp
  40cb13:	48 89 e5             	mov    %rsp,%rbp
  40cb16:	48 83 ec 10          	sub    $0x10,%rsp
  40cb1a:	48 89 7d f8          	mov    %rdi,-0x8(%rbp)
  40cb1e:	48 8b 45 f8          	mov    -0x8(%rbp),%rax
  40cb22:	48 89 c7             	mov    %rax,%rdi
  40cb25:	e8 e4 06 00 00       	callq  40d20e <_ZN9__gnu_cxx13new_allocatorISt4pairISt6threadbEEC1Ev>
  40cb2a:	90                   	nop
  40cb2b:	c9                   	leaveq 
  40cb2c:	c3                   	retq   
  40cb2d:	90                   	nop

000000000040cb2e <_ZN9__gnu_cxx13new_allocatorISt4pairISt6threadbEED1Ev>:
  40cb2e:	55                   	push   %rbp
  40cb2f:	48 89 e5             	mov    %rsp,%rbp
  40cb32:	48 89 7d f8          	mov    %rdi,-0x8(%rbp)
  40cb36:	90                   	nop
  40cb37:	5d                   	pop    %rbp
  40cb38:	c3                   	retq   

000000000040cb39 <_ZNSt16allocator_traitsISaISt4pairISt6threadbEEE10deallocateERS3_PS2_m>:
  40cb39:	55                   	push   %rbp
  40cb3a:	48 89 e5             	mov    %rsp,%rbp
  40cb3d:	48 83 ec 20          	sub    $0x20,%rsp
  40cb41:	48 89 7d f8          	mov    %rdi,-0x8(%rbp)
  40cb45:	48 89 75 f0          	mov    %rsi,-0x10(%rbp)
  40cb49:	48 89 55 e8          	mov    %rdx,-0x18(%rbp)
  40cb4d:	48 8b 55 e8          	mov    -0x18(%rbp),%rdx
  40cb51:	48 8b 4d f0          	mov    -0x10(%rbp),%rcx
  40cb55:	48 8b 45 f8          	mov    -0x8(%rbp),%rax
  40cb59:	48 89 ce             	mov    %rcx,%rsi
  40cb5c:	48 89 c7             	mov    %rax,%rdi
  40cb5f:	e8 b6 06 00 00       	callq  40d21a <_ZN9__gnu_cxx13new_allocatorISt4pairISt6threadbEE10deallocateEPS3_m>
  40cb64:	90                   	nop
  40cb65:	c9                   	leaveq 
  40cb66:	c3                   	retq   

000000000040cb67 <_ZNSt12_Destroy_auxILb0EE9__destroyIPSt4pairISt6threadbEEEvT_S6_>:
  40cb67:	55                   	push   %rbp
  40cb68:	48 89 e5             	mov    %rsp,%rbp
  40cb6b:	48 83 ec 10          	sub    $0x10,%rsp
  40cb6f:	48 89 7d f8          	mov    %rdi,-0x8(%rbp)
  40cb73:	48 89 75 f0          	mov    %rsi,-0x10(%rbp)
  40cb77:	48 8b 45 f8          	mov    -0x8(%rbp),%rax
  40cb7b:	48 3b 45 f0          	cmp    -0x10(%rbp),%rax
  40cb7f:	74 1b                	je     40cb9c <_ZNSt12_Destroy_auxILb0EE9__destroyIPSt4pairISt6threadbEEEvT_S6_+0x35>
  40cb81:	48 8b 45 f8          	mov    -0x8(%rbp),%rax
  40cb85:	48 89 c7             	mov    %rax,%rdi
  40cb88:	e8 b0 06 00 00       	callq  40d23d <_ZSt11__addressofISt4pairISt6threadbEEPT_RS3_>
  40cb8d:	48 89 c7             	mov    %rax,%rdi
  40cb90:	e8 b6 06 00 00       	callq  40d24b <_ZSt8_DestroyISt4pairISt6threadbEEvPT_>
  40cb95:	48 83 45 f8 10       	addq   $0x10,-0x8(%rbp)
  40cb9a:	eb db                	jmp    40cb77 <_ZNSt12_Destroy_auxILb0EE9__destroyIPSt4pairISt6threadbEEEvT_S6_+0x10>
  40cb9c:	90                   	nop
  40cb9d:	c9                   	leaveq 
  40cb9e:	c3                   	retq   
  40cb9f:	90                   	nop

000000000040cba0 <_ZNSt4pairISt6threadbED1Ev>:
  40cba0:	55                   	push   %rbp
  40cba1:	48 89 e5             	mov    %rsp,%rbp
  40cba4:	48 83 ec 10          	sub    $0x10,%rsp
  40cba8:	48 89 7d f8          	mov    %rdi,-0x8(%rbp)
  40cbac:	48 8b 45 f8          	mov    -0x8(%rbp),%rax
  40cbb0:	48 89 c7             	mov    %rax,%rdi
  40cbb3:	e8 c6 d6 ff ff       	callq  40a27e <_ZNSt6threadD1Ev>
  40cbb8:	90                   	nop
  40cbb9:	c9                   	leaveq 
  40cbba:	c3                   	retq   
  40cbbb:	90                   	nop

000000000040cbbc <_ZNKSt6vectorISt4pairISt6threadbESaIS2_EE8max_sizeEv>:
  40cbbc:	55                   	push   %rbp
  40cbbd:	48 89 e5             	mov    %rsp,%rbp
  40cbc0:	48 83 ec 10          	sub    $0x10,%rsp
  40cbc4:	48 89 7d f8          	mov    %rdi,-0x8(%rbp)
  40cbc8:	48 8b 45 f8          	mov    -0x8(%rbp),%rax
  40cbcc:	48 89 c7             	mov    %rax,%rdi
  40cbcf:	e8 e0 06 00 00       	callq  40d2b4 <_ZNKSt12_Vector_baseISt4pairISt6threadbESaIS2_EE19_M_get_Tp_allocatorEv>
  40cbd4:	48 89 c7             	mov    %rax,%rdi
  40cbd7:	e8 be 06 00 00       	callq  40d29a <_ZNSt16allocator_traitsISaISt4pairISt6threadbEEE8max_sizeERKS3_>
  40cbdc:	c9                   	leaveq 
  40cbdd:	c3                   	retq   

000000000040cbde <_ZNSt16allocator_traitsISaISt4pairISt6threadbEEE8allocateERS3_m>:
  40cbde:	55                   	push   %rbp
  40cbdf:	48 89 e5             	mov    %rsp,%rbp
  40cbe2:	48 83 ec 10          	sub    $0x10,%rsp
  40cbe6:	48 89 7d f8          	mov    %rdi,-0x8(%rbp)
  40cbea:	48 89 75 f0          	mov    %rsi,-0x10(%rbp)
  40cbee:	48 8b 4d f0          	mov    -0x10(%rbp),%rcx
  40cbf2:	48 8b 45 f8          	mov    -0x8(%rbp),%rax
  40cbf6:	ba 00 00 00 00       	mov    $0x0,%edx
  40cbfb:	48 89 ce             	mov    %rcx,%rsi
  40cbfe:	48 89 c7             	mov    %rax,%rdi
  40cc01:	e8 bc 06 00 00       	callq  40d2c2 <_ZN9__gnu_cxx13new_allocatorISt4pairISt6threadbEE8allocateEmPKv>
  40cc06:	c9                   	leaveq 
  40cc07:	c3                   	retq   

000000000040cc08 <_ZSt32__make_move_if_noexcept_iteratorIPSt4pairISt6threadbESt13move_iteratorIS3_EET0_T_>:
  40cc08:	55                   	push   %rbp
  40cc09:	48 89 e5             	mov    %rsp,%rbp
  40cc0c:	48 83 ec 20          	sub    $0x20,%rsp
  40cc10:	48 89 7d e8          	mov    %rdi,-0x18(%rbp)
  40cc14:	64 48 8b 04 25 28 00 	mov    %fs:0x28,%rax
  40cc1b:	00 00 
  40cc1d:	48 89 45 f8          	mov    %rax,-0x8(%rbp)
  40cc21:	31 c0                	xor    %eax,%eax
  40cc23:	48 8b 55 e8          	mov    -0x18(%rbp),%rdx
  40cc27:	48 8d 45 f0          	lea    -0x10(%rbp),%rax
  40cc2b:	48 89 d6             	mov    %rdx,%rsi
  40cc2e:	48 89 c7             	mov    %rax,%rdi
  40cc31:	e8 ce 06 00 00       	callq  40d304 <_ZNSt13move_iteratorIPSt4pairISt6threadbEEC1ES3_>
  40cc36:	48 8b 45 f0          	mov    -0x10(%rbp),%rax
  40cc3a:	48 8b 4d f8          	mov    -0x8(%rbp),%rcx
  40cc3e:	64 48 33 0c 25 28 00 	xor    %fs:0x28,%rcx
  40cc45:	00 00 
  40cc47:	74 05                	je     40cc4e <_ZSt32__make_move_if_noexcept_iteratorIPSt4pairISt6threadbESt13move_iteratorIS3_EET0_T_+0x46>
  40cc49:	e8 c2 61 ff ff       	callq  402e10 <__stack_chk_fail@plt>
  40cc4e:	c9                   	leaveq 
  40cc4f:	c3                   	retq   

000000000040cc50 <_ZSt22__uninitialized_copy_aISt13move_iteratorIPSt4pairISt6threadbEES4_S3_ET0_T_S7_S6_RSaIT1_E>:
  40cc50:	55                   	push   %rbp
  40cc51:	48 89 e5             	mov    %rsp,%rbp
  40cc54:	48 83 ec 20          	sub    $0x20,%rsp
  40cc58:	48 89 7d f0          	mov    %rdi,-0x10(%rbp)
  40cc5c:	48 89 75 e0          	mov    %rsi,-0x20(%rbp)
  40cc60:	48 89 55 e8          	mov    %rdx,-0x18(%rbp)
  40cc64:	48 89 4d f8          	mov    %rcx,-0x8(%rbp)
  40cc68:	48 8b 55 e8          	mov    -0x18(%rbp),%rdx
  40cc6c:	48 8b 4d e0          	mov    -0x20(%rbp),%rcx
  40cc70:	48 8b 45 f0          	mov    -0x10(%rbp),%rax
  40cc74:	48 89 ce             	mov    %rcx,%rsi
  40cc77:	48 89 c7             	mov    %rax,%rdi
  40cc7a:	e8 9f 06 00 00       	callq  40d31e <_ZSt18uninitialized_copyISt13move_iteratorIPSt4pairISt6threadbEES4_ET0_T_S7_S6_>
  40cc7f:	c9                   	leaveq 
  40cc80:	c3                   	retq   
  40cc81:	90                   	nop

000000000040cc82 <_ZN9__gnu_cxx13new_allocatorISt4pairISt6threadbEE7destroyIS3_EEvPT_>:
  40cc82:	55                   	push   %rbp
  40cc83:	48 89 e5             	mov    %rsp,%rbp
  40cc86:	48 83 ec 10          	sub    $0x10,%rsp
  40cc8a:	48 89 7d f8          	mov    %rdi,-0x8(%rbp)
  40cc8e:	48 89 75 f0          	mov    %rsi,-0x10(%rbp)
  40cc92:	48 8b 45 f0          	mov    -0x10(%rbp),%rax
  40cc96:	48 89 c7             	mov    %rax,%rdi
  40cc99:	e8 02 ff ff ff       	callq  40cba0 <_ZNSt4pairISt6threadbED1Ev>
  40cc9e:	90                   	nop
  40cc9f:	c9                   	leaveq 
  40cca0:	c3                   	retq   

000000000040cca1 <_ZSt19__iterator_categoryIN9__gnu_cxx17__normal_iteratorIPSt4pairISt6threadbESt6vectorIS4_SaIS4_EEEEENSt15iterator_traitsIT_E17iterator_categoryERKSB_>:
  40cca1:	55                   	push   %rbp
  40cca2:	48 89 e5             	mov    %rsp,%rbp
  40cca5:	48 89 7d f8          	mov    %rdi,-0x8(%rbp)
  40cca9:	5d                   	pop    %rbp
  40ccaa:	c3                   	retq   

000000000040ccab <_ZSt12__miter_baseIN9__gnu_cxx17__normal_iteratorIPSt4pairISt6threadbESt6vectorIS4_SaIS4_EEEEENSt11_Miter_baseIT_E13iterator_typeESB_>:
  40ccab:	55                   	push   %rbp
  40ccac:	48 89 e5             	mov    %rsp,%rbp
  40ccaf:	48 83 ec 10          	sub    $0x10,%rsp
  40ccb3:	48 89 7d f0          	mov    %rdi,-0x10(%rbp)
  40ccb7:	48 8b 45 f0          	mov    -0x10(%rbp),%rax
  40ccbb:	48 89 c7             	mov    %rax,%rdi
  40ccbe:	e8 8c 06 00 00       	callq  40d34f <_ZNSt10_Iter_baseIN9__gnu_cxx17__normal_iteratorIPSt4pairISt6threadbESt6vectorIS4_SaIS4_EEEELb0EE7_S_baseES9_>
  40ccc3:	c9                   	leaveq 
  40ccc4:	c3                   	retq   

000000000040ccc5 <_ZSt14__copy_move_a2ILb1EN9__gnu_cxx17__normal_iteratorIPSt4pairISt6threadbESt6vectorIS4_SaIS4_EEEES9_ET1_T0_SB_SA_>:
  40ccc5:	55                   	push   %rbp
  40ccc6:	48 89 e5             	mov    %rsp,%rbp
  40ccc9:	41 54                	push   %r12
  40cccb:	53                   	push   %rbx
  40cccc:	48 83 ec 50          	sub    $0x50,%rsp
  40ccd0:	48 89 7d c0          	mov    %rdi,-0x40(%rbp)
  40ccd4:	48 89 75 b0          	mov    %rsi,-0x50(%rbp)
  40ccd8:	48 89 55 a0          	mov    %rdx,-0x60(%rbp)
  40ccdc:	64 48 8b 04 25 28 00 	mov    %fs:0x28,%rax
  40cce3:	00 00 
  40cce5:	48 89 45 e8          	mov    %rax,-0x18(%rbp)
  40cce9:	31 c0                	xor    %eax,%eax
  40cceb:	48 8b 45 a0          	mov    -0x60(%rbp),%rax
  40ccef:	48 89 c7             	mov    %rax,%rdi
  40ccf2:	e8 66 06 00 00       	callq  40d35d <_ZSt12__niter_baseIN9__gnu_cxx17__normal_iteratorIPSt4pairISt6threadbESt6vectorIS4_SaIS4_EEEEENSt11_Niter_baseIT_E13iterator_typeESB_>
  40ccf7:	49 89 c4             	mov    %rax,%r12
  40ccfa:	48 8b 45 b0          	mov    -0x50(%rbp),%rax
  40ccfe:	48 89 c7             	mov    %rax,%rdi
  40cd01:	e8 57 06 00 00       	callq  40d35d <_ZSt12__niter_baseIN9__gnu_cxx17__normal_iteratorIPSt4pairISt6threadbESt6vectorIS4_SaIS4_EEEEENSt11_Niter_baseIT_E13iterator_typeESB_>
  40cd06:	48 89 c3             	mov    %rax,%rbx
  40cd09:	48 8b 45 c0          	mov    -0x40(%rbp),%rax
  40cd0d:	48 89 c7             	mov    %rax,%rdi
  40cd10:	e8 48 06 00 00       	callq  40d35d <_ZSt12__niter_baseIN9__gnu_cxx17__normal_iteratorIPSt4pairISt6threadbESt6vectorIS4_SaIS4_EEEEENSt11_Niter_baseIT_E13iterator_typeESB_>
  40cd15:	4c 89 e2             	mov    %r12,%rdx
  40cd18:	48 89 de             	mov    %rbx,%rsi
  40cd1b:	48 89 c7             	mov    %rax,%rdi
  40cd1e:	e8 54 06 00 00       	callq  40d377 <_ZSt13__copy_move_aILb1EPSt4pairISt6threadbES3_ET1_T0_S5_S4_>
  40cd23:	48 89 45 e0          	mov    %rax,-0x20(%rbp)
  40cd27:	48 8d 55 e0          	lea    -0x20(%rbp),%rdx
  40cd2b:	48 8d 45 d0          	lea    -0x30(%rbp),%rax
  40cd2f:	48 89 d6             	mov    %rdx,%rsi
  40cd32:	48 89 c7             	mov    %rax,%rdi
  40cd35:	e8 48 e9 ff ff       	callq  40b682 <_ZN9__gnu_cxx17__normal_iteratorIPSt4pairISt6threadbESt6vectorIS3_SaIS3_EEEC1ERKS4_>
  40cd3a:	48 8b 45 d0          	mov    -0x30(%rbp),%rax
  40cd3e:	48 8b 4d e8          	mov    -0x18(%rbp),%rcx
  40cd42:	64 48 33 0c 25 28 00 	xor    %fs:0x28,%rcx
  40cd49:	00 00 
  40cd4b:	74 05                	je     40cd52 <_ZSt14__copy_move_a2ILb1EN9__gnu_cxx17__normal_iteratorIPSt4pairISt6threadbESt6vectorIS4_SaIS4_EEEES9_ET1_T0_SB_SA_+0x8d>
  40cd4d:	e8 be 60 ff ff       	callq  402e10 <__stack_chk_fail@plt>
  40cd52:	48 83 c4 50          	add    $0x50,%rsp
  40cd56:	5b                   	pop    %rbx
  40cd57:	41 5c                	pop    %r12
  40cd59:	5d                   	pop    %rbp
  40cd5a:	c3                   	retq   
  40cd5b:	90                   	nop

000000000040cd5c <_ZNSt7__cxx1112basic_stringIcSt11char_traitsIcESaIcEE12_M_constructIPcEEvT_S7_St20forward_iterator_tag>:
  40cd5c:	55                   	push   %rbp
  40cd5d:	48 89 e5             	mov    %rsp,%rbp
  40cd60:	53                   	push   %rbx
  40cd61:	48 83 ec 38          	sub    $0x38,%rsp
  40cd65:	48 89 7d d8          	mov    %rdi,-0x28(%rbp)
  40cd69:	48 89 75 d0          	mov    %rsi,-0x30(%rbp)
  40cd6d:	48 89 55 c8          	mov    %rdx,-0x38(%rbp)
  40cd71:	64 48 8b 04 25 28 00 	mov    %fs:0x28,%rax
  40cd78:	00 00 
  40cd7a:	48 89 45 e8          	mov    %rax,-0x18(%rbp)
  40cd7e:	31 c0                	xor    %eax,%eax
  40cd80:	48 8b 45 d0          	mov    -0x30(%rbp),%rax
  40cd84:	48 89 c7             	mov    %rax,%rdi
  40cd87:	e8 1c 06 00 00       	callq  40d3a8 <_ZN9__gnu_cxx17__is_null_pointerIcEEbPT_>
  40cd8c:	84 c0                	test   %al,%al
  40cd8e:	74 11                	je     40cda1 <_ZNSt7__cxx1112basic_stringIcSt11char_traitsIcESaIcEE12_M_constructIPcEEvT_S7_St20forward_iterator_tag+0x45>
  40cd90:	48 8b 45 d0          	mov    -0x30(%rbp),%rax
  40cd94:	48 3b 45 c8          	cmp    -0x38(%rbp),%rax
  40cd98:	74 07                	je     40cda1 <_ZNSt7__cxx1112basic_stringIcSt11char_traitsIcESaIcEE12_M_constructIPcEEvT_S7_St20forward_iterator_tag+0x45>
  40cd9a:	b8 01 00 00 00       	mov    $0x1,%eax
  40cd9f:	eb 05                	jmp    40cda6 <_ZNSt7__cxx1112basic_stringIcSt11char_traitsIcESaIcEE12_M_constructIPcEEvT_S7_St20forward_iterator_tag+0x4a>
  40cda1:	b8 00 00 00 00       	mov    $0x0,%eax
  40cda6:	84 c0                	test   %al,%al
  40cda8:	74 0a                	je     40cdb4 <_ZNSt7__cxx1112basic_stringIcSt11char_traitsIcESaIcEE12_M_constructIPcEEvT_S7_St20forward_iterator_tag+0x58>
  40cdaa:	bf e0 df 40 00       	mov    $0x40dfe0,%edi
  40cdaf:	e8 bc 5e ff ff       	callq  402c70 <_ZSt19__throw_logic_errorPKc@plt>
  40cdb4:	48 8b 55 c8          	mov    -0x38(%rbp),%rdx
  40cdb8:	48 8b 45 d0          	mov    -0x30(%rbp),%rax
  40cdbc:	48 89 d6             	mov    %rdx,%rsi
  40cdbf:	48 89 c7             	mov    %rax,%rdi
  40cdc2:	e8 01 fc ff ff       	callq  40c9c8 <_ZSt8distanceIPcENSt15iterator_traitsIT_E15difference_typeES2_S2_>
  40cdc7:	48 89 45 e0          	mov    %rax,-0x20(%rbp)
  40cdcb:	48 8b 45 e0          	mov    -0x20(%rbp),%rax
  40cdcf:	48 83 f8 0f          	cmp    $0xf,%rax
  40cdd3:	76 3d                	jbe    40ce12 <_ZNSt7__cxx1112basic_stringIcSt11char_traitsIcESaIcEE12_M_constructIPcEEvT_S7_St20forward_iterator_tag+0xb6>
  40cdd5:	48 8d 4d e0          	lea    -0x20(%rbp),%rcx
  40cdd9:	48 8b 45 d8          	mov    -0x28(%rbp),%rax
  40cddd:	ba 00 00 00 00       	mov    $0x0,%edx
  40cde2:	48 89 ce             	mov    %rcx,%rsi
  40cde5:	48 89 c7             	mov    %rax,%rdi
  40cde8:	e8 03 62 ff ff       	callq  402ff0 <_ZNSt7__cxx1112basic_stringIcSt11char_traitsIcESaIcEE9_M_createERmm@plt>
  40cded:	48 89 c2             	mov    %rax,%rdx
  40cdf0:	48 8b 45 d8          	mov    -0x28(%rbp),%rax
  40cdf4:	48 89 d6             	mov    %rdx,%rsi
  40cdf7:	48 89 c7             	mov    %rax,%rdi
  40cdfa:	e8 01 5f ff ff       	callq  402d00 <_ZNSt7__cxx1112basic_stringIcSt11char_traitsIcESaIcEE7_M_dataEPc@plt>
  40cdff:	48 8b 55 e0          	mov    -0x20(%rbp),%rdx
  40ce03:	48 8b 45 d8          	mov    -0x28(%rbp),%rax
  40ce07:	48 89 d6             	mov    %rdx,%rsi
  40ce0a:	48 89 c7             	mov    %rax,%rdi
  40ce0d:	e8 5e 62 ff ff       	callq  403070 <_ZNSt7__cxx1112basic_stringIcSt11char_traitsIcESaIcEE11_M_capacityEm@plt>
  40ce12:	48 8b 45 d8          	mov    -0x28(%rbp),%rax
  40ce16:	48 89 c7             	mov    %rax,%rdi
  40ce19:	e8 e2 5f ff ff       	callq  402e00 <_ZNKSt7__cxx1112basic_stringIcSt11char_traitsIcESaIcEE7_M_dataEv@plt>
  40ce1e:	48 89 c1             	mov    %rax,%rcx
  40ce21:	48 8b 55 c8          	mov    -0x38(%rbp),%rdx
  40ce25:	48 8b 45 d0          	mov    -0x30(%rbp),%rax
  40ce29:	48 89 c6             	mov    %rax,%rsi
  40ce2c:	48 89 cf             	mov    %rcx,%rdi
  40ce2f:	e8 dc 5c ff ff       	callq  402b10 <_ZNSt7__cxx1112basic_stringIcSt11char_traitsIcESaIcEE13_S_copy_charsEPcS5_S5_@plt>
  40ce34:	48 8b 55 e0          	mov    -0x20(%rbp),%rdx
  40ce38:	48 8b 45 d8          	mov    -0x28(%rbp),%rax
  40ce3c:	48 89 d6             	mov    %rdx,%rsi
  40ce3f:	48 89 c7             	mov    %rax,%rdi
  40ce42:	e8 09 5e ff ff       	callq  402c50 <_ZNSt7__cxx1112basic_stringIcSt11char_traitsIcESaIcEE13_M_set_lengthEm@plt>
  40ce47:	90                   	nop
  40ce48:	48 8b 45 e8          	mov    -0x18(%rbp),%rax
  40ce4c:	64 48 33 04 25 28 00 	xor    %fs:0x28,%rax
  40ce53:	00 00 
  40ce55:	74 33                	je     40ce8a <_ZNSt7__cxx1112basic_stringIcSt11char_traitsIcESaIcEE12_M_constructIPcEEvT_S7_St20forward_iterator_tag+0x12e>
  40ce57:	eb 2c                	jmp    40ce85 <_ZNSt7__cxx1112basic_stringIcSt11char_traitsIcESaIcEE12_M_constructIPcEEvT_S7_St20forward_iterator_tag+0x129>
  40ce59:	48 89 c7             	mov    %rax,%rdi
  40ce5c:	e8 0f 5d ff ff       	callq  402b70 <__cxa_begin_catch@plt>
  40ce61:	48 8b 45 d8          	mov    -0x28(%rbp),%rax
  40ce65:	48 89 c7             	mov    %rax,%rdi
  40ce68:	e8 d3 5f ff ff       	callq  402e40 <_ZNSt7__cxx1112basic_stringIcSt11char_traitsIcESaIcEE10_M_disposeEv@plt>
  40ce6d:	e8 3e 60 ff ff       	callq  402eb0 <__cxa_rethrow@plt>
  40ce72:	48 89 c3             	mov    %rax,%rbx
  40ce75:	e8 b6 60 ff ff       	callq  402f30 <__cxa_end_catch@plt>
  40ce7a:	48 89 d8             	mov    %rbx,%rax
  40ce7d:	48 89 c7             	mov    %rax,%rdi
  40ce80:	e8 3b 61 ff ff       	callq  402fc0 <_Unwind_Resume@plt>
  40ce85:	e8 86 5f ff ff       	callq  402e10 <__stack_chk_fail@plt>
  40ce8a:	48 83 c4 38          	add    $0x38,%rsp
  40ce8e:	5b                   	pop    %rbx
  40ce8f:	5d                   	pop    %rbp
  40ce90:	c3                   	retq   

000000000040ce91 <_ZNSt16allocator_traitsISaISt13_Rb_tree_nodeISt4pairIKNSt7__cxx1112basic_stringIcSt11char_traitsIcESaIcEEES7_EEEE9constructIS9_IRKSt21piecewise_construct_tSt5tupleIIRS8_EESH_IIEEEEEvRSB_PT_DpOT0_>:
  40ce91:	55                   	push   %rbp
  40ce92:	48 89 e5             	mov    %rsp,%rbp
  40ce95:	41 54                	push   %r12
  40ce97:	53                   	push   %rbx
  40ce98:	48 83 ec 30          	sub    $0x30,%rsp
  40ce9c:	48 89 7d e8          	mov    %rdi,-0x18(%rbp)
  40cea0:	48 89 75 e0          	mov    %rsi,-0x20(%rbp)
  40cea4:	48 89 55 d8          	mov    %rdx,-0x28(%rbp)
  40cea8:	48 89 4d d0          	mov    %rcx,-0x30(%rbp)
  40ceac:	4c 89 45 c8          	mov    %r8,-0x38(%rbp)
  40ceb0:	48 8b 45 c8          	mov    -0x38(%rbp),%rax
  40ceb4:	48 89 c7             	mov    %rax,%rdi
  40ceb7:	e8 f1 7a ff ff       	callq  4049ad <_ZSt7forwardISt5tupleIIEEEOT_RNSt16remove_referenceIS2_E4typeE>
  40cebc:	49 89 c4             	mov    %rax,%r12
  40cebf:	48 8b 45 d0          	mov    -0x30(%rbp),%rax
  40cec3:	48 89 c7             	mov    %rax,%rdi
  40cec6:	e8 a4 e2 ff ff       	callq  40b16f <_ZSt7forwardISt5tupleIIRKNSt7__cxx1112basic_stringIcSt11char_traitsIcESaIcEEEEEEOT_RNSt16remove_referenceISA_E4typeE>
  40cecb:	48 89 c3             	mov    %rax,%rbx
  40cece:	48 8b 45 d8          	mov    -0x28(%rbp),%rax
  40ced2:	48 89 c7             	mov    %rax,%rdi
  40ced5:	e8 b7 7a ff ff       	callq  404991 <_ZSt7forwardIRKSt21piecewise_construct_tEOT_RNSt16remove_referenceIS3_E4typeE>
  40ceda:	48 89 c2             	mov    %rax,%rdx
  40cedd:	48 8b 75 e0          	mov    -0x20(%rbp),%rsi
  40cee1:	48 8b 45 e8          	mov    -0x18(%rbp),%rax
  40cee5:	4d 89 e0             	mov    %r12,%r8
  40cee8:	48 89 d9             	mov    %rbx,%rcx
  40ceeb:	48 89 c7             	mov    %rax,%rdi
  40ceee:	e8 61 05 00 00       	callq  40d454 <_ZN9__gnu_cxx13new_allocatorISt13_Rb_tree_nodeISt4pairIKNSt7__cxx1112basic_stringIcSt11char_traitsIcESaIcEEES8_EEE9constructISA_IRKSt21piecewise_construct_tSt5tupleIIRS9_EESH_IIEEEEEvPT_DpOT0_>
  40cef3:	90                   	nop
  40cef4:	48 83 c4 30          	add    $0x30,%rsp
  40cef8:	5b                   	pop    %rbx
  40cef9:	41 5c                	pop    %r12
  40cefb:	5d                   	pop    %rbp
  40cefc:	c3                   	retq   

000000000040cefd <_ZSt19__iterator_categoryIPKcENSt15iterator_traitsIT_E17iterator_categoryERKS3_>:
  40cefd:	55                   	push   %rbp
  40cefe:	48 89 e5             	mov    %rsp,%rbp
  40cf01:	48 89 7d f8          	mov    %rdi,-0x8(%rbp)
  40cf05:	5d                   	pop    %rbp
  40cf06:	c3                   	retq   

000000000040cf07 <_ZSt10__distanceIPKcENSt15iterator_traitsIT_E15difference_typeES3_S3_St26random_access_iterator_tag>:
  40cf07:	55                   	push   %rbp
  40cf08:	48 89 e5             	mov    %rsp,%rbp
  40cf0b:	48 89 7d f8          	mov    %rdi,-0x8(%rbp)
  40cf0f:	48 89 75 f0          	mov    %rsi,-0x10(%rbp)
  40cf13:	48 8b 55 f0          	mov    -0x10(%rbp),%rdx
  40cf17:	48 8b 45 f8          	mov    -0x8(%rbp),%rax
  40cf1b:	48 29 c2             	sub    %rax,%rdx
  40cf1e:	48 89 d0             	mov    %rdx,%rax
  40cf21:	5d                   	pop    %rbp
  40cf22:	c3                   	retq   

000000000040cf23 <_ZSt18make_move_iteratorIPhESt13move_iteratorIT_ES2_>:
  40cf23:	55                   	push   %rbp
  40cf24:	48 89 e5             	mov    %rsp,%rbp
  40cf27:	48 83 ec 20          	sub    $0x20,%rsp
  40cf2b:	48 89 7d e8          	mov    %rdi,-0x18(%rbp)
  40cf2f:	64 48 8b 04 25 28 00 	mov    %fs:0x28,%rax
  40cf36:	00 00 
  40cf38:	48 89 45 f8          	mov    %rax,-0x8(%rbp)
  40cf3c:	31 c0                	xor    %eax,%eax
  40cf3e:	48 8b 55 e8          	mov    -0x18(%rbp),%rdx
  40cf42:	48 8d 45 f0          	lea    -0x10(%rbp),%rax
  40cf46:	48 89 d6             	mov    %rdx,%rsi
  40cf49:	48 89 c7             	mov    %rax,%rdi
  40cf4c:	e8 47 9e ff ff       	callq  406d98 <_ZNSt13move_iteratorIPhEC1ES0_>
  40cf51:	48 8b 45 f0          	mov    -0x10(%rbp),%rax
  40cf55:	48 8b 4d f8          	mov    -0x8(%rbp),%rcx
  40cf59:	64 48 33 0c 25 28 00 	xor    %fs:0x28,%rcx
  40cf60:	00 00 
  40cf62:	74 05                	je     40cf69 <_ZSt18make_move_iteratorIPhESt13move_iteratorIT_ES2_+0x46>
  40cf64:	e8 a7 5e ff ff       	callq  402e10 <__stack_chk_fail@plt>
  40cf69:	c9                   	leaveq 
  40cf6a:	c3                   	retq   

000000000040cf6b <_ZSt12__miter_baseIPhENSt11_Miter_baseIT_E13iterator_typeES2_>:
  40cf6b:	55                   	push   %rbp
  40cf6c:	48 89 e5             	mov    %rsp,%rbp
  40cf6f:	48 83 ec 10          	sub    $0x10,%rsp
  40cf73:	48 89 7d f8          	mov    %rdi,-0x8(%rbp)
  40cf77:	48 8b 45 f8          	mov    -0x8(%rbp),%rax
  40cf7b:	48 89 c7             	mov    %rax,%rdi
  40cf7e:	e8 aa a0 ff ff       	callq  40702d <_ZNSt10_Iter_baseIPhLb0EE7_S_baseES0_>
  40cf83:	c9                   	leaveq 
  40cf84:	c3                   	retq   

000000000040cf85 <_ZSt23__copy_move_backward_a2ILb1EPhS0_ET1_T0_S2_S1_>:
  40cf85:	55                   	push   %rbp
  40cf86:	48 89 e5             	mov    %rsp,%rbp
  40cf89:	41 54                	push   %r12
  40cf8b:	53                   	push   %rbx
  40cf8c:	48 83 ec 20          	sub    $0x20,%rsp
  40cf90:	48 89 7d e8          	mov    %rdi,-0x18(%rbp)
  40cf94:	48 89 75 e0          	mov    %rsi,-0x20(%rbp)
  40cf98:	48 89 55 d8          	mov    %rdx,-0x28(%rbp)
  40cf9c:	48 8b 45 d8          	mov    -0x28(%rbp),%rax
  40cfa0:	48 89 c7             	mov    %rax,%rdi
  40cfa3:	e8 28 a0 ff ff       	callq  406fd0 <_ZSt12__niter_baseIPhENSt11_Niter_baseIT_E13iterator_typeES2_>
  40cfa8:	49 89 c4             	mov    %rax,%r12
  40cfab:	48 8b 45 e0          	mov    -0x20(%rbp),%rax
  40cfaf:	48 89 c7             	mov    %rax,%rdi
  40cfb2:	e8 19 a0 ff ff       	callq  406fd0 <_ZSt12__niter_baseIPhENSt11_Niter_baseIT_E13iterator_typeES2_>
  40cfb7:	48 89 c3             	mov    %rax,%rbx
  40cfba:	48 8b 45 e8          	mov    -0x18(%rbp),%rax
  40cfbe:	48 89 c7             	mov    %rax,%rdi
  40cfc1:	e8 0a a0 ff ff       	callq  406fd0 <_ZSt12__niter_baseIPhENSt11_Niter_baseIT_E13iterator_typeES2_>
  40cfc6:	4c 89 e2             	mov    %r12,%rdx
  40cfc9:	48 89 de             	mov    %rbx,%rsi
  40cfcc:	48 89 c7             	mov    %rax,%rdi
  40cfcf:	e8 5e 05 00 00       	callq  40d532 <_ZSt22__copy_move_backward_aILb1EPhS0_ET1_T0_S2_S1_>
  40cfd4:	48 83 c4 20          	add    $0x20,%rsp
  40cfd8:	5b                   	pop    %rbx
  40cfd9:	41 5c                	pop    %r12
  40cfdb:	5d                   	pop    %rbp
  40cfdc:	c3                   	retq   

000000000040cfdd <_ZSt12__miter_baseIPKcENSt11_Miter_baseIT_E13iterator_typeES3_>:
  40cfdd:	55                   	push   %rbp
  40cfde:	48 89 e5             	mov    %rsp,%rbp
  40cfe1:	48 83 ec 10          	sub    $0x10,%rsp
  40cfe5:	48 89 7d f8          	mov    %rdi,-0x8(%rbp)
  40cfe9:	48 8b 45 f8          	mov    -0x8(%rbp),%rax
  40cfed:	48 89 c7             	mov    %rax,%rdi
  40cff0:	e8 6e 05 00 00       	callq  40d563 <_ZNSt10_Iter_baseIPKcLb0EE7_S_baseES1_>
  40cff5:	c9                   	leaveq 
  40cff6:	c3                   	retq   

000000000040cff7 <_ZSt14__copy_move_a2ILb0EPKcN9__gnu_cxx17__normal_iteratorIPhSt6vectorIhSaIhEEEEET1_T0_SA_S9_>:
  40cff7:	55                   	push   %rbp
  40cff8:	48 89 e5             	mov    %rsp,%rbp
  40cffb:	41 54                	push   %r12
  40cffd:	53                   	push   %rbx
  40cffe:	48 83 ec 40          	sub    $0x40,%rsp
  40d002:	48 89 7d c8          	mov    %rdi,-0x38(%rbp)
  40d006:	48 89 75 c0          	mov    %rsi,-0x40(%rbp)
  40d00a:	48 89 55 b0          	mov    %rdx,-0x50(%rbp)
  40d00e:	64 48 8b 04 25 28 00 	mov    %fs:0x28,%rax
  40d015:	00 00 
  40d017:	48 89 45 e8          	mov    %rax,-0x18(%rbp)
  40d01b:	31 c0                	xor    %eax,%eax
  40d01d:	48 8b 45 b0          	mov    -0x50(%rbp),%rax
  40d021:	48 89 c7             	mov    %rax,%rdi
  40d024:	e8 62 05 00 00       	callq  40d58b <_ZSt12__niter_baseIN9__gnu_cxx17__normal_iteratorIPhSt6vectorIhSaIhEEEEENSt11_Niter_baseIT_E13iterator_typeES8_>
  40d029:	49 89 c4             	mov    %rax,%r12
  40d02c:	48 8b 45 c0          	mov    -0x40(%rbp),%rax
  40d030:	48 89 c7             	mov    %rax,%rdi
  40d033:	e8 39 05 00 00       	callq  40d571 <_ZSt12__niter_baseIPKcENSt11_Niter_baseIT_E13iterator_typeES3_>
  40d038:	48 89 c3             	mov    %rax,%rbx
  40d03b:	48 8b 45 c8          	mov    -0x38(%rbp),%rax
  40d03f:	48 89 c7             	mov    %rax,%rdi
  40d042:	e8 2a 05 00 00       	callq  40d571 <_ZSt12__niter_baseIPKcENSt11_Niter_baseIT_E13iterator_typeES3_>
  40d047:	4c 89 e2             	mov    %r12,%rdx
  40d04a:	48 89 de             	mov    %rbx,%rsi
  40d04d:	48 89 c7             	mov    %rax,%rdi
  40d050:	e8 50 05 00 00       	callq  40d5a5 <_ZSt13__copy_move_aILb0EPKcPhET1_T0_S4_S3_>
  40d055:	48 89 45 e0          	mov    %rax,-0x20(%rbp)
  40d059:	48 8d 55 e0          	lea    -0x20(%rbp),%rdx
  40d05d:	48 8d 45 d0          	lea    -0x30(%rbp),%rax
  40d061:	48 89 d6             	mov    %rdx,%rsi
  40d064:	48 89 c7             	mov    %rax,%rdi
  40d067:	e8 32 e3 ff ff       	callq  40b39e <_ZN9__gnu_cxx17__normal_iteratorIPhSt6vectorIhSaIhEEEC1ERKS1_>
  40d06c:	48 8b 45 d0          	mov    -0x30(%rbp),%rax
  40d070:	48 8b 4d e8          	mov    -0x18(%rbp),%rcx
  40d074:	64 48 33 0c 25 28 00 	xor    %fs:0x28,%rcx
  40d07b:	00 00 
  40d07d:	74 05                	je     40d084 <_ZSt14__copy_move_a2ILb0EPKcN9__gnu_cxx17__normal_iteratorIPhSt6vectorIhSaIhEEEEET1_T0_SA_S9_+0x8d>
  40d07f:	e8 8c 5d ff ff       	callq  402e10 <__stack_chk_fail@plt>
  40d084:	48 83 c4 40          	add    $0x40,%rsp
  40d088:	5b                   	pop    %rbx
  40d089:	41 5c                	pop    %r12
  40d08b:	5d                   	pop    %rbp
  40d08c:	c3                   	retq   

000000000040d08d <_ZSt9__advanceIPKclEvRT_T0_St26random_access_iterator_tag>:
  40d08d:	55                   	push   %rbp
  40d08e:	48 89 e5             	mov    %rsp,%rbp
  40d091:	48 89 7d f8          	mov    %rdi,-0x8(%rbp)
  40d095:	48 89 75 f0          	mov    %rsi,-0x10(%rbp)
  40d099:	48 8b 45 f8          	mov    -0x8(%rbp),%rax
  40d09d:	48 8b 10             	mov    (%rax),%rdx
  40d0a0:	48 8b 45 f0          	mov    -0x10(%rbp),%rax
  40d0a4:	48 01 c2             	add    %rax,%rdx
  40d0a7:	48 8b 45 f8          	mov    -0x8(%rbp),%rax
  40d0ab:	48 89 10             	mov    %rdx,(%rax)
  40d0ae:	90                   	nop
  40d0af:	5d                   	pop    %rbp
  40d0b0:	c3                   	retq   

000000000040d0b1 <_ZSt18uninitialized_copyIPKcPhET0_T_S4_S3_>:
  40d0b1:	55                   	push   %rbp
  40d0b2:	48 89 e5             	mov    %rsp,%rbp
  40d0b5:	48 83 ec 30          	sub    $0x30,%rsp
  40d0b9:	48 89 7d e8          	mov    %rdi,-0x18(%rbp)
  40d0bd:	48 89 75 e0          	mov    %rsi,-0x20(%rbp)
  40d0c1:	48 89 55 d8          	mov    %rdx,-0x28(%rbp)
  40d0c5:	c6 45 ff 01          	movb   $0x1,-0x1(%rbp)
  40d0c9:	48 8b 55 d8          	mov    -0x28(%rbp),%rdx
  40d0cd:	48 8b 4d e0          	mov    -0x20(%rbp),%rcx
  40d0d1:	48 8b 45 e8          	mov    -0x18(%rbp),%rax
  40d0d5:	48 89 ce             	mov    %rcx,%rsi
  40d0d8:	48 89 c7             	mov    %rax,%rdi
  40d0db:	e8 f6 04 00 00       	callq  40d5d6 <_ZNSt20__uninitialized_copyILb1EE13__uninit_copyIPKcPhEET0_T_S6_S5_>
  40d0e0:	c9                   	leaveq 
  40d0e1:	c3                   	retq   

000000000040d0e2 <_ZSt19__iterator_categoryIPcENSt15iterator_traitsIT_E17iterator_categoryERKS2_>:
  40d0e2:	55                   	push   %rbp
  40d0e3:	48 89 e5             	mov    %rsp,%rbp
  40d0e6:	48 89 7d f8          	mov    %rdi,-0x8(%rbp)
  40d0ea:	5d                   	pop    %rbp
  40d0eb:	c3                   	retq   

000000000040d0ec <_ZSt10__distanceIPcENSt15iterator_traitsIT_E15difference_typeES2_S2_St26random_access_iterator_tag>:
  40d0ec:	55                   	push   %rbp
  40d0ed:	48 89 e5             	mov    %rsp,%rbp
  40d0f0:	48 89 7d f8          	mov    %rdi,-0x8(%rbp)
  40d0f4:	48 89 75 f0          	mov    %rsi,-0x10(%rbp)
  40d0f8:	48 8b 55 f0          	mov    -0x10(%rbp),%rdx
  40d0fc:	48 8b 45 f8          	mov    -0x8(%rbp),%rax
  40d100:	48 29 c2             	sub    %rax,%rdx
  40d103:	48 89 d0             	mov    %rdx,%rax
  40d106:	5d                   	pop    %rbp
  40d107:	c3                   	retq   

000000000040d108 <_ZSt12__miter_baseIPcENSt11_Miter_baseIT_E13iterator_typeES2_>:
  40d108:	55                   	push   %rbp
  40d109:	48 89 e5             	mov    %rsp,%rbp
  40d10c:	48 83 ec 10          	sub    $0x10,%rsp
  40d110:	48 89 7d f8          	mov    %rdi,-0x8(%rbp)
  40d114:	48 8b 45 f8          	mov    -0x8(%rbp),%rax
  40d118:	48 89 c7             	mov    %rax,%rdi
  40d11b:	e8 e3 04 00 00       	callq  40d603 <_ZNSt10_Iter_baseIPcLb0EE7_S_baseES0_>
  40d120:	c9                   	leaveq 
  40d121:	c3                   	retq   

000000000040d122 <_ZSt14__copy_move_a2ILb0EPcN9__gnu_cxx17__normal_iteratorIPhSt6vectorIhSaIhEEEEET1_T0_S9_S8_>:
  40d122:	55                   	push   %rbp
  40d123:	48 89 e5             	mov    %rsp,%rbp
  40d126:	41 54                	push   %r12
  40d128:	53                   	push   %rbx
  40d129:	48 83 ec 40          	sub    $0x40,%rsp
  40d12d:	48 89 7d c8          	mov    %rdi,-0x38(%rbp)
  40d131:	48 89 75 c0          	mov    %rsi,-0x40(%rbp)
  40d135:	48 89 55 b0          	mov    %rdx,-0x50(%rbp)
  40d139:	64 48 8b 04 25 28 00 	mov    %fs:0x28,%rax
  40d140:	00 00 
  40d142:	48 89 45 e8          	mov    %rax,-0x18(%rbp)
  40d146:	31 c0                	xor    %eax,%eax
  40d148:	48 8b 45 b0          	mov    -0x50(%rbp),%rax
  40d14c:	48 89 c7             	mov    %rax,%rdi
  40d14f:	e8 37 04 00 00       	callq  40d58b <_ZSt12__niter_baseIN9__gnu_cxx17__normal_iteratorIPhSt6vectorIhSaIhEEEEENSt11_Niter_baseIT_E13iterator_typeES8_>
  40d154:	49 89 c4             	mov    %rax,%r12
  40d157:	48 8b 45 c0          	mov    -0x40(%rbp),%rax
  40d15b:	48 89 c7             	mov    %rax,%rdi
  40d15e:	e8 ae 04 00 00       	callq  40d611 <_ZSt12__niter_baseIPcENSt11_Niter_baseIT_E13iterator_typeES2_>
  40d163:	48 89 c3             	mov    %rax,%rbx
  40d166:	48 8b 45 c8          	mov    -0x38(%rbp),%rax
  40d16a:	48 89 c7             	mov    %rax,%rdi
  40d16d:	e8 9f 04 00 00       	callq  40d611 <_ZSt12__niter_baseIPcENSt11_Niter_baseIT_E13iterator_typeES2_>
  40d172:	4c 89 e2             	mov    %r12,%rdx
  40d175:	48 89 de             	mov    %rbx,%rsi
  40d178:	48 89 c7             	mov    %rax,%rdi
  40d17b:	e8 ab 04 00 00       	callq  40d62b <_ZSt13__copy_move_aILb0EPcPhET1_T0_S3_S2_>
  40d180:	48 89 45 e0          	mov    %rax,-0x20(%rbp)
  40d184:	48 8d 55 e0          	lea    -0x20(%rbp),%rdx
  40d188:	48 8d 45 d0          	lea    -0x30(%rbp),%rax
  40d18c:	48 89 d6             	mov    %rdx,%rsi
  40d18f:	48 89 c7             	mov    %rax,%rdi
  40d192:	e8 07 e2 ff ff       	callq  40b39e <_ZN9__gnu_cxx17__normal_iteratorIPhSt6vectorIhSaIhEEEC1ERKS1_>
  40d197:	48 8b 45 d0          	mov    -0x30(%rbp),%rax
  40d19b:	48 8b 4d e8          	mov    -0x18(%rbp),%rcx
  40d19f:	64 48 33 0c 25 28 00 	xor    %fs:0x28,%rcx
  40d1a6:	00 00 
  40d1a8:	74 05                	je     40d1af <_ZSt14__copy_move_a2ILb0EPcN9__gnu_cxx17__normal_iteratorIPhSt6vectorIhSaIhEEEEET1_T0_S9_S8_+0x8d>
  40d1aa:	e8 61 5c ff ff       	callq  402e10 <__stack_chk_fail@plt>
  40d1af:	48 83 c4 40          	add    $0x40,%rsp
  40d1b3:	5b                   	pop    %rbx
  40d1b4:	41 5c                	pop    %r12
  40d1b6:	5d                   	pop    %rbp
  40d1b7:	c3                   	retq   

000000000040d1b8 <_ZSt9__advanceIPclEvRT_T0_St26random_access_iterator_tag>:
  40d1b8:	55                   	push   %rbp
  40d1b9:	48 89 e5             	mov    %rsp,%rbp
  40d1bc:	48 89 7d f8          	mov    %rdi,-0x8(%rbp)
  40d1c0:	48 89 75 f0          	mov    %rsi,-0x10(%rbp)
  40d1c4:	48 8b 45 f8          	mov    -0x8(%rbp),%rax
  40d1c8:	48 8b 10             	mov    (%rax),%rdx
  40d1cb:	48 8b 45 f0          	mov    -0x10(%rbp),%rax
  40d1cf:	48 01 c2             	add    %rax,%rdx
  40d1d2:	48 8b 45 f8          	mov    -0x8(%rbp),%rax
  40d1d6:	48 89 10             	mov    %rdx,(%rax)
  40d1d9:	90                   	nop
  40d1da:	5d                   	pop    %rbp
  40d1db:	c3                   	retq   

000000000040d1dc <_ZSt18uninitialized_copyIPcPhET0_T_S3_S2_>:
  40d1dc:	55                   	push   %rbp
  40d1dd:	48 89 e5             	mov    %rsp,%rbp
  40d1e0:	48 83 ec 30          	sub    $0x30,%rsp
  40d1e4:	48 89 7d e8          	mov    %rdi,-0x18(%rbp)
  40d1e8:	48 89 75 e0          	mov    %rsi,-0x20(%rbp)
  40d1ec:	48 89 55 d8          	mov    %rdx,-0x28(%rbp)
  40d1f0:	c6 45 ff 01          	movb   $0x1,-0x1(%rbp)
  40d1f4:	48 8b 55 d8          	mov    -0x28(%rbp),%rdx
  40d1f8:	48 8b 4d e0          	mov    -0x20(%rbp),%rcx
  40d1fc:	48 8b 45 e8          	mov    -0x18(%rbp),%rax
  40d200:	48 89 ce             	mov    %rcx,%rsi
  40d203:	48 89 c7             	mov    %rax,%rdi
  40d206:	e8 51 04 00 00       	callq  40d65c <_ZNSt20__uninitialized_copyILb1EE13__uninit_copyIPcPhEET0_T_S5_S4_>
  40d20b:	c9                   	leaveq 
  40d20c:	c3                   	retq   
  40d20d:	90                   	nop

000000000040d20e <_ZN9__gnu_cxx13new_allocatorISt4pairISt6threadbEEC1Ev>:
  40d20e:	55                   	push   %rbp
  40d20f:	48 89 e5             	mov    %rsp,%rbp
  40d212:	48 89 7d f8          	mov    %rdi,-0x8(%rbp)
  40d216:	90                   	nop
  40d217:	5d                   	pop    %rbp
  40d218:	c3                   	retq   
  40d219:	90                   	nop

000000000040d21a <_ZN9__gnu_cxx13new_allocatorISt4pairISt6threadbEE10deallocateEPS3_m>:
  40d21a:	55                   	push   %rbp
  40d21b:	48 89 e5             	mov    %rsp,%rbp
  40d21e:	48 83 ec 20          	sub    $0x20,%rsp
  40d222:	48 89 7d f8          	mov    %rdi,-0x8(%rbp)
  40d226:	48 89 75 f0          	mov    %rsi,-0x10(%rbp)
  40d22a:	48 89 55 e8          	mov    %rdx,-0x18(%rbp)
  40d22e:	48 8b 45 f0          	mov    -0x10(%rbp),%rax
  40d232:	48 89 c7             	mov    %rax,%rdi
  40d235:	e8 16 5b ff ff       	callq  402d50 <_ZdlPv@plt>
  40d23a:	90                   	nop
  40d23b:	c9                   	leaveq 
  40d23c:	c3                   	retq   

000000000040d23d <_ZSt11__addressofISt4pairISt6threadbEEPT_RS3_>:
  40d23d:	55                   	push   %rbp
  40d23e:	48 89 e5             	mov    %rsp,%rbp
  40d241:	48 89 7d f8          	mov    %rdi,-0x8(%rbp)
  40d245:	48 8b 45 f8          	mov    -0x8(%rbp),%rax
  40d249:	5d                   	pop    %rbp
  40d24a:	c3                   	retq   

000000000040d24b <_ZSt8_DestroyISt4pairISt6threadbEEvPT_>:
  40d24b:	55                   	push   %rbp
  40d24c:	48 89 e5             	mov    %rsp,%rbp
  40d24f:	48 83 ec 10          	sub    $0x10,%rsp
  40d253:	48 89 7d f8          	mov    %rdi,-0x8(%rbp)
  40d257:	48 8b 45 f8          	mov    -0x8(%rbp),%rax
  40d25b:	48 89 c7             	mov    %rax,%rdi
  40d25e:	e8 3d f9 ff ff       	callq  40cba0 <_ZNSt4pairISt6threadbED1Ev>
  40d263:	90                   	nop
  40d264:	c9                   	leaveq 
  40d265:	c3                   	retq   

000000000040d266 <_ZSt12__get_helperILm0EObIEERT0_RSt11_Tuple_implIXT_EIS1_DpT1_EE>:
  40d266:	55                   	push   %rbp
  40d267:	48 89 e5             	mov    %rsp,%rbp
  40d26a:	48 83 ec 10          	sub    $0x10,%rsp
  40d26e:	48 89 7d f8          	mov    %rdi,-0x8(%rbp)
  40d272:	48 8b 45 f8          	mov    -0x8(%rbp),%rax
  40d276:	48 89 c7             	mov    %rax,%rdi
  40d279:	e8 ca db ff ff       	callq  40ae48 <_ZNSt11_Tuple_implILm0EIObEE7_M_headERS1_>
  40d27e:	c9                   	leaveq 
  40d27f:	c3                   	retq   

000000000040d280 <_ZSt3getILm0EIObEERNSt13tuple_elementIXT_ESt5tupleIIDpT0_EEE4typeERS5_>:
  40d280:	55                   	push   %rbp
  40d281:	48 89 e5             	mov    %rsp,%rbp
  40d284:	48 83 ec 10          	sub    $0x10,%rsp
  40d288:	48 89 7d f8          	mov    %rdi,-0x8(%rbp)
  40d28c:	48 8b 45 f8          	mov    -0x8(%rbp),%rax
  40d290:	48 89 c7             	mov    %rax,%rdi
  40d293:	e8 ce ff ff ff       	callq  40d266 <_ZSt12__get_helperILm0EObIEERT0_RSt11_Tuple_implIXT_EIS1_DpT1_EE>
  40d298:	c9                   	leaveq 
  40d299:	c3                   	retq   

000000000040d29a <_ZNSt16allocator_traitsISaISt4pairISt6threadbEEE8max_sizeERKS3_>:
  40d29a:	55                   	push   %rbp
  40d29b:	48 89 e5             	mov    %rsp,%rbp
  40d29e:	48 83 ec 10          	sub    $0x10,%rsp
  40d2a2:	48 89 7d f8          	mov    %rdi,-0x8(%rbp)
  40d2a6:	48 8b 45 f8          	mov    -0x8(%rbp),%rax
  40d2aa:	48 89 c7             	mov    %rax,%rdi
  40d2ad:	e8 d8 03 00 00       	callq  40d68a <_ZNK9__gnu_cxx13new_allocatorISt4pairISt6threadbEE8max_sizeEv>
  40d2b2:	c9                   	leaveq 
  40d2b3:	c3                   	retq   

000000000040d2b4 <_ZNKSt12_Vector_baseISt4pairISt6threadbESaIS2_EE19_M_get_Tp_allocatorEv>:
  40d2b4:	55                   	push   %rbp
  40d2b5:	48 89 e5             	mov    %rsp,%rbp
  40d2b8:	48 89 7d f8          	mov    %rdi,-0x8(%rbp)
  40d2bc:	48 8b 45 f8          	mov    -0x8(%rbp),%rax
  40d2c0:	5d                   	pop    %rbp
  40d2c1:	c3                   	retq   

000000000040d2c2 <_ZN9__gnu_cxx13new_allocatorISt4pairISt6threadbEE8allocateEmPKv>:
  40d2c2:	55                   	push   %rbp
  40d2c3:	48 89 e5             	mov    %rsp,%rbp
  40d2c6:	48 83 ec 20          	sub    $0x20,%rsp
  40d2ca:	48 89 7d f8          	mov    %rdi,-0x8(%rbp)
  40d2ce:	48 89 75 f0          	mov    %rsi,-0x10(%rbp)
  40d2d2:	48 89 55 e8          	mov    %rdx,-0x18(%rbp)
  40d2d6:	48 8b 45 f8          	mov    -0x8(%rbp),%rax
  40d2da:	48 89 c7             	mov    %rax,%rdi
  40d2dd:	e8 a8 03 00 00       	callq  40d68a <_ZNK9__gnu_cxx13new_allocatorISt4pairISt6threadbEE8max_sizeEv>
  40d2e2:	48 3b 45 f0          	cmp    -0x10(%rbp),%rax
  40d2e6:	0f 92 c0             	setb   %al
  40d2e9:	84 c0                	test   %al,%al
  40d2eb:	74 05                	je     40d2f2 <_ZN9__gnu_cxx13new_allocatorISt4pairISt6threadbEE8allocateEmPKv+0x30>
  40d2ed:	e8 5e 58 ff ff       	callq  402b50 <_ZSt17__throw_bad_allocv@plt>
  40d2f2:	48 8b 45 f0          	mov    -0x10(%rbp),%rax
  40d2f6:	48 c1 e0 04          	shl    $0x4,%rax
  40d2fa:	48 89 c7             	mov    %rax,%rdi
  40d2fd:	e8 7e 5a ff ff       	callq  402d80 <_Znwm@plt>
  40d302:	c9                   	leaveq 
  40d303:	c3                   	retq   

000000000040d304 <_ZNSt13move_iteratorIPSt4pairISt6threadbEEC1ES3_>:
  40d304:	55                   	push   %rbp
  40d305:	48 89 e5             	mov    %rsp,%rbp
  40d308:	48 89 7d f8          	mov    %rdi,-0x8(%rbp)
  40d30c:	48 89 75 f0          	mov    %rsi,-0x10(%rbp)
  40d310:	48 8b 45 f8          	mov    -0x8(%rbp),%rax
  40d314:	48 8b 55 f0          	mov    -0x10(%rbp),%rdx
  40d318:	48 89 10             	mov    %rdx,(%rax)
  40d31b:	90                   	nop
  40d31c:	5d                   	pop    %rbp
  40d31d:	c3                   	retq   

000000000040d31e <_ZSt18uninitialized_copyISt13move_iteratorIPSt4pairISt6threadbEES4_ET0_T_S7_S6_>:
  40d31e:	55                   	push   %rbp
  40d31f:	48 89 e5             	mov    %rsp,%rbp
  40d322:	48 83 ec 30          	sub    $0x30,%rsp
  40d326:	48 89 7d e0          	mov    %rdi,-0x20(%rbp)
  40d32a:	48 89 75 d0          	mov    %rsi,-0x30(%rbp)
  40d32e:	48 89 55 d8          	mov    %rdx,-0x28(%rbp)
  40d332:	c6 45 ff 01          	movb   $0x1,-0x1(%rbp)
  40d336:	48 8b 55 d8          	mov    -0x28(%rbp),%rdx
  40d33a:	48 8b 4d d0          	mov    -0x30(%rbp),%rcx
  40d33e:	48 8b 45 e0          	mov    -0x20(%rbp),%rax
  40d342:	48 89 ce             	mov    %rcx,%rsi
  40d345:	48 89 c7             	mov    %rax,%rdi
  40d348:	e8 51 03 00 00       	callq  40d69e <_ZNSt20__uninitialized_copyILb0EE13__uninit_copyISt13move_iteratorIPSt4pairISt6threadbEES6_EET0_T_S9_S8_>
  40d34d:	c9                   	leaveq 
  40d34e:	c3                   	retq   

000000000040d34f <_ZNSt10_Iter_baseIN9__gnu_cxx17__normal_iteratorIPSt4pairISt6threadbESt6vectorIS4_SaIS4_EEEELb0EE7_S_baseES9_>:
  40d34f:	55                   	push   %rbp
  40d350:	48 89 e5             	mov    %rsp,%rbp
  40d353:	48 89 7d f0          	mov    %rdi,-0x10(%rbp)
  40d357:	48 8b 45 f0          	mov    -0x10(%rbp),%rax
  40d35b:	5d                   	pop    %rbp
  40d35c:	c3                   	retq   

000000000040d35d <_ZSt12__niter_baseIN9__gnu_cxx17__normal_iteratorIPSt4pairISt6threadbESt6vectorIS4_SaIS4_EEEEENSt11_Niter_baseIT_E13iterator_typeESB_>:
  40d35d:	55                   	push   %rbp
  40d35e:	48 89 e5             	mov    %rsp,%rbp
  40d361:	48 83 ec 10          	sub    $0x10,%rsp
  40d365:	48 89 7d f0          	mov    %rdi,-0x10(%rbp)
  40d369:	48 8b 45 f0          	mov    -0x10(%rbp),%rax
  40d36d:	48 89 c7             	mov    %rax,%rdi
  40d370:	e8 d6 03 00 00       	callq  40d74b <_ZNSt10_Iter_baseIN9__gnu_cxx17__normal_iteratorIPSt4pairISt6threadbESt6vectorIS4_SaIS4_EEEELb1EE7_S_baseES9_>
  40d375:	c9                   	leaveq 
  40d376:	c3                   	retq   

000000000040d377 <_ZSt13__copy_move_aILb1EPSt4pairISt6threadbES3_ET1_T0_S5_S4_>:
  40d377:	55                   	push   %rbp
  40d378:	48 89 e5             	mov    %rsp,%rbp
  40d37b:	48 83 ec 30          	sub    $0x30,%rsp
  40d37f:	48 89 7d e8          	mov    %rdi,-0x18(%rbp)
  40d383:	48 89 75 e0          	mov    %rsi,-0x20(%rbp)
  40d387:	48 89 55 d8          	mov    %rdx,-0x28(%rbp)
  40d38b:	c6 45 ff 00          	movb   $0x0,-0x1(%rbp)
  40d38f:	48 8b 55 d8          	mov    -0x28(%rbp),%rdx
  40d393:	48 8b 4d e0          	mov    -0x20(%rbp),%rcx
  40d397:	48 8b 45 e8          	mov    -0x18(%rbp),%rax
  40d39b:	48 89 ce             	mov    %rcx,%rsi
  40d39e:	48 89 c7             	mov    %rax,%rdi
  40d3a1:	e8 c2 03 00 00       	callq  40d768 <_ZNSt11__copy_moveILb1ELb0ESt26random_access_iterator_tagE8__copy_mIPSt4pairISt6threadbES6_EET0_T_S8_S7_>
  40d3a6:	c9                   	leaveq 
  40d3a7:	c3                   	retq   

000000000040d3a8 <_ZN9__gnu_cxx17__is_null_pointerIcEEbPT_>:
  40d3a8:	55                   	push   %rbp
  40d3a9:	48 89 e5             	mov    %rsp,%rbp
  40d3ac:	48 89 7d f8          	mov    %rdi,-0x8(%rbp)
  40d3b0:	48 83 7d f8 00       	cmpq   $0x0,-0x8(%rbp)
  40d3b5:	0f 94 c0             	sete   %al
  40d3b8:	5d                   	pop    %rbp
  40d3b9:	c3                   	retq   

000000000040d3ba <_ZNSt10_Head_baseILm0ERKNSt7__cxx1112basic_stringIcSt11char_traitsIcESaIcEEELb0EE7_M_headERS8_>:
  40d3ba:	55                   	push   %rbp
  40d3bb:	48 89 e5             	mov    %rsp,%rbp
  40d3be:	48 89 7d f8          	mov    %rdi,-0x8(%rbp)
  40d3c2:	48 8b 45 f8          	mov    -0x8(%rbp),%rax
  40d3c6:	48 8b 00             	mov    (%rax),%rax
  40d3c9:	5d                   	pop    %rbp
  40d3ca:	c3                   	retq   

000000000040d3cb <_ZNSt11_Tuple_implILm0EIRKNSt7__cxx1112basic_stringIcSt11char_traitsIcESaIcEEEEE7_M_headERS8_>:
  40d3cb:	55                   	push   %rbp
  40d3cc:	48 89 e5             	mov    %rsp,%rbp
  40d3cf:	48 83 ec 10          	sub    $0x10,%rsp
  40d3d3:	48 89 7d f8          	mov    %rdi,-0x8(%rbp)
  40d3d7:	48 8b 45 f8          	mov    -0x8(%rbp),%rax
  40d3db:	48 89 c7             	mov    %rax,%rdi
  40d3de:	e8 d7 ff ff ff       	callq  40d3ba <_ZNSt10_Head_baseILm0ERKNSt7__cxx1112basic_stringIcSt11char_traitsIcESaIcEEELb0EE7_M_headERS8_>
  40d3e3:	c9                   	leaveq 
  40d3e4:	c3                   	retq   

000000000040d3e5 <_ZSt7forwardIRKNSt7__cxx1112basic_stringIcSt11char_traitsIcESaIcEEEEOT_RNSt16remove_referenceIS8_E4typeE>:
  40d3e5:	55                   	push   %rbp
  40d3e6:	48 89 e5             	mov    %rsp,%rbp
  40d3e9:	48 89 7d f8          	mov    %rdi,-0x8(%rbp)
  40d3ed:	48 8b 45 f8          	mov    -0x8(%rbp),%rax
  40d3f1:	5d                   	pop    %rbp
  40d3f2:	c3                   	retq   
  40d3f3:	90                   	nop

000000000040d3f4 <_ZNSt11_Tuple_implILm0EIRKNSt7__cxx1112basic_stringIcSt11char_traitsIcESaIcEEEEEC1EOS8_>:
  40d3f4:	55                   	push   %rbp
  40d3f5:	48 89 e5             	mov    %rsp,%rbp
  40d3f8:	48 83 ec 10          	sub    $0x10,%rsp
  40d3fc:	48 89 7d f8          	mov    %rdi,-0x8(%rbp)
  40d400:	48 89 75 f0          	mov    %rsi,-0x10(%rbp)
  40d404:	48 8b 45 f0          	mov    -0x10(%rbp),%rax
  40d408:	48 89 c7             	mov    %rax,%rdi
  40d40b:	e8 bb ff ff ff       	callq  40d3cb <_ZNSt11_Tuple_implILm0EIRKNSt7__cxx1112basic_stringIcSt11char_traitsIcESaIcEEEEE7_M_headERS8_>
  40d410:	48 89 c7             	mov    %rax,%rdi
  40d413:	e8 cd ff ff ff       	callq  40d3e5 <_ZSt7forwardIRKNSt7__cxx1112basic_stringIcSt11char_traitsIcESaIcEEEEOT_RNSt16remove_referenceIS8_E4typeE>
  40d418:	48 89 c2             	mov    %rax,%rdx
  40d41b:	48 8b 45 f8          	mov    -0x8(%rbp),%rax
  40d41f:	48 89 d6             	mov    %rdx,%rsi
  40d422:	48 89 c7             	mov    %rax,%rdi
  40d425:	e8 6a d3 ff ff       	callq  40a794 <_ZNSt10_Head_baseILm0ERKNSt7__cxx1112basic_stringIcSt11char_traitsIcESaIcEEELb0EEC1ES7_>
  40d42a:	90                   	nop
  40d42b:	c9                   	leaveq 
  40d42c:	c3                   	retq   
  40d42d:	90                   	nop

000000000040d42e <_ZNSt5tupleIIRKNSt7__cxx1112basic_stringIcSt11char_traitsIcESaIcEEEEEC1EOS8_>:
  40d42e:	55                   	push   %rbp
  40d42f:	48 89 e5             	mov    %rsp,%rbp
  40d432:	48 83 ec 10          	sub    $0x10,%rsp
  40d436:	48 89 7d f8          	mov    %rdi,-0x8(%rbp)
  40d43a:	48 89 75 f0          	mov    %rsi,-0x10(%rbp)
  40d43e:	48 8b 55 f0          	mov    -0x10(%rbp),%rdx
  40d442:	48 8b 45 f8          	mov    -0x8(%rbp),%rax
  40d446:	48 89 d6             	mov    %rdx,%rsi
  40d449:	48 89 c7             	mov    %rax,%rdi
  40d44c:	e8 a3 ff ff ff       	callq  40d3f4 <_ZNSt11_Tuple_implILm0EIRKNSt7__cxx1112basic_stringIcSt11char_traitsIcESaIcEEEEEC1EOS8_>
  40d451:	90                   	nop
  40d452:	c9                   	leaveq 
  40d453:	c3                   	retq   

000000000040d454 <_ZN9__gnu_cxx13new_allocatorISt13_Rb_tree_nodeISt4pairIKNSt7__cxx1112basic_stringIcSt11char_traitsIcESaIcEEES8_EEE9constructISA_IRKSt21piecewise_construct_tSt5tupleIIRS9_EESH_IIEEEEEvPT_DpOT0_>:
  40d454:	55                   	push   %rbp
  40d455:	48 89 e5             	mov    %rsp,%rbp
  40d458:	41 55                	push   %r13
  40d45a:	41 54                	push   %r12
  40d45c:	53                   	push   %rbx
  40d45d:	48 83 ec 58          	sub    $0x58,%rsp
  40d461:	48 89 7d b8          	mov    %rdi,-0x48(%rbp)
  40d465:	48 89 75 b0          	mov    %rsi,-0x50(%rbp)
  40d469:	48 89 55 a8          	mov    %rdx,-0x58(%rbp)
  40d46d:	48 89 4d a0          	mov    %rcx,-0x60(%rbp)
  40d471:	4c 89 45 98          	mov    %r8,-0x68(%rbp)
  40d475:	64 48 8b 04 25 28 00 	mov    %fs:0x28,%rax
  40d47c:	00 00 
  40d47e:	48 89 45 d8          	mov    %rax,-0x28(%rbp)
  40d482:	31 c0                	xor    %eax,%eax
  40d484:	48 8b 45 a8          	mov    -0x58(%rbp),%rax
  40d488:	48 89 c7             	mov    %rax,%rdi
  40d48b:	e8 01 75 ff ff       	callq  404991 <_ZSt7forwardIRKSt21piecewise_construct_tEOT_RNSt16remove_referenceIS3_E4typeE>
  40d490:	44 88 65 ce          	mov    %r12b,-0x32(%rbp)
  40d494:	48 8b 45 a0          	mov    -0x60(%rbp),%rax
  40d498:	48 89 c7             	mov    %rax,%rdi
  40d49b:	e8 cf dc ff ff       	callq  40b16f <_ZSt7forwardISt5tupleIIRKNSt7__cxx1112basic_stringIcSt11char_traitsIcESaIcEEEEEEOT_RNSt16remove_referenceISA_E4typeE>
  40d4a0:	48 89 c2             	mov    %rax,%rdx
  40d4a3:	48 8d 45 d0          	lea    -0x30(%rbp),%rax
  40d4a7:	48 89 d6             	mov    %rdx,%rsi
  40d4aa:	48 89 c7             	mov    %rax,%rdi
  40d4ad:	e8 7c ff ff ff       	callq  40d42e <_ZNSt5tupleIIRKNSt7__cxx1112basic_stringIcSt11char_traitsIcESaIcEEEEEC1EOS8_>
  40d4b2:	4c 8d 6d d0          	lea    -0x30(%rbp),%r13
  40d4b6:	48 8b 45 98          	mov    -0x68(%rbp),%rax
  40d4ba:	48 89 c7             	mov    %rax,%rdi
  40d4bd:	e8 eb 74 ff ff       	callq  4049ad <_ZSt7forwardISt5tupleIIEEEOT_RNSt16remove_referenceIS2_E4typeE>
  40d4c2:	88 5d cf             	mov    %bl,-0x31(%rbp)
  40d4c5:	4c 8b 65 b0          	mov    -0x50(%rbp),%r12
  40d4c9:	4c 89 e6             	mov    %r12,%rsi
  40d4cc:	bf 40 00 00 00       	mov    $0x40,%edi
  40d4d1:	e8 93 67 ff ff       	callq  403c69 <_ZnwmPv>
  40d4d6:	48 89 c3             	mov    %rax,%rbx
  40d4d9:	48 85 db             	test   %rbx,%rbx
  40d4dc:	74 34                	je     40d512 <_ZN9__gnu_cxx13new_allocatorISt13_Rb_tree_nodeISt4pairIKNSt7__cxx1112basic_stringIcSt11char_traitsIcESaIcEEES8_EEE9constructISA_IRKSt21piecewise_construct_tSt5tupleIIRS9_EESH_IIEEEEEvPT_DpOT0_+0xbe>
  40d4de:	0f b6 45 cf          	movzbl -0x31(%rbp),%eax
  40d4e2:	50                   	push   %rax
  40d4e3:	0f b6 45 ce          	movzbl -0x32(%rbp),%eax
  40d4e7:	50                   	push   %rax
  40d4e8:	4c 89 ee             	mov    %r13,%rsi
  40d4eb:	48 89 df             	mov    %rbx,%rdi
  40d4ee:	e8 db 02 00 00       	callq  40d7ce <_ZNSt4pairIKNSt7__cxx1112basic_stringIcSt11char_traitsIcESaIcEEES5_EC1IIRS6_EIEEESt21piecewise_construct_tSt5tupleIIDpT_EESB_IIDpT0_EE>
  40d4f3:	48 83 c4 10          	add    $0x10,%rsp
  40d4f7:	eb 19                	jmp    40d512 <_ZN9__gnu_cxx13new_allocatorISt13_Rb_tree_nodeISt4pairIKNSt7__cxx1112basic_stringIcSt11char_traitsIcESaIcEEES8_EEE9constructISA_IRKSt21piecewise_construct_tSt5tupleIIRS9_EESH_IIEEEEEvPT_DpOT0_+0xbe>
  40d4f9:	49 89 c5             	mov    %rax,%r13
  40d4fc:	4c 89 e6             	mov    %r12,%rsi
  40d4ff:	48 89 df             	mov    %rbx,%rdi
  40d502:	e8 74 67 ff ff       	callq  403c7b <_ZdlPvS_>
  40d507:	4c 89 e8             	mov    %r13,%rax
  40d50a:	48 89 c7             	mov    %rax,%rdi
  40d50d:	e8 ae 5a ff ff       	callq  402fc0 <_Unwind_Resume@plt>
  40d512:	90                   	nop
  40d513:	48 8b 45 d8          	mov    -0x28(%rbp),%rax
  40d517:	64 48 33 04 25 28 00 	xor    %fs:0x28,%rax
  40d51e:	00 00 
  40d520:	74 05                	je     40d527 <_ZN9__gnu_cxx13new_allocatorISt13_Rb_tree_nodeISt4pairIKNSt7__cxx1112basic_stringIcSt11char_traitsIcESaIcEEES8_EEE9constructISA_IRKSt21piecewise_construct_tSt5tupleIIRS9_EESH_IIEEEEEvPT_DpOT0_+0xd3>
  40d522:	e8 e9 58 ff ff       	callq  402e10 <__stack_chk_fail@plt>
  40d527:	48 8d 65 e8          	lea    -0x18(%rbp),%rsp
  40d52b:	5b                   	pop    %rbx
  40d52c:	41 5c                	pop    %r12
  40d52e:	41 5d                	pop    %r13
  40d530:	5d                   	pop    %rbp
  40d531:	c3                   	retq   

000000000040d532 <_ZSt22__copy_move_backward_aILb1EPhS0_ET1_T0_S2_S1_>:
  40d532:	55                   	push   %rbp
  40d533:	48 89 e5             	mov    %rsp,%rbp
  40d536:	48 83 ec 30          	sub    $0x30,%rsp
  40d53a:	48 89 7d e8          	mov    %rdi,-0x18(%rbp)
  40d53e:	48 89 75 e0          	mov    %rsi,-0x20(%rbp)
  40d542:	48 89 55 d8          	mov    %rdx,-0x28(%rbp)
  40d546:	c6 45 ff 01          	movb   $0x1,-0x1(%rbp)
  40d54a:	48 8b 55 d8          	mov    -0x28(%rbp),%rdx
  40d54e:	48 8b 4d e0          	mov    -0x20(%rbp),%rcx
  40d552:	48 8b 45 e8          	mov    -0x18(%rbp),%rax
  40d556:	48 89 ce             	mov    %rcx,%rsi
  40d559:	48 89 c7             	mov    %rax,%rdi
  40d55c:	e8 c2 02 00 00       	callq  40d823 <_ZNSt20__copy_move_backwardILb1ELb1ESt26random_access_iterator_tagE13__copy_move_bIhEEPT_PKS3_S6_S4_>
  40d561:	c9                   	leaveq 
  40d562:	c3                   	retq   

000000000040d563 <_ZNSt10_Iter_baseIPKcLb0EE7_S_baseES1_>:
  40d563:	55                   	push   %rbp
  40d564:	48 89 e5             	mov    %rsp,%rbp
  40d567:	48 89 7d f8          	mov    %rdi,-0x8(%rbp)
  40d56b:	48 8b 45 f8          	mov    -0x8(%rbp),%rax
  40d56f:	5d                   	pop    %rbp
  40d570:	c3                   	retq   

000000000040d571 <_ZSt12__niter_baseIPKcENSt11_Niter_baseIT_E13iterator_typeES3_>:
  40d571:	55                   	push   %rbp
  40d572:	48 89 e5             	mov    %rsp,%rbp
  40d575:	48 83 ec 10          	sub    $0x10,%rsp
  40d579:	48 89 7d f8          	mov    %rdi,-0x8(%rbp)
  40d57d:	48 8b 45 f8          	mov    -0x8(%rbp),%rax
  40d581:	48 89 c7             	mov    %rax,%rdi
  40d584:	e8 da ff ff ff       	callq  40d563 <_ZNSt10_Iter_baseIPKcLb0EE7_S_baseES1_>
  40d589:	c9                   	leaveq 
  40d58a:	c3                   	retq   

000000000040d58b <_ZSt12__niter_baseIN9__gnu_cxx17__normal_iteratorIPhSt6vectorIhSaIhEEEEENSt11_Niter_baseIT_E13iterator_typeES8_>:
  40d58b:	55                   	push   %rbp
  40d58c:	48 89 e5             	mov    %rsp,%rbp
  40d58f:	48 83 ec 10          	sub    $0x10,%rsp
  40d593:	48 89 7d f0          	mov    %rdi,-0x10(%rbp)
  40d597:	48 8b 45 f0          	mov    -0x10(%rbp),%rax
  40d59b:	48 89 c7             	mov    %rax,%rdi
  40d59e:	e8 e4 02 00 00       	callq  40d887 <_ZNSt10_Iter_baseIN9__gnu_cxx17__normal_iteratorIPhSt6vectorIhSaIhEEEELb1EE7_S_baseES6_>
  40d5a3:	c9                   	leaveq 
  40d5a4:	c3                   	retq   

000000000040d5a5 <_ZSt13__copy_move_aILb0EPKcPhET1_T0_S4_S3_>:
  40d5a5:	55                   	push   %rbp
  40d5a6:	48 89 e5             	mov    %rsp,%rbp
  40d5a9:	48 83 ec 30          	sub    $0x30,%rsp
  40d5ad:	48 89 7d e8          	mov    %rdi,-0x18(%rbp)
  40d5b1:	48 89 75 e0          	mov    %rsi,-0x20(%rbp)
  40d5b5:	48 89 55 d8          	mov    %rdx,-0x28(%rbp)
  40d5b9:	c6 45 ff 00          	movb   $0x0,-0x1(%rbp)
  40d5bd:	48 8b 55 d8          	mov    -0x28(%rbp),%rdx
  40d5c1:	48 8b 4d e0          	mov    -0x20(%rbp),%rcx
  40d5c5:	48 8b 45 e8          	mov    -0x18(%rbp),%rax
  40d5c9:	48 89 ce             	mov    %rcx,%rsi
  40d5cc:	48 89 c7             	mov    %rax,%rdi
  40d5cf:	e8 d0 02 00 00       	callq  40d8a4 <_ZNSt11__copy_moveILb0ELb0ESt26random_access_iterator_tagE8__copy_mIPKcPhEET0_T_S7_S6_>
  40d5d4:	c9                   	leaveq 
  40d5d5:	c3                   	retq   

000000000040d5d6 <_ZNSt20__uninitialized_copyILb1EE13__uninit_copyIPKcPhEET0_T_S6_S5_>:
  40d5d6:	55                   	push   %rbp
  40d5d7:	48 89 e5             	mov    %rsp,%rbp
  40d5da:	48 83 ec 20          	sub    $0x20,%rsp
  40d5de:	48 89 7d f8          	mov    %rdi,-0x8(%rbp)
  40d5e2:	48 89 75 f0          	mov    %rsi,-0x10(%rbp)
  40d5e6:	48 89 55 e8          	mov    %rdx,-0x18(%rbp)
  40d5ea:	48 8b 55 e8          	mov    -0x18(%rbp),%rdx
  40d5ee:	48 8b 4d f0          	mov    -0x10(%rbp),%rcx
  40d5f2:	48 8b 45 f8          	mov    -0x8(%rbp),%rax
  40d5f6:	48 89 ce             	mov    %rcx,%rsi
  40d5f9:	48 89 c7             	mov    %rax,%rdi
  40d5fc:	e8 f2 02 00 00       	callq  40d8f3 <_ZSt4copyIPKcPhET0_T_S4_S3_>
  40d601:	c9                   	leaveq 
  40d602:	c3                   	retq   

000000000040d603 <_ZNSt10_Iter_baseIPcLb0EE7_S_baseES0_>:
  40d603:	55                   	push   %rbp
  40d604:	48 89 e5             	mov    %rsp,%rbp
  40d607:	48 89 7d f8          	mov    %rdi,-0x8(%rbp)
  40d60b:	48 8b 45 f8          	mov    -0x8(%rbp),%rax
  40d60f:	5d                   	pop    %rbp
  40d610:	c3                   	retq   

000000000040d611 <_ZSt12__niter_baseIPcENSt11_Niter_baseIT_E13iterator_typeES2_>:
  40d611:	55                   	push   %rbp
  40d612:	48 89 e5             	mov    %rsp,%rbp
  40d615:	48 83 ec 10          	sub    $0x10,%rsp
  40d619:	48 89 7d f8          	mov    %rdi,-0x8(%rbp)
  40d61d:	48 8b 45 f8          	mov    -0x8(%rbp),%rax
  40d621:	48 89 c7             	mov    %rax,%rdi
  40d624:	e8 da ff ff ff       	callq  40d603 <_ZNSt10_Iter_baseIPcLb0EE7_S_baseES0_>
  40d629:	c9                   	leaveq 
  40d62a:	c3                   	retq   

000000000040d62b <_ZSt13__copy_move_aILb0EPcPhET1_T0_S3_S2_>:
  40d62b:	55                   	push   %rbp
  40d62c:	48 89 e5             	mov    %rsp,%rbp
  40d62f:	48 83 ec 30          	sub    $0x30,%rsp
  40d633:	48 89 7d e8          	mov    %rdi,-0x18(%rbp)
  40d637:	48 89 75 e0          	mov    %rsi,-0x20(%rbp)
  40d63b:	48 89 55 d8          	mov    %rdx,-0x28(%rbp)
  40d63f:	c6 45 ff 00          	movb   $0x0,-0x1(%rbp)
  40d643:	48 8b 55 d8          	mov    -0x28(%rbp),%rdx
  40d647:	48 8b 4d e0          	mov    -0x20(%rbp),%rcx
  40d64b:	48 8b 45 e8          	mov    -0x18(%rbp),%rax
  40d64f:	48 89 ce             	mov    %rcx,%rsi
  40d652:	48 89 c7             	mov    %rax,%rdi
  40d655:	e8 e5 02 00 00       	callq  40d93f <_ZNSt11__copy_moveILb0ELb0ESt26random_access_iterator_tagE8__copy_mIPcPhEET0_T_S6_S5_>
  40d65a:	c9                   	leaveq 
  40d65b:	c3                   	retq   

000000000040d65c <_ZNSt20__uninitialized_copyILb1EE13__uninit_copyIPcPhEET0_T_S5_S4_>:
  40d65c:	55                   	push   %rbp
  40d65d:	48 89 e5             	mov    %rsp,%rbp
  40d660:	48 83 ec 20          	sub    $0x20,%rsp
  40d664:	48 89 7d f8          	mov    %rdi,-0x8(%rbp)
  40d668:	48 89 75 f0          	mov    %rsi,-0x10(%rbp)
  40d66c:	48 89 55 e8          	mov    %rdx,-0x18(%rbp)
  40d670:	48 8b 55 e8          	mov    -0x18(%rbp),%rdx
  40d674:	48 8b 4d f0          	mov    -0x10(%rbp),%rcx
  40d678:	48 8b 45 f8          	mov    -0x8(%rbp),%rax
  40d67c:	48 89 ce             	mov    %rcx,%rsi
  40d67f:	48 89 c7             	mov    %rax,%rdi
  40d682:	e8 07 03 00 00       	callq  40d98e <_ZSt4copyIPcPhET0_T_S3_S2_>
  40d687:	c9                   	leaveq 
  40d688:	c3                   	retq   
  40d689:	90                   	nop

000000000040d68a <_ZNK9__gnu_cxx13new_allocatorISt4pairISt6threadbEE8max_sizeEv>:
  40d68a:	55                   	push   %rbp
  40d68b:	48 89 e5             	mov    %rsp,%rbp
  40d68e:	48 89 7d f8          	mov    %rdi,-0x8(%rbp)
  40d692:	48 b8 ff ff ff ff ff 	movabs $0xfffffffffffffff,%rax
  40d699:	ff ff 0f 
  40d69c:	5d                   	pop    %rbp
  40d69d:	c3                   	retq   

000000000040d69e <_ZNSt20__uninitialized_copyILb0EE13__uninit_copyISt13move_iteratorIPSt4pairISt6threadbEES6_EET0_T_S9_S8_>:
  40d69e:	55                   	push   %rbp
  40d69f:	48 89 e5             	mov    %rsp,%rbp
  40d6a2:	53                   	push   %rbx
  40d6a3:	48 83 ec 38          	sub    $0x38,%rsp
  40d6a7:	48 89 7d d0          	mov    %rdi,-0x30(%rbp)
  40d6ab:	48 89 75 c0          	mov    %rsi,-0x40(%rbp)
  40d6af:	48 89 55 c8          	mov    %rdx,-0x38(%rbp)
  40d6b3:	48 8b 45 c8          	mov    -0x38(%rbp),%rax
  40d6b7:	48 89 45 e8          	mov    %rax,-0x18(%rbp)
  40d6bb:	48 8d 55 c0          	lea    -0x40(%rbp),%rdx
  40d6bf:	48 8d 45 d0          	lea    -0x30(%rbp),%rax
  40d6c3:	48 89 d6             	mov    %rdx,%rsi
  40d6c6:	48 89 c7             	mov    %rax,%rdi
  40d6c9:	e8 0c 03 00 00       	callq  40d9da <_ZStneIPSt4pairISt6threadbEEbRKSt13move_iteratorIT_ES8_>
  40d6ce:	84 c0                	test   %al,%al
  40d6d0:	74 39                	je     40d70b <_ZNSt20__uninitialized_copyILb0EE13__uninit_copyISt13move_iteratorIPSt4pairISt6threadbEES6_EET0_T_S9_S8_+0x6d>
  40d6d2:	48 8d 45 d0          	lea    -0x30(%rbp),%rax
  40d6d6:	48 89 c7             	mov    %rax,%rdi
  40d6d9:	e8 44 03 00 00       	callq  40da22 <_ZNKSt13move_iteratorIPSt4pairISt6threadbEEdeEv>
  40d6de:	48 89 c3             	mov    %rax,%rbx
  40d6e1:	48 8b 45 e8          	mov    -0x18(%rbp),%rax
  40d6e5:	48 89 c7             	mov    %rax,%rdi
  40d6e8:	e8 50 fb ff ff       	callq  40d23d <_ZSt11__addressofISt4pairISt6threadbEEPT_RS3_>
  40d6ed:	48 89 de             	mov    %rbx,%rsi
  40d6f0:	48 89 c7             	mov    %rax,%rdi
  40d6f3:	e8 7f 03 00 00       	callq  40da77 <_ZSt10_ConstructISt4pairISt6threadbEIS2_EEvPT_DpOT0_>
  40d6f8:	48 8d 45 d0          	lea    -0x30(%rbp),%rax
  40d6fc:	48 89 c7             	mov    %rax,%rdi
  40d6ff:	e8 fe 02 00 00       	callq  40da02 <_ZNSt13move_iteratorIPSt4pairISt6threadbEEppEv>
  40d704:	48 83 45 e8 10       	addq   $0x10,-0x18(%rbp)
  40d709:	eb b0                	jmp    40d6bb <_ZNSt20__uninitialized_copyILb0EE13__uninit_copyISt13move_iteratorIPSt4pairISt6threadbEES6_EET0_T_S9_S8_+0x1d>
  40d70b:	48 8b 45 e8          	mov    -0x18(%rbp),%rax
  40d70f:	eb 33                	jmp    40d744 <_ZNSt20__uninitialized_copyILb0EE13__uninit_copyISt13move_iteratorIPSt4pairISt6threadbEES6_EET0_T_S9_S8_+0xa6>
  40d711:	48 89 c7             	mov    %rax,%rdi
  40d714:	e8 57 54 ff ff       	callq  402b70 <__cxa_begin_catch@plt>
  40d719:	48 8b 55 e8          	mov    -0x18(%rbp),%rdx
  40d71d:	48 8b 45 c8          	mov    -0x38(%rbp),%rax
  40d721:	48 89 d6             	mov    %rdx,%rsi
  40d724:	48 89 c7             	mov    %rax,%rdi
  40d727:	e8 59 eb ff ff       	callq  40c285 <_ZSt8_DestroyIPSt4pairISt6threadbEEvT_S4_>
  40d72c:	e8 7f 57 ff ff       	callq  402eb0 <__cxa_rethrow@plt>
  40d731:	48 89 c3             	mov    %rax,%rbx
  40d734:	e8 f7 57 ff ff       	callq  402f30 <__cxa_end_catch@plt>
  40d739:	48 89 d8             	mov    %rbx,%rax
  40d73c:	48 89 c7             	mov    %rax,%rdi
  40d73f:	e8 7c 58 ff ff       	callq  402fc0 <_Unwind_Resume@plt>
  40d744:	48 83 c4 38          	add    $0x38,%rsp
  40d748:	5b                   	pop    %rbx
  40d749:	5d                   	pop    %rbp
  40d74a:	c3                   	retq   

000000000040d74b <_ZNSt10_Iter_baseIN9__gnu_cxx17__normal_iteratorIPSt4pairISt6threadbESt6vectorIS4_SaIS4_EEEELb1EE7_S_baseES9_>:
  40d74b:	55                   	push   %rbp
  40d74c:	48 89 e5             	mov    %rsp,%rbp
  40d74f:	48 83 ec 10          	sub    $0x10,%rsp
  40d753:	48 89 7d f0          	mov    %rdi,-0x10(%rbp)
  40d757:	48 8d 45 f0          	lea    -0x10(%rbp),%rax
  40d75b:	48 89 c7             	mov    %rax,%rdi
  40d75e:	e8 3d df ff ff       	callq  40b6a0 <_ZNK9__gnu_cxx17__normal_iteratorIPSt4pairISt6threadbESt6vectorIS3_SaIS3_EEE4baseEv>
  40d763:	48 8b 00             	mov    (%rax),%rax
  40d766:	c9                   	leaveq 
  40d767:	c3                   	retq   

000000000040d768 <_ZNSt11__copy_moveILb1ELb0ESt26random_access_iterator_tagE8__copy_mIPSt4pairISt6threadbES6_EET0_T_S8_S7_>:
  40d768:	55                   	push   %rbp
  40d769:	48 89 e5             	mov    %rsp,%rbp
  40d76c:	48 83 ec 30          	sub    $0x30,%rsp
  40d770:	48 89 7d e8          	mov    %rdi,-0x18(%rbp)
  40d774:	48 89 75 e0          	mov    %rsi,-0x20(%rbp)
  40d778:	48 89 55 d8          	mov    %rdx,-0x28(%rbp)
  40d77c:	48 8b 55 e0          	mov    -0x20(%rbp),%rdx
  40d780:	48 8b 45 e8          	mov    -0x18(%rbp),%rax
  40d784:	48 29 c2             	sub    %rax,%rdx
  40d787:	48 89 d0             	mov    %rdx,%rax
  40d78a:	48 c1 f8 04          	sar    $0x4,%rax
  40d78e:	48 89 45 f8          	mov    %rax,-0x8(%rbp)
  40d792:	48 83 7d f8 00       	cmpq   $0x0,-0x8(%rbp)
  40d797:	7e 2f                	jle    40d7c8 <_ZNSt11__copy_moveILb1ELb0ESt26random_access_iterator_tagE8__copy_mIPSt4pairISt6threadbES6_EET0_T_S8_S7_+0x60>
  40d799:	48 8b 45 e8          	mov    -0x18(%rbp),%rax
  40d79d:	48 89 c7             	mov    %rax,%rdi
  40d7a0:	e8 09 df ff ff       	callq  40b6ae <_ZSt4moveIRSt4pairISt6threadbEEONSt16remove_referenceIT_E4typeEOS5_>
  40d7a5:	48 89 c2             	mov    %rax,%rdx
  40d7a8:	48 8b 45 d8          	mov    -0x28(%rbp),%rax
  40d7ac:	48 89 d6             	mov    %rdx,%rsi
  40d7af:	48 89 c7             	mov    %rax,%rdi
  40d7b2:	e8 ff ec ff ff       	callq  40c4b6 <_ZNSt4pairISt6threadbEaSEOS1_>
  40d7b7:	48 83 45 e8 10       	addq   $0x10,-0x18(%rbp)
  40d7bc:	48 83 45 d8 10       	addq   $0x10,-0x28(%rbp)
  40d7c1:	48 83 6d f8 01       	subq   $0x1,-0x8(%rbp)
  40d7c6:	eb ca                	jmp    40d792 <_ZNSt11__copy_moveILb1ELb0ESt26random_access_iterator_tagE8__copy_mIPSt4pairISt6threadbES6_EET0_T_S8_S7_+0x2a>
  40d7c8:	48 8b 45 d8          	mov    -0x28(%rbp),%rax
  40d7cc:	c9                   	leaveq 
  40d7cd:	c3                   	retq   

000000000040d7ce <_ZNSt4pairIKNSt7__cxx1112basic_stringIcSt11char_traitsIcESaIcEEES5_EC1IIRS6_EIEEESt21piecewise_construct_tSt5tupleIIDpT_EESB_IIDpT0_EE>:
  40d7ce:	55                   	push   %rbp
  40d7cf:	48 89 e5             	mov    %rsp,%rbp
  40d7d2:	48 83 ec 20          	sub    $0x20,%rsp
  40d7d6:	48 89 7d e8          	mov    %rdi,-0x18(%rbp)
  40d7da:	48 89 75 e0          	mov    %rsi,-0x20(%rbp)
  40d7de:	64 48 8b 04 25 28 00 	mov    %fs:0x28,%rax
  40d7e5:	00 00 
  40d7e7:	48 89 45 f8          	mov    %rax,-0x8(%rbp)
  40d7eb:	31 c0                	xor    %eax,%eax
  40d7ed:	48 8d 55 18          	lea    0x18(%rbp),%rdx
  40d7f1:	48 8b 4d e0          	mov    -0x20(%rbp),%rcx
  40d7f5:	48 8b 45 e8          	mov    -0x18(%rbp),%rax
  40d7f9:	41 51                	push   %r9
  40d7fb:	41 50                	push   %r8
  40d7fd:	48 89 ce             	mov    %rcx,%rsi
  40d800:	48 89 c7             	mov    %rax,%rdi
  40d803:	e8 ec 02 00 00       	callq  40daf4 <_ZNSt4pairIKNSt7__cxx1112basic_stringIcSt11char_traitsIcESaIcEEES5_EC1IIRS6_EILm0EEIEIEEERSt5tupleIIDpT_EERSA_IIDpT1_EESt12_Index_tupleIIXspT0_EEESJ_IIXspT2_EEE>
  40d808:	48 83 c4 10          	add    $0x10,%rsp
  40d80c:	90                   	nop
  40d80d:	48 8b 45 f8          	mov    -0x8(%rbp),%rax
  40d811:	64 48 33 04 25 28 00 	xor    %fs:0x28,%rax
  40d818:	00 00 
  40d81a:	74 05                	je     40d821 <_ZNSt4pairIKNSt7__cxx1112basic_stringIcSt11char_traitsIcESaIcEEES5_EC1IIRS6_EIEEESt21piecewise_construct_tSt5tupleIIDpT_EESB_IIDpT0_EE+0x53>
  40d81c:	e8 ef 55 ff ff       	callq  402e10 <__stack_chk_fail@plt>
  40d821:	c9                   	leaveq 
  40d822:	c3                   	retq   

000000000040d823 <_ZNSt20__copy_move_backwardILb1ELb1ESt26random_access_iterator_tagE13__copy_move_bIhEEPT_PKS3_S6_S4_>:
  40d823:	55                   	push   %rbp
  40d824:	48 89 e5             	mov    %rsp,%rbp
  40d827:	48 83 ec 30          	sub    $0x30,%rsp
  40d82b:	48 89 7d e8          	mov    %rdi,-0x18(%rbp)
  40d82f:	48 89 75 e0          	mov    %rsi,-0x20(%rbp)
  40d833:	48 89 55 d8          	mov    %rdx,-0x28(%rbp)
  40d837:	48 8b 55 e0          	mov    -0x20(%rbp),%rdx
  40d83b:	48 8b 45 e8          	mov    -0x18(%rbp),%rax
  40d83f:	48 29 c2             	sub    %rax,%rdx
  40d842:	48 89 d0             	mov    %rdx,%rax
  40d845:	48 89 45 f8          	mov    %rax,-0x8(%rbp)
  40d849:	48 83 7d f8 00       	cmpq   $0x0,-0x8(%rbp)
  40d84e:	74 24                	je     40d874 <_ZNSt20__copy_move_backwardILb1ELb1ESt26random_access_iterator_tagE13__copy_move_bIhEEPT_PKS3_S6_S4_+0x51>
  40d850:	48 8b 55 f8          	mov    -0x8(%rbp),%rdx
  40d854:	48 8b 45 f8          	mov    -0x8(%rbp),%rax
  40d858:	48 f7 d8             	neg    %rax
  40d85b:	48 89 c1             	mov    %rax,%rcx
  40d85e:	48 8b 45 d8          	mov    -0x28(%rbp),%rax
  40d862:	48 01 c1             	add    %rax,%rcx
  40d865:	48 8b 45 e8          	mov    -0x18(%rbp),%rax
  40d869:	48 89 c6             	mov    %rax,%rsi
  40d86c:	48 89 cf             	mov    %rcx,%rdi
  40d86f:	e8 ac 56 ff ff       	callq  402f20 <memmove@plt>
  40d874:	48 8b 45 f8          	mov    -0x8(%rbp),%rax
  40d878:	48 f7 d8             	neg    %rax
  40d87b:	48 89 c2             	mov    %rax,%rdx
  40d87e:	48 8b 45 d8          	mov    -0x28(%rbp),%rax
  40d882:	48 01 d0             	add    %rdx,%rax
  40d885:	c9                   	leaveq 
  40d886:	c3                   	retq   

000000000040d887 <_ZNSt10_Iter_baseIN9__gnu_cxx17__normal_iteratorIPhSt6vectorIhSaIhEEEELb1EE7_S_baseES6_>:
  40d887:	55                   	push   %rbp
  40d888:	48 89 e5             	mov    %rsp,%rbp
  40d88b:	48 83 ec 10          	sub    $0x10,%rsp
  40d88f:	48 89 7d f0          	mov    %rdi,-0x10(%rbp)
  40d893:	48 8d 45 f0          	lea    -0x10(%rbp),%rax
  40d897:	48 89 c7             	mov    %rax,%rdi
  40d89a:	e8 1d db ff ff       	callq  40b3bc <_ZNK9__gnu_cxx17__normal_iteratorIPhSt6vectorIhSaIhEEE4baseEv>
  40d89f:	48 8b 00             	mov    (%rax),%rax
  40d8a2:	c9                   	leaveq 
  40d8a3:	c3                   	retq   

000000000040d8a4 <_ZNSt11__copy_moveILb0ELb0ESt26random_access_iterator_tagE8__copy_mIPKcPhEET0_T_S7_S6_>:
  40d8a4:	55                   	push   %rbp
  40d8a5:	48 89 e5             	mov    %rsp,%rbp
  40d8a8:	48 89 7d e8          	mov    %rdi,-0x18(%rbp)
  40d8ac:	48 89 75 e0          	mov    %rsi,-0x20(%rbp)
  40d8b0:	48 89 55 d8          	mov    %rdx,-0x28(%rbp)
  40d8b4:	48 8b 55 e0          	mov    -0x20(%rbp),%rdx
  40d8b8:	48 8b 45 e8          	mov    -0x18(%rbp),%rax
  40d8bc:	48 29 c2             	sub    %rax,%rdx
  40d8bf:	48 89 d0             	mov    %rdx,%rax
  40d8c2:	48 89 45 f8          	mov    %rax,-0x8(%rbp)
  40d8c6:	48 83 7d f8 00       	cmpq   $0x0,-0x8(%rbp)
  40d8cb:	7e 20                	jle    40d8ed <_ZNSt11__copy_moveILb0ELb0ESt26random_access_iterator_tagE8__copy_mIPKcPhEET0_T_S7_S6_+0x49>
  40d8cd:	48 8b 45 e8          	mov    -0x18(%rbp),%rax
  40d8d1:	0f b6 00             	movzbl (%rax),%eax
  40d8d4:	89 c2                	mov    %eax,%edx
  40d8d6:	48 8b 45 d8          	mov    -0x28(%rbp),%rax
  40d8da:	88 10                	mov    %dl,(%rax)
  40d8dc:	48 83 45 e8 01       	addq   $0x1,-0x18(%rbp)
  40d8e1:	48 83 45 d8 01       	addq   $0x1,-0x28(%rbp)
  40d8e6:	48 83 6d f8 01       	subq   $0x1,-0x8(%rbp)
  40d8eb:	eb d9                	jmp    40d8c6 <_ZNSt11__copy_moveILb0ELb0ESt26random_access_iterator_tagE8__copy_mIPKcPhEET0_T_S7_S6_+0x22>
  40d8ed:	48 8b 45 d8          	mov    -0x28(%rbp),%rax
  40d8f1:	5d                   	pop    %rbp
  40d8f2:	c3                   	retq   

000000000040d8f3 <_ZSt4copyIPKcPhET0_T_S4_S3_>:
  40d8f3:	55                   	push   %rbp
  40d8f4:	48 89 e5             	mov    %rsp,%rbp
  40d8f7:	53                   	push   %rbx
  40d8f8:	48 83 ec 28          	sub    $0x28,%rsp
  40d8fc:	48 89 7d e8          	mov    %rdi,-0x18(%rbp)
  40d900:	48 89 75 e0          	mov    %rsi,-0x20(%rbp)
  40d904:	48 89 55 d8          	mov    %rdx,-0x28(%rbp)
  40d908:	48 8b 45 e0          	mov    -0x20(%rbp),%rax
  40d90c:	48 89 c7             	mov    %rax,%rdi
  40d90f:	e8 c9 f6 ff ff       	callq  40cfdd <_ZSt12__miter_baseIPKcENSt11_Miter_baseIT_E13iterator_typeES3_>
  40d914:	48 89 c3             	mov    %rax,%rbx
  40d917:	48 8b 45 e8          	mov    -0x18(%rbp),%rax
  40d91b:	48 89 c7             	mov    %rax,%rdi
  40d91e:	e8 ba f6 ff ff       	callq  40cfdd <_ZSt12__miter_baseIPKcENSt11_Miter_baseIT_E13iterator_typeES3_>
  40d923:	48 89 c1             	mov    %rax,%rcx
  40d926:	48 8b 45 d8          	mov    -0x28(%rbp),%rax
  40d92a:	48 89 c2             	mov    %rax,%rdx
  40d92d:	48 89 de             	mov    %rbx,%rsi
  40d930:	48 89 cf             	mov    %rcx,%rdi
  40d933:	e8 09 02 00 00       	callq  40db41 <_ZSt14__copy_move_a2ILb0EPKcPhET1_T0_S4_S3_>
  40d938:	48 83 c4 28          	add    $0x28,%rsp
  40d93c:	5b                   	pop    %rbx
  40d93d:	5d                   	pop    %rbp
  40d93e:	c3                   	retq   

000000000040d93f <_ZNSt11__copy_moveILb0ELb0ESt26random_access_iterator_tagE8__copy_mIPcPhEET0_T_S6_S5_>:
  40d93f:	55                   	push   %rbp
  40d940:	48 89 e5             	mov    %rsp,%rbp
  40d943:	48 89 7d e8          	mov    %rdi,-0x18(%rbp)
  40d947:	48 89 75 e0          	mov    %rsi,-0x20(%rbp)
  40d94b:	48 89 55 d8          	mov    %rdx,-0x28(%rbp)
  40d94f:	48 8b 55 e0          	mov    -0x20(%rbp),%rdx
  40d953:	48 8b 45 e8          	mov    -0x18(%rbp),%rax
  40d957:	48 29 c2             	sub    %rax,%rdx
  40d95a:	48 89 d0             	mov    %rdx,%rax
  40d95d:	48 89 45 f8          	mov    %rax,-0x8(%rbp)
  40d961:	48 83 7d f8 00       	cmpq   $0x0,-0x8(%rbp)
  40d966:	7e 20                	jle    40d988 <_ZNSt11__copy_moveILb0ELb0ESt26random_access_iterator_tagE8__copy_mIPcPhEET0_T_S6_S5_+0x49>
  40d968:	48 8b 45 e8          	mov    -0x18(%rbp),%rax
  40d96c:	0f b6 00             	movzbl (%rax),%eax
  40d96f:	89 c2                	mov    %eax,%edx
  40d971:	48 8b 45 d8          	mov    -0x28(%rbp),%rax
  40d975:	88 10                	mov    %dl,(%rax)
  40d977:	48 83 45 e8 01       	addq   $0x1,-0x18(%rbp)
  40d97c:	48 83 45 d8 01       	addq   $0x1,-0x28(%rbp)
  40d981:	48 83 6d f8 01       	subq   $0x1,-0x8(%rbp)
  40d986:	eb d9                	jmp    40d961 <_ZNSt11__copy_moveILb0ELb0ESt26random_access_iterator_tagE8__copy_mIPcPhEET0_T_S6_S5_+0x22>
  40d988:	48 8b 45 d8          	mov    -0x28(%rbp),%rax
  40d98c:	5d                   	pop    %rbp
  40d98d:	c3                   	retq   

000000000040d98e <_ZSt4copyIPcPhET0_T_S3_S2_>:
  40d98e:	55                   	push   %rbp
  40d98f:	48 89 e5             	mov    %rsp,%rbp
  40d992:	53                   	push   %rbx
  40d993:	48 83 ec 28          	sub    $0x28,%rsp
  40d997:	48 89 7d e8          	mov    %rdi,-0x18(%rbp)
  40d99b:	48 89 75 e0          	mov    %rsi,-0x20(%rbp)
  40d99f:	48 89 55 d8          	mov    %rdx,-0x28(%rbp)
  40d9a3:	48 8b 45 e0          	mov    -0x20(%rbp),%rax
  40d9a7:	48 89 c7             	mov    %rax,%rdi
  40d9aa:	e8 59 f7 ff ff       	callq  40d108 <_ZSt12__miter_baseIPcENSt11_Miter_baseIT_E13iterator_typeES2_>
  40d9af:	48 89 c3             	mov    %rax,%rbx
  40d9b2:	48 8b 45 e8          	mov    -0x18(%rbp),%rax
  40d9b6:	48 89 c7             	mov    %rax,%rdi
  40d9b9:	e8 4a f7 ff ff       	callq  40d108 <_ZSt12__miter_baseIPcENSt11_Miter_baseIT_E13iterator_typeES2_>
  40d9be:	48 89 c1             	mov    %rax,%rcx
  40d9c1:	48 8b 45 d8          	mov    -0x28(%rbp),%rax
  40d9c5:	48 89 c2             	mov    %rax,%rdx
  40d9c8:	48 89 de             	mov    %rbx,%rsi
  40d9cb:	48 89 cf             	mov    %rcx,%rdi
  40d9ce:	e8 c6 01 00 00       	callq  40db99 <_ZSt14__copy_move_a2ILb0EPcPhET1_T0_S3_S2_>
  40d9d3:	48 83 c4 28          	add    $0x28,%rsp
  40d9d7:	5b                   	pop    %rbx
  40d9d8:	5d                   	pop    %rbp
  40d9d9:	c3                   	retq   

000000000040d9da <_ZStneIPSt4pairISt6threadbEEbRKSt13move_iteratorIT_ES8_>:
  40d9da:	55                   	push   %rbp
  40d9db:	48 89 e5             	mov    %rsp,%rbp
  40d9de:	48 83 ec 10          	sub    $0x10,%rsp
  40d9e2:	48 89 7d f8          	mov    %rdi,-0x8(%rbp)
  40d9e6:	48 89 75 f0          	mov    %rsi,-0x10(%rbp)
  40d9ea:	48 8b 55 f0          	mov    -0x10(%rbp),%rdx
  40d9ee:	48 8b 45 f8          	mov    -0x8(%rbp),%rax
  40d9f2:	48 89 d6             	mov    %rdx,%rsi
  40d9f5:	48 89 c7             	mov    %rax,%rdi
  40d9f8:	e8 0b 02 00 00       	callq  40dc08 <_ZSteqIPSt4pairISt6threadbEEbRKSt13move_iteratorIT_ES8_>
  40d9fd:	83 f0 01             	xor    $0x1,%eax
  40da00:	c9                   	leaveq 
  40da01:	c3                   	retq   

000000000040da02 <_ZNSt13move_iteratorIPSt4pairISt6threadbEEppEv>:
  40da02:	55                   	push   %rbp
  40da03:	48 89 e5             	mov    %rsp,%rbp
  40da06:	48 89 7d f8          	mov    %rdi,-0x8(%rbp)
  40da0a:	48 8b 45 f8          	mov    -0x8(%rbp),%rax
  40da0e:	48 8b 00             	mov    (%rax),%rax
  40da11:	48 8d 50 10          	lea    0x10(%rax),%rdx
  40da15:	48 8b 45 f8          	mov    -0x8(%rbp),%rax
  40da19:	48 89 10             	mov    %rdx,(%rax)
  40da1c:	48 8b 45 f8          	mov    -0x8(%rbp),%rax
  40da20:	5d                   	pop    %rbp
  40da21:	c3                   	retq   

000000000040da22 <_ZNKSt13move_iteratorIPSt4pairISt6threadbEEdeEv>:
  40da22:	55                   	push   %rbp
  40da23:	48 89 e5             	mov    %rsp,%rbp
  40da26:	48 89 7d f8          	mov    %rdi,-0x8(%rbp)
  40da2a:	48 8b 45 f8          	mov    -0x8(%rbp),%rax
  40da2e:	48 8b 00             	mov    (%rax),%rax
  40da31:	5d                   	pop    %rbp
  40da32:	c3                   	retq   

000000000040da33 <_ZSt7forwardISt4pairISt6threadbEEOT_RNSt16remove_referenceIS3_E4typeE>:
  40da33:	55                   	push   %rbp
  40da34:	48 89 e5             	mov    %rsp,%rbp
  40da37:	48 89 7d f8          	mov    %rdi,-0x8(%rbp)
  40da3b:	48 8b 45 f8          	mov    -0x8(%rbp),%rax
  40da3f:	5d                   	pop    %rbp
  40da40:	c3                   	retq   
  40da41:	90                   	nop

000000000040da42 <_ZNSt4pairISt6threadbEC1EOS1_>:
  40da42:	55                   	push   %rbp
  40da43:	48 89 e5             	mov    %rsp,%rbp
  40da46:	48 83 ec 10          	sub    $0x10,%rsp
  40da4a:	48 89 7d f8          	mov    %rdi,-0x8(%rbp)
  40da4e:	48 89 75 f0          	mov    %rsi,-0x10(%rbp)
  40da52:	48 8b 55 f0          	mov    -0x10(%rbp),%rdx
  40da56:	48 8b 45 f8          	mov    -0x8(%rbp),%rax
  40da5a:	48 89 d6             	mov    %rdx,%rsi
  40da5d:	48 89 c7             	mov    %rax,%rdi
  40da60:	e8 e7 c7 ff ff       	callq  40a24c <_ZNSt6threadC1EOS_>
  40da65:	48 8b 45 f0          	mov    -0x10(%rbp),%rax
  40da69:	0f b6 50 08          	movzbl 0x8(%rax),%edx
  40da6d:	48 8b 45 f8          	mov    -0x8(%rbp),%rax
  40da71:	88 50 08             	mov    %dl,0x8(%rax)
  40da74:	90                   	nop
  40da75:	c9                   	leaveq 
  40da76:	c3                   	retq   

000000000040da77 <_ZSt10_ConstructISt4pairISt6threadbEIS2_EEvPT_DpOT0_>:
  40da77:	55                   	push   %rbp
  40da78:	48 89 e5             	mov    %rsp,%rbp
  40da7b:	53                   	push   %rbx
  40da7c:	48 83 ec 18          	sub    $0x18,%rsp
  40da80:	48 89 7d e8          	mov    %rdi,-0x18(%rbp)
  40da84:	48 89 75 e0          	mov    %rsi,-0x20(%rbp)
  40da88:	48 8b 45 e0          	mov    -0x20(%rbp),%rax
  40da8c:	48 89 c7             	mov    %rax,%rdi
  40da8f:	e8 9f ff ff ff       	callq  40da33 <_ZSt7forwardISt4pairISt6threadbEEOT_RNSt16remove_referenceIS3_E4typeE>
  40da94:	48 89 c3             	mov    %rax,%rbx
  40da97:	48 8b 45 e8          	mov    -0x18(%rbp),%rax
  40da9b:	48 89 c6             	mov    %rax,%rsi
  40da9e:	bf 10 00 00 00       	mov    $0x10,%edi
  40daa3:	e8 c1 61 ff ff       	callq  403c69 <_ZnwmPv>
  40daa8:	48 85 c0             	test   %rax,%rax
  40daab:	74 0b                	je     40dab8 <_ZSt10_ConstructISt4pairISt6threadbEIS2_EEvPT_DpOT0_+0x41>
  40daad:	48 89 de             	mov    %rbx,%rsi
  40dab0:	48 89 c7             	mov    %rax,%rdi
  40dab3:	e8 8a ff ff ff       	callq  40da42 <_ZNSt4pairISt6threadbEC1EOS1_>
  40dab8:	90                   	nop
  40dab9:	48 83 c4 18          	add    $0x18,%rsp
  40dabd:	5b                   	pop    %rbx
  40dabe:	5d                   	pop    %rbp
  40dabf:	c3                   	retq   

000000000040dac0 <_ZSt12__get_helperILm0ERKNSt7__cxx1112basic_stringIcSt11char_traitsIcESaIcEEEIEERT0_RSt11_Tuple_implIXT_EIS8_DpT1_EE>:
  40dac0:	55                   	push   %rbp
  40dac1:	48 89 e5             	mov    %rsp,%rbp
  40dac4:	48 83 ec 10          	sub    $0x10,%rsp
  40dac8:	48 89 7d f8          	mov    %rdi,-0x8(%rbp)
  40dacc:	48 8b 45 f8          	mov    -0x8(%rbp),%rax
  40dad0:	48 89 c7             	mov    %rax,%rdi
  40dad3:	e8 f3 f8 ff ff       	callq  40d3cb <_ZNSt11_Tuple_implILm0EIRKNSt7__cxx1112basic_stringIcSt11char_traitsIcESaIcEEEEE7_M_headERS8_>
  40dad8:	c9                   	leaveq 
  40dad9:	c3                   	retq   

000000000040dada <_ZSt3getILm0EIRKNSt7__cxx1112basic_stringIcSt11char_traitsIcESaIcEEEEERNSt13tuple_elementIXT_ESt5tupleIIDpT0_EEE4typeERSC_>:
  40dada:	55                   	push   %rbp
  40dadb:	48 89 e5             	mov    %rsp,%rbp
  40dade:	48 83 ec 10          	sub    $0x10,%rsp
  40dae2:	48 89 7d f8          	mov    %rdi,-0x8(%rbp)
  40dae6:	48 8b 45 f8          	mov    -0x8(%rbp),%rax
  40daea:	48 89 c7             	mov    %rax,%rdi
  40daed:	e8 ce ff ff ff       	callq  40dac0 <_ZSt12__get_helperILm0ERKNSt7__cxx1112basic_stringIcSt11char_traitsIcESaIcEEEIEERT0_RSt11_Tuple_implIXT_EIS8_DpT1_EE>
  40daf2:	c9                   	leaveq 
  40daf3:	c3                   	retq   

000000000040daf4 <_ZNSt4pairIKNSt7__cxx1112basic_stringIcSt11char_traitsIcESaIcEEES5_EC1IIRS6_EILm0EEIEIEEERSt5tupleIIDpT_EERSA_IIDpT1_EESt12_Index_tupleIIXspT0_EEESJ_IIXspT2_EEE>:
  40daf4:	55                   	push   %rbp
  40daf5:	48 89 e5             	mov    %rsp,%rbp
  40daf8:	48 83 ec 20          	sub    $0x20,%rsp
  40dafc:	48 89 7d f8          	mov    %rdi,-0x8(%rbp)
  40db00:	48 89 75 f0          	mov    %rsi,-0x10(%rbp)
  40db04:	48 89 55 e8          	mov    %rdx,-0x18(%rbp)
  40db08:	48 8b 45 f0          	mov    -0x10(%rbp),%rax
  40db0c:	48 89 c7             	mov    %rax,%rdi
  40db0f:	e8 c6 ff ff ff       	callq  40dada <_ZSt3getILm0EIRKNSt7__cxx1112basic_stringIcSt11char_traitsIcESaIcEEEEERNSt13tuple_elementIXT_ESt5tupleIIDpT0_EEE4typeERSC_>
  40db14:	48 89 c7             	mov    %rax,%rdi
  40db17:	e8 c9 f8 ff ff       	callq  40d3e5 <_ZSt7forwardIRKNSt7__cxx1112basic_stringIcSt11char_traitsIcESaIcEEEEOT_RNSt16remove_referenceIS8_E4typeE>
  40db1c:	48 89 c2             	mov    %rax,%rdx
  40db1f:	48 8b 45 f8          	mov    -0x8(%rbp),%rax
  40db23:	48 89 d6             	mov    %rdx,%rsi
  40db26:	48 89 c7             	mov    %rax,%rdi
  40db29:	e8 72 50 ff ff       	callq  402ba0 <_ZNSt7__cxx1112basic_stringIcSt11char_traitsIcESaIcEEC1ERKS4_@plt>
  40db2e:	48 8b 45 f8          	mov    -0x8(%rbp),%rax
  40db32:	48 83 c0 20          	add    $0x20,%rax
  40db36:	48 89 c7             	mov    %rax,%rdi
  40db39:	e8 52 53 ff ff       	callq  402e90 <_ZNSt7__cxx1112basic_stringIcSt11char_traitsIcESaIcEEC1Ev@plt>
  40db3e:	90                   	nop
  40db3f:	c9                   	leaveq 
  40db40:	c3                   	retq   

000000000040db41 <_ZSt14__copy_move_a2ILb0EPKcPhET1_T0_S4_S3_>:
  40db41:	55                   	push   %rbp
  40db42:	48 89 e5             	mov    %rsp,%rbp
  40db45:	41 54                	push   %r12
  40db47:	53                   	push   %rbx
  40db48:	48 83 ec 20          	sub    $0x20,%rsp
  40db4c:	48 89 7d e8          	mov    %rdi,-0x18(%rbp)
  40db50:	48 89 75 e0          	mov    %rsi,-0x20(%rbp)
  40db54:	48 89 55 d8          	mov    %rdx,-0x28(%rbp)
  40db58:	48 8b 45 d8          	mov    -0x28(%rbp),%rax
  40db5c:	48 89 c7             	mov    %rax,%rdi
  40db5f:	e8 6c 94 ff ff       	callq  406fd0 <_ZSt12__niter_baseIPhENSt11_Niter_baseIT_E13iterator_typeES2_>
  40db64:	49 89 c4             	mov    %rax,%r12
  40db67:	48 8b 45 e0          	mov    -0x20(%rbp),%rax
  40db6b:	48 89 c7             	mov    %rax,%rdi
  40db6e:	e8 fe f9 ff ff       	callq  40d571 <_ZSt12__niter_baseIPKcENSt11_Niter_baseIT_E13iterator_typeES3_>
  40db73:	48 89 c3             	mov    %rax,%rbx
  40db76:	48 8b 45 e8          	mov    -0x18(%rbp),%rax
  40db7a:	48 89 c7             	mov    %rax,%rdi
  40db7d:	e8 ef f9 ff ff       	callq  40d571 <_ZSt12__niter_baseIPKcENSt11_Niter_baseIT_E13iterator_typeES3_>
  40db82:	4c 89 e2             	mov    %r12,%rdx
  40db85:	48 89 de             	mov    %rbx,%rsi
  40db88:	48 89 c7             	mov    %rax,%rdi
  40db8b:	e8 15 fa ff ff       	callq  40d5a5 <_ZSt13__copy_move_aILb0EPKcPhET1_T0_S4_S3_>
  40db90:	48 83 c4 20          	add    $0x20,%rsp
  40db94:	5b                   	pop    %rbx
  40db95:	41 5c                	pop    %r12
  40db97:	5d                   	pop    %rbp
  40db98:	c3                   	retq   

000000000040db99 <_ZSt14__copy_move_a2ILb0EPcPhET1_T0_S3_S2_>:
  40db99:	55                   	push   %rbp
  40db9a:	48 89 e5             	mov    %rsp,%rbp
  40db9d:	41 54                	push   %r12
  40db9f:	53                   	push   %rbx
  40dba0:	48 83 ec 20          	sub    $0x20,%rsp
  40dba4:	48 89 7d e8          	mov    %rdi,-0x18(%rbp)
  40dba8:	48 89 75 e0          	mov    %rsi,-0x20(%rbp)
  40dbac:	48 89 55 d8          	mov    %rdx,-0x28(%rbp)
  40dbb0:	48 8b 45 d8          	mov    -0x28(%rbp),%rax
  40dbb4:	48 89 c7             	mov    %rax,%rdi
  40dbb7:	e8 14 94 ff ff       	callq  406fd0 <_ZSt12__niter_baseIPhENSt11_Niter_baseIT_E13iterator_typeES2_>
  40dbbc:	49 89 c4             	mov    %rax,%r12
  40dbbf:	48 8b 45 e0          	mov    -0x20(%rbp),%rax
  40dbc3:	48 89 c7             	mov    %rax,%rdi
  40dbc6:	e8 46 fa ff ff       	callq  40d611 <_ZSt12__niter_baseIPcENSt11_Niter_baseIT_E13iterator_typeES2_>
  40dbcb:	48 89 c3             	mov    %rax,%rbx
  40dbce:	48 8b 45 e8          	mov    -0x18(%rbp),%rax
  40dbd2:	48 89 c7             	mov    %rax,%rdi
  40dbd5:	e8 37 fa ff ff       	callq  40d611 <_ZSt12__niter_baseIPcENSt11_Niter_baseIT_E13iterator_typeES2_>
  40dbda:	4c 89 e2             	mov    %r12,%rdx
  40dbdd:	48 89 de             	mov    %rbx,%rsi
  40dbe0:	48 89 c7             	mov    %rax,%rdi
  40dbe3:	e8 43 fa ff ff       	callq  40d62b <_ZSt13__copy_move_aILb0EPcPhET1_T0_S3_S2_>
  40dbe8:	48 83 c4 20          	add    $0x20,%rsp
  40dbec:	5b                   	pop    %rbx
  40dbed:	41 5c                	pop    %r12
  40dbef:	5d                   	pop    %rbp
  40dbf0:	c3                   	retq   
  40dbf1:	90                   	nop

000000000040dbf2 <_ZNSt14__shared_countILN9__gnu_cxx12_Lock_policyE2EEC1Ev>:
  40dbf2:	55                   	push   %rbp
  40dbf3:	48 89 e5             	mov    %rsp,%rbp
  40dbf6:	48 89 7d f8          	mov    %rdi,-0x8(%rbp)
  40dbfa:	48 8b 45 f8          	mov    -0x8(%rbp),%rax
  40dbfe:	48 c7 00 00 00 00 00 	movq   $0x0,(%rax)
  40dc05:	90                   	nop
  40dc06:	5d                   	pop    %rbp
  40dc07:	c3                   	retq   

000000000040dc08 <_ZSteqIPSt4pairISt6threadbEEbRKSt13move_iteratorIT_ES8_>:
  40dc08:	55                   	push   %rbp
  40dc09:	48 89 e5             	mov    %rsp,%rbp
  40dc0c:	53                   	push   %rbx
  40dc0d:	48 83 ec 18          	sub    $0x18,%rsp
  40dc11:	48 89 7d e8          	mov    %rdi,-0x18(%rbp)
  40dc15:	48 89 75 e0          	mov    %rsi,-0x20(%rbp)
  40dc19:	48 8b 45 e8          	mov    -0x18(%rbp),%rax
  40dc1d:	48 89 c7             	mov    %rax,%rdi
  40dc20:	e8 51 00 00 00       	callq  40dc76 <_ZNKSt13move_iteratorIPSt4pairISt6threadbEE4baseEv>
  40dc25:	48 89 c3             	mov    %rax,%rbx
  40dc28:	48 8b 45 e0          	mov    -0x20(%rbp),%rax
  40dc2c:	48 89 c7             	mov    %rax,%rdi
  40dc2f:	e8 42 00 00 00       	callq  40dc76 <_ZNKSt13move_iteratorIPSt4pairISt6threadbEE4baseEv>
  40dc34:	48 39 c3             	cmp    %rax,%rbx
  40dc37:	0f 94 c0             	sete   %al
  40dc3a:	48 83 c4 18          	add    $0x18,%rsp
  40dc3e:	5b                   	pop    %rbx
  40dc3f:	5d                   	pop    %rbp
  40dc40:	c3                   	retq   
  40dc41:	90                   	nop

000000000040dc42 <_ZNSt14__shared_countILN9__gnu_cxx12_Lock_policyE2EE7_M_swapERS2_>:
  40dc42:	55                   	push   %rbp
  40dc43:	48 89 e5             	mov    %rsp,%rbp
  40dc46:	48 89 7d e8          	mov    %rdi,-0x18(%rbp)
  40dc4a:	48 89 75 e0          	mov    %rsi,-0x20(%rbp)
  40dc4e:	48 8b 45 e0          	mov    -0x20(%rbp),%rax
  40dc52:	48 8b 00             	mov    (%rax),%rax
  40dc55:	48 89 45 f8          	mov    %rax,-0x8(%rbp)
  40dc59:	48 8b 45 e8          	mov    -0x18(%rbp),%rax
  40dc5d:	48 8b 10             	mov    (%rax),%rdx
  40dc60:	48 8b 45 e0          	mov    -0x20(%rbp),%rax
  40dc64:	48 89 10             	mov    %rdx,(%rax)
  40dc67:	48 8b 45 e8          	mov    -0x18(%rbp),%rax
  40dc6b:	48 8b 55 f8          	mov    -0x8(%rbp),%rdx
  40dc6f:	48 89 10             	mov    %rdx,(%rax)
  40dc72:	90                   	nop
  40dc73:	5d                   	pop    %rbp
  40dc74:	c3                   	retq   
  40dc75:	90                   	nop

000000000040dc76 <_ZNKSt13move_iteratorIPSt4pairISt6threadbEE4baseEv>:
  40dc76:	55                   	push   %rbp
  40dc77:	48 89 e5             	mov    %rsp,%rbp
  40dc7a:	48 89 7d f8          	mov    %rdi,-0x8(%rbp)
  40dc7e:	48 8b 45 f8          	mov    -0x8(%rbp),%rax
  40dc82:	48 8b 00             	mov    (%rax),%rax
  40dc85:	5d                   	pop    %rbp
  40dc86:	c3                   	retq   
  40dc87:	90                   	nop

000000000040dc88 <_ZNKSt14__shared_countILN9__gnu_cxx12_Lock_policyE2EE14_M_get_deleterERKSt9type_info>:
  40dc88:	55                   	push   %rbp
  40dc89:	48 89 e5             	mov    %rsp,%rbp
  40dc8c:	48 83 ec 10          	sub    $0x10,%rsp
  40dc90:	48 89 7d f8          	mov    %rdi,-0x8(%rbp)
  40dc94:	48 89 75 f0          	mov    %rsi,-0x10(%rbp)
  40dc98:	48 8b 45 f8          	mov    -0x8(%rbp),%rax
  40dc9c:	48 8b 00             	mov    (%rax),%rax
  40dc9f:	48 85 c0             	test   %rax,%rax
  40dca2:	74 26                	je     40dcca <_ZNKSt14__shared_countILN9__gnu_cxx12_Lock_policyE2EE14_M_get_deleterERKSt9type_info+0x42>
  40dca4:	48 8b 45 f8          	mov    -0x8(%rbp),%rax
  40dca8:	48 8b 00             	mov    (%rax),%rax
  40dcab:	48 8b 00             	mov    (%rax),%rax
  40dcae:	48 83 c0 20          	add    $0x20,%rax
  40dcb2:	48 8b 00             	mov    (%rax),%rax
  40dcb5:	48 8b 55 f8          	mov    -0x8(%rbp),%rdx
  40dcb9:	48 8b 12             	mov    (%rdx),%rdx
  40dcbc:	48 8b 4d f0          	mov    -0x10(%rbp),%rcx
  40dcc0:	48 89 ce             	mov    %rcx,%rsi
  40dcc3:	48 89 d7             	mov    %rdx,%rdi
  40dcc6:	ff d0                	callq  *%rax
  40dcc8:	eb 05                	jmp    40dccf <_ZNKSt14__shared_countILN9__gnu_cxx12_Lock_policyE2EE14_M_get_deleterERKSt9type_info+0x47>
  40dcca:	b8 00 00 00 00       	mov    $0x0,%eax
  40dccf:	c9                   	leaveq 
  40dcd0:	c3                   	retq   

000000000040dcd1 <_ZSt32__enable_shared_from_this_helperILN9__gnu_cxx12_Lock_policyE2EEvRKSt14__shared_countIXT_EEz>:
  40dcd1:	55                   	push   %rbp
  40dcd2:	48 89 e5             	mov    %rsp,%rbp
  40dcd5:	48 83 ec 48          	sub    $0x48,%rsp
  40dcd9:	48 89 bd 48 ff ff ff 	mov    %rdi,-0xb8(%rbp)
  40dce0:	48 89 b5 58 ff ff ff 	mov    %rsi,-0xa8(%rbp)
  40dce7:	48 89 95 60 ff ff ff 	mov    %rdx,-0xa0(%rbp)
  40dcee:	48 89 8d 68 ff ff ff 	mov    %rcx,-0x98(%rbp)
  40dcf5:	4c 89 85 70 ff ff ff 	mov    %r8,-0x90(%rbp)
  40dcfc:	4c 89 8d 78 ff ff ff 	mov    %r9,-0x88(%rbp)
  40dd03:	84 c0                	test   %al,%al
  40dd05:	74 20                	je     40dd27 <_ZSt32__enable_shared_from_this_helperILN9__gnu_cxx12_Lock_policyE2EEvRKSt14__shared_countIXT_EEz+0x56>
  40dd07:	0f 29 45 80          	movaps %xmm0,-0x80(%rbp)
  40dd0b:	0f 29 4d 90          	movaps %xmm1,-0x70(%rbp)
  40dd0f:	0f 29 55 a0          	movaps %xmm2,-0x60(%rbp)
  40dd13:	0f 29 5d b0          	movaps %xmm3,-0x50(%rbp)
  40dd17:	0f 29 65 c0          	movaps %xmm4,-0x40(%rbp)
  40dd1b:	0f 29 6d d0          	movaps %xmm5,-0x30(%rbp)
  40dd1f:	0f 29 75 e0          	movaps %xmm6,-0x20(%rbp)
  40dd23:	0f 29 7d f0          	movaps %xmm7,-0x10(%rbp)
  40dd27:	90                   	nop
  40dd28:	c9                   	leaveq 
  40dd29:	c3                   	retq   

000000000040dd2a <_ZNSt11_Mutex_baseILN9__gnu_cxx12_Lock_policyE2EEC1Ev>:
  40dd2a:	55                   	push   %rbp
  40dd2b:	48 89 e5             	mov    %rsp,%rbp
  40dd2e:	48 89 7d f8          	mov    %rdi,-0x8(%rbp)
  40dd32:	90                   	nop
  40dd33:	5d                   	pop    %rbp
  40dd34:	c3                   	retq   
  40dd35:	90                   	nop

000000000040dd36 <_ZNSt16_Sp_counted_baseILN9__gnu_cxx12_Lock_policyE2EEC1Ev>:
  40dd36:	55                   	push   %rbp
  40dd37:	48 89 e5             	mov    %rsp,%rbp
  40dd3a:	48 83 ec 10          	sub    $0x10,%rsp
  40dd3e:	48 89 7d f8          	mov    %rdi,-0x8(%rbp)
  40dd42:	48 8b 45 f8          	mov    -0x8(%rbp),%rax
  40dd46:	48 89 c7             	mov    %rax,%rdi
  40dd49:	e8 dc ff ff ff       	callq  40dd2a <_ZNSt11_Mutex_baseILN9__gnu_cxx12_Lock_policyE2EEC1Ev>
  40dd4e:	ba e8 e1 40 00       	mov    $0x40e1e8,%edx
  40dd53:	48 8b 45 f8          	mov    -0x8(%rbp),%rax
  40dd57:	48 89 10             	mov    %rdx,(%rax)
  40dd5a:	48 8b 45 f8          	mov    -0x8(%rbp),%rax
  40dd5e:	c7 40 08 01 00 00 00 	movl   $0x1,0x8(%rax)
  40dd65:	48 8b 45 f8          	mov    -0x8(%rbp),%rax
  40dd69:	c7 40 0c 01 00 00 00 	movl   $0x1,0xc(%rax)
  40dd70:	90                   	nop
  40dd71:	c9                   	leaveq 
  40dd72:	c3                   	retq   
  40dd73:	90                   	nop

000000000040dd74 <_ZNSt15aligned_storageILm56ELm8EEC1Ev>:
  40dd74:	55                   	push   %rbp
  40dd75:	48 89 e5             	mov    %rsp,%rbp
  40dd78:	48 89 7d f8          	mov    %rdi,-0x8(%rbp)
  40dd7c:	90                   	nop
  40dd7d:	5d                   	pop    %rbp
  40dd7e:	c3                   	retq   
  40dd7f:	90                   	nop

000000000040dd80 <_ZNSt12__shared_ptrINSt6thread10_Impl_baseELN9__gnu_cxx12_Lock_policyE2EEC1Ev>:
  40dd80:	55                   	push   %rbp
  40dd81:	48 89 e5             	mov    %rsp,%rbp
  40dd84:	48 83 ec 10          	sub    $0x10,%rsp
  40dd88:	48 89 7d f8          	mov    %rdi,-0x8(%rbp)
  40dd8c:	48 8b 45 f8          	mov    -0x8(%rbp),%rax
  40dd90:	48 c7 00 00 00 00 00 	movq   $0x0,(%rax)
  40dd97:	48 8b 45 f8          	mov    -0x8(%rbp),%rax
  40dd9b:	48 83 c0 08          	add    $0x8,%rax
  40dd9f:	48 89 c7             	mov    %rax,%rdi
  40dda2:	e8 4b fe ff ff       	callq  40dbf2 <_ZNSt14__shared_countILN9__gnu_cxx12_Lock_policyE2EEC1Ev>
  40dda7:	90                   	nop
  40dda8:	c9                   	leaveq 
  40dda9:	c3                   	retq   

000000000040ddaa <_ZNSt10shared_ptrINSt6thread10_Impl_baseEEC1Ev>:
  40ddaa:	55                   	push   %rbp
  40ddab:	48 89 e5             	mov    %rsp,%rbp
  40ddae:	48 83 ec 10          	sub    $0x10,%rsp
  40ddb2:	48 89 7d f8          	mov    %rdi,-0x8(%rbp)
  40ddb6:	48 8b 45 f8          	mov    -0x8(%rbp),%rax
  40ddba:	48 89 c7             	mov    %rax,%rdi
  40ddbd:	e8 be ff ff ff       	callq  40dd80 <_ZNSt12__shared_ptrINSt6thread10_Impl_baseELN9__gnu_cxx12_Lock_policyE2EEC1Ev>
  40ddc2:	90                   	nop
  40ddc3:	c9                   	leaveq 
  40ddc4:	c3                   	retq   
  40ddc5:	90                   	nop

000000000040ddc6 <_ZNSt6thread10_Impl_baseC1Ev>:
  40ddc6:	55                   	push   %rbp
  40ddc7:	48 89 e5             	mov    %rsp,%rbp
  40ddca:	48 83 ec 10          	sub    $0x10,%rsp
  40ddce:	48 89 7d f8          	mov    %rdi,-0x8(%rbp)
  40ddd2:	ba c0 e1 40 00       	mov    $0x40e1c0,%edx
  40ddd7:	48 8b 45 f8          	mov    -0x8(%rbp),%rax
  40dddb:	48 89 10             	mov    %rdx,(%rax)
  40ddde:	48 8b 45 f8          	mov    -0x8(%rbp),%rax
  40dde2:	48 83 c0 08          	add    $0x8,%rax
  40dde6:	48 89 c7             	mov    %rax,%rdi
  40dde9:	e8 bc ff ff ff       	callq  40ddaa <_ZNSt10shared_ptrINSt6thread10_Impl_baseEEC1Ev>
  40ddee:	90                   	nop
  40ddef:	c9                   	leaveq 
  40ddf0:	c3                   	retq   
  40ddf1:	66 2e 0f 1f 84 00 00 	nopw   %cs:0x0(%rax,%rax,1)
  40ddf8:	00 00 00 
  40ddfb:	0f 1f 44 00 00       	nopl   0x0(%rax,%rax,1)

000000000040de00 <__libc_csu_init>:
  40de00:	41 57                	push   %r15
  40de02:	41 56                	push   %r14
  40de04:	41 89 ff             	mov    %edi,%r15d
  40de07:	41 55                	push   %r13
  40de09:	41 54                	push   %r12
  40de0b:	4c 8d 25 ce 6f 20 00 	lea    0x206fce(%rip),%r12        # 614de0 <__frame_dummy_init_array_entry>
  40de12:	55                   	push   %rbp
  40de13:	48 8d 2d ce 6f 20 00 	lea    0x206fce(%rip),%rbp        # 614de8 <__init_array_end>
  40de1a:	53                   	push   %rbx
  40de1b:	49 89 f6             	mov    %rsi,%r14
  40de1e:	49 89 d5             	mov    %rdx,%r13
  40de21:	4c 29 e5             	sub    %r12,%rbp
  40de24:	48 83 ec 08          	sub    $0x8,%rsp
  40de28:	48 c1 fd 03          	sar    $0x3,%rbp
  40de2c:	e8 bf 4b ff ff       	callq  4029f0 <_init>
  40de31:	48 85 ed             	test   %rbp,%rbp
  40de34:	74 20                	je     40de56 <__libc_csu_init+0x56>
  40de36:	31 db                	xor    %ebx,%ebx
  40de38:	0f 1f 84 00 00 00 00 	nopl   0x0(%rax,%rax,1)
  40de3f:	00 
  40de40:	4c 89 ea             	mov    %r13,%rdx
  40de43:	4c 89 f6             	mov    %r14,%rsi
  40de46:	44 89 ff             	mov    %r15d,%edi
  40de49:	41 ff 14 dc          	callq  *(%r12,%rbx,8)
  40de4d:	48 83 c3 01          	add    $0x1,%rbx
  40de51:	48 39 eb             	cmp    %rbp,%rbx
  40de54:	75 ea                	jne    40de40 <__libc_csu_init+0x40>
  40de56:	48 83 c4 08          	add    $0x8,%rsp
  40de5a:	5b                   	pop    %rbx
  40de5b:	5d                   	pop    %rbp
  40de5c:	41 5c                	pop    %r12
  40de5e:	41 5d                	pop    %r13
  40de60:	41 5e                	pop    %r14
  40de62:	41 5f                	pop    %r15
  40de64:	c3                   	retq   
  40de65:	90                   	nop
  40de66:	66 2e 0f 1f 84 00 00 	nopw   %cs:0x0(%rax,%rax,1)
  40de6d:	00 00 00 

000000000040de70 <__libc_csu_fini>:
  40de70:	f3 c3                	repz retq 

Disassembly of section .fini:

000000000040de74 <_fini>:
  40de74:	48 83 ec 08          	sub    $0x8,%rsp
  40de78:	48 83 c4 08          	add    $0x8,%rsp
  40de7c:	c3                   	retq   
