
../linux/bot_118/client_118:     file format elf64-x86-64


Disassembly of section .init:

0000000000402a38 <_init>:
  402a38:	48 83 ec 08          	sub    $0x8,%rsp
  402a3c:	48 8b 05 b5 35 21 00 	mov    0x2135b5(%rip),%rax        # 615ff8 <_DYNAMIC+0x220>
  402a43:	48 85 c0             	test   %rax,%rax
  402a46:	74 05                	je     402a4d <_init+0x15>
  402a48:	e8 a3 06 00 00       	callq  4030f0 <_ZNSt7__cxx1112basic_stringIcSt11char_traitsIcESaIcEE11_M_capacityEm@plt+0x10>
  402a4d:	48 83 c4 08          	add    $0x8,%rsp
  402a51:	c3                   	retq   

Disassembly of section .plt:

0000000000402a60 <_ZNKSt7__cxx1112basic_stringIcSt11char_traitsIcESaIcEE7compareERKS4_@plt-0x10>:
  402a60:	ff 35 a2 35 21 00    	pushq  0x2135a2(%rip)        # 616008 <_GLOBAL_OFFSET_TABLE_+0x8>
  402a66:	ff 25 a4 35 21 00    	jmpq   *0x2135a4(%rip)        # 616010 <_GLOBAL_OFFSET_TABLE_+0x10>
  402a6c:	0f 1f 40 00          	nopl   0x0(%rax)

0000000000402a70 <_ZNKSt7__cxx1112basic_stringIcSt11char_traitsIcESaIcEE7compareERKS4_@plt>:
  402a70:	ff 25 a2 35 21 00    	jmpq   *0x2135a2(%rip)        # 616018 <_GLOBAL_OFFSET_TABLE_+0x18>
  402a76:	68 00 00 00 00       	pushq  $0x0
  402a7b:	e9 e0 ff ff ff       	jmpq   402a60 <_init+0x28>

0000000000402a80 <_ZNSt7__cxx1112basic_stringIcSt11char_traitsIcESaIcEEaSERKS4_@plt>:
  402a80:	ff 25 9a 35 21 00    	jmpq   *0x21359a(%rip)        # 616020 <_GLOBAL_OFFSET_TABLE_+0x20>
  402a86:	68 01 00 00 00       	pushq  $0x1
  402a8b:	e9 d0 ff ff ff       	jmpq   402a60 <_init+0x28>

0000000000402a90 <__errno_location@plt>:
  402a90:	ff 25 92 35 21 00    	jmpq   *0x213592(%rip)        # 616028 <_GLOBAL_OFFSET_TABLE_+0x28>
  402a96:	68 02 00 00 00       	pushq  $0x2
  402a9b:	e9 c0 ff ff ff       	jmpq   402a60 <_init+0x28>

0000000000402aa0 <printf@plt>:
  402aa0:	ff 25 8a 35 21 00    	jmpq   *0x21358a(%rip)        # 616030 <_GLOBAL_OFFSET_TABLE_+0x30>
  402aa6:	68 03 00 00 00       	pushq  $0x3
  402aab:	e9 b0 ff ff ff       	jmpq   402a60 <_init+0x28>

0000000000402ab0 <htons@plt>:
  402ab0:	ff 25 82 35 21 00    	jmpq   *0x213582(%rip)        # 616038 <_GLOBAL_OFFSET_TABLE_+0x38>
  402ab6:	68 04 00 00 00       	pushq  $0x4
  402abb:	e9 a0 ff ff ff       	jmpq   402a60 <_init+0x28>

0000000000402ac0 <bind@plt>:
  402ac0:	ff 25 7a 35 21 00    	jmpq   *0x21357a(%rip)        # 616040 <_GLOBAL_OFFSET_TABLE_+0x40>
  402ac6:	68 05 00 00 00       	pushq  $0x5
  402acb:	e9 90 ff ff ff       	jmpq   402a60 <_init+0x28>

0000000000402ad0 <_ZSt29_Rb_tree_insert_and_rebalancebPSt18_Rb_tree_node_baseS0_RS_@plt>:
  402ad0:	ff 25 72 35 21 00    	jmpq   *0x213572(%rip)        # 616048 <_GLOBAL_OFFSET_TABLE_+0x48>
  402ad6:	68 06 00 00 00       	pushq  $0x6
  402adb:	e9 80 ff ff ff       	jmpq   402a60 <_init+0x28>

0000000000402ae0 <_ZNSaIcED2Ev@plt>:
  402ae0:	ff 25 6a 35 21 00    	jmpq   *0x21356a(%rip)        # 616050 <_GLOBAL_OFFSET_TABLE_+0x50>
  402ae6:	68 07 00 00 00       	pushq  $0x7
  402aeb:	e9 70 ff ff ff       	jmpq   402a60 <_init+0x28>

0000000000402af0 <sprintf@plt>:
  402af0:	ff 25 62 35 21 00    	jmpq   *0x213562(%rip)        # 616058 <_GLOBAL_OFFSET_TABLE_+0x58>
  402af6:	68 08 00 00 00       	pushq  $0x8
  402afb:	e9 60 ff ff ff       	jmpq   402a60 <_init+0x28>

0000000000402b00 <_ZSt7getlineIcSt11char_traitsIcESaIcEERSt13basic_istreamIT_T0_ES7_RNSt7__cxx1112basic_stringIS4_S5_T1_EE@plt>:
  402b00:	ff 25 5a 35 21 00    	jmpq   *0x21355a(%rip)        # 616060 <_GLOBAL_OFFSET_TABLE_+0x60>
  402b06:	68 09 00 00 00       	pushq  $0x9
  402b0b:	e9 50 ff ff ff       	jmpq   402a60 <_init+0x28>

0000000000402b10 <socket@plt>:
  402b10:	ff 25 52 35 21 00    	jmpq   *0x213552(%rip)        # 616068 <_GLOBAL_OFFSET_TABLE_+0x68>
  402b16:	68 0a 00 00 00       	pushq  $0xa
  402b1b:	e9 40 ff ff ff       	jmpq   402a60 <_init+0x28>

0000000000402b20 <_ZNSt14basic_ifstreamIcSt11char_traitsIcEED1Ev@plt>:
  402b20:	ff 25 4a 35 21 00    	jmpq   *0x21354a(%rip)        # 616070 <_GLOBAL_OFFSET_TABLE_+0x70>
  402b26:	68 0b 00 00 00       	pushq  $0xb
  402b2b:	e9 30 ff ff ff       	jmpq   402a60 <_init+0x28>

0000000000402b30 <_ZSt9terminatev@plt>:
  402b30:	ff 25 42 35 21 00    	jmpq   *0x213542(%rip)        # 616078 <_GLOBAL_OFFSET_TABLE_+0x78>
  402b36:	68 0c 00 00 00       	pushq  $0xc
  402b3b:	e9 20 ff ff ff       	jmpq   402a60 <_init+0x28>

0000000000402b40 <_ZNKSt7__cxx1112basic_stringIcSt11char_traitsIcESaIcEE7compareEPKc@plt>:
  402b40:	ff 25 3a 35 21 00    	jmpq   *0x21353a(%rip)        # 616080 <_GLOBAL_OFFSET_TABLE_+0x80>
  402b46:	68 0d 00 00 00       	pushq  $0xd
  402b4b:	e9 10 ff ff ff       	jmpq   402a60 <_init+0x28>

0000000000402b50 <_ZNSt7__cxx1112basic_stringIcSt11char_traitsIcESaIcEE13_S_copy_charsEPcS5_S5_@plt>:
  402b50:	ff 25 32 35 21 00    	jmpq   *0x213532(%rip)        # 616088 <_GLOBAL_OFFSET_TABLE_+0x88>
  402b56:	68 0e 00 00 00       	pushq  $0xe
  402b5b:	e9 00 ff ff ff       	jmpq   402a60 <_init+0x28>

0000000000402b60 <nanosleep@plt>:
  402b60:	ff 25 2a 35 21 00    	jmpq   *0x21352a(%rip)        # 616090 <_GLOBAL_OFFSET_TABLE_+0x90>
  402b66:	68 0f 00 00 00       	pushq  $0xf
  402b6b:	e9 f0 fe ff ff       	jmpq   402a60 <_init+0x28>

0000000000402b70 <accept@plt>:
  402b70:	ff 25 22 35 21 00    	jmpq   *0x213522(%rip)        # 616098 <_GLOBAL_OFFSET_TABLE_+0x98>
  402b76:	68 10 00 00 00       	pushq  $0x10
  402b7b:	e9 e0 fe ff ff       	jmpq   402a60 <_init+0x28>

0000000000402b80 <recv@plt>:
  402b80:	ff 25 1a 35 21 00    	jmpq   *0x21351a(%rip)        # 6160a0 <_GLOBAL_OFFSET_TABLE_+0xa0>
  402b86:	68 11 00 00 00       	pushq  $0x11
  402b8b:	e9 d0 fe ff ff       	jmpq   402a60 <_init+0x28>

0000000000402b90 <strerror@plt>:
  402b90:	ff 25 12 35 21 00    	jmpq   *0x213512(%rip)        # 6160a8 <_GLOBAL_OFFSET_TABLE_+0xa8>
  402b96:	68 12 00 00 00       	pushq  $0x12
  402b9b:	e9 c0 fe ff ff       	jmpq   402a60 <_init+0x28>

0000000000402ba0 <_ZSt17__throw_bad_allocv@plt>:
  402ba0:	ff 25 0a 35 21 00    	jmpq   *0x21350a(%rip)        # 6160b0 <_GLOBAL_OFFSET_TABLE_+0xb0>
  402ba6:	68 13 00 00 00       	pushq  $0x13
  402bab:	e9 b0 fe ff ff       	jmpq   402a60 <_init+0x28>

0000000000402bb0 <_ZSt25__throw_bad_function_callv@plt>:
  402bb0:	ff 25 02 35 21 00    	jmpq   *0x213502(%rip)        # 6160b8 <_GLOBAL_OFFSET_TABLE_+0xb8>
  402bb6:	68 14 00 00 00       	pushq  $0x14
  402bbb:	e9 a0 fe ff ff       	jmpq   402a60 <_init+0x28>

0000000000402bc0 <__cxa_begin_catch@plt>:
  402bc0:	ff 25 fa 34 21 00    	jmpq   *0x2134fa(%rip)        # 6160c0 <_GLOBAL_OFFSET_TABLE_+0xc0>
  402bc6:	68 15 00 00 00       	pushq  $0x15
  402bcb:	e9 90 fe ff ff       	jmpq   402a60 <_init+0x28>

0000000000402bd0 <_ZNKSt7__cxx1112basic_stringIcSt11char_traitsIcESaIcEE5c_strEv@plt>:
  402bd0:	ff 25 f2 34 21 00    	jmpq   *0x2134f2(%rip)        # 6160c8 <_GLOBAL_OFFSET_TABLE_+0xc8>
  402bd6:	68 16 00 00 00       	pushq  $0x16
  402bdb:	e9 80 fe ff ff       	jmpq   402a60 <_init+0x28>

0000000000402be0 <_ZNSt13runtime_errorC1ERKS_@plt>:
  402be0:	ff 25 ea 34 21 00    	jmpq   *0x2134ea(%rip)        # 6160d0 <_GLOBAL_OFFSET_TABLE_+0xd0>
  402be6:	68 17 00 00 00       	pushq  $0x17
  402beb:	e9 70 fe ff ff       	jmpq   402a60 <_init+0x28>

0000000000402bf0 <_ZNSt7__cxx1112basic_stringIcSt11char_traitsIcESaIcEEC1ERKS4_@plt>:
  402bf0:	ff 25 e2 34 21 00    	jmpq   *0x2134e2(%rip)        # 6160d8 <_GLOBAL_OFFSET_TABLE_+0xd8>
  402bf6:	68 18 00 00 00       	pushq  $0x18
  402bfb:	e9 60 fe ff ff       	jmpq   402a60 <_init+0x28>

0000000000402c00 <__cxa_allocate_exception@plt>:
  402c00:	ff 25 da 34 21 00    	jmpq   *0x2134da(%rip)        # 6160e0 <_GLOBAL_OFFSET_TABLE_+0xe0>
  402c06:	68 19 00 00 00       	pushq  $0x19
  402c0b:	e9 50 fe ff ff       	jmpq   402a60 <_init+0x28>

0000000000402c10 <send@plt>:
  402c10:	ff 25 d2 34 21 00    	jmpq   *0x2134d2(%rip)        # 6160e8 <_GLOBAL_OFFSET_TABLE_+0xe8>
  402c16:	68 1a 00 00 00       	pushq  $0x1a
  402c1b:	e9 40 fe ff ff       	jmpq   402a60 <_init+0x28>

0000000000402c20 <_ZSt20__throw_length_errorPKc@plt>:
  402c20:	ff 25 ca 34 21 00    	jmpq   *0x2134ca(%rip)        # 6160f0 <_GLOBAL_OFFSET_TABLE_+0xf0>
  402c26:	68 1b 00 00 00       	pushq  $0x1b
  402c2b:	e9 30 fe ff ff       	jmpq   402a60 <_init+0x28>

0000000000402c30 <memset@plt>:
  402c30:	ff 25 c2 34 21 00    	jmpq   *0x2134c2(%rip)        # 6160f8 <_GLOBAL_OFFSET_TABLE_+0xf8>
  402c36:	68 1c 00 00 00       	pushq  $0x1c
  402c3b:	e9 20 fe ff ff       	jmpq   402a60 <_init+0x28>

0000000000402c40 <pthread_create@plt>:
  402c40:	ff 25 ba 34 21 00    	jmpq   *0x2134ba(%rip)        # 616100 <_GLOBAL_OFFSET_TABLE_+0x100>
  402c46:	68 1d 00 00 00       	pushq  $0x1d
  402c4b:	e9 10 fe ff ff       	jmpq   402a60 <_init+0x28>

0000000000402c50 <_ZNSt7__cxx1112basic_stringIcSt11char_traitsIcESaIcEEC1EOS4_@plt>:
  402c50:	ff 25 b2 34 21 00    	jmpq   *0x2134b2(%rip)        # 616108 <_GLOBAL_OFFSET_TABLE_+0x108>
  402c56:	68 1e 00 00 00       	pushq  $0x1e
  402c5b:	e9 00 fe ff ff       	jmpq   402a60 <_init+0x28>

0000000000402c60 <_ZNSt7__cxx1112basic_stringIcSt11char_traitsIcESaIcEED1Ev@plt>:
  402c60:	ff 25 aa 34 21 00    	jmpq   *0x2134aa(%rip)        # 616110 <_GLOBAL_OFFSET_TABLE_+0x110>
  402c66:	68 1f 00 00 00       	pushq  $0x1f
  402c6b:	e9 f0 fd ff ff       	jmpq   402a60 <_init+0x28>

0000000000402c70 <vsnprintf@plt>:
  402c70:	ff 25 a2 34 21 00    	jmpq   *0x2134a2(%rip)        # 616118 <_GLOBAL_OFFSET_TABLE_+0x118>
  402c76:	68 20 00 00 00       	pushq  $0x20
  402c7b:	e9 e0 fd ff ff       	jmpq   402a60 <_init+0x28>

0000000000402c80 <_ZSt20__throw_system_errori@plt>:
  402c80:	ff 25 9a 34 21 00    	jmpq   *0x21349a(%rip)        # 616120 <_GLOBAL_OFFSET_TABLE_+0x120>
  402c86:	68 21 00 00 00       	pushq  $0x21
  402c8b:	e9 d0 fd ff ff       	jmpq   402a60 <_init+0x28>

0000000000402c90 <_ZNSt7__cxx1112basic_stringIcSt11char_traitsIcESaIcEE13_M_set_lengthEm@plt>:
  402c90:	ff 25 92 34 21 00    	jmpq   *0x213492(%rip)        # 616128 <_GLOBAL_OFFSET_TABLE_+0x128>
  402c96:	68 22 00 00 00       	pushq  $0x22
  402c9b:	e9 c0 fd ff ff       	jmpq   402a60 <_init+0x28>

0000000000402ca0 <_ZSt18_Rb_tree_incrementPSt18_Rb_tree_node_base@plt>:
  402ca0:	ff 25 8a 34 21 00    	jmpq   *0x21348a(%rip)        # 616130 <_GLOBAL_OFFSET_TABLE_+0x130>
  402ca6:	68 23 00 00 00       	pushq  $0x23
  402cab:	e9 b0 fd ff ff       	jmpq   402a60 <_init+0x28>

0000000000402cb0 <_ZNKSt7__cxx1112basic_stringIcSt11char_traitsIcESaIcEE4sizeEv@plt>:
  402cb0:	ff 25 82 34 21 00    	jmpq   *0x213482(%rip)        # 616138 <_GLOBAL_OFFSET_TABLE_+0x138>
  402cb6:	68 24 00 00 00       	pushq  $0x24
  402cbb:	e9 a0 fd ff ff       	jmpq   402a60 <_init+0x28>

0000000000402cc0 <_ZSt19__throw_logic_errorPKc@plt>:
  402cc0:	ff 25 7a 34 21 00    	jmpq   *0x21347a(%rip)        # 616140 <_GLOBAL_OFFSET_TABLE_+0x140>
  402cc6:	68 25 00 00 00       	pushq  $0x25
  402ccb:	e9 90 fd ff ff       	jmpq   402a60 <_init+0x28>

0000000000402cd0 <sscanf@plt>:
  402cd0:	ff 25 72 34 21 00    	jmpq   *0x213472(%rip)        # 616148 <_GLOBAL_OFFSET_TABLE_+0x148>
  402cd6:	68 26 00 00 00       	pushq  $0x26
  402cdb:	e9 80 fd ff ff       	jmpq   402a60 <_init+0x28>

0000000000402ce0 <__cxa_free_exception@plt>:
  402ce0:	ff 25 6a 34 21 00    	jmpq   *0x21346a(%rip)        # 616150 <_GLOBAL_OFFSET_TABLE_+0x150>
  402ce6:	68 27 00 00 00       	pushq  $0x27
  402ceb:	e9 70 fd ff ff       	jmpq   402a60 <_init+0x28>

0000000000402cf0 <dlclose@plt>:
  402cf0:	ff 25 62 34 21 00    	jmpq   *0x213462(%rip)        # 616158 <_GLOBAL_OFFSET_TABLE_+0x158>
  402cf6:	68 28 00 00 00       	pushq  $0x28
  402cfb:	e9 60 fd ff ff       	jmpq   402a60 <_init+0x28>

0000000000402d00 <_ZNSt7__cxx1118basic_stringstreamIcSt11char_traitsIcESaIcEED1Ev@plt>:
  402d00:	ff 25 5a 34 21 00    	jmpq   *0x21345a(%rip)        # 616160 <_GLOBAL_OFFSET_TABLE_+0x160>
  402d06:	68 29 00 00 00       	pushq  $0x29
  402d0b:	e9 50 fd ff ff       	jmpq   402a60 <_init+0x28>

0000000000402d10 <pthread_mutex_unlock@plt>:
  402d10:	ff 25 52 34 21 00    	jmpq   *0x213452(%rip)        # 616168 <_GLOBAL_OFFSET_TABLE_+0x168>
  402d16:	68 2a 00 00 00       	pushq  $0x2a
  402d1b:	e9 40 fd ff ff       	jmpq   402a60 <_init+0x28>

0000000000402d20 <_ZNSt7__cxx1118basic_stringstreamIcSt11char_traitsIcESaIcEEC1ESt13_Ios_Openmode@plt>:
  402d20:	ff 25 4a 34 21 00    	jmpq   *0x21344a(%rip)        # 616170 <_GLOBAL_OFFSET_TABLE_+0x170>
  402d26:	68 2b 00 00 00       	pushq  $0x2b
  402d2b:	e9 30 fd ff ff       	jmpq   402a60 <_init+0x28>

0000000000402d30 <_ZNSt7__cxx1112basic_stringIcSt11char_traitsIcESaIcEE13_M_local_dataEv@plt>:
  402d30:	ff 25 42 34 21 00    	jmpq   *0x213442(%rip)        # 616178 <_GLOBAL_OFFSET_TABLE_+0x178>
  402d36:	68 2c 00 00 00       	pushq  $0x2c
  402d3b:	e9 20 fd ff ff       	jmpq   402a60 <_init+0x28>

0000000000402d40 <connect@plt>:
  402d40:	ff 25 3a 34 21 00    	jmpq   *0x21343a(%rip)        # 616180 <_GLOBAL_OFFSET_TABLE_+0x180>
  402d46:	68 2d 00 00 00       	pushq  $0x2d
  402d4b:	e9 10 fd ff ff       	jmpq   402a60 <_init+0x28>

0000000000402d50 <_ZNSt7__cxx1112basic_stringIcSt11char_traitsIcESaIcEE7_M_dataEPc@plt>:
  402d50:	ff 25 32 34 21 00    	jmpq   *0x213432(%rip)        # 616188 <_GLOBAL_OFFSET_TABLE_+0x188>
  402d56:	68 2e 00 00 00       	pushq  $0x2e
  402d5b:	e9 00 fd ff ff       	jmpq   402a60 <_init+0x28>

0000000000402d60 <_ZStlsIcSt11char_traitsIcESaIcEERSt13basic_ostreamIT_T0_ES7_RKNSt7__cxx1112basic_stringIS4_S5_T1_EE@plt>:
  402d60:	ff 25 2a 34 21 00    	jmpq   *0x21342a(%rip)        # 616190 <_GLOBAL_OFFSET_TABLE_+0x190>
  402d66:	68 2f 00 00 00       	pushq  $0x2f
  402d6b:	e9 f0 fc ff ff       	jmpq   402a60 <_init+0x28>

0000000000402d70 <pthread_self@plt>:
  402d70:	ff 25 22 34 21 00    	jmpq   *0x213422(%rip)        # 616198 <_GLOBAL_OFFSET_TABLE_+0x198>
  402d76:	68 30 00 00 00       	pushq  $0x30
  402d7b:	e9 e0 fc ff ff       	jmpq   402a60 <_init+0x28>

0000000000402d80 <_ZNSt6thread15_M_start_threadESt10shared_ptrINS_10_Impl_baseEEPFvvE@plt>:
  402d80:	ff 25 1a 34 21 00    	jmpq   *0x21341a(%rip)        # 6161a0 <_GLOBAL_OFFSET_TABLE_+0x1a0>
  402d86:	68 31 00 00 00       	pushq  $0x31
  402d8b:	e9 d0 fc ff ff       	jmpq   402a60 <_init+0x28>

0000000000402d90 <_ZdlPv@plt>:
  402d90:	ff 25 12 34 21 00    	jmpq   *0x213412(%rip)        # 6161a8 <_GLOBAL_OFFSET_TABLE_+0x1a8>
  402d96:	68 32 00 00 00       	pushq  $0x32
  402d9b:	e9 c0 fc ff ff       	jmpq   402a60 <_init+0x28>

0000000000402da0 <_ZNKSt7__cxx1118basic_stringstreamIcSt11char_traitsIcESaIcEE3strEv@plt>:
  402da0:	ff 25 0a 34 21 00    	jmpq   *0x21340a(%rip)        # 6161b0 <_GLOBAL_OFFSET_TABLE_+0x1b0>
  402da6:	68 33 00 00 00       	pushq  $0x33
  402dab:	e9 b0 fc ff ff       	jmpq   402a60 <_init+0x28>

0000000000402db0 <_Znwm@plt>:
  402db0:	ff 25 02 34 21 00    	jmpq   *0x213402(%rip)        # 6161b8 <_GLOBAL_OFFSET_TABLE_+0x1b8>
  402db6:	68 34 00 00 00       	pushq  $0x34
  402dbb:	e9 a0 fc ff ff       	jmpq   402a60 <_init+0x28>

0000000000402dc0 <inet_addr@plt>:
  402dc0:	ff 25 fa 33 21 00    	jmpq   *0x2133fa(%rip)        # 6161c0 <_GLOBAL_OFFSET_TABLE_+0x1c0>
  402dc6:	68 35 00 00 00       	pushq  $0x35
  402dcb:	e9 90 fc ff ff       	jmpq   402a60 <_init+0x28>

0000000000402dd0 <_ZNSt13runtime_errorD1Ev@plt>:
  402dd0:	ff 25 f2 33 21 00    	jmpq   *0x2133f2(%rip)        # 6161c8 <_GLOBAL_OFFSET_TABLE_+0x1c8>
  402dd6:	68 36 00 00 00       	pushq  $0x36
  402ddb:	e9 80 fc ff ff       	jmpq   402a60 <_init+0x28>

0000000000402de0 <_ZNKSt7__cxx1112basic_stringIcSt11char_traitsIcESaIcEE6substrEmm@plt>:
  402de0:	ff 25 ea 33 21 00    	jmpq   *0x2133ea(%rip)        # 6161d0 <_GLOBAL_OFFSET_TABLE_+0x1d0>
  402de6:	68 37 00 00 00       	pushq  $0x37
  402deb:	e9 70 fc ff ff       	jmpq   402a60 <_init+0x28>

0000000000402df0 <_ZSt18_Rb_tree_decrementPSt18_Rb_tree_node_base@plt>:
  402df0:	ff 25 e2 33 21 00    	jmpq   *0x2133e2(%rip)        # 6161d8 <_GLOBAL_OFFSET_TABLE_+0x1d8>
  402df6:	68 38 00 00 00       	pushq  $0x38
  402dfb:	e9 60 fc ff ff       	jmpq   402a60 <_init+0x28>

0000000000402e00 <_ZNSt7__cxx1112basic_stringIcSt11char_traitsIcESaIcEE12_Alloc_hiderC1EPcRKS3_@plt>:
  402e00:	ff 25 da 33 21 00    	jmpq   *0x2133da(%rip)        # 6161e0 <_GLOBAL_OFFSET_TABLE_+0x1e0>
  402e06:	68 39 00 00 00       	pushq  $0x39
  402e0b:	e9 50 fc ff ff       	jmpq   402a60 <_init+0x28>

0000000000402e10 <_ZNSaIcED1Ev@plt>:
  402e10:	ff 25 d2 33 21 00    	jmpq   *0x2133d2(%rip)        # 6161e8 <_GLOBAL_OFFSET_TABLE_+0x1e8>
  402e16:	68 3a 00 00 00       	pushq  $0x3a
  402e1b:	e9 40 fc ff ff       	jmpq   402a60 <_init+0x28>

0000000000402e20 <_ZNSt14basic_ofstreamIcSt11char_traitsIcEEC1EPKcSt13_Ios_Openmode@plt>:
  402e20:	ff 25 ca 33 21 00    	jmpq   *0x2133ca(%rip)        # 6161f0 <_GLOBAL_OFFSET_TABLE_+0x1f0>
  402e26:	68 3b 00 00 00       	pushq  $0x3b
  402e2b:	e9 30 fc ff ff       	jmpq   402a60 <_init+0x28>

0000000000402e30 <_ZNKSt7__cxx1112basic_stringIcSt11char_traitsIcESaIcEE7_M_dataEv@plt>:
  402e30:	ff 25 c2 33 21 00    	jmpq   *0x2133c2(%rip)        # 6161f8 <_GLOBAL_OFFSET_TABLE_+0x1f8>
  402e36:	68 3c 00 00 00       	pushq  $0x3c
  402e3b:	e9 20 fc ff ff       	jmpq   402a60 <_init+0x28>

0000000000402e40 <listen@plt>:
  402e40:	ff 25 ba 33 21 00    	jmpq   *0x2133ba(%rip)        # 616200 <_GLOBAL_OFFSET_TABLE_+0x200>
  402e46:	68 3d 00 00 00       	pushq  $0x3d
  402e4b:	e9 10 fc ff ff       	jmpq   402a60 <_init+0x28>

0000000000402e50 <_ZNSt7__cxx1112basic_stringIcSt11char_traitsIcESaIcEEaSEOS4_@plt>:
  402e50:	ff 25 b2 33 21 00    	jmpq   *0x2133b2(%rip)        # 616208 <_GLOBAL_OFFSET_TABLE_+0x208>
  402e56:	68 3e 00 00 00       	pushq  $0x3e
  402e5b:	e9 00 fc ff ff       	jmpq   402a60 <_init+0x28>

0000000000402e60 <_ZNSt7__cxx1112basic_stringIcSt11char_traitsIcESaIcEE10_M_disposeEv@plt>:
  402e60:	ff 25 aa 33 21 00    	jmpq   *0x2133aa(%rip)        # 616210 <_GLOBAL_OFFSET_TABLE_+0x210>
  402e66:	68 3f 00 00 00       	pushq  $0x3f
  402e6b:	e9 f0 fb ff ff       	jmpq   402a60 <_init+0x28>

0000000000402e70 <__cxa_get_exception_ptr@plt>:
  402e70:	ff 25 a2 33 21 00    	jmpq   *0x2133a2(%rip)        # 616218 <_GLOBAL_OFFSET_TABLE_+0x218>
  402e76:	68 40 00 00 00       	pushq  $0x40
  402e7b:	e9 e0 fb ff ff       	jmpq   402a60 <_init+0x28>

0000000000402e80 <_ZNSi4readEPcl@plt>:
  402e80:	ff 25 9a 33 21 00    	jmpq   *0x21339a(%rip)        # 616220 <_GLOBAL_OFFSET_TABLE_+0x220>
  402e86:	68 41 00 00 00       	pushq  $0x41
  402e8b:	e9 d0 fb ff ff       	jmpq   402a60 <_init+0x28>

0000000000402e90 <_ZNKSt7__cxx1112basic_stringIcSt11char_traitsIcESaIcEE4findEcm@plt>:
  402e90:	ff 25 92 33 21 00    	jmpq   *0x213392(%rip)        # 616228 <_GLOBAL_OFFSET_TABLE_+0x228>
  402e96:	68 42 00 00 00       	pushq  $0x42
  402e9b:	e9 c0 fb ff ff       	jmpq   402a60 <_init+0x28>

0000000000402ea0 <_ZNSo5writeEPKcl@plt>:
  402ea0:	ff 25 8a 33 21 00    	jmpq   *0x21338a(%rip)        # 616230 <_GLOBAL_OFFSET_TABLE_+0x230>
  402ea6:	68 43 00 00 00       	pushq  $0x43
  402eab:	e9 b0 fb ff ff       	jmpq   402a60 <_init+0x28>

0000000000402eb0 <_ZNSi5seekgElSt12_Ios_Seekdir@plt>:
  402eb0:	ff 25 82 33 21 00    	jmpq   *0x213382(%rip)        # 616238 <_GLOBAL_OFFSET_TABLE_+0x238>
  402eb6:	68 44 00 00 00       	pushq  $0x44
  402ebb:	e9 a0 fb ff ff       	jmpq   402a60 <_init+0x28>

0000000000402ec0 <_ZNSt7__cxx1112basic_stringIcSt11char_traitsIcESaIcEEaSEPKc@plt>:
  402ec0:	ff 25 7a 33 21 00    	jmpq   *0x21337a(%rip)        # 616240 <_GLOBAL_OFFSET_TABLE_+0x240>
  402ec6:	68 45 00 00 00       	pushq  $0x45
  402ecb:	e9 90 fb ff ff       	jmpq   402a60 <_init+0x28>

0000000000402ed0 <_ZNSt7__cxx1112basic_stringIcSt11char_traitsIcESaIcEEC1EPKcRKS3_@plt>:
  402ed0:	ff 25 72 33 21 00    	jmpq   *0x213372(%rip)        # 616248 <_GLOBAL_OFFSET_TABLE_+0x248>
  402ed6:	68 46 00 00 00       	pushq  $0x46
  402edb:	e9 80 fb ff ff       	jmpq   402a60 <_init+0x28>

0000000000402ee0 <_ZNSt7__cxx1112basic_stringIcSt11char_traitsIcESaIcEEC1Ev@plt>:
  402ee0:	ff 25 6a 33 21 00    	jmpq   *0x21336a(%rip)        # 616250 <_GLOBAL_OFFSET_TABLE_+0x250>
  402ee6:	68 47 00 00 00       	pushq  $0x47
  402eeb:	e9 70 fb ff ff       	jmpq   402a60 <_init+0x28>

0000000000402ef0 <strcmp@plt>:
  402ef0:	ff 25 62 33 21 00    	jmpq   *0x213362(%rip)        # 616258 <_GLOBAL_OFFSET_TABLE_+0x258>
  402ef6:	68 48 00 00 00       	pushq  $0x48
  402efb:	e9 60 fb ff ff       	jmpq   402a60 <_init+0x28>

0000000000402f00 <_ZNSt14basic_ofstreamIcSt11char_traitsIcEE5closeEv@plt>:
  402f00:	ff 25 5a 33 21 00    	jmpq   *0x21335a(%rip)        # 616260 <_GLOBAL_OFFSET_TABLE_+0x260>
  402f06:	68 49 00 00 00       	pushq  $0x49
  402f0b:	e9 50 fb ff ff       	jmpq   402a60 <_init+0x28>

0000000000402f10 <__cxa_rethrow@plt>:
  402f10:	ff 25 52 33 21 00    	jmpq   *0x213352(%rip)        # 616268 <_GLOBAL_OFFSET_TABLE_+0x268>
  402f16:	68 4a 00 00 00       	pushq  $0x4a
  402f1b:	e9 40 fb ff ff       	jmpq   402a60 <_init+0x28>

0000000000402f20 <dlopen@plt>:
  402f20:	ff 25 4a 33 21 00    	jmpq   *0x21334a(%rip)        # 616270 <_GLOBAL_OFFSET_TABLE_+0x270>
  402f26:	68 4b 00 00 00       	pushq  $0x4b
  402f2b:	e9 30 fb ff ff       	jmpq   402a60 <_init+0x28>

0000000000402f30 <pthread_mutex_lock@plt>:
  402f30:	ff 25 42 33 21 00    	jmpq   *0x213342(%rip)        # 616278 <_GLOBAL_OFFSET_TABLE_+0x278>
  402f36:	68 4c 00 00 00       	pushq  $0x4c
  402f3b:	e9 20 fb ff ff       	jmpq   402a60 <_init+0x28>

0000000000402f40 <_ZNSt14basic_ofstreamIcSt11char_traitsIcEED1Ev@plt>:
  402f40:	ff 25 3a 33 21 00    	jmpq   *0x21333a(%rip)        # 616280 <_GLOBAL_OFFSET_TABLE_+0x280>
  402f46:	68 4d 00 00 00       	pushq  $0x4d
  402f4b:	e9 10 fb ff ff       	jmpq   402a60 <_init+0x28>

0000000000402f50 <_ZNKSt7__cxx1112basic_stringIcSt11char_traitsIcESaIcEE6lengthEv@plt>:
  402f50:	ff 25 32 33 21 00    	jmpq   *0x213332(%rip)        # 616288 <_GLOBAL_OFFSET_TABLE_+0x288>
  402f56:	68 4e 00 00 00       	pushq  $0x4e
  402f5b:	e9 00 fb ff ff       	jmpq   402a60 <_init+0x28>

0000000000402f60 <atoi@plt>:
  402f60:	ff 25 2a 33 21 00    	jmpq   *0x21332a(%rip)        # 616290 <_GLOBAL_OFFSET_TABLE_+0x290>
  402f66:	68 4f 00 00 00       	pushq  $0x4f
  402f6b:	e9 f0 fa ff ff       	jmpq   402a60 <_init+0x28>

0000000000402f70 <_ZNSt13runtime_errorC1ERKNSt7__cxx1112basic_stringIcSt11char_traitsIcESaIcEEE@plt>:
  402f70:	ff 25 22 33 21 00    	jmpq   *0x213322(%rip)        # 616298 <_GLOBAL_OFFSET_TABLE_+0x298>
  402f76:	68 50 00 00 00       	pushq  $0x50
  402f7b:	e9 e0 fa ff ff       	jmpq   402a60 <_init+0x28>

0000000000402f80 <memmove@plt>:
  402f80:	ff 25 1a 33 21 00    	jmpq   *0x21331a(%rip)        # 6162a0 <_GLOBAL_OFFSET_TABLE_+0x2a0>
  402f86:	68 51 00 00 00       	pushq  $0x51
  402f8b:	e9 d0 fa ff ff       	jmpq   402a60 <_init+0x28>

0000000000402f90 <__cxa_end_catch@plt>:
  402f90:	ff 25 12 33 21 00    	jmpq   *0x213312(%rip)        # 6162a8 <_GLOBAL_OFFSET_TABLE_+0x2a8>
  402f96:	68 52 00 00 00       	pushq  $0x52
  402f9b:	e9 c0 fa ff ff       	jmpq   402a60 <_init+0x28>

0000000000402fa0 <__gxx_personality_v0@plt>:
  402fa0:	ff 25 0a 33 21 00    	jmpq   *0x21330a(%rip)        # 6162b0 <_GLOBAL_OFFSET_TABLE_+0x2b0>
  402fa6:	68 53 00 00 00       	pushq  $0x53
  402fab:	e9 b0 fa ff ff       	jmpq   402a60 <_init+0x28>

0000000000402fb0 <__pthread_key_create@plt>:
  402fb0:	ff 25 02 33 21 00    	jmpq   *0x213302(%rip)        # 6162b8 <_GLOBAL_OFFSET_TABLE_+0x2b8>
  402fb6:	68 54 00 00 00       	pushq  $0x54
  402fbb:	e9 a0 fa ff ff       	jmpq   402a60 <_init+0x28>

0000000000402fc0 <_ZNKSt7__cxx1112basic_stringIcSt11char_traitsIcESaIcEE5emptyEv@plt>:
  402fc0:	ff 25 fa 32 21 00    	jmpq   *0x2132fa(%rip)        # 6162c0 <_GLOBAL_OFFSET_TABLE_+0x2c0>
  402fc6:	68 55 00 00 00       	pushq  $0x55
  402fcb:	e9 90 fa ff ff       	jmpq   402a60 <_init+0x28>

0000000000402fd0 <_ZNSt9basic_iosIcSt11char_traitsIcEE5clearESt12_Ios_Iostate@plt>:
  402fd0:	ff 25 f2 32 21 00    	jmpq   *0x2132f2(%rip)        # 6162c8 <_GLOBAL_OFFSET_TABLE_+0x2c8>
  402fd6:	68 56 00 00 00       	pushq  $0x56
  402fdb:	e9 80 fa ff ff       	jmpq   402a60 <_init+0x28>

0000000000402fe0 <_ZNSt6thread4joinEv@plt>:
  402fe0:	ff 25 ea 32 21 00    	jmpq   *0x2132ea(%rip)        # 6162d0 <_GLOBAL_OFFSET_TABLE_+0x2d0>
  402fe6:	68 57 00 00 00       	pushq  $0x57
  402feb:	e9 70 fa ff ff       	jmpq   402a60 <_init+0x28>

0000000000402ff0 <__cxa_throw@plt>:
  402ff0:	ff 25 e2 32 21 00    	jmpq   *0x2132e2(%rip)        # 6162d8 <_GLOBAL_OFFSET_TABLE_+0x2d8>
  402ff6:	68 58 00 00 00       	pushq  $0x58
  402ffb:	e9 60 fa ff ff       	jmpq   402a60 <_init+0x28>

0000000000403000 <_ZNSi5tellgEv@plt>:
  403000:	ff 25 da 32 21 00    	jmpq   *0x2132da(%rip)        # 6162e0 <_GLOBAL_OFFSET_TABLE_+0x2e0>
  403006:	68 59 00 00 00       	pushq  $0x59
  40300b:	e9 50 fa ff ff       	jmpq   402a60 <_init+0x28>

0000000000403010 <pthread_equal@plt>:
  403010:	ff 25 d2 32 21 00    	jmpq   *0x2132d2(%rip)        # 6162e8 <_GLOBAL_OFFSET_TABLE_+0x2e8>
  403016:	68 5a 00 00 00       	pushq  $0x5a
  40301b:	e9 40 fa ff ff       	jmpq   402a60 <_init+0x28>

0000000000403020 <_Unwind_Resume@plt>:
  403020:	ff 25 ca 32 21 00    	jmpq   *0x2132ca(%rip)        # 6162f0 <_GLOBAL_OFFSET_TABLE_+0x2f0>
  403026:	68 5b 00 00 00       	pushq  $0x5b
  40302b:	e9 30 fa ff ff       	jmpq   402a60 <_init+0x28>

0000000000403030 <_ZNSaIcEC1Ev@plt>:
  403030:	ff 25 c2 32 21 00    	jmpq   *0x2132c2(%rip)        # 6162f8 <_GLOBAL_OFFSET_TABLE_+0x2f8>
  403036:	68 5c 00 00 00       	pushq  $0x5c
  40303b:	e9 20 fa ff ff       	jmpq   402a60 <_init+0x28>

0000000000403040 <setsockopt@plt>:
  403040:	ff 25 ba 32 21 00    	jmpq   *0x2132ba(%rip)        # 616300 <_GLOBAL_OFFSET_TABLE_+0x300>
  403046:	68 5d 00 00 00       	pushq  $0x5d
  40304b:	e9 10 fa ff ff       	jmpq   402a60 <_init+0x28>

0000000000403050 <_ZNSt7__cxx1112basic_stringIcSt11char_traitsIcESaIcEE9_M_createERmm@plt>:
  403050:	ff 25 b2 32 21 00    	jmpq   *0x2132b2(%rip)        # 616308 <_GLOBAL_OFFSET_TABLE_+0x308>
  403056:	68 5e 00 00 00       	pushq  $0x5e
  40305b:	e9 00 fa ff ff       	jmpq   402a60 <_init+0x28>

0000000000403060 <_ZNSt14basic_ifstreamIcSt11char_traitsIcEEC1EPKcSt13_Ios_Openmode@plt>:
  403060:	ff 25 aa 32 21 00    	jmpq   *0x2132aa(%rip)        # 616310 <_GLOBAL_OFFSET_TABLE_+0x310>
  403066:	68 5f 00 00 00       	pushq  $0x5f
  40306b:	e9 f0 f9 ff ff       	jmpq   402a60 <_init+0x28>

0000000000403070 <_ZNKSt9basic_iosIcSt11char_traitsIcEE3eofEv@plt>:
  403070:	ff 25 a2 32 21 00    	jmpq   *0x2132a2(%rip)        # 616318 <_GLOBAL_OFFSET_TABLE_+0x318>
  403076:	68 60 00 00 00       	pushq  $0x60
  40307b:	e9 e0 f9 ff ff       	jmpq   402a60 <_init+0x28>

0000000000403080 <dlsym@plt>:
  403080:	ff 25 9a 32 21 00    	jmpq   *0x21329a(%rip)        # 616320 <_GLOBAL_OFFSET_TABLE_+0x320>
  403086:	68 61 00 00 00       	pushq  $0x61
  40308b:	e9 d0 f9 ff ff       	jmpq   402a60 <_init+0x28>

0000000000403090 <__libc_start_main@plt>:
  403090:	ff 25 92 32 21 00    	jmpq   *0x213292(%rip)        # 616328 <_GLOBAL_OFFSET_TABLE_+0x328>
  403096:	68 62 00 00 00       	pushq  $0x62
  40309b:	e9 c0 f9 ff ff       	jmpq   402a60 <_init+0x28>

00000000004030a0 <__cxa_pure_virtual@plt>:
  4030a0:	ff 25 8a 32 21 00    	jmpq   *0x21328a(%rip)        # 616330 <_GLOBAL_OFFSET_TABLE_+0x330>
  4030a6:	68 63 00 00 00       	pushq  $0x63
  4030ab:	e9 b0 f9 ff ff       	jmpq   402a60 <_init+0x28>

00000000004030b0 <_ZNSt7__cxx1112basic_stringIcSt11char_traitsIcESaIcEE6appendEPKc@plt>:
  4030b0:	ff 25 82 32 21 00    	jmpq   *0x213282(%rip)        # 616338 <_GLOBAL_OFFSET_TABLE_+0x338>
  4030b6:	68 64 00 00 00       	pushq  $0x64
  4030bb:	e9 a0 f9 ff ff       	jmpq   402a60 <_init+0x28>

00000000004030c0 <close@plt>:
  4030c0:	ff 25 7a 32 21 00    	jmpq   *0x21327a(%rip)        # 616340 <_GLOBAL_OFFSET_TABLE_+0x340>
  4030c6:	68 65 00 00 00       	pushq  $0x65
  4030cb:	e9 90 f9 ff ff       	jmpq   402a60 <_init+0x28>

00000000004030d0 <_ZNKSt7__cxx1112basic_stringIcSt11char_traitsIcESaIcEE5rfindEcm@plt>:
  4030d0:	ff 25 72 32 21 00    	jmpq   *0x213272(%rip)        # 616348 <_GLOBAL_OFFSET_TABLE_+0x348>
  4030d6:	68 66 00 00 00       	pushq  $0x66
  4030db:	e9 80 f9 ff ff       	jmpq   402a60 <_init+0x28>

00000000004030e0 <_ZNSt7__cxx1112basic_stringIcSt11char_traitsIcESaIcEE11_M_capacityEm@plt>:
  4030e0:	ff 25 6a 32 21 00    	jmpq   *0x21326a(%rip)        # 616350 <_GLOBAL_OFFSET_TABLE_+0x350>
  4030e6:	68 67 00 00 00       	pushq  $0x67
  4030eb:	e9 70 f9 ff ff       	jmpq   402a60 <_init+0x28>

Disassembly of section .plt.got:

00000000004030f0 <.plt.got>:
  4030f0:	ff 25 02 2f 21 00    	jmpq   *0x212f02(%rip)        # 615ff8 <_DYNAMIC+0x220>
  4030f6:	66 90                	xchg   %ax,%ax

Disassembly of section .text:

0000000000403100 <_start>:
  403100:	31 ed                	xor    %ebp,%ebp
  403102:	49 89 d1             	mov    %rdx,%r9
  403105:	5e                   	pop    %rsi
  403106:	48 89 e2             	mov    %rsp,%rdx
  403109:	48 83 e4 f0          	and    $0xfffffffffffffff0,%rsp
  40310d:	50                   	push   %rax
  40310e:	54                   	push   %rsp
  40310f:	49 c7 c0 c0 ec 40 00 	mov    $0x40ecc0,%r8
  403116:	48 c7 c1 50 ec 40 00 	mov    $0x40ec50,%rcx
  40311d:	48 c7 c7 f0 ce 40 00 	mov    $0x40cef0,%rdi
  403124:	e8 67 ff ff ff       	callq  403090 <__libc_start_main@plt>
  403129:	f4                   	hlt    
  40312a:	66 0f 1f 44 00 00    	nopw   0x0(%rax,%rax,1)

0000000000403130 <deregister_tm_clones>:
  403130:	b8 6f 63 61 00       	mov    $0x61636f,%eax
  403135:	55                   	push   %rbp
  403136:	48 2d 68 63 61 00    	sub    $0x616368,%rax
  40313c:	48 83 f8 0e          	cmp    $0xe,%rax
  403140:	48 89 e5             	mov    %rsp,%rbp
  403143:	76 1b                	jbe    403160 <deregister_tm_clones+0x30>
  403145:	b8 00 00 00 00       	mov    $0x0,%eax
  40314a:	48 85 c0             	test   %rax,%rax
  40314d:	74 11                	je     403160 <deregister_tm_clones+0x30>
  40314f:	5d                   	pop    %rbp
  403150:	bf 68 63 61 00       	mov    $0x616368,%edi
  403155:	ff e0                	jmpq   *%rax
  403157:	66 0f 1f 84 00 00 00 	nopw   0x0(%rax,%rax,1)
  40315e:	00 00 
  403160:	5d                   	pop    %rbp
  403161:	c3                   	retq   
  403162:	0f 1f 40 00          	nopl   0x0(%rax)
  403166:	66 2e 0f 1f 84 00 00 	nopw   %cs:0x0(%rax,%rax,1)
  40316d:	00 00 00 

0000000000403170 <register_tm_clones>:
  403170:	be 68 63 61 00       	mov    $0x616368,%esi
  403175:	55                   	push   %rbp
  403176:	48 81 ee 68 63 61 00 	sub    $0x616368,%rsi
  40317d:	48 c1 fe 03          	sar    $0x3,%rsi
  403181:	48 89 e5             	mov    %rsp,%rbp
  403184:	48 89 f0             	mov    %rsi,%rax
  403187:	48 c1 e8 3f          	shr    $0x3f,%rax
  40318b:	48 01 c6             	add    %rax,%rsi
  40318e:	48 d1 fe             	sar    %rsi
  403191:	74 15                	je     4031a8 <register_tm_clones+0x38>
  403193:	b8 00 00 00 00       	mov    $0x0,%eax
  403198:	48 85 c0             	test   %rax,%rax
  40319b:	74 0b                	je     4031a8 <register_tm_clones+0x38>
  40319d:	5d                   	pop    %rbp
  40319e:	bf 68 63 61 00       	mov    $0x616368,%edi
  4031a3:	ff e0                	jmpq   *%rax
  4031a5:	0f 1f 00             	nopl   (%rax)
  4031a8:	5d                   	pop    %rbp
  4031a9:	c3                   	retq   
  4031aa:	66 0f 1f 44 00 00    	nopw   0x0(%rax,%rax,1)

00000000004031b0 <__do_global_dtors_aux>:
  4031b0:	80 3d 81 32 21 00 00 	cmpb   $0x0,0x213281(%rip)        # 616438 <completed.7585>
  4031b7:	75 11                	jne    4031ca <__do_global_dtors_aux+0x1a>
  4031b9:	55                   	push   %rbp
  4031ba:	48 89 e5             	mov    %rsp,%rbp
  4031bd:	e8 6e ff ff ff       	callq  403130 <deregister_tm_clones>
  4031c2:	5d                   	pop    %rbp
  4031c3:	c6 05 6e 32 21 00 01 	movb   $0x1,0x21326e(%rip)        # 616438 <completed.7585>
  4031ca:	f3 c3                	repz retq 
  4031cc:	0f 1f 40 00          	nopl   0x0(%rax)

00000000004031d0 <frame_dummy>:
  4031d0:	bf d0 5d 61 00       	mov    $0x615dd0,%edi
  4031d5:	48 83 3f 00          	cmpq   $0x0,(%rdi)
  4031d9:	75 05                	jne    4031e0 <frame_dummy+0x10>
  4031db:	eb 93                	jmp    403170 <register_tm_clones>
  4031dd:	0f 1f 00             	nopl   (%rax)
  4031e0:	b8 00 00 00 00       	mov    $0x0,%eax
  4031e5:	48 85 c0             	test   %rax,%rax
  4031e8:	74 f1                	je     4031db <frame_dummy+0xb>
  4031ea:	55                   	push   %rbp
  4031eb:	48 89 e5             	mov    %rsp,%rbp
  4031ee:	ff d0                	callq  *%rax
  4031f0:	5d                   	pop    %rbp
  4031f1:	e9 7a ff ff ff       	jmpq   403170 <register_tm_clones>
  4031f6:	66 2e 0f 1f 84 00 00 	nopw   %cs:0x0(%rax,%rax,1)
  4031fd:	00 00 00 

0000000000403200 <_Z8net_initv>:
  403200:	55                   	push   %rbp
  403201:	48 89 e5             	mov    %rsp,%rbp
  403204:	5d                   	pop    %rbp
  403205:	c3                   	retq   
  403206:	66 2e 0f 1f 84 00 00 	nopw   %cs:0x0(%rax,%rax,1)
  40320d:	00 00 00 

0000000000403210 <_Z5errorPKc>:
  403210:	55                   	push   %rbp
  403211:	48 89 e5             	mov    %rsp,%rbp
  403214:	48 81 ec 80 00 00 00 	sub    $0x80,%rsp
  40321b:	48 89 7d f8          	mov    %rdi,-0x8(%rbp)
  40321f:	b8 10 00 00 00       	mov    $0x10,%eax
  403224:	89 c7                	mov    %eax,%edi
  403226:	e8 d5 f9 ff ff       	callq  402c00 <__cxa_allocate_exception@plt>
  40322b:	48 89 c7             	mov    %rax,%rdi
  40322e:	c6 45 a3 01          	movb   $0x1,-0x5d(%rbp)
  403232:	48 8b 75 f8          	mov    -0x8(%rbp),%rsi
  403236:	48 8d 4d b0          	lea    -0x50(%rbp),%rcx
  40323a:	48 89 7d 98          	mov    %rdi,-0x68(%rbp)
  40323e:	48 89 cf             	mov    %rcx,%rdi
  403241:	48 89 4d 90          	mov    %rcx,-0x70(%rbp)
  403245:	48 89 45 88          	mov    %rax,-0x78(%rbp)
  403249:	48 89 75 80          	mov    %rsi,-0x80(%rbp)
  40324d:	e8 de fd ff ff       	callq  403030 <_ZNSaIcEC1Ev@plt>
  403252:	48 8d 7d b8          	lea    -0x48(%rbp),%rdi
  403256:	48 8b 75 80          	mov    -0x80(%rbp),%rsi
  40325a:	48 8b 55 90          	mov    -0x70(%rbp),%rdx
  40325e:	e8 6d fc ff ff       	callq  402ed0 <_ZNSt7__cxx1112basic_stringIcSt11char_traitsIcESaIcEEC1EPKcRKS3_@plt>
  403263:	e9 00 00 00 00       	jmpq   403268 <_Z5errorPKc+0x58>
  403268:	e8 23 f8 ff ff       	callq  402a90 <__errno_location@plt>
  40326d:	8b 38                	mov    (%rax),%edi
  40326f:	e8 1c f9 ff ff       	callq  402b90 <strerror@plt>
  403274:	48 8d 7d d8          	lea    -0x28(%rbp),%rdi
  403278:	48 8d 75 b8          	lea    -0x48(%rbp),%rsi
  40327c:	48 89 c2             	mov    %rax,%rdx
  40327f:	e8 3c 34 00 00       	callq  4066c0 <_ZStplIcSt11char_traitsIcESaIcEENSt7__cxx1112basic_stringIT_T0_T1_EEOS8_PKS5_>
  403284:	e9 00 00 00 00       	jmpq   403289 <_Z5errorPKc+0x79>
  403289:	48 8d 75 d8          	lea    -0x28(%rbp),%rsi
  40328d:	48 8b 7d 88          	mov    -0x78(%rbp),%rdi
  403291:	e8 da fc ff ff       	callq  402f70 <_ZNSt13runtime_errorC1ERKNSt7__cxx1112basic_stringIcSt11char_traitsIcESaIcEEE@plt>
  403296:	e9 00 00 00 00       	jmpq   40329b <_Z5errorPKc+0x8b>
  40329b:	c6 45 a3 00          	movb   $0x0,-0x5d(%rbp)
  40329f:	b8 20 64 61 00       	mov    $0x616420,%eax
  4032a4:	89 c6                	mov    %eax,%esi
  4032a6:	b8 d0 2d 40 00       	mov    $0x402dd0,%eax
  4032ab:	89 c2                	mov    %eax,%edx
  4032ad:	48 8b 7d 98          	mov    -0x68(%rbp),%rdi
  4032b1:	e8 3a fd ff ff       	callq  402ff0 <__cxa_throw@plt>
  4032b6:	e9 66 00 00 00       	jmpq   403321 <_Z5errorPKc+0x111>
  4032bb:	89 d1                	mov    %edx,%ecx
  4032bd:	48 89 45 a8          	mov    %rax,-0x58(%rbp)
  4032c1:	89 4d a4             	mov    %ecx,-0x5c(%rbp)
  4032c4:	e9 29 00 00 00       	jmpq   4032f2 <_Z5errorPKc+0xe2>
  4032c9:	89 d1                	mov    %edx,%ecx
  4032cb:	48 89 45 a8          	mov    %rax,-0x58(%rbp)
  4032cf:	89 4d a4             	mov    %ecx,-0x5c(%rbp)
  4032d2:	e9 12 00 00 00       	jmpq   4032e9 <_Z5errorPKc+0xd9>
  4032d7:	48 8d 7d d8          	lea    -0x28(%rbp),%rdi
  4032db:	89 d1                	mov    %edx,%ecx
  4032dd:	48 89 45 a8          	mov    %rax,-0x58(%rbp)
  4032e1:	89 4d a4             	mov    %ecx,-0x5c(%rbp)
  4032e4:	e8 77 f9 ff ff       	callq  402c60 <_ZNSt7__cxx1112basic_stringIcSt11char_traitsIcESaIcEED1Ev@plt>
  4032e9:	48 8d 7d b8          	lea    -0x48(%rbp),%rdi
  4032ed:	e8 6e f9 ff ff       	callq  402c60 <_ZNSt7__cxx1112basic_stringIcSt11char_traitsIcESaIcEED1Ev@plt>
  4032f2:	48 8d 7d b0          	lea    -0x50(%rbp),%rdi
  4032f6:	e8 15 fb ff ff       	callq  402e10 <_ZNSaIcED1Ev@plt>
  4032fb:	f6 45 a3 01          	testb  $0x1,-0x5d(%rbp)
  4032ff:	0f 85 05 00 00 00    	jne    40330a <_Z5errorPKc+0xfa>
  403305:	e9 09 00 00 00       	jmpq   403313 <_Z5errorPKc+0x103>
  40330a:	48 8b 7d 98          	mov    -0x68(%rbp),%rdi
  40330e:	e8 cd f9 ff ff       	callq  402ce0 <__cxa_free_exception@plt>
  403313:	e9 00 00 00 00       	jmpq   403318 <_Z5errorPKc+0x108>
  403318:	48 8b 7d a8          	mov    -0x58(%rbp),%rdi
  40331c:	e8 ff fc ff ff       	callq  403020 <_Unwind_Resume@plt>
  403321:	66 66 66 66 66 66 2e 	data16 data16 data16 data16 data16 nopw %cs:0x0(%rax,%rax,1)
  403328:	0f 1f 84 00 00 00 00 
  40332f:	00 

0000000000403330 <_Z17create_connectionPKci>:
  403330:	55                   	push   %rbp
  403331:	48 89 e5             	mov    %rsp,%rbp
  403334:	48 83 ec 20          	sub    $0x20,%rsp
  403338:	b8 02 00 00 00       	mov    $0x2,%eax
  40333d:	b9 01 00 00 00       	mov    $0x1,%ecx
  403342:	31 d2                	xor    %edx,%edx
  403344:	48 89 7d f8          	mov    %rdi,-0x8(%rbp)
  403348:	89 75 f4             	mov    %esi,-0xc(%rbp)
  40334b:	89 c7                	mov    %eax,%edi
  40334d:	89 ce                	mov    %ecx,%esi
  40334f:	e8 bc f7 ff ff       	callq  402b10 <socket@plt>
  403354:	89 45 f0             	mov    %eax,-0x10(%rbp)
  403357:	83 7d f0 ff          	cmpl   $0xffffffff,-0x10(%rbp)
  40335b:	0f 85 0f 00 00 00    	jne    403370 <_Z17create_connectionPKci+0x40>
  403361:	48 bf a8 ee 40 00 00 	movabs $0x40eea8,%rdi
  403368:	00 00 00 
  40336b:	e8 a0 fe ff ff       	callq  403210 <_Z5errorPKc>
  403370:	66 c7 45 e0 02 00    	movw   $0x2,-0x20(%rbp)
  403376:	48 8b 7d f8          	mov    -0x8(%rbp),%rdi
  40337a:	e8 41 fa ff ff       	callq  402dc0 <inet_addr@plt>
  40337f:	89 45 e4             	mov    %eax,-0x1c(%rbp)
  403382:	8b 45 f4             	mov    -0xc(%rbp),%eax
  403385:	66 89 c1             	mov    %ax,%cx
  403388:	0f b7 f9             	movzwl %cx,%edi
  40338b:	e8 20 f7 ff ff       	callq  402ab0 <htons@plt>
  403390:	ba 10 00 00 00       	mov    $0x10,%edx
  403395:	48 8d 75 e0          	lea    -0x20(%rbp),%rsi
  403399:	66 89 45 e2          	mov    %ax,-0x1e(%rbp)
  40339d:	8b 7d f0             	mov    -0x10(%rbp),%edi
  4033a0:	e8 9b f9 ff ff       	callq  402d40 <connect@plt>
  4033a5:	83 f8 00             	cmp    $0x0,%eax
  4033a8:	0f 84 0f 00 00 00    	je     4033bd <_Z17create_connectionPKci+0x8d>
  4033ae:	48 bf a8 ee 40 00 00 	movabs $0x40eea8,%rdi
  4033b5:	00 00 00 
  4033b8:	e8 53 fe ff ff       	callq  403210 <_Z5errorPKc>
  4033bd:	8b 45 f0             	mov    -0x10(%rbp),%eax
  4033c0:	48 83 c4 20          	add    $0x20,%rsp
  4033c4:	5d                   	pop    %rbp
  4033c5:	c3                   	retq   
  4033c6:	66 2e 0f 1f 84 00 00 	nopw   %cs:0x0(%rax,%rax,1)
  4033cd:	00 00 00 

00000000004033d0 <_Z16close_connectioni>:
  4033d0:	55                   	push   %rbp
  4033d1:	48 89 e5             	mov    %rsp,%rbp
  4033d4:	48 83 ec 10          	sub    $0x10,%rsp
  4033d8:	89 7d fc             	mov    %edi,-0x4(%rbp)
  4033db:	8b 7d fc             	mov    -0x4(%rbp),%edi
  4033de:	e8 dd fc ff ff       	callq  4030c0 <close@plt>
  4033e3:	89 45 f8             	mov    %eax,-0x8(%rbp)
  4033e6:	48 83 c4 10          	add    $0x10,%rsp
  4033ea:	5d                   	pop    %rbp
  4033eb:	c3                   	retq   
  4033ec:	0f 1f 40 00          	nopl   0x0(%rax)

00000000004033f0 <_Z13write_requestiPKcSt3mapINSt7__cxx1112basic_stringIcSt11char_traitsIcESaIcEEES7_St4lessIS7_ESaISt4pairIKS7_S7_EEEPKvi>:
  4033f0:	55                   	push   %rbp
  4033f1:	48 89 e5             	mov    %rsp,%rbp
  4033f4:	48 81 ec e0 10 00 00 	sub    $0x10e0,%rsp
  4033fb:	89 7d fc             	mov    %edi,-0x4(%rbp)
  4033fe:	48 89 75 f0          	mov    %rsi,-0x10(%rbp)
  403402:	48 89 4d e8          	mov    %rcx,-0x18(%rbp)
  403406:	44 89 45 e4          	mov    %r8d,-0x1c(%rbp)
  40340a:	48 8d 4d b8          	lea    -0x48(%rbp),%rcx
  40340e:	48 89 cf             	mov    %rcx,%rdi
  403411:	48 89 95 50 ef ff ff 	mov    %rdx,-0x10b0(%rbp)
  403418:	48 89 8d 48 ef ff ff 	mov    %rcx,-0x10b8(%rbp)
  40341f:	e8 0c fc ff ff       	callq  403030 <_ZNSaIcEC1Ev@plt>
  403424:	41 b8 88 ee 40 00    	mov    $0x40ee88,%r8d
  40342a:	44 89 c6             	mov    %r8d,%esi
  40342d:	48 8d 7d c0          	lea    -0x40(%rbp),%rdi
  403431:	48 8b 95 48 ef ff ff 	mov    -0x10b8(%rbp),%rdx
  403438:	e8 93 fa ff ff       	callq  402ed0 <_ZNSt7__cxx1112basic_stringIcSt11char_traitsIcESaIcEEC1EPKcRKS3_@plt>
  40343d:	e9 00 00 00 00       	jmpq   403442 <_Z13write_requestiPKcSt3mapINSt7__cxx1112basic_stringIcSt11char_traitsIcESaIcEEES7_St4lessIS7_ESaISt4pairIKS7_S7_EEEPKvi+0x52>
  403442:	48 8d 75 c0          	lea    -0x40(%rbp),%rsi
  403446:	48 8b bd 50 ef ff ff 	mov    -0x10b0(%rbp),%rdi
  40344d:	e8 be 32 00 00       	callq  406710 <_ZNSt3mapINSt7__cxx1112basic_stringIcSt11char_traitsIcESaIcEEES5_St4lessIS5_ESaISt4pairIKS5_S5_EEEixEOS5_>
  403452:	48 89 85 40 ef ff ff 	mov    %rax,-0x10c0(%rbp)
  403459:	e9 00 00 00 00       	jmpq   40345e <_Z13write_requestiPKcSt3mapINSt7__cxx1112basic_stringIcSt11char_traitsIcESaIcEEES7_St4lessIS7_ESaISt4pairIKS7_S7_EEEPKvi+0x6e>
  40345e:	8b 75 e4             	mov    -0x1c(%rbp),%esi
  403461:	48 8d 7d 88          	lea    -0x78(%rbp),%rdi
  403465:	e8 96 33 00 00       	callq  406800 <_ZNSt7__cxx119to_stringEi>
  40346a:	e9 00 00 00 00       	jmpq   40346f <_Z13write_requestiPKcSt3mapINSt7__cxx1112basic_stringIcSt11char_traitsIcESaIcEEES7_St4lessIS7_ESaISt4pairIKS7_S7_EEEPKvi+0x7f>
  40346f:	48 8d 75 88          	lea    -0x78(%rbp),%rsi
  403473:	48 8b bd 40 ef ff ff 	mov    -0x10c0(%rbp),%rdi
  40347a:	e8 d1 f9 ff ff       	callq  402e50 <_ZNSt7__cxx1112basic_stringIcSt11char_traitsIcESaIcEEaSEOS4_@plt>
  40347f:	48 89 85 38 ef ff ff 	mov    %rax,-0x10c8(%rbp)
  403486:	e9 00 00 00 00       	jmpq   40348b <_Z13write_requestiPKcSt3mapINSt7__cxx1112basic_stringIcSt11char_traitsIcESaIcEEES7_St4lessIS7_ESaISt4pairIKS7_S7_EEEPKvi+0x9b>
  40348b:	48 8d 7d 88          	lea    -0x78(%rbp),%rdi
  40348f:	e8 cc f7 ff ff       	callq  402c60 <_ZNSt7__cxx1112basic_stringIcSt11char_traitsIcESaIcEED1Ev@plt>
  403494:	48 8d 7d c0          	lea    -0x40(%rbp),%rdi
  403498:	e8 c3 f7 ff ff       	callq  402c60 <_ZNSt7__cxx1112basic_stringIcSt11char_traitsIcESaIcEED1Ev@plt>
  40349d:	48 8d 7d b8          	lea    -0x48(%rbp),%rdi
  4034a1:	e8 6a f9 ff ff       	callq  402e10 <_ZNSaIcED1Ev@plt>
  4034a6:	48 be 97 ee 40 00 00 	movabs $0x40ee97,%rsi
  4034ad:	00 00 00 
  4034b0:	48 8d bd 80 ef ff ff 	lea    -0x1080(%rbp),%rdi
  4034b7:	48 89 bd 78 ef ff ff 	mov    %rdi,-0x1088(%rbp)
  4034be:	48 8b bd 78 ef ff ff 	mov    -0x1088(%rbp),%rdi
  4034c5:	48 8b 55 f0          	mov    -0x10(%rbp),%rdx
  4034c9:	b0 00                	mov    $0x0,%al
  4034cb:	e8 20 f6 ff ff       	callq  402af0 <sprintf@plt>
  4034d0:	48 8b 95 78 ef ff ff 	mov    -0x1088(%rbp),%rdx
  4034d7:	48 63 f0             	movslq %eax,%rsi
  4034da:	48 01 f2             	add    %rsi,%rdx
  4034dd:	48 89 95 78 ef ff ff 	mov    %rdx,-0x1088(%rbp)
  4034e4:	48 8b 95 50 ef ff ff 	mov    -0x10b0(%rbp),%rdx
  4034eb:	48 89 95 70 ef ff ff 	mov    %rdx,-0x1090(%rbp)
  4034f2:	48 8b bd 70 ef ff ff 	mov    -0x1090(%rbp),%rdi
  4034f9:	e8 52 33 00 00       	callq  406850 <_ZNSt3mapINSt7__cxx1112basic_stringIcSt11char_traitsIcESaIcEEES5_St4lessIS5_ESaISt4pairIKS5_S5_EEE5beginEv>
  4034fe:	48 89 85 68 ef ff ff 	mov    %rax,-0x1098(%rbp)
  403505:	48 8b bd 70 ef ff ff 	mov    -0x1090(%rbp),%rdi
  40350c:	e8 6f 33 00 00       	callq  406880 <_ZNSt3mapINSt7__cxx1112basic_stringIcSt11char_traitsIcESaIcEEES5_St4lessIS5_ESaISt4pairIKS5_S5_EEE3endEv>
  403511:	48 89 85 60 ef ff ff 	mov    %rax,-0x10a0(%rbp)
  403518:	48 8d bd 68 ef ff ff 	lea    -0x1098(%rbp),%rdi
  40351f:	48 8d b5 60 ef ff ff 	lea    -0x10a0(%rbp),%rsi
  403526:	e8 85 33 00 00       	callq  4068b0 <_ZNKSt17_Rb_tree_iteratorISt4pairIKNSt7__cxx1112basic_stringIcSt11char_traitsIcESaIcEEES6_EEneERKS9_>
  40352b:	a8 01                	test   $0x1,%al
  40352d:	0f 85 05 00 00 00    	jne    403538 <_Z13write_requestiPKcSt3mapINSt7__cxx1112basic_stringIcSt11char_traitsIcESaIcEEES7_St4lessIS7_ESaISt4pairIKS7_S7_EEEPKvi+0x148>
  403533:	e9 da 00 00 00       	jmpq   403612 <_Z13write_requestiPKcSt3mapINSt7__cxx1112basic_stringIcSt11char_traitsIcESaIcEEES7_St4lessIS7_ESaISt4pairIKS7_S7_EEEPKvi+0x222>
  403538:	48 8d bd 68 ef ff ff 	lea    -0x1098(%rbp),%rdi
  40353f:	e8 9c 33 00 00       	callq  4068e0 <_ZNKSt17_Rb_tree_iteratorISt4pairIKNSt7__cxx1112basic_stringIcSt11char_traitsIcESaIcEEES6_EEdeEv>
  403544:	48 89 85 58 ef ff ff 	mov    %rax,-0x10a8(%rbp)
  40354b:	48 8b bd 78 ef ff ff 	mov    -0x1088(%rbp),%rdi
  403552:	48 8b 85 58 ef ff ff 	mov    -0x10a8(%rbp),%rax
  403559:	48 89 bd 30 ef ff ff 	mov    %rdi,-0x10d0(%rbp)
  403560:	48 89 c7             	mov    %rax,%rdi
  403563:	e8 68 f6 ff ff       	callq  402bd0 <_ZNKSt7__cxx1112basic_stringIcSt11char_traitsIcESaIcEE5c_strEv@plt>
  403568:	48 8b bd 58 ef ff ff 	mov    -0x10a8(%rbp),%rdi
  40356f:	48 83 c7 20          	add    $0x20,%rdi
  403573:	48 89 85 28 ef ff ff 	mov    %rax,-0x10d8(%rbp)
  40357a:	e8 51 f6 ff ff       	callq  402bd0 <_ZNKSt7__cxx1112basic_stringIcSt11char_traitsIcESaIcEE5c_strEv@plt>
  40357f:	48 be a9 ee 40 00 00 	movabs $0x40eea9,%rsi
  403586:	00 00 00 
  403589:	48 8b bd 30 ef ff ff 	mov    -0x10d0(%rbp),%rdi
  403590:	48 8b 95 28 ef ff ff 	mov    -0x10d8(%rbp),%rdx
  403597:	48 89 c1             	mov    %rax,%rcx
  40359a:	b0 00                	mov    $0x0,%al
  40359c:	e8 4f f5 ff ff       	callq  402af0 <sprintf@plt>
  4035a1:	48 8b 8d 78 ef ff ff 	mov    -0x1088(%rbp),%rcx
  4035a8:	48 63 d0             	movslq %eax,%rdx
  4035ab:	48 01 d1             	add    %rdx,%rcx
  4035ae:	48 89 8d 78 ef ff ff 	mov    %rcx,-0x1088(%rbp)
  4035b5:	48 8d bd 68 ef ff ff 	lea    -0x1098(%rbp),%rdi
  4035bc:	e8 5f 33 00 00       	callq  406920 <_ZNSt17_Rb_tree_iteratorISt4pairIKNSt7__cxx1112basic_stringIcSt11char_traitsIcESaIcEEES6_EEppEv>
  4035c1:	48 89 85 20 ef ff ff 	mov    %rax,-0x10e0(%rbp)
  4035c8:	e9 4b ff ff ff       	jmpq   403518 <_Z13write_requestiPKcSt3mapINSt7__cxx1112basic_stringIcSt11char_traitsIcESaIcEEES7_St4lessIS7_ESaISt4pairIKS7_S7_EEEPKvi+0x128>
  4035cd:	89 d1                	mov    %edx,%ecx
  4035cf:	48 89 45 b0          	mov    %rax,-0x50(%rbp)
  4035d3:	89 4d ac             	mov    %ecx,-0x54(%rbp)
  4035d6:	e9 29 00 00 00       	jmpq   403604 <_Z13write_requestiPKcSt3mapINSt7__cxx1112basic_stringIcSt11char_traitsIcESaIcEEES7_St4lessIS7_ESaISt4pairIKS7_S7_EEEPKvi+0x214>
  4035db:	89 d1                	mov    %edx,%ecx
  4035dd:	48 89 45 b0          	mov    %rax,-0x50(%rbp)
  4035e1:	89 4d ac             	mov    %ecx,-0x54(%rbp)
  4035e4:	e9 12 00 00 00       	jmpq   4035fb <_Z13write_requestiPKcSt3mapINSt7__cxx1112basic_stringIcSt11char_traitsIcESaIcEEES7_St4lessIS7_ESaISt4pairIKS7_S7_EEEPKvi+0x20b>
  4035e9:	48 8d 7d 88          	lea    -0x78(%rbp),%rdi
  4035ed:	89 d1                	mov    %edx,%ecx
  4035ef:	48 89 45 b0          	mov    %rax,-0x50(%rbp)
  4035f3:	89 4d ac             	mov    %ecx,-0x54(%rbp)
  4035f6:	e8 65 f6 ff ff       	callq  402c60 <_ZNSt7__cxx1112basic_stringIcSt11char_traitsIcESaIcEED1Ev@plt>
  4035fb:	48 8d 7d c0          	lea    -0x40(%rbp),%rdi
  4035ff:	e8 5c f6 ff ff       	callq  402c60 <_ZNSt7__cxx1112basic_stringIcSt11char_traitsIcESaIcEED1Ev@plt>
  403604:	48 8d 7d b8          	lea    -0x48(%rbp),%rdi
  403608:	e8 03 f8 ff ff       	callq  402e10 <_ZNSaIcED1Ev@plt>
  40360d:	e9 61 00 00 00       	jmpq   403673 <_Z13write_requestiPKcSt3mapINSt7__cxx1112basic_stringIcSt11char_traitsIcESaIcEEES7_St4lessIS7_ESaISt4pairIKS7_S7_EEEPKvi+0x283>
  403612:	48 be a6 ee 40 00 00 	movabs $0x40eea6,%rsi
  403619:	00 00 00 
  40361c:	48 8b bd 78 ef ff ff 	mov    -0x1088(%rbp),%rdi
  403623:	b0 00                	mov    $0x0,%al
  403625:	e8 c6 f4 ff ff       	callq  402af0 <sprintf@plt>
  40362a:	48 8d b5 80 ef ff ff 	lea    -0x1080(%rbp),%rsi
  403631:	48 8b bd 78 ef ff ff 	mov    -0x1088(%rbp),%rdi
  403638:	48 63 c8             	movslq %eax,%rcx
  40363b:	48 01 cf             	add    %rcx,%rdi
  40363e:	48 89 bd 78 ef ff ff 	mov    %rdi,-0x1088(%rbp)
  403645:	8b 7d fc             	mov    -0x4(%rbp),%edi
  403648:	48 8b 8d 78 ef ff ff 	mov    -0x1088(%rbp),%rcx
  40364f:	48 29 f1             	sub    %rsi,%rcx
  403652:	89 c8                	mov    %ecx,%eax
  403654:	89 c2                	mov    %eax,%edx
  403656:	e8 25 00 00 00       	callq  403680 <_ZL10send_bytesiPKvi>
  40365b:	8b 7d fc             	mov    -0x4(%rbp),%edi
  40365e:	48 8b 75 e8          	mov    -0x18(%rbp),%rsi
  403662:	8b 55 e4             	mov    -0x1c(%rbp),%edx
  403665:	e8 16 00 00 00       	callq  403680 <_ZL10send_bytesiPKvi>
  40366a:	48 81 c4 e0 10 00 00 	add    $0x10e0,%rsp
  403671:	5d                   	pop    %rbp
  403672:	c3                   	retq   
  403673:	48 8b 7d b0          	mov    -0x50(%rbp),%rdi
  403677:	e8 a4 f9 ff ff       	callq  403020 <_Unwind_Resume@plt>
  40367c:	0f 1f 40 00          	nopl   0x0(%rax)

0000000000403680 <_ZL10send_bytesiPKvi>:
  403680:	55                   	push   %rbp
  403681:	48 89 e5             	mov    %rsp,%rbp
  403684:	48 83 ec 30          	sub    $0x30,%rsp
  403688:	89 7d fc             	mov    %edi,-0x4(%rbp)
  40368b:	48 89 75 f0          	mov    %rsi,-0x10(%rbp)
  40368f:	89 55 ec             	mov    %edx,-0x14(%rbp)
  403692:	48 8b 75 f0          	mov    -0x10(%rbp),%rsi
  403696:	48 89 75 e0          	mov    %rsi,-0x20(%rbp)
  40369a:	83 7d ec 00          	cmpl   $0x0,-0x14(%rbp)
  40369e:	0f 8e 51 00 00 00    	jle    4036f5 <_ZL10send_bytesiPKvi+0x75>
  4036a4:	31 c9                	xor    %ecx,%ecx
  4036a6:	8b 7d fc             	mov    -0x4(%rbp),%edi
  4036a9:	48 8b 75 e0          	mov    -0x20(%rbp),%rsi
  4036ad:	48 63 55 ec          	movslq -0x14(%rbp),%rdx
  4036b1:	e8 5a f5 ff ff       	callq  402c10 <send@plt>
  4036b6:	89 c1                	mov    %eax,%ecx
  4036b8:	89 4d dc             	mov    %ecx,-0x24(%rbp)
  4036bb:	83 7d dc ff          	cmpl   $0xffffffff,-0x24(%rbp)
  4036bf:	0f 85 0f 00 00 00    	jne    4036d4 <_ZL10send_bytesiPKvi+0x54>
  4036c5:	48 bf a8 ee 40 00 00 	movabs $0x40eea8,%rdi
  4036cc:	00 00 00 
  4036cf:	e8 3c fb ff ff       	callq  403210 <_Z5errorPKc>
  4036d4:	8b 45 dc             	mov    -0x24(%rbp),%eax
  4036d7:	8b 4d ec             	mov    -0x14(%rbp),%ecx
  4036da:	29 c1                	sub    %eax,%ecx
  4036dc:	89 4d ec             	mov    %ecx,-0x14(%rbp)
  4036df:	8b 45 dc             	mov    -0x24(%rbp),%eax
  4036e2:	48 8b 55 e0          	mov    -0x20(%rbp),%rdx
  4036e6:	48 63 f0             	movslq %eax,%rsi
  4036e9:	48 01 f2             	add    %rsi,%rdx
  4036ec:	48 89 55 e0          	mov    %rdx,-0x20(%rbp)
  4036f0:	e9 a5 ff ff ff       	jmpq   40369a <_ZL10send_bytesiPKvi+0x1a>
  4036f5:	48 83 c4 30          	add    $0x30,%rsp
  4036f9:	5d                   	pop    %rbp
  4036fa:	c3                   	retq   
  4036fb:	0f 1f 44 00 00       	nopl   0x0(%rax,%rax,1)

0000000000403700 <_Z14write_responseiiSt3mapINSt7__cxx1112basic_stringIcSt11char_traitsIcESaIcEEES5_St4lessIS5_ESaISt4pairIKS5_S5_EEEPKvi>:
  403700:	55                   	push   %rbp
  403701:	48 89 e5             	mov    %rsp,%rbp
  403704:	48 81 ec d0 10 00 00 	sub    $0x10d0,%rsp
  40370b:	89 7d fc             	mov    %edi,-0x4(%rbp)
  40370e:	89 75 f8             	mov    %esi,-0x8(%rbp)
  403711:	48 89 4d f0          	mov    %rcx,-0x10(%rbp)
  403715:	44 89 45 ec          	mov    %r8d,-0x14(%rbp)
  403719:	48 8d 4d c0          	lea    -0x40(%rbp),%rcx
  40371d:	48 89 cf             	mov    %rcx,%rdi
  403720:	48 89 95 60 ef ff ff 	mov    %rdx,-0x10a0(%rbp)
  403727:	48 89 8d 58 ef ff ff 	mov    %rcx,-0x10a8(%rbp)
  40372e:	e8 fd f8 ff ff       	callq  403030 <_ZNSaIcEC1Ev@plt>
  403733:	be 88 ee 40 00       	mov    $0x40ee88,%esi
  403738:	48 8d 7d c8          	lea    -0x38(%rbp),%rdi
  40373c:	48 8b 95 58 ef ff ff 	mov    -0x10a8(%rbp),%rdx
  403743:	e8 88 f7 ff ff       	callq  402ed0 <_ZNSt7__cxx1112basic_stringIcSt11char_traitsIcESaIcEEC1EPKcRKS3_@plt>
  403748:	e9 00 00 00 00       	jmpq   40374d <_Z14write_responseiiSt3mapINSt7__cxx1112basic_stringIcSt11char_traitsIcESaIcEEES5_St4lessIS5_ESaISt4pairIKS5_S5_EEEPKvi+0x4d>
  40374d:	48 8d 75 c8          	lea    -0x38(%rbp),%rsi
  403751:	48 8b bd 60 ef ff ff 	mov    -0x10a0(%rbp),%rdi
  403758:	e8 b3 2f 00 00       	callq  406710 <_ZNSt3mapINSt7__cxx1112basic_stringIcSt11char_traitsIcESaIcEEES5_St4lessIS5_ESaISt4pairIKS5_S5_EEEixEOS5_>
  40375d:	48 89 85 50 ef ff ff 	mov    %rax,-0x10b0(%rbp)
  403764:	e9 00 00 00 00       	jmpq   403769 <_Z14write_responseiiSt3mapINSt7__cxx1112basic_stringIcSt11char_traitsIcESaIcEEES5_St4lessIS5_ESaISt4pairIKS5_S5_EEEPKvi+0x69>
  403769:	8b 75 ec             	mov    -0x14(%rbp),%esi
  40376c:	48 8d 7d 90          	lea    -0x70(%rbp),%rdi
  403770:	e8 8b 30 00 00       	callq  406800 <_ZNSt7__cxx119to_stringEi>
  403775:	e9 00 00 00 00       	jmpq   40377a <_Z14write_responseiiSt3mapINSt7__cxx1112basic_stringIcSt11char_traitsIcESaIcEEES5_St4lessIS5_ESaISt4pairIKS5_S5_EEEPKvi+0x7a>
  40377a:	48 8d 75 90          	lea    -0x70(%rbp),%rsi
  40377e:	48 8b bd 50 ef ff ff 	mov    -0x10b0(%rbp),%rdi
  403785:	e8 c6 f6 ff ff       	callq  402e50 <_ZNSt7__cxx1112basic_stringIcSt11char_traitsIcESaIcEEaSEOS4_@plt>
  40378a:	48 89 85 48 ef ff ff 	mov    %rax,-0x10b8(%rbp)
  403791:	e9 00 00 00 00       	jmpq   403796 <_Z14write_responseiiSt3mapINSt7__cxx1112basic_stringIcSt11char_traitsIcESaIcEEES5_St4lessIS5_ESaISt4pairIKS5_S5_EEEPKvi+0x96>
  403796:	48 8d 7d 90          	lea    -0x70(%rbp),%rdi
  40379a:	e8 c1 f4 ff ff       	callq  402c60 <_ZNSt7__cxx1112basic_stringIcSt11char_traitsIcESaIcEED1Ev@plt>
  40379f:	48 8d 7d c8          	lea    -0x38(%rbp),%rdi
  4037a3:	e8 b8 f4 ff ff       	callq  402c60 <_ZNSt7__cxx1112basic_stringIcSt11char_traitsIcESaIcEED1Ev@plt>
  4037a8:	48 8d 7d c0          	lea    -0x40(%rbp),%rdi
  4037ac:	e8 5f f6 ff ff       	callq  402e10 <_ZNSaIcED1Ev@plt>
  4037b1:	48 be b2 ee 40 00 00 	movabs $0x40eeb2,%rsi
  4037b8:	00 00 00 
  4037bb:	48 8d bd 90 ef ff ff 	lea    -0x1070(%rbp),%rdi
  4037c2:	48 89 bd 88 ef ff ff 	mov    %rdi,-0x1078(%rbp)
  4037c9:	48 8b bd 88 ef ff ff 	mov    -0x1078(%rbp),%rdi
  4037d0:	8b 55 f8             	mov    -0x8(%rbp),%edx
  4037d3:	b0 00                	mov    $0x0,%al
  4037d5:	e8 16 f3 ff ff       	callq  402af0 <sprintf@plt>
  4037da:	48 8b b5 88 ef ff ff 	mov    -0x1078(%rbp),%rsi
  4037e1:	48 63 f8             	movslq %eax,%rdi
  4037e4:	48 01 fe             	add    %rdi,%rsi
  4037e7:	48 89 b5 88 ef ff ff 	mov    %rsi,-0x1078(%rbp)
  4037ee:	48 8b b5 60 ef ff ff 	mov    -0x10a0(%rbp),%rsi
  4037f5:	48 89 b5 80 ef ff ff 	mov    %rsi,-0x1080(%rbp)
  4037fc:	48 8b bd 80 ef ff ff 	mov    -0x1080(%rbp),%rdi
  403803:	e8 48 30 00 00       	callq  406850 <_ZNSt3mapINSt7__cxx1112basic_stringIcSt11char_traitsIcESaIcEEES5_St4lessIS5_ESaISt4pairIKS5_S5_EEE5beginEv>
  403808:	48 89 85 78 ef ff ff 	mov    %rax,-0x1088(%rbp)
  40380f:	48 8b bd 80 ef ff ff 	mov    -0x1080(%rbp),%rdi
  403816:	e8 65 30 00 00       	callq  406880 <_ZNSt3mapINSt7__cxx1112basic_stringIcSt11char_traitsIcESaIcEEES5_St4lessIS5_ESaISt4pairIKS5_S5_EEE3endEv>
  40381b:	48 89 85 70 ef ff ff 	mov    %rax,-0x1090(%rbp)
  403822:	48 8d bd 78 ef ff ff 	lea    -0x1088(%rbp),%rdi
  403829:	48 8d b5 70 ef ff ff 	lea    -0x1090(%rbp),%rsi
  403830:	e8 7b 30 00 00       	callq  4068b0 <_ZNKSt17_Rb_tree_iteratorISt4pairIKNSt7__cxx1112basic_stringIcSt11char_traitsIcESaIcEEES6_EEneERKS9_>
  403835:	a8 01                	test   $0x1,%al
  403837:	0f 85 05 00 00 00    	jne    403842 <_Z14write_responseiiSt3mapINSt7__cxx1112basic_stringIcSt11char_traitsIcESaIcEEES5_St4lessIS5_ESaISt4pairIKS5_S5_EEEPKvi+0x142>
  40383d:	e9 da 00 00 00       	jmpq   40391c <_Z14write_responseiiSt3mapINSt7__cxx1112basic_stringIcSt11char_traitsIcESaIcEEES5_St4lessIS5_ESaISt4pairIKS5_S5_EEEPKvi+0x21c>
  403842:	48 8d bd 78 ef ff ff 	lea    -0x1088(%rbp),%rdi
  403849:	e8 92 30 00 00       	callq  4068e0 <_ZNKSt17_Rb_tree_iteratorISt4pairIKNSt7__cxx1112basic_stringIcSt11char_traitsIcESaIcEEES6_EEdeEv>
  40384e:	48 89 85 68 ef ff ff 	mov    %rax,-0x1098(%rbp)
  403855:	48 8b bd 88 ef ff ff 	mov    -0x1078(%rbp),%rdi
  40385c:	48 8b 85 68 ef ff ff 	mov    -0x1098(%rbp),%rax
  403863:	48 89 bd 40 ef ff ff 	mov    %rdi,-0x10c0(%rbp)
  40386a:	48 89 c7             	mov    %rax,%rdi
  40386d:	e8 5e f3 ff ff       	callq  402bd0 <_ZNKSt7__cxx1112basic_stringIcSt11char_traitsIcESaIcEE5c_strEv@plt>
  403872:	48 8b bd 68 ef ff ff 	mov    -0x1098(%rbp),%rdi
  403879:	48 83 c7 20          	add    $0x20,%rdi
  40387d:	48 89 85 38 ef ff ff 	mov    %rax,-0x10c8(%rbp)
  403884:	e8 47 f3 ff ff       	callq  402bd0 <_ZNKSt7__cxx1112basic_stringIcSt11char_traitsIcESaIcEE5c_strEv@plt>
  403889:	48 be c0 ee 40 00 00 	movabs $0x40eec0,%rsi
  403890:	00 00 00 
  403893:	48 8b bd 40 ef ff ff 	mov    -0x10c0(%rbp),%rdi
  40389a:	48 8b 95 38 ef ff ff 	mov    -0x10c8(%rbp),%rdx
  4038a1:	48 89 c1             	mov    %rax,%rcx
  4038a4:	b0 00                	mov    $0x0,%al
  4038a6:	e8 45 f2 ff ff       	callq  402af0 <sprintf@plt>
  4038ab:	48 8b 8d 88 ef ff ff 	mov    -0x1078(%rbp),%rcx
  4038b2:	48 63 d0             	movslq %eax,%rdx
  4038b5:	48 01 d1             	add    %rdx,%rcx
  4038b8:	48 89 8d 88 ef ff ff 	mov    %rcx,-0x1078(%rbp)
  4038bf:	48 8d bd 78 ef ff ff 	lea    -0x1088(%rbp),%rdi
  4038c6:	e8 55 30 00 00       	callq  406920 <_ZNSt17_Rb_tree_iteratorISt4pairIKNSt7__cxx1112basic_stringIcSt11char_traitsIcESaIcEEES6_EEppEv>
  4038cb:	48 89 85 30 ef ff ff 	mov    %rax,-0x10d0(%rbp)
  4038d2:	e9 4b ff ff ff       	jmpq   403822 <_Z14write_responseiiSt3mapINSt7__cxx1112basic_stringIcSt11char_traitsIcESaIcEEES5_St4lessIS5_ESaISt4pairIKS5_S5_EEEPKvi+0x122>
  4038d7:	89 d1                	mov    %edx,%ecx
  4038d9:	48 89 45 b8          	mov    %rax,-0x48(%rbp)
  4038dd:	89 4d b4             	mov    %ecx,-0x4c(%rbp)
  4038e0:	e9 29 00 00 00       	jmpq   40390e <_Z14write_responseiiSt3mapINSt7__cxx1112basic_stringIcSt11char_traitsIcESaIcEEES5_St4lessIS5_ESaISt4pairIKS5_S5_EEEPKvi+0x20e>
  4038e5:	89 d1                	mov    %edx,%ecx
  4038e7:	48 89 45 b8          	mov    %rax,-0x48(%rbp)
  4038eb:	89 4d b4             	mov    %ecx,-0x4c(%rbp)
  4038ee:	e9 12 00 00 00       	jmpq   403905 <_Z14write_responseiiSt3mapINSt7__cxx1112basic_stringIcSt11char_traitsIcESaIcEEES5_St4lessIS5_ESaISt4pairIKS5_S5_EEEPKvi+0x205>
  4038f3:	48 8d 7d 90          	lea    -0x70(%rbp),%rdi
  4038f7:	89 d1                	mov    %edx,%ecx
  4038f9:	48 89 45 b8          	mov    %rax,-0x48(%rbp)
  4038fd:	89 4d b4             	mov    %ecx,-0x4c(%rbp)
  403900:	e8 5b f3 ff ff       	callq  402c60 <_ZNSt7__cxx1112basic_stringIcSt11char_traitsIcESaIcEED1Ev@plt>
  403905:	48 8d 7d c8          	lea    -0x38(%rbp),%rdi
  403909:	e8 52 f3 ff ff       	callq  402c60 <_ZNSt7__cxx1112basic_stringIcSt11char_traitsIcESaIcEED1Ev@plt>
  40390e:	48 8d 7d c0          	lea    -0x40(%rbp),%rdi
  403912:	e8 f9 f4 ff ff       	callq  402e10 <_ZNSaIcED1Ev@plt>
  403917:	e9 61 00 00 00       	jmpq   40397d <_Z14write_responseiiSt3mapINSt7__cxx1112basic_stringIcSt11char_traitsIcESaIcEEES5_St4lessIS5_ESaISt4pairIKS5_S5_EEEPKvi+0x27d>
  40391c:	48 be a6 ee 40 00 00 	movabs $0x40eea6,%rsi
  403923:	00 00 00 
  403926:	48 8b bd 88 ef ff ff 	mov    -0x1078(%rbp),%rdi
  40392d:	b0 00                	mov    $0x0,%al
  40392f:	e8 bc f1 ff ff       	callq  402af0 <sprintf@plt>
  403934:	48 8d b5 90 ef ff ff 	lea    -0x1070(%rbp),%rsi
  40393b:	48 8b bd 88 ef ff ff 	mov    -0x1078(%rbp),%rdi
  403942:	48 63 c8             	movslq %eax,%rcx
  403945:	48 01 cf             	add    %rcx,%rdi
  403948:	48 89 bd 88 ef ff ff 	mov    %rdi,-0x1078(%rbp)
  40394f:	8b 7d fc             	mov    -0x4(%rbp),%edi
  403952:	48 8b 8d 88 ef ff ff 	mov    -0x1078(%rbp),%rcx
  403959:	48 29 f1             	sub    %rsi,%rcx
  40395c:	89 c8                	mov    %ecx,%eax
  40395e:	89 c2                	mov    %eax,%edx
  403960:	e8 1b fd ff ff       	callq  403680 <_ZL10send_bytesiPKvi>
  403965:	8b 7d fc             	mov    -0x4(%rbp),%edi
  403968:	48 8b 75 f0          	mov    -0x10(%rbp),%rsi
  40396c:	8b 55 ec             	mov    -0x14(%rbp),%edx
  40396f:	e8 0c fd ff ff       	callq  403680 <_ZL10send_bytesiPKvi>
  403974:	48 81 c4 d0 10 00 00 	add    $0x10d0,%rsp
  40397b:	5d                   	pop    %rbp
  40397c:	c3                   	retq   
  40397d:	48 8b 7d b8          	mov    -0x48(%rbp),%rdi
  403981:	e8 9a f6 ff ff       	callq  403020 <_Unwind_Resume@plt>
  403986:	66 2e 0f 1f 84 00 00 	nopw   %cs:0x0(%rax,%rax,1)
  40398d:	00 00 00 

0000000000403990 <_Z12read_messageiRSt3mapINSt7__cxx1112basic_stringIcSt11char_traitsIcESaIcEEES5_St4lessIS5_ESaISt4pairIKS5_S5_EEERSt6vectorIhSaIhEE>:
  403990:	55                   	push   %rbp
  403991:	48 89 e5             	mov    %rsp,%rbp
  403994:	48 81 ec 50 24 00 00 	sub    $0x2450,%rsp
  40399b:	48 89 f8             	mov    %rdi,%rax
  40399e:	89 75 fc             	mov    %esi,-0x4(%rbp)
  4039a1:	48 89 55 f0          	mov    %rdx,-0x10(%rbp)
  4039a5:	48 89 4d e8          	mov    %rcx,-0x18(%rbp)
  4039a9:	48 8b 4d f0          	mov    -0x10(%rbp),%rcx
  4039ad:	48 89 bd d8 dc ff ff 	mov    %rdi,-0x2328(%rbp)
  4039b4:	48 89 cf             	mov    %rcx,%rdi
  4039b7:	48 89 85 d0 dc ff ff 	mov    %rax,-0x2330(%rbp)
  4039be:	e8 8d 2f 00 00       	callq  406950 <_ZNSt3mapINSt7__cxx1112basic_stringIcSt11char_traitsIcESaIcEEES5_St4lessIS5_ESaISt4pairIKS5_S5_EEE5clearEv>
  4039c3:	48 8b 7d e8          	mov    -0x18(%rbp),%rdi
  4039c7:	e8 a4 2f 00 00       	callq  406970 <_ZNSt6vectorIhSaIhEE5clearEv>
  4039cc:	bf 10 00 00 00       	mov    $0x10,%edi
  4039d1:	be 08 00 00 00       	mov    $0x8,%esi
  4039d6:	e8 b5 2f 00 00       	callq  406990 <_ZStorSt13_Ios_OpenmodeS_>
  4039db:	48 8d bd 60 fe ff ff 	lea    -0x1a0(%rbp),%rdi
  4039e2:	89 c6                	mov    %eax,%esi
  4039e4:	e8 37 f3 ff ff       	callq  402d20 <_ZNSt7__cxx1118basic_stringstreamIcSt11char_traitsIcESaIcEEC1ESt13_Ios_Openmode@plt>
  4039e9:	c6 85 5f fe ff ff 00 	movb   $0x0,-0x1a1(%rbp)
  4039f0:	48 8b bd d8 dc ff ff 	mov    -0x2328(%rbp),%rdi
  4039f7:	e8 e4 f4 ff ff       	callq  402ee0 <_ZNSt7__cxx1112basic_stringIcSt11char_traitsIcESaIcEEC1Ev@plt>
  4039fc:	e9 00 00 00 00       	jmpq   403a01 <_Z12read_messageiRSt3mapINSt7__cxx1112basic_stringIcSt11char_traitsIcESaIcEEES5_St4lessIS5_ESaISt4pairIKS5_S5_EEERSt6vectorIhSaIhEE+0x71>
  403a01:	48 8d 85 38 fe ff ff 	lea    -0x1c8(%rbp),%rax
  403a08:	48 89 c7             	mov    %rax,%rdi
  403a0b:	48 89 85 c8 dc ff ff 	mov    %rax,-0x2338(%rbp)
  403a12:	e8 c9 f4 ff ff       	callq  402ee0 <_ZNSt7__cxx1112basic_stringIcSt11char_traitsIcESaIcEEC1Ev@plt>
  403a17:	48 8d bd 60 fe ff ff 	lea    -0x1a0(%rbp),%rdi
  403a1e:	48 8b b5 c8 dc ff ff 	mov    -0x2338(%rbp),%rsi
  403a25:	e8 d6 f0 ff ff       	callq  402b00 <_ZSt7getlineIcSt11char_traitsIcESaIcEERSt13basic_istreamIT_T0_ES7_RNSt7__cxx1112basic_stringIS4_S5_T1_EE@plt>
  403a2a:	48 89 85 c0 dc ff ff 	mov    %rax,-0x2340(%rbp)
  403a31:	e9 00 00 00 00       	jmpq   403a36 <_Z12read_messageiRSt3mapINSt7__cxx1112basic_stringIcSt11char_traitsIcESaIcEEES5_St4lessIS5_ESaISt4pairIKS5_S5_EEERSt6vectorIhSaIhEE+0xa6>
  403a36:	48 8b 85 60 fe ff ff 	mov    -0x1a0(%rbp),%rax
  403a3d:	48 8b 40 e8          	mov    -0x18(%rax),%rax
  403a41:	48 8d bc 05 60 fe ff 	lea    -0x1a0(%rbp,%rax,1),%rdi
  403a48:	ff 
  403a49:	e8 22 f6 ff ff       	callq  403070 <_ZNKSt9basic_iosIcSt11char_traitsIcEE3eofEv@plt>
  403a4e:	88 85 bf dc ff ff    	mov    %al,-0x2341(%rbp)
  403a54:	e9 00 00 00 00       	jmpq   403a59 <_Z12read_messageiRSt3mapINSt7__cxx1112basic_stringIcSt11char_traitsIcESaIcEEES5_St4lessIS5_ESaISt4pairIKS5_S5_EEERSt6vectorIhSaIhEE+0xc9>
  403a59:	8a 85 bf dc ff ff    	mov    -0x2341(%rbp),%al
  403a5f:	a8 01                	test   $0x1,%al
  403a61:	0f 85 05 00 00 00    	jne    403a6c <_Z12read_messageiRSt3mapINSt7__cxx1112basic_stringIcSt11char_traitsIcESaIcEEES5_St4lessIS5_ESaISt4pairIKS5_S5_EEERSt6vectorIhSaIhEE+0xdc>
  403a67:	e9 d3 00 00 00       	jmpq   403b3f <_Z12read_messageiRSt3mapINSt7__cxx1112basic_stringIcSt11char_traitsIcESaIcEEES5_St4lessIS5_ESaISt4pairIKS5_S5_EEERSt6vectorIhSaIhEE+0x1af>
  403a6c:	48 8b 85 60 fe ff ff 	mov    -0x1a0(%rbp),%rax
  403a73:	48 8b 40 e8          	mov    -0x18(%rax),%rax
  403a77:	48 8d bc 05 60 fe ff 	lea    -0x1a0(%rbp,%rax,1),%rdi
  403a7e:	ff 
  403a7f:	31 f6                	xor    %esi,%esi
  403a81:	e8 4a f5 ff ff       	callq  402fd0 <_ZNSt9basic_iosIcSt11char_traitsIcEE5clearESt12_Ios_Iostate@plt>
  403a86:	e9 00 00 00 00       	jmpq   403a8b <_Z12read_messageiRSt3mapINSt7__cxx1112basic_stringIcSt11char_traitsIcESaIcEEES5_St4lessIS5_ESaISt4pairIKS5_S5_EEERSt6vectorIhSaIhEE+0xfb>
  403a8b:	48 8d bd 70 fe ff ff 	lea    -0x190(%rbp),%rdi
  403a92:	48 8d b5 38 fe ff ff 	lea    -0x1c8(%rbp),%rsi
  403a99:	e8 c2 f2 ff ff       	callq  402d60 <_ZStlsIcSt11char_traitsIcESaIcEERSt13basic_ostreamIT_T0_ES7_RKNSt7__cxx1112basic_stringIS4_S5_T1_EE@plt>
  403a9e:	48 89 85 b0 dc ff ff 	mov    %rax,-0x2350(%rbp)
  403aa5:	e9 00 00 00 00       	jmpq   403aaa <_Z12read_messageiRSt3mapINSt7__cxx1112basic_stringIcSt11char_traitsIcESaIcEEES5_St4lessIS5_ESaISt4pairIKS5_S5_EEERSt6vectorIhSaIhEE+0x11a>
  403aaa:	8b 7d fc             	mov    -0x4(%rbp),%edi
  403aad:	b8 00 10 00 00       	mov    $0x1000,%eax
  403ab2:	89 c2                	mov    %eax,%edx
  403ab4:	48 8d b5 20 ee ff ff 	lea    -0x11e0(%rbp),%rsi
  403abb:	31 c9                	xor    %ecx,%ecx
  403abd:	e8 be f0 ff ff       	callq  402b80 <recv@plt>
  403ac2:	48 89 85 a8 dc ff ff 	mov    %rax,-0x2358(%rbp)
  403ac9:	e9 00 00 00 00       	jmpq   403ace <_Z12read_messageiRSt3mapINSt7__cxx1112basic_stringIcSt11char_traitsIcESaIcEEES5_St4lessIS5_ESaISt4pairIKS5_S5_EEERSt6vectorIhSaIhEE+0x13e>
  403ace:	48 8b 85 a8 dc ff ff 	mov    -0x2358(%rbp),%rax
  403ad5:	89 c1                	mov    %eax,%ecx
  403ad7:	89 8d 1c ee ff ff    	mov    %ecx,-0x11e4(%rbp)
  403add:	83 bd 1c ee ff ff ff 	cmpl   $0xffffffff,-0x11e4(%rbp)
  403ae4:	0f 85 2a 00 00 00    	jne    403b14 <_Z12read_messageiRSt3mapINSt7__cxx1112basic_stringIcSt11char_traitsIcESaIcEEES5_St4lessIS5_ESaISt4pairIKS5_S5_EEERSt6vectorIhSaIhEE+0x184>
  403aea:	b8 a8 ee 40 00       	mov    $0x40eea8,%eax
  403aef:	89 c7                	mov    %eax,%edi
  403af1:	e8 1a f7 ff ff       	callq  403210 <_Z5errorPKc>
  403af6:	e9 00 00 00 00       	jmpq   403afb <_Z12read_messageiRSt3mapINSt7__cxx1112basic_stringIcSt11char_traitsIcESaIcEEES5_St4lessIS5_ESaISt4pairIKS5_S5_EEERSt6vectorIhSaIhEE+0x16b>
  403afb:	e9 14 00 00 00       	jmpq   403b14 <_Z12read_messageiRSt3mapINSt7__cxx1112basic_stringIcSt11char_traitsIcESaIcEEES5_St4lessIS5_ESaISt4pairIKS5_S5_EEERSt6vectorIhSaIhEE+0x184>
  403b00:	89 d1                	mov    %edx,%ecx
  403b02:	48 89 85 30 fe ff ff 	mov    %rax,-0x1d0(%rbp)
  403b09:	89 8d 2c fe ff ff    	mov    %ecx,-0x1d4(%rbp)
  403b0f:	e9 51 02 00 00       	jmpq   403d65 <_Z12read_messageiRSt3mapINSt7__cxx1112basic_stringIcSt11char_traitsIcESaIcEEES5_St4lessIS5_ESaISt4pairIKS5_S5_EEERSt6vectorIhSaIhEE+0x3d5>
  403b14:	48 8d bd 70 fe ff ff 	lea    -0x190(%rbp),%rdi
  403b1b:	48 63 95 1c ee ff ff 	movslq -0x11e4(%rbp),%rdx
  403b22:	48 8d b5 20 ee ff ff 	lea    -0x11e0(%rbp),%rsi
  403b29:	e8 72 f3 ff ff       	callq  402ea0 <_ZNSo5writeEPKcl@plt>
  403b2e:	48 89 85 a0 dc ff ff 	mov    %rax,-0x2360(%rbp)
  403b35:	e9 00 00 00 00       	jmpq   403b3a <_Z12read_messageiRSt3mapINSt7__cxx1112basic_stringIcSt11char_traitsIcESaIcEEES5_St4lessIS5_ESaISt4pairIKS5_S5_EEERSt6vectorIhSaIhEE+0x1aa>
  403b3a:	e9 00 00 00 00       	jmpq   403b3f <_Z12read_messageiRSt3mapINSt7__cxx1112basic_stringIcSt11char_traitsIcESaIcEEES5_St4lessIS5_ESaISt4pairIKS5_S5_EEERSt6vectorIhSaIhEE+0x1af>
  403b3f:	48 8b bd d8 dc ff ff 	mov    -0x2328(%rbp),%rdi
  403b46:	e8 75 f4 ff ff       	callq  402fc0 <_ZNKSt7__cxx1112basic_stringIcSt11char_traitsIcESaIcEE5emptyEv@plt>
  403b4b:	a8 01                	test   $0x1,%al
  403b4d:	0f 85 05 00 00 00    	jne    403b58 <_Z12read_messageiRSt3mapINSt7__cxx1112basic_stringIcSt11char_traitsIcESaIcEEES5_St4lessIS5_ESaISt4pairIKS5_S5_EEERSt6vectorIhSaIhEE+0x1c8>
  403b53:	e9 2e 00 00 00       	jmpq   403b86 <_Z12read_messageiRSt3mapINSt7__cxx1112basic_stringIcSt11char_traitsIcESaIcEEES5_St4lessIS5_ESaISt4pairIKS5_S5_EEERSt6vectorIhSaIhEE+0x1f6>
  403b58:	48 8d b5 38 fe ff ff 	lea    -0x1c8(%rbp),%rsi
  403b5f:	48 8b bd d8 dc ff ff 	mov    -0x2328(%rbp),%rdi
  403b66:	e8 15 ef ff ff       	callq  402a80 <_ZNSt7__cxx1112basic_stringIcSt11char_traitsIcESaIcEEaSERKS4_@plt>
  403b6b:	48 89 85 98 dc ff ff 	mov    %rax,-0x2368(%rbp)
  403b72:	e9 00 00 00 00       	jmpq   403b77 <_Z12read_messageiRSt3mapINSt7__cxx1112basic_stringIcSt11char_traitsIcESaIcEEES5_St4lessIS5_ESaISt4pairIKS5_S5_EEERSt6vectorIhSaIhEE+0x1e7>
  403b77:	c7 85 18 ee ff ff 02 	movl   $0x2,-0x11e8(%rbp)
  403b7e:	00 00 00 
  403b81:	e9 46 01 00 00       	jmpq   403ccc <_Z12read_messageiRSt3mapINSt7__cxx1112basic_stringIcSt11char_traitsIcESaIcEEES5_St4lessIS5_ESaISt4pairIKS5_S5_EEERSt6vectorIhSaIhEE+0x33c>
  403b86:	b8 c8 ee 40 00       	mov    $0x40eec8,%eax
  403b8b:	89 c6                	mov    %eax,%esi
  403b8d:	48 8d bd 38 fe ff ff 	lea    -0x1c8(%rbp),%rdi
  403b94:	e8 17 2e 00 00       	callq  4069b0 <_ZSteqIcSt11char_traitsIcESaIcEEbRKNSt7__cxx1112basic_stringIT_T0_T1_EEPKS5_>
  403b99:	88 85 97 dc ff ff    	mov    %al,-0x2369(%rbp)
  403b9f:	e9 00 00 00 00       	jmpq   403ba4 <_Z12read_messageiRSt3mapINSt7__cxx1112basic_stringIcSt11char_traitsIcESaIcEEES5_St4lessIS5_ESaISt4pairIKS5_S5_EEERSt6vectorIhSaIhEE+0x214>
  403ba4:	8a 85 97 dc ff ff    	mov    -0x2369(%rbp),%al
  403baa:	a8 01                	test   $0x1,%al
  403bac:	0f 85 05 00 00 00    	jne    403bb7 <_Z12read_messageiRSt3mapINSt7__cxx1112basic_stringIcSt11char_traitsIcESaIcEEES5_St4lessIS5_ESaISt4pairIKS5_S5_EEERSt6vectorIhSaIhEE+0x227>
  403bb2:	e9 0f 00 00 00       	jmpq   403bc6 <_Z12read_messageiRSt3mapINSt7__cxx1112basic_stringIcSt11char_traitsIcESaIcEEES5_St4lessIS5_ESaISt4pairIKS5_S5_EEERSt6vectorIhSaIhEE+0x236>
  403bb7:	c7 85 18 ee ff ff 03 	movl   $0x3,-0x11e8(%rbp)
  403bbe:	00 00 00 
  403bc1:	e9 06 01 00 00       	jmpq   403ccc <_Z12read_messageiRSt3mapINSt7__cxx1112basic_stringIcSt11char_traitsIcESaIcEEES5_St4lessIS5_ESaISt4pairIKS5_S5_EEERSt6vectorIhSaIhEE+0x33c>
  403bc6:	31 c0                	xor    %eax,%eax
  403bc8:	89 c1                	mov    %eax,%ecx
  403bca:	48 8d 95 38 fe ff ff 	lea    -0x1c8(%rbp),%rdx
  403bd1:	be 3a 00 00 00       	mov    $0x3a,%esi
  403bd6:	48 89 d7             	mov    %rdx,%rdi
  403bd9:	48 89 95 88 dc ff ff 	mov    %rdx,-0x2378(%rbp)
  403be0:	48 89 ca             	mov    %rcx,%rdx
  403be3:	48 89 8d 80 dc ff ff 	mov    %rcx,-0x2380(%rbp)
  403bea:	e8 a1 f2 ff ff       	callq  402e90 <_ZNKSt7__cxx1112basic_stringIcSt11char_traitsIcESaIcEE4findEcm@plt>
  403bef:	48 89 85 10 ee ff ff 	mov    %rax,-0x11f0(%rbp)
  403bf6:	48 8d bd f0 ed ff ff 	lea    -0x1210(%rbp),%rdi
  403bfd:	48 8b b5 88 dc ff ff 	mov    -0x2378(%rbp),%rsi
  403c04:	48 8b 95 80 dc ff ff 	mov    -0x2380(%rbp),%rdx
  403c0b:	48 89 c1             	mov    %rax,%rcx
  403c0e:	e8 cd f1 ff ff       	callq  402de0 <_ZNKSt7__cxx1112basic_stringIcSt11char_traitsIcESaIcEE6substrEmm@plt>
  403c13:	e9 00 00 00 00       	jmpq   403c18 <_Z12read_messageiRSt3mapINSt7__cxx1112basic_stringIcSt11char_traitsIcESaIcEEES5_St4lessIS5_ESaISt4pairIKS5_S5_EEERSt6vectorIhSaIhEE+0x288>
  403c18:	48 8b 85 10 ee ff ff 	mov    -0x11f0(%rbp),%rax
  403c1f:	48 ff c0             	inc    %rax
  403c22:	48 8d 8d 38 fe ff ff 	lea    -0x1c8(%rbp),%rcx
  403c29:	48 89 cf             	mov    %rcx,%rdi
  403c2c:	48 89 85 78 dc ff ff 	mov    %rax,-0x2388(%rbp)
  403c33:	48 89 8d 70 dc ff ff 	mov    %rcx,-0x2390(%rbp)
  403c3a:	e8 11 f3 ff ff       	callq  402f50 <_ZNKSt7__cxx1112basic_stringIcSt11char_traitsIcESaIcEE6lengthEv@plt>
  403c3f:	48 8b 8d 10 ee ff ff 	mov    -0x11f0(%rbp),%rcx
  403c46:	48 29 c8             	sub    %rcx,%rax
  403c49:	48 83 c0 fe          	add    $0xfffffffffffffffe,%rax
  403c4d:	48 8d bd d0 ed ff ff 	lea    -0x1230(%rbp),%rdi
  403c54:	48 8b b5 70 dc ff ff 	mov    -0x2390(%rbp),%rsi
  403c5b:	48 8b 95 78 dc ff ff 	mov    -0x2388(%rbp),%rdx
  403c62:	48 89 c1             	mov    %rax,%rcx
  403c65:	e8 76 f1 ff ff       	callq  402de0 <_ZNKSt7__cxx1112basic_stringIcSt11char_traitsIcESaIcEE6substrEmm@plt>
  403c6a:	e9 00 00 00 00       	jmpq   403c6f <_Z12read_messageiRSt3mapINSt7__cxx1112basic_stringIcSt11char_traitsIcESaIcEEES5_St4lessIS5_ESaISt4pairIKS5_S5_EEERSt6vectorIhSaIhEE+0x2df>
  403c6f:	48 8b 7d f0          	mov    -0x10(%rbp),%rdi
  403c73:	48 8d b5 f0 ed ff ff 	lea    -0x1210(%rbp),%rsi
  403c7a:	e8 61 2d 00 00       	callq  4069e0 <_ZNSt3mapINSt7__cxx1112basic_stringIcSt11char_traitsIcESaIcEEES5_St4lessIS5_ESaISt4pairIKS5_S5_EEEixERS9_>
  403c7f:	48 89 85 68 dc ff ff 	mov    %rax,-0x2398(%rbp)
  403c86:	e9 00 00 00 00       	jmpq   403c8b <_Z12read_messageiRSt3mapINSt7__cxx1112basic_stringIcSt11char_traitsIcESaIcEEES5_St4lessIS5_ESaISt4pairIKS5_S5_EEERSt6vectorIhSaIhEE+0x2fb>
  403c8b:	48 8d b5 d0 ed ff ff 	lea    -0x1230(%rbp),%rsi
  403c92:	48 8b bd 68 dc ff ff 	mov    -0x2398(%rbp),%rdi
  403c99:	e8 e2 ed ff ff       	callq  402a80 <_ZNSt7__cxx1112basic_stringIcSt11char_traitsIcESaIcEEaSERKS4_@plt>
  403c9e:	48 89 85 60 dc ff ff 	mov    %rax,-0x23a0(%rbp)
  403ca5:	e9 00 00 00 00       	jmpq   403caa <_Z12read_messageiRSt3mapINSt7__cxx1112basic_stringIcSt11char_traitsIcESaIcEEES5_St4lessIS5_ESaISt4pairIKS5_S5_EEERSt6vectorIhSaIhEE+0x31a>
  403caa:	48 8d bd d0 ed ff ff 	lea    -0x1230(%rbp),%rdi
  403cb1:	e8 aa ef ff ff       	callq  402c60 <_ZNSt7__cxx1112basic_stringIcSt11char_traitsIcESaIcEED1Ev@plt>
  403cb6:	48 8d bd f0 ed ff ff 	lea    -0x1210(%rbp),%rdi
  403cbd:	e8 9e ef ff ff       	callq  402c60 <_ZNSt7__cxx1112basic_stringIcSt11char_traitsIcESaIcEED1Ev@plt>
  403cc2:	c7 85 18 ee ff ff 00 	movl   $0x0,-0x11e8(%rbp)
  403cc9:	00 00 00 
  403ccc:	48 8d bd 38 fe ff ff 	lea    -0x1c8(%rbp),%rdi
  403cd3:	e8 88 ef ff ff       	callq  402c60 <_ZNSt7__cxx1112basic_stringIcSt11char_traitsIcESaIcEED1Ev@plt>
  403cd8:	8b 85 18 ee ff ff    	mov    -0x11e8(%rbp),%eax
  403cde:	85 c0                	test   %eax,%eax
  403ce0:	89 85 5c dc ff ff    	mov    %eax,-0x23a4(%rbp)
  403ce6:	0f 84 39 00 00 00    	je     403d25 <_Z12read_messageiRSt3mapINSt7__cxx1112basic_stringIcSt11char_traitsIcESaIcEEES5_St4lessIS5_ESaISt4pairIKS5_S5_EEERSt6vectorIhSaIhEE+0x395>
  403cec:	e9 00 00 00 00       	jmpq   403cf1 <_Z12read_messageiRSt3mapINSt7__cxx1112basic_stringIcSt11char_traitsIcESaIcEEES5_St4lessIS5_ESaISt4pairIKS5_S5_EEERSt6vectorIhSaIhEE+0x361>
  403cf1:	8b 85 5c dc ff ff    	mov    -0x23a4(%rbp),%eax
  403cf7:	83 e8 02             	sub    $0x2,%eax
  403cfa:	89 85 58 dc ff ff    	mov    %eax,-0x23a8(%rbp)
  403d00:	0f 84 f6 fc ff ff    	je     4039fc <_Z12read_messageiRSt3mapINSt7__cxx1112basic_stringIcSt11char_traitsIcESaIcEEES5_St4lessIS5_ESaISt4pairIKS5_S5_EEERSt6vectorIhSaIhEE+0x6c>
  403d06:	e9 00 00 00 00       	jmpq   403d0b <_Z12read_messageiRSt3mapINSt7__cxx1112basic_stringIcSt11char_traitsIcESaIcEEES5_St4lessIS5_ESaISt4pairIKS5_S5_EEERSt6vectorIhSaIhEE+0x37b>
  403d0b:	8b 85 5c dc ff ff    	mov    -0x23a4(%rbp),%eax
  403d11:	83 e8 03             	sub    $0x3,%eax
  403d14:	89 85 54 dc ff ff    	mov    %eax,-0x23ac(%rbp)
  403d1a:	0f 84 56 00 00 00    	je     403d76 <_Z12read_messageiRSt3mapINSt7__cxx1112basic_stringIcSt11char_traitsIcESaIcEEES5_St4lessIS5_ESaISt4pairIKS5_S5_EEERSt6vectorIhSaIhEE+0x3e6>
  403d20:	e9 2d 05 00 00       	jmpq   404252 <_Z12read_messageiRSt3mapINSt7__cxx1112basic_stringIcSt11char_traitsIcESaIcEEES5_St4lessIS5_ESaISt4pairIKS5_S5_EEERSt6vectorIhSaIhEE+0x8c2>
  403d25:	e9 d2 fc ff ff       	jmpq   4039fc <_Z12read_messageiRSt3mapINSt7__cxx1112basic_stringIcSt11char_traitsIcESaIcEEES5_St4lessIS5_ESaISt4pairIKS5_S5_EEERSt6vectorIhSaIhEE+0x6c>
  403d2a:	89 d1                	mov    %edx,%ecx
  403d2c:	48 89 85 30 fe ff ff 	mov    %rax,-0x1d0(%rbp)
  403d33:	89 8d 2c fe ff ff    	mov    %ecx,-0x1d4(%rbp)
  403d39:	e9 1b 00 00 00       	jmpq   403d59 <_Z12read_messageiRSt3mapINSt7__cxx1112basic_stringIcSt11char_traitsIcESaIcEEES5_St4lessIS5_ESaISt4pairIKS5_S5_EEERSt6vectorIhSaIhEE+0x3c9>
  403d3e:	48 8d bd d0 ed ff ff 	lea    -0x1230(%rbp),%rdi
  403d45:	89 d1                	mov    %edx,%ecx
  403d47:	48 89 85 30 fe ff ff 	mov    %rax,-0x1d0(%rbp)
  403d4e:	89 8d 2c fe ff ff    	mov    %ecx,-0x1d4(%rbp)
  403d54:	e8 07 ef ff ff       	callq  402c60 <_ZNSt7__cxx1112basic_stringIcSt11char_traitsIcESaIcEED1Ev@plt>
  403d59:	48 8d bd f0 ed ff ff 	lea    -0x1210(%rbp),%rdi
  403d60:	e8 fb ee ff ff       	callq  402c60 <_ZNSt7__cxx1112basic_stringIcSt11char_traitsIcESaIcEED1Ev@plt>
  403d65:	48 8d bd 38 fe ff ff 	lea    -0x1c8(%rbp),%rdi
  403d6c:	e8 ef ee ff ff       	callq  402c60 <_ZNSt7__cxx1112basic_stringIcSt11char_traitsIcESaIcEED1Ev@plt>
  403d71:	e9 b8 04 00 00       	jmpq   40422e <_Z12read_messageiRSt3mapINSt7__cxx1112basic_stringIcSt11char_traitsIcESaIcEEES5_St4lessIS5_ESaISt4pairIKS5_S5_EEERSt6vectorIhSaIhEE+0x89e>
  403d76:	48 8b 7d f0          	mov    -0x10(%rbp),%rdi
  403d7a:	48 8d 85 a8 ed ff ff 	lea    -0x1258(%rbp),%rax
  403d81:	48 89 bd 48 dc ff ff 	mov    %rdi,-0x23b8(%rbp)
  403d88:	48 89 c7             	mov    %rax,%rdi
  403d8b:	48 89 85 40 dc ff ff 	mov    %rax,-0x23c0(%rbp)
  403d92:	e8 99 f2 ff ff       	callq  403030 <_ZNSaIcEC1Ev@plt>
  403d97:	b9 88 ee 40 00       	mov    $0x40ee88,%ecx
  403d9c:	89 ce                	mov    %ecx,%esi
  403d9e:	48 8d bd b0 ed ff ff 	lea    -0x1250(%rbp),%rdi
  403da5:	48 8b 95 40 dc ff ff 	mov    -0x23c0(%rbp),%rdx
  403dac:	e8 1f f1 ff ff       	callq  402ed0 <_ZNSt7__cxx1112basic_stringIcSt11char_traitsIcESaIcEEC1EPKcRKS3_@plt>
  403db1:	e9 00 00 00 00       	jmpq   403db6 <_Z12read_messageiRSt3mapINSt7__cxx1112basic_stringIcSt11char_traitsIcESaIcEEES5_St4lessIS5_ESaISt4pairIKS5_S5_EEERSt6vectorIhSaIhEE+0x426>
  403db6:	48 8d b5 b0 ed ff ff 	lea    -0x1250(%rbp),%rsi
  403dbd:	48 8b bd 48 dc ff ff 	mov    -0x23b8(%rbp),%rdi
  403dc4:	e8 07 2d 00 00       	callq  406ad0 <_ZNSt3mapINSt7__cxx1112basic_stringIcSt11char_traitsIcESaIcEEES5_St4lessIS5_ESaISt4pairIKS5_S5_EEE4findERS9_>
  403dc9:	48 89 85 38 dc ff ff 	mov    %rax,-0x23c8(%rbp)
  403dd0:	e9 00 00 00 00       	jmpq   403dd5 <_Z12read_messageiRSt3mapINSt7__cxx1112basic_stringIcSt11char_traitsIcESaIcEEES5_St4lessIS5_ESaISt4pairIKS5_S5_EEERSt6vectorIhSaIhEE+0x445>
  403dd5:	48 8b 85 38 dc ff ff 	mov    -0x23c8(%rbp),%rax
  403ddc:	48 89 85 a0 ed ff ff 	mov    %rax,-0x1260(%rbp)
  403de3:	48 8b 7d f0          	mov    -0x10(%rbp),%rdi
  403de7:	e8 94 2a 00 00       	callq  406880 <_ZNSt3mapINSt7__cxx1112basic_stringIcSt11char_traitsIcESaIcEEES5_St4lessIS5_ESaISt4pairIKS5_S5_EEE3endEv>
  403dec:	48 8d bd a0 ed ff ff 	lea    -0x1260(%rbp),%rdi
  403df3:	48 8d b5 98 ed ff ff 	lea    -0x1268(%rbp),%rsi
  403dfa:	48 89 85 98 ed ff ff 	mov    %rax,-0x1268(%rbp)
  403e01:	e8 aa 2a 00 00       	callq  4068b0 <_ZNKSt17_Rb_tree_iteratorISt4pairIKNSt7__cxx1112basic_stringIcSt11char_traitsIcESaIcEEES6_EEneERKS9_>
  403e06:	48 8d bd b0 ed ff ff 	lea    -0x1250(%rbp),%rdi
  403e0d:	88 85 37 dc ff ff    	mov    %al,-0x23c9(%rbp)
  403e13:	e8 48 ee ff ff       	callq  402c60 <_ZNSt7__cxx1112basic_stringIcSt11char_traitsIcESaIcEED1Ev@plt>
  403e18:	48 8d bd a8 ed ff ff 	lea    -0x1258(%rbp),%rdi
  403e1f:	e8 ec ef ff ff       	callq  402e10 <_ZNSaIcED1Ev@plt>
  403e24:	8a 85 37 dc ff ff    	mov    -0x23c9(%rbp),%al
  403e2a:	a8 01                	test   $0x1,%al
  403e2c:	0f 85 05 00 00 00    	jne    403e37 <_Z12read_messageiRSt3mapINSt7__cxx1112basic_stringIcSt11char_traitsIcESaIcEEES5_St4lessIS5_ESaISt4pairIKS5_S5_EEERSt6vectorIhSaIhEE+0x4a7>
  403e32:	e9 b1 03 00 00       	jmpq   4041e8 <_Z12read_messageiRSt3mapINSt7__cxx1112basic_stringIcSt11char_traitsIcESaIcEEES5_St4lessIS5_ESaISt4pairIKS5_S5_EEERSt6vectorIhSaIhEE+0x858>
  403e37:	48 8b 7d f0          	mov    -0x10(%rbp),%rdi
  403e3b:	48 8d 85 68 ed ff ff 	lea    -0x1298(%rbp),%rax
  403e42:	48 89 bd 28 dc ff ff 	mov    %rdi,-0x23d8(%rbp)
  403e49:	48 89 c7             	mov    %rax,%rdi
  403e4c:	48 89 85 20 dc ff ff 	mov    %rax,-0x23e0(%rbp)
  403e53:	e8 d8 f1 ff ff       	callq  403030 <_ZNSaIcEC1Ev@plt>
  403e58:	b9 88 ee 40 00       	mov    $0x40ee88,%ecx
  403e5d:	89 ce                	mov    %ecx,%esi
  403e5f:	48 8d bd 70 ed ff ff 	lea    -0x1290(%rbp),%rdi
  403e66:	48 8b 95 20 dc ff ff 	mov    -0x23e0(%rbp),%rdx
  403e6d:	e8 5e f0 ff ff       	callq  402ed0 <_ZNSt7__cxx1112basic_stringIcSt11char_traitsIcESaIcEEC1EPKcRKS3_@plt>
  403e72:	e9 00 00 00 00       	jmpq   403e77 <_Z12read_messageiRSt3mapINSt7__cxx1112basic_stringIcSt11char_traitsIcESaIcEEES5_St4lessIS5_ESaISt4pairIKS5_S5_EEERSt6vectorIhSaIhEE+0x4e7>
  403e77:	48 8d b5 70 ed ff ff 	lea    -0x1290(%rbp),%rsi
  403e7e:	48 8b bd 28 dc ff ff 	mov    -0x23d8(%rbp),%rdi
  403e85:	e8 86 28 00 00       	callq  406710 <_ZNSt3mapINSt7__cxx1112basic_stringIcSt11char_traitsIcESaIcEEES5_St4lessIS5_ESaISt4pairIKS5_S5_EEEixEOS5_>
  403e8a:	48 89 85 18 dc ff ff 	mov    %rax,-0x23e8(%rbp)
  403e91:	e9 00 00 00 00       	jmpq   403e96 <_Z12read_messageiRSt3mapINSt7__cxx1112basic_stringIcSt11char_traitsIcESaIcEEES5_St4lessIS5_ESaISt4pairIKS5_S5_EEERSt6vectorIhSaIhEE+0x506>
  403e96:	48 8b bd 18 dc ff ff 	mov    -0x23e8(%rbp),%rdi
  403e9d:	e8 2e ed ff ff       	callq  402bd0 <_ZNKSt7__cxx1112basic_stringIcSt11char_traitsIcESaIcEE5c_strEv@plt>
  403ea2:	48 89 c7             	mov    %rax,%rdi
  403ea5:	e8 b6 f0 ff ff       	callq  402f60 <atoi@plt>
  403eaa:	48 8d bd 70 ed ff ff 	lea    -0x1290(%rbp),%rdi
  403eb1:	89 85 14 dc ff ff    	mov    %eax,-0x23ec(%rbp)
  403eb7:	e8 a4 ed ff ff       	callq  402c60 <_ZNSt7__cxx1112basic_stringIcSt11char_traitsIcESaIcEED1Ev@plt>
  403ebc:	48 8d bd 68 ed ff ff 	lea    -0x1298(%rbp),%rdi
  403ec3:	e8 48 ef ff ff       	callq  402e10 <_ZNSaIcED1Ev@plt>
  403ec8:	8b 85 14 dc ff ff    	mov    -0x23ec(%rbp),%eax
  403ece:	89 85 94 ed ff ff    	mov    %eax,-0x126c(%rbp)
  403ed4:	48 8d bd 28 ed ff ff 	lea    -0x12d8(%rbp),%rdi
  403edb:	48 8d b5 60 fe ff ff 	lea    -0x1a0(%rbp),%rsi
  403ee2:	e8 b9 ee ff ff       	callq  402da0 <_ZNKSt7__cxx1118basic_stringstreamIcSt11char_traitsIcESaIcEE3strEv@plt>
  403ee7:	e9 00 00 00 00       	jmpq   403eec <_Z12read_messageiRSt3mapINSt7__cxx1112basic_stringIcSt11char_traitsIcESaIcEEES5_St4lessIS5_ESaISt4pairIKS5_S5_EEERSt6vectorIhSaIhEE+0x55c>
  403eec:	48 8d bd 60 fe ff ff 	lea    -0x1a0(%rbp),%rdi
  403ef3:	e8 08 f1 ff ff       	callq  403000 <_ZNSi5tellgEv@plt>
  403ef8:	48 89 95 08 dc ff ff 	mov    %rdx,-0x23f8(%rbp)
  403eff:	48 89 85 00 dc ff ff 	mov    %rax,-0x2400(%rbp)
  403f06:	e9 00 00 00 00       	jmpq   403f0b <_Z12read_messageiRSt3mapINSt7__cxx1112basic_stringIcSt11char_traitsIcESaIcEEES5_St4lessIS5_ESaISt4pairIKS5_S5_EEERSt6vectorIhSaIhEE+0x57b>
  403f0b:	48 8b 85 00 dc ff ff 	mov    -0x2400(%rbp),%rax
  403f12:	48 89 85 18 ed ff ff 	mov    %rax,-0x12e8(%rbp)
  403f19:	48 8b 8d 08 dc ff ff 	mov    -0x23f8(%rbp),%rcx
  403f20:	48 89 8d 20 ed ff ff 	mov    %rcx,-0x12e0(%rbp)
  403f27:	48 8d bd 18 ed ff ff 	lea    -0x12e8(%rbp),%rdi
  403f2e:	e8 cd 2b 00 00       	callq  406b00 <_ZNKSt4fposI11__mbstate_tEcvlEv>
  403f33:	48 89 85 f8 db ff ff 	mov    %rax,-0x2408(%rbp)
  403f3a:	e9 00 00 00 00       	jmpq   403f3f <_Z12read_messageiRSt3mapINSt7__cxx1112basic_stringIcSt11char_traitsIcESaIcEEES5_St4lessIS5_ESaISt4pairIKS5_S5_EEERSt6vectorIhSaIhEE+0x5af>
  403f3f:	48 8d bd 48 ed ff ff 	lea    -0x12b8(%rbp),%rdi
  403f46:	48 8d b5 28 ed ff ff 	lea    -0x12d8(%rbp),%rsi
  403f4d:	48 c7 c1 ff ff ff ff 	mov    $0xffffffffffffffff,%rcx
  403f54:	48 8b 95 f8 db ff ff 	mov    -0x2408(%rbp),%rdx
  403f5b:	e8 80 ee ff ff       	callq  402de0 <_ZNKSt7__cxx1112basic_stringIcSt11char_traitsIcESaIcEE6substrEmm@plt>
  403f60:	e9 00 00 00 00       	jmpq   403f65 <_Z12read_messageiRSt3mapINSt7__cxx1112basic_stringIcSt11char_traitsIcESaIcEEES5_St4lessIS5_ESaISt4pairIKS5_S5_EEERSt6vectorIhSaIhEE+0x5d5>
  403f65:	48 8d bd 28 ed ff ff 	lea    -0x12d8(%rbp),%rdi
  403f6c:	e8 ef ec ff ff       	callq  402c60 <_ZNSt7__cxx1112basic_stringIcSt11char_traitsIcESaIcEED1Ev@plt>
  403f71:	48 8b 7d e8          	mov    -0x18(%rbp),%rdi
  403f75:	48 89 bd f0 db ff ff 	mov    %rdi,-0x2410(%rbp)
  403f7c:	e8 3f 2c 00 00       	callq  406bc0 <_ZNSt6vectorIhSaIhEE3endEv>
  403f81:	48 89 85 08 ed ff ff 	mov    %rax,-0x12f8(%rbp)
  403f88:	48 8d bd 10 ed ff ff 	lea    -0x12f0(%rbp),%rdi
  403f8f:	48 8d b5 08 ed ff ff 	lea    -0x12f8(%rbp),%rsi
  403f96:	e8 65 2c 00 00       	callq  406c00 <_ZN9__gnu_cxx17__normal_iteratorIPKhSt6vectorIhSaIhEEEC2IPhEERKNS0_IT_NS_11__enable_ifIXsr3std10__are_sameIS9_S8_EE7__valueES5_E6__typeEEE>
  403f9b:	48 8d 85 48 ed ff ff 	lea    -0x12b8(%rbp),%rax
  403fa2:	48 89 c7             	mov    %rax,%rdi
  403fa5:	48 89 85 e8 db ff ff 	mov    %rax,-0x2418(%rbp)
  403fac:	e8 1f ec ff ff       	callq  402bd0 <_ZNKSt7__cxx1112basic_stringIcSt11char_traitsIcESaIcEE5c_strEv@plt>
  403fb1:	48 8b bd e8 db ff ff 	mov    -0x2418(%rbp),%rdi
  403fb8:	48 89 85 e0 db ff ff 	mov    %rax,-0x2420(%rbp)
  403fbf:	e8 0c ec ff ff       	callq  402bd0 <_ZNKSt7__cxx1112basic_stringIcSt11char_traitsIcESaIcEE5c_strEv@plt>
  403fc4:	48 8b bd e8 db ff ff 	mov    -0x2418(%rbp),%rdi
  403fcb:	48 89 85 d8 db ff ff 	mov    %rax,-0x2428(%rbp)
  403fd2:	e8 79 ef ff ff       	callq  402f50 <_ZNKSt7__cxx1112basic_stringIcSt11char_traitsIcESaIcEE6lengthEv@plt>
  403fd7:	48 8b b5 d8 db ff ff 	mov    -0x2428(%rbp),%rsi
  403fde:	48 01 c6             	add    %rax,%rsi
  403fe1:	48 8b 85 10 ed ff ff 	mov    -0x12f0(%rbp),%rax
  403fe8:	48 8b bd f0 db ff ff 	mov    -0x2410(%rbp),%rdi
  403fef:	48 89 b5 d0 db ff ff 	mov    %rsi,-0x2430(%rbp)
  403ff6:	48 89 c6             	mov    %rax,%rsi
  403ff9:	48 8b 95 e0 db ff ff 	mov    -0x2420(%rbp),%rdx
  404000:	48 8b 8d d0 db ff ff 	mov    -0x2430(%rbp),%rcx
  404007:	e8 14 2b 00 00       	callq  406b20 <_ZNSt6vectorIhSaIhEE6insertIPKcvEEN9__gnu_cxx17__normal_iteratorIPhS1_EENS6_IPKhS1_EET_SC_>
  40400c:	48 89 85 c8 db ff ff 	mov    %rax,-0x2438(%rbp)
  404013:	e9 00 00 00 00       	jmpq   404018 <_Z12read_messageiRSt3mapINSt7__cxx1112basic_stringIcSt11char_traitsIcESaIcEEES5_St4lessIS5_ESaISt4pairIKS5_S5_EEERSt6vectorIhSaIhEE+0x688>
  404018:	48 8b 85 c8 db ff ff 	mov    -0x2438(%rbp),%rax
  40401f:	48 89 85 00 ed ff ff 	mov    %rax,-0x1300(%rbp)
  404026:	48 8b 7d e8          	mov    -0x18(%rbp),%rdi
  40402a:	e8 11 2c 00 00       	callq  406c40 <_ZNKSt6vectorIhSaIhEE4sizeEv>
  40402f:	89 c1                	mov    %eax,%ecx
  404031:	3b 8d 94 ed ff ff    	cmp    -0x126c(%rbp),%ecx
  404037:	0f 8d 9f 01 00 00    	jge    4041dc <_Z12read_messageiRSt3mapINSt7__cxx1112basic_stringIcSt11char_traitsIcESaIcEEES5_St4lessIS5_ESaISt4pairIKS5_S5_EEERSt6vectorIhSaIhEE+0x84c>
  40403d:	8b 7d fc             	mov    -0x4(%rbp),%edi
  404040:	b8 00 10 00 00       	mov    $0x1000,%eax
  404045:	89 c2                	mov    %eax,%edx
  404047:	48 8d b5 00 dd ff ff 	lea    -0x2300(%rbp),%rsi
  40404e:	31 c9                	xor    %ecx,%ecx
  404050:	e8 2b eb ff ff       	callq  402b80 <recv@plt>
  404055:	48 89 85 c0 db ff ff 	mov    %rax,-0x2440(%rbp)
  40405c:	e9 00 00 00 00       	jmpq   404061 <_Z12read_messageiRSt3mapINSt7__cxx1112basic_stringIcSt11char_traitsIcESaIcEEES5_St4lessIS5_ESaISt4pairIKS5_S5_EEERSt6vectorIhSaIhEE+0x6d1>
  404061:	48 8b 85 c0 db ff ff 	mov    -0x2440(%rbp),%rax
  404068:	89 c1                	mov    %eax,%ecx
  40406a:	89 8d fc dc ff ff    	mov    %ecx,-0x2304(%rbp)
  404070:	83 bd fc dc ff ff ff 	cmpl   $0xffffffff,-0x2304(%rbp)
  404077:	0f 85 ea 00 00 00    	jne    404167 <_Z12read_messageiRSt3mapINSt7__cxx1112basic_stringIcSt11char_traitsIcESaIcEEES5_St4lessIS5_ESaISt4pairIKS5_S5_EEERSt6vectorIhSaIhEE+0x7d7>
  40407d:	b8 a8 ee 40 00       	mov    $0x40eea8,%eax
  404082:	89 c7                	mov    %eax,%edi
  404084:	e8 87 f1 ff ff       	callq  403210 <_Z5errorPKc>
  404089:	e9 00 00 00 00       	jmpq   40408e <_Z12read_messageiRSt3mapINSt7__cxx1112basic_stringIcSt11char_traitsIcESaIcEEES5_St4lessIS5_ESaISt4pairIKS5_S5_EEERSt6vectorIhSaIhEE+0x6fe>
  40408e:	e9 d4 00 00 00       	jmpq   404167 <_Z12read_messageiRSt3mapINSt7__cxx1112basic_stringIcSt11char_traitsIcESaIcEEES5_St4lessIS5_ESaISt4pairIKS5_S5_EEERSt6vectorIhSaIhEE+0x7d7>
  404093:	89 d1                	mov    %edx,%ecx
  404095:	48 89 85 30 fe ff ff 	mov    %rax,-0x1d0(%rbp)
  40409c:	89 8d 2c fe ff ff    	mov    %ecx,-0x1d4(%rbp)
  4040a2:	e9 1b 00 00 00       	jmpq   4040c2 <_Z12read_messageiRSt3mapINSt7__cxx1112basic_stringIcSt11char_traitsIcESaIcEEES5_St4lessIS5_ESaISt4pairIKS5_S5_EEERSt6vectorIhSaIhEE+0x732>
  4040a7:	48 8d bd b0 ed ff ff 	lea    -0x1250(%rbp),%rdi
  4040ae:	89 d1                	mov    %edx,%ecx
  4040b0:	48 89 85 30 fe ff ff 	mov    %rax,-0x1d0(%rbp)
  4040b7:	89 8d 2c fe ff ff    	mov    %ecx,-0x1d4(%rbp)
  4040bd:	e8 9e eb ff ff       	callq  402c60 <_ZNSt7__cxx1112basic_stringIcSt11char_traitsIcESaIcEED1Ev@plt>
  4040c2:	48 8d bd a8 ed ff ff 	lea    -0x1258(%rbp),%rdi
  4040c9:	e8 42 ed ff ff       	callq  402e10 <_ZNSaIcED1Ev@plt>
  4040ce:	e9 5b 01 00 00       	jmpq   40422e <_Z12read_messageiRSt3mapINSt7__cxx1112basic_stringIcSt11char_traitsIcESaIcEEES5_St4lessIS5_ESaISt4pairIKS5_S5_EEERSt6vectorIhSaIhEE+0x89e>
  4040d3:	89 d1                	mov    %edx,%ecx
  4040d5:	48 89 85 30 fe ff ff 	mov    %rax,-0x1d0(%rbp)
  4040dc:	89 8d 2c fe ff ff    	mov    %ecx,-0x1d4(%rbp)
  4040e2:	e9 1b 00 00 00       	jmpq   404102 <_Z12read_messageiRSt3mapINSt7__cxx1112basic_stringIcSt11char_traitsIcESaIcEEES5_St4lessIS5_ESaISt4pairIKS5_S5_EEERSt6vectorIhSaIhEE+0x772>
  4040e7:	48 8d bd 70 ed ff ff 	lea    -0x1290(%rbp),%rdi
  4040ee:	89 d1                	mov    %edx,%ecx
  4040f0:	48 89 85 30 fe ff ff 	mov    %rax,-0x1d0(%rbp)
  4040f7:	89 8d 2c fe ff ff    	mov    %ecx,-0x1d4(%rbp)
  4040fd:	e8 5e eb ff ff       	callq  402c60 <_ZNSt7__cxx1112basic_stringIcSt11char_traitsIcESaIcEED1Ev@plt>
  404102:	48 8d bd 68 ed ff ff 	lea    -0x1298(%rbp),%rdi
  404109:	e8 02 ed ff ff       	callq  402e10 <_ZNSaIcED1Ev@plt>
  40410e:	e9 1b 01 00 00       	jmpq   40422e <_Z12read_messageiRSt3mapINSt7__cxx1112basic_stringIcSt11char_traitsIcESaIcEEES5_St4lessIS5_ESaISt4pairIKS5_S5_EEERSt6vectorIhSaIhEE+0x89e>
  404113:	89 d1                	mov    %edx,%ecx
  404115:	48 89 85 30 fe ff ff 	mov    %rax,-0x1d0(%rbp)
  40411c:	89 8d 2c fe ff ff    	mov    %ecx,-0x1d4(%rbp)
  404122:	e9 07 01 00 00       	jmpq   40422e <_Z12read_messageiRSt3mapINSt7__cxx1112basic_stringIcSt11char_traitsIcESaIcEEES5_St4lessIS5_ESaISt4pairIKS5_S5_EEERSt6vectorIhSaIhEE+0x89e>
  404127:	48 8d bd 28 ed ff ff 	lea    -0x12d8(%rbp),%rdi
  40412e:	89 d1                	mov    %edx,%ecx
  404130:	48 89 85 30 fe ff ff 	mov    %rax,-0x1d0(%rbp)
  404137:	89 8d 2c fe ff ff    	mov    %ecx,-0x1d4(%rbp)
  40413d:	e8 1e eb ff ff       	callq  402c60 <_ZNSt7__cxx1112basic_stringIcSt11char_traitsIcESaIcEED1Ev@plt>
  404142:	e9 e7 00 00 00       	jmpq   40422e <_Z12read_messageiRSt3mapINSt7__cxx1112basic_stringIcSt11char_traitsIcESaIcEEES5_St4lessIS5_ESaISt4pairIKS5_S5_EEERSt6vectorIhSaIhEE+0x89e>
  404147:	48 8d bd 48 ed ff ff 	lea    -0x12b8(%rbp),%rdi
  40414e:	89 d1                	mov    %edx,%ecx
  404150:	48 89 85 30 fe ff ff 	mov    %rax,-0x1d0(%rbp)
  404157:	89 8d 2c fe ff ff    	mov    %ecx,-0x1d4(%rbp)
  40415d:	e8 fe ea ff ff       	callq  402c60 <_ZNSt7__cxx1112basic_stringIcSt11char_traitsIcESaIcEED1Ev@plt>
  404162:	e9 c7 00 00 00       	jmpq   40422e <_Z12read_messageiRSt3mapINSt7__cxx1112basic_stringIcSt11char_traitsIcESaIcEEES5_St4lessIS5_ESaISt4pairIKS5_S5_EEERSt6vectorIhSaIhEE+0x89e>
  404167:	48 8b 45 e8          	mov    -0x18(%rbp),%rax
  40416b:	48 89 c7             	mov    %rax,%rdi
  40416e:	48 89 85 b8 db ff ff 	mov    %rax,-0x2448(%rbp)
  404175:	e8 46 2a 00 00       	callq  406bc0 <_ZNSt6vectorIhSaIhEE3endEv>
  40417a:	48 89 85 e8 dc ff ff 	mov    %rax,-0x2318(%rbp)
  404181:	48 8d bd f0 dc ff ff 	lea    -0x2310(%rbp),%rdi
  404188:	48 8d b5 e8 dc ff ff 	lea    -0x2318(%rbp),%rsi
  40418f:	e8 6c 2a 00 00       	callq  406c00 <_ZN9__gnu_cxx17__normal_iteratorIPKhSt6vectorIhSaIhEEEC2IPhEERKNS0_IT_NS_11__enable_ifIXsr3std10__are_sameIS9_S8_EE7__valueES5_E6__typeEEE>
  404194:	48 63 85 fc dc ff ff 	movslq -0x2304(%rbp),%rax
  40419b:	48 8d 8c 05 00 dd ff 	lea    -0x2300(%rbp,%rax,1),%rcx
  4041a2:	ff 
  4041a3:	48 8b b5 f0 dc ff ff 	mov    -0x2310(%rbp),%rsi
  4041aa:	48 8d 95 00 dd ff ff 	lea    -0x2300(%rbp),%rdx
  4041b1:	48 8b bd b8 db ff ff 	mov    -0x2448(%rbp),%rdi
  4041b8:	e8 a3 2a 00 00       	callq  406c60 <_ZNSt6vectorIhSaIhEE6insertIPcvEEN9__gnu_cxx17__normal_iteratorIPhS1_EENS5_IPKhS1_EET_SB_>
  4041bd:	48 89 85 b0 db ff ff 	mov    %rax,-0x2450(%rbp)
  4041c4:	e9 00 00 00 00       	jmpq   4041c9 <_Z12read_messageiRSt3mapINSt7__cxx1112basic_stringIcSt11char_traitsIcESaIcEEES5_St4lessIS5_ESaISt4pairIKS5_S5_EEERSt6vectorIhSaIhEE+0x839>
  4041c9:	48 8b 85 b0 db ff ff 	mov    -0x2450(%rbp),%rax
  4041d0:	48 89 85 e0 dc ff ff 	mov    %rax,-0x2320(%rbp)
  4041d7:	e9 4a fe ff ff       	jmpq   404026 <_Z12read_messageiRSt3mapINSt7__cxx1112basic_stringIcSt11char_traitsIcESaIcEEES5_St4lessIS5_ESaISt4pairIKS5_S5_EEERSt6vectorIhSaIhEE+0x696>
  4041dc:	48 8d bd 48 ed ff ff 	lea    -0x12b8(%rbp),%rdi
  4041e3:	e8 78 ea ff ff       	callq  402c60 <_ZNSt7__cxx1112basic_stringIcSt11char_traitsIcESaIcEED1Ev@plt>
  4041e8:	c6 85 5f fe ff ff 01 	movb   $0x1,-0x1a1(%rbp)
  4041ef:	c7 85 18 ee ff ff 01 	movl   $0x1,-0x11e8(%rbp)
  4041f6:	00 00 00 
  4041f9:	f6 85 5f fe ff ff 01 	testb  $0x1,-0x1a1(%rbp)
  404200:	0f 85 0c 00 00 00    	jne    404212 <_Z12read_messageiRSt3mapINSt7__cxx1112basic_stringIcSt11char_traitsIcESaIcEEES5_St4lessIS5_ESaISt4pairIKS5_S5_EEERSt6vectorIhSaIhEE+0x882>
  404206:	48 8b bd d8 dc ff ff 	mov    -0x2328(%rbp),%rdi
  40420d:	e8 4e ea ff ff       	callq  402c60 <_ZNSt7__cxx1112basic_stringIcSt11char_traitsIcESaIcEED1Ev@plt>
  404212:	48 8d bd 60 fe ff ff 	lea    -0x1a0(%rbp),%rdi
  404219:	e8 e2 ea ff ff       	callq  402d00 <_ZNSt7__cxx1118basic_stringstreamIcSt11char_traitsIcESaIcEED1Ev@plt>
  40421e:	48 8b 85 d0 dc ff ff 	mov    -0x2330(%rbp),%rax
  404225:	48 81 c4 50 24 00 00 	add    $0x2450,%rsp
  40422c:	5d                   	pop    %rbp
  40422d:	c3                   	retq   
  40422e:	48 8b bd d8 dc ff ff 	mov    -0x2328(%rbp),%rdi
  404235:	e8 26 ea ff ff       	callq  402c60 <_ZNSt7__cxx1112basic_stringIcSt11char_traitsIcESaIcEED1Ev@plt>
  40423a:	48 8d bd 60 fe ff ff 	lea    -0x1a0(%rbp),%rdi
  404241:	e8 ba ea ff ff       	callq  402d00 <_ZNSt7__cxx1118basic_stringstreamIcSt11char_traitsIcESaIcEED1Ev@plt>
  404246:	48 8b bd 30 fe ff ff 	mov    -0x1d0(%rbp),%rdi
  40424d:	e8 ce ed ff ff       	callq  403020 <_Unwind_Resume@plt>
  404252:	66 66 66 66 66 2e 0f 	data16 data16 data16 data16 nopw %cs:0x0(%rax,%rax,1)
  404259:	1f 84 00 00 00 00 00 

0000000000404260 <_Z12read_requestiRSt3mapINSt7__cxx1112basic_stringIcSt11char_traitsIcESaIcEEES5_St4lessIS5_ESaISt4pairIKS5_S5_EEERSt6vectorIhSaIhEE>:
  404260:	55                   	push   %rbp
  404261:	48 89 e5             	mov    %rsp,%rbp
  404264:	48 81 ec 80 00 00 00 	sub    $0x80,%rsp
  40426b:	48 89 f8             	mov    %rdi,%rax
  40426e:	89 75 fc             	mov    %esi,-0x4(%rbp)
  404271:	48 89 55 f0          	mov    %rdx,-0x10(%rbp)
  404275:	48 89 4d e8          	mov    %rcx,-0x18(%rbp)
  404279:	8b 75 fc             	mov    -0x4(%rbp),%esi
  40427c:	48 8b 55 f0          	mov    -0x10(%rbp),%rdx
  404280:	4c 8d 45 c8          	lea    -0x38(%rbp),%r8
  404284:	48 89 7d a0          	mov    %rdi,-0x60(%rbp)
  404288:	4c 89 c7             	mov    %r8,%rdi
  40428b:	48 89 45 98          	mov    %rax,-0x68(%rbp)
  40428f:	4c 89 45 90          	mov    %r8,-0x70(%rbp)
  404293:	e8 f8 f6 ff ff       	callq  403990 <_Z12read_messageiRSt3mapINSt7__cxx1112basic_stringIcSt11char_traitsIcESaIcEEES5_St4lessIS5_ESaISt4pairIKS5_S5_EEERSt6vectorIhSaIhEE>
  404298:	31 f6                	xor    %esi,%esi
  40429a:	89 f2                	mov    %esi,%edx
  40429c:	be 20 00 00 00       	mov    $0x20,%esi
  4042a1:	48 8b 7d 90          	mov    -0x70(%rbp),%rdi
  4042a5:	89 75 8c             	mov    %esi,-0x74(%rbp)
  4042a8:	e8 e3 eb ff ff       	callq  402e90 <_ZNKSt7__cxx1112basic_stringIcSt11char_traitsIcESaIcEE4findEcm@plt>
  4042ad:	48 89 45 c0          	mov    %rax,-0x40(%rbp)
  4042b1:	48 c7 c2 ff ff ff ff 	mov    $0xffffffffffffffff,%rdx
  4042b8:	48 8b 7d 90          	mov    -0x70(%rbp),%rdi
  4042bc:	8b 75 8c             	mov    -0x74(%rbp),%esi
  4042bf:	e8 0c ee ff ff       	callq  4030d0 <_ZNKSt7__cxx1112basic_stringIcSt11char_traitsIcESaIcEE5rfindEcm@plt>
  4042c4:	48 89 45 b8          	mov    %rax,-0x48(%rbp)
  4042c8:	48 8b 4d c0          	mov    -0x40(%rbp),%rcx
  4042cc:	48 89 ca             	mov    %rcx,%rdx
  4042cf:	48 ff c2             	inc    %rdx
  4042d2:	48 29 c8             	sub    %rcx,%rax
  4042d5:	48 ff c8             	dec    %rax
  4042d8:	48 8b 7d a0          	mov    -0x60(%rbp),%rdi
  4042dc:	48 8b 75 90          	mov    -0x70(%rbp),%rsi
  4042e0:	48 89 c1             	mov    %rax,%rcx
  4042e3:	e8 f8 ea ff ff       	callq  402de0 <_ZNKSt7__cxx1112basic_stringIcSt11char_traitsIcESaIcEE6substrEmm@plt>
  4042e8:	e9 00 00 00 00       	jmpq   4042ed <_Z12read_requestiRSt3mapINSt7__cxx1112basic_stringIcSt11char_traitsIcESaIcEEES5_St4lessIS5_ESaISt4pairIKS5_S5_EEERSt6vectorIhSaIhEE+0x8d>
  4042ed:	48 8d 7d c8          	lea    -0x38(%rbp),%rdi
  4042f1:	e8 6a e9 ff ff       	callq  402c60 <_ZNSt7__cxx1112basic_stringIcSt11char_traitsIcESaIcEED1Ev@plt>
  4042f6:	48 8b 45 98          	mov    -0x68(%rbp),%rax
  4042fa:	48 81 c4 80 00 00 00 	add    $0x80,%rsp
  404301:	5d                   	pop    %rbp
  404302:	c3                   	retq   
  404303:	48 8d 7d c8          	lea    -0x38(%rbp),%rdi
  404307:	89 d1                	mov    %edx,%ecx
  404309:	48 89 45 b0          	mov    %rax,-0x50(%rbp)
  40430d:	89 4d ac             	mov    %ecx,-0x54(%rbp)
  404310:	e8 4b e9 ff ff       	callq  402c60 <_ZNSt7__cxx1112basic_stringIcSt11char_traitsIcESaIcEED1Ev@plt>
  404315:	48 8b 7d b0          	mov    -0x50(%rbp),%rdi
  404319:	e8 02 ed ff ff       	callq  403020 <_Unwind_Resume@plt>
  40431e:	66 90                	xchg   %ax,%ax

0000000000404320 <_Z13read_responseiRSt3mapINSt7__cxx1112basic_stringIcSt11char_traitsIcESaIcEEES5_St4lessIS5_ESaISt4pairIKS5_S5_EEERSt6vectorIhSaIhEE>:
  404320:	55                   	push   %rbp
  404321:	48 89 e5             	mov    %rsp,%rbp
  404324:	48 83 ec 50          	sub    $0x50,%rsp
  404328:	48 8d 45 c8          	lea    -0x38(%rbp),%rax
  40432c:	89 7d fc             	mov    %edi,-0x4(%rbp)
  40432f:	48 89 75 f0          	mov    %rsi,-0x10(%rbp)
  404333:	48 89 55 e8          	mov    %rdx,-0x18(%rbp)
  404337:	8b 75 fc             	mov    -0x4(%rbp),%esi
  40433a:	48 8b 55 f0          	mov    -0x10(%rbp),%rdx
  40433e:	48 8b 4d e8          	mov    -0x18(%rbp),%rcx
  404342:	48 89 c7             	mov    %rax,%rdi
  404345:	e8 46 f6 ff ff       	callq  403990 <_Z12read_messageiRSt3mapINSt7__cxx1112basic_stringIcSt11char_traitsIcESaIcEEES5_St4lessIS5_ESaISt4pairIKS5_S5_EEERSt6vectorIhSaIhEE>
  40434a:	48 8d 7d c8          	lea    -0x38(%rbp),%rdi
  40434e:	e8 7d e8 ff ff       	callq  402bd0 <_ZNKSt7__cxx1112basic_stringIcSt11char_traitsIcESaIcEE5c_strEv@plt>
  404353:	48 be ca ee 40 00 00 	movabs $0x40eeca,%rsi
  40435a:	00 00 00 
  40435d:	48 8d 55 c4          	lea    -0x3c(%rbp),%rdx
  404361:	48 89 c7             	mov    %rax,%rdi
  404364:	b0 00                	mov    $0x0,%al
  404366:	e8 65 e9 ff ff       	callq  402cd0 <sscanf@plt>
  40436b:	48 8d 7d c8          	lea    -0x38(%rbp),%rdi
  40436f:	44 8b 45 c4          	mov    -0x3c(%rbp),%r8d
  404373:	89 45 c0             	mov    %eax,-0x40(%rbp)
  404376:	44 89 45 bc          	mov    %r8d,-0x44(%rbp)
  40437a:	e8 e1 e8 ff ff       	callq  402c60 <_ZNSt7__cxx1112basic_stringIcSt11char_traitsIcESaIcEED1Ev@plt>
  40437f:	8b 45 bc             	mov    -0x44(%rbp),%eax
  404382:	48 83 c4 50          	add    $0x50,%rsp
  404386:	5d                   	pop    %rbp
  404387:	c3                   	retq   
  404388:	0f 1f 84 00 00 00 00 	nopl   0x0(%rax,%rax,1)
  40438f:	00 

0000000000404390 <_Z10run_serveriSt8functionIFviEE>:
  404390:	55                   	push   %rbp
  404391:	48 89 e5             	mov    %rsp,%rbp
  404394:	48 81 ec 70 01 00 00 	sub    $0x170,%rsp
  40439b:	b8 02 00 00 00       	mov    $0x2,%eax
  4043a0:	b9 01 00 00 00       	mov    $0x1,%ecx
  4043a5:	31 d2                	xor    %edx,%edx
  4043a7:	89 7d fc             	mov    %edi,-0x4(%rbp)
  4043aa:	89 c7                	mov    %eax,%edi
  4043ac:	48 89 b5 d0 fe ff ff 	mov    %rsi,-0x130(%rbp)
  4043b3:	89 ce                	mov    %ecx,%esi
  4043b5:	e8 56 e7 ff ff       	callq  402b10 <socket@plt>
  4043ba:	89 45 f8             	mov    %eax,-0x8(%rbp)
  4043bd:	83 7d f8 ff          	cmpl   $0xffffffff,-0x8(%rbp)
  4043c1:	0f 85 0f 00 00 00    	jne    4043d6 <_Z10run_serveriSt8functionIFviEE+0x46>
  4043c7:	48 bf a8 ee 40 00 00 	movabs $0x40eea8,%rdi
  4043ce:	00 00 00 
  4043d1:	e8 3a ee ff ff       	callq  403210 <_Z5errorPKc>
  4043d6:	be 01 00 00 00       	mov    $0x1,%esi
  4043db:	ba 02 00 00 00       	mov    $0x2,%edx
  4043e0:	41 b8 04 00 00 00    	mov    $0x4,%r8d
  4043e6:	48 8d 45 f4          	lea    -0xc(%rbp),%rax
  4043ea:	c7 45 f4 01 00 00 00 	movl   $0x1,-0xc(%rbp)
  4043f1:	8b 7d f8             	mov    -0x8(%rbp),%edi
  4043f4:	48 89 c1             	mov    %rax,%rcx
  4043f7:	e8 44 ec ff ff       	callq  403040 <setsockopt@plt>
  4043fc:	83 f8 00             	cmp    $0x0,%eax
  4043ff:	0f 8d 0f 00 00 00    	jge    404414 <_Z10run_serveriSt8functionIFviEE+0x84>
  404405:	48 bf a8 ee 40 00 00 	movabs $0x40eea8,%rdi
  40440c:	00 00 00 
  40440f:	e8 fc ed ff ff       	callq  403210 <_Z5errorPKc>
  404414:	48 bf d6 ee 40 00 00 	movabs $0x40eed6,%rdi
  40441b:	00 00 00 
  40441e:	66 c7 45 e0 02 00    	movw   $0x2,-0x20(%rbp)
  404424:	e8 97 e9 ff ff       	callq  402dc0 <inet_addr@plt>
  404429:	89 45 e4             	mov    %eax,-0x1c(%rbp)
  40442c:	8b 45 fc             	mov    -0x4(%rbp),%eax
  40442f:	66 89 c1             	mov    %ax,%cx
  404432:	0f b7 f9             	movzwl %cx,%edi
  404435:	e8 76 e6 ff ff       	callq  402ab0 <htons@plt>
  40443a:	ba 10 00 00 00       	mov    $0x10,%edx
  40443f:	48 8d 75 e0          	lea    -0x20(%rbp),%rsi
  404443:	66 89 45 e2          	mov    %ax,-0x1e(%rbp)
  404447:	8b 7d f8             	mov    -0x8(%rbp),%edi
  40444a:	e8 71 e6 ff ff       	callq  402ac0 <bind@plt>
  40444f:	83 f8 00             	cmp    $0x0,%eax
  404452:	0f 84 0f 00 00 00    	je     404467 <_Z10run_serveriSt8functionIFviEE+0xd7>
  404458:	48 bf a8 ee 40 00 00 	movabs $0x40eea8,%rdi
  40445f:	00 00 00 
  404462:	e8 a9 ed ff ff       	callq  403210 <_Z5errorPKc>
  404467:	be 0a 00 00 00       	mov    $0xa,%esi
  40446c:	8b 7d f8             	mov    -0x8(%rbp),%edi
  40446f:	e8 cc e9 ff ff       	callq  402e40 <listen@plt>
  404474:	83 f8 00             	cmp    $0x0,%eax
  404477:	0f 84 0f 00 00 00    	je     40448c <_Z10run_serveriSt8functionIFviEE+0xfc>
  40447d:	48 bf a8 ee 40 00 00 	movabs $0x40eea8,%rdi
  404484:	00 00 00 
  404487:	e8 84 ed ff ff       	callq  403210 <_Z5errorPKc>
  40448c:	48 8d 7d c8          	lea    -0x38(%rbp),%rdi
  404490:	e8 6b 28 00 00       	callq  406d00 <_ZNSt6vectorISt4pairISt6threadbESaIS2_EEC2Ev>
  404495:	48 8d 7d a0          	lea    -0x60(%rbp),%rdi
  404499:	e8 92 28 00 00       	callq  406d30 <_ZNSt5mutexC2Ev>
  40449e:	e9 00 00 00 00       	jmpq   4044a3 <_Z10run_serveriSt8functionIFviEE+0x113>
  4044a3:	c7 45 8c 10 00 00 00 	movl   $0x10,-0x74(%rbp)
  4044aa:	8b 7d f8             	mov    -0x8(%rbp),%edi
  4044ad:	48 8d 75 90          	lea    -0x70(%rbp),%rsi
  4044b1:	48 8d 55 8c          	lea    -0x74(%rbp),%rdx
  4044b5:	e8 b6 e6 ff ff       	callq  402b70 <accept@plt>
  4044ba:	89 85 cc fe ff ff    	mov    %eax,-0x134(%rbp)
  4044c0:	e9 00 00 00 00       	jmpq   4044c5 <_Z10run_serveriSt8functionIFviEE+0x135>
  4044c5:	8b 85 cc fe ff ff    	mov    -0x134(%rbp),%eax
  4044cb:	89 45 88             	mov    %eax,-0x78(%rbp)
  4044ce:	83 7d 88 00          	cmpl   $0x0,-0x78(%rbp)
  4044d2:	0f 8d 27 00 00 00    	jge    4044ff <_Z10run_serveriSt8functionIFviEE+0x16f>
  4044d8:	b8 a8 ee 40 00       	mov    $0x40eea8,%eax
  4044dd:	89 c7                	mov    %eax,%edi
  4044df:	e8 2c ed ff ff       	callq  403210 <_Z5errorPKc>
  4044e4:	e9 00 00 00 00       	jmpq   4044e9 <_Z10run_serveriSt8functionIFviEE+0x159>
  4044e9:	e9 11 00 00 00       	jmpq   4044ff <_Z10run_serveriSt8functionIFviEE+0x16f>
  4044ee:	89 d1                	mov    %edx,%ecx
  4044f0:	48 89 45 80          	mov    %rax,-0x80(%rbp)
  4044f4:	89 8d 7c ff ff ff    	mov    %ecx,-0x84(%rbp)
  4044fa:	e9 3e 02 00 00       	jmpq   40473d <_Z10run_serveriSt8functionIFviEE+0x3ad>
  4044ff:	48 8d bd 70 ff ff ff 	lea    -0x90(%rbp),%rdi
  404506:	48 8d 75 a0          	lea    -0x60(%rbp),%rsi
  40450a:	e8 41 28 00 00       	callq  406d50 <_ZNSt10lock_guardISt5mutexEC2ERS0_>
  40450f:	e9 00 00 00 00       	jmpq   404514 <_Z10run_serveriSt8functionIFviEE+0x184>
  404514:	8b 45 88             	mov    -0x78(%rbp),%eax
  404517:	89 85 48 ff ff ff    	mov    %eax,-0xb8(%rbp)
  40451d:	48 8d 4d c8          	lea    -0x38(%rbp),%rcx
  404521:	48 89 8d 50 ff ff ff 	mov    %rcx,-0xb0(%rbp)
  404528:	48 8b 95 d0 fe ff ff 	mov    -0x130(%rbp),%rdx
  40452f:	48 89 95 58 ff ff ff 	mov    %rdx,-0xa8(%rbp)
  404536:	48 8d 75 a0          	lea    -0x60(%rbp),%rsi
  40453a:	48 89 b5 60 ff ff ff 	mov    %rsi,-0xa0(%rbp)
  404541:	48 8d bd 48 ff ff ff 	lea    -0xb8(%rbp),%rdi
  404548:	48 89 8d c0 fe ff ff 	mov    %rcx,-0x140(%rbp)
  40454f:	e8 cc 02 00 00       	callq  404820 <_ZSt16forward_as_tupleIJZ10run_serveriSt8functionIFviEEE3$_0EESt5tupleIJDpOT_EES7_>
  404554:	48 89 85 68 ff ff ff 	mov    %rax,-0x98(%rbp)
  40455b:	c6 85 3f ff ff ff 00 	movb   $0x0,-0xc1(%rbp)
  404562:	48 8d bd 3f ff ff ff 	lea    -0xc1(%rbp),%rdi
  404569:	e8 12 28 00 00       	callq  406d80 <_ZSt16forward_as_tupleIJbEESt5tupleIJDpOT_EES3_>
  40456e:	48 89 85 40 ff ff ff 	mov    %rax,-0xc0(%rbp)
  404575:	41 b8 00 ed 40 00    	mov    $0x40ed00,%r8d
  40457b:	44 89 c6             	mov    %r8d,%esi
  40457e:	48 8d 95 68 ff ff ff 	lea    -0x98(%rbp),%rdx
  404585:	48 8d 8d 40 ff ff ff 	lea    -0xc0(%rbp),%rcx
  40458c:	48 8b bd c0 fe ff ff 	mov    -0x140(%rbp),%rdi
  404593:	e8 b8 01 00 00       	callq  404750 <_ZNSt6vectorISt4pairISt6threadbESaIS2_EE12emplace_backIJRKSt21piecewise_construct_tSt5tupleIJOZ10run_serveriSt8functionIFviEEE3$_0EES9_IJObEEEEEvDpOT_>
  404598:	e9 00 00 00 00       	jmpq   40459d <_Z10run_serveriSt8functionIFviEE+0x20d>
  40459d:	48 8d 45 c8          	lea    -0x38(%rbp),%rax
  4045a1:	48 89 85 30 ff ff ff 	mov    %rax,-0xd0(%rbp)
  4045a8:	48 8b bd 30 ff ff ff 	mov    -0xd0(%rbp),%rdi
  4045af:	e8 0c 28 00 00       	callq  406dc0 <_ZNSt6vectorISt4pairISt6threadbESaIS2_EE5beginEv>
  4045b4:	48 89 85 28 ff ff ff 	mov    %rax,-0xd8(%rbp)
  4045bb:	48 8b bd 30 ff ff ff 	mov    -0xd0(%rbp),%rdi
  4045c2:	e8 29 28 00 00       	callq  406df0 <_ZNSt6vectorISt4pairISt6threadbESaIS2_EE3endEv>
  4045c7:	48 89 85 20 ff ff ff 	mov    %rax,-0xe0(%rbp)
  4045ce:	48 8d bd 28 ff ff ff 	lea    -0xd8(%rbp),%rdi
  4045d5:	48 8d b5 20 ff ff ff 	lea    -0xe0(%rbp),%rsi
  4045dc:	e8 4f 28 00 00       	callq  406e30 <_ZN9__gnu_cxxneIPSt4pairISt6threadbESt6vectorIS3_SaIS3_EEEEbRKNS_17__normal_iteratorIT_T0_EESD_>
  4045e1:	a8 01                	test   $0x1,%al
  4045e3:	0f 85 05 00 00 00    	jne    4045ee <_Z10run_serveriSt8functionIFviEE+0x25e>
  4045e9:	e9 74 00 00 00       	jmpq   404662 <_Z10run_serveriSt8functionIFviEE+0x2d2>
  4045ee:	48 8d bd 28 ff ff ff 	lea    -0xd8(%rbp),%rdi
  4045f5:	e8 76 28 00 00       	callq  406e70 <_ZNK9__gnu_cxx17__normal_iteratorIPSt4pairISt6threadbESt6vectorIS3_SaIS3_EEEdeEv>
  4045fa:	48 89 85 18 ff ff ff 	mov    %rax,-0xe8(%rbp)
  404601:	48 8b 85 18 ff ff ff 	mov    -0xe8(%rbp),%rax
  404608:	f6 40 08 01          	testb  $0x1,0x8(%rax)
  40460c:	0f 84 33 00 00 00    	je     404645 <_Z10run_serveriSt8functionIFviEE+0x2b5>
  404612:	48 8b bd 18 ff ff ff 	mov    -0xe8(%rbp),%rdi
  404619:	e8 c2 e9 ff ff       	callq  402fe0 <_ZNSt6thread4joinEv@plt>
  40461e:	e9 00 00 00 00       	jmpq   404623 <_Z10run_serveriSt8functionIFviEE+0x293>
  404623:	e9 1d 00 00 00       	jmpq   404645 <_Z10run_serveriSt8functionIFviEE+0x2b5>
  404628:	48 8d bd 70 ff ff ff 	lea    -0x90(%rbp),%rdi
  40462f:	89 d1                	mov    %edx,%ecx
  404631:	48 89 45 80          	mov    %rax,-0x80(%rbp)
  404635:	89 8d 7c ff ff ff    	mov    %ecx,-0x84(%rbp)
  40463b:	e8 40 29 00 00       	callq  406f80 <_ZNSt10lock_guardISt5mutexED2Ev>
  404640:	e9 f8 00 00 00       	jmpq   40473d <_Z10run_serveriSt8functionIFviEE+0x3ad>
  404645:	e9 00 00 00 00       	jmpq   40464a <_Z10run_serveriSt8functionIFviEE+0x2ba>
  40464a:	48 8d bd 28 ff ff ff 	lea    -0xd8(%rbp),%rdi
  404651:	e8 3a 28 00 00       	callq  406e90 <_ZN9__gnu_cxx17__normal_iteratorIPSt4pairISt6threadbESt6vectorIS3_SaIS3_EEEppEv>
  404656:	48 89 85 b8 fe ff ff 	mov    %rax,-0x148(%rbp)
  40465d:	e9 6c ff ff ff       	jmpq   4045ce <_Z10run_serveriSt8functionIFviEE+0x23e>
  404662:	48 8d 45 c8          	lea    -0x38(%rbp),%rax
  404666:	48 89 c7             	mov    %rax,%rdi
  404669:	48 89 85 b0 fe ff ff 	mov    %rax,-0x150(%rbp)
  404670:	e8 4b 27 00 00       	callq  406dc0 <_ZNSt6vectorISt4pairISt6threadbESaIS2_EE5beginEv>
  404675:	48 89 85 00 ff ff ff 	mov    %rax,-0x100(%rbp)
  40467c:	48 8b bd b0 fe ff ff 	mov    -0x150(%rbp),%rdi
  404683:	e8 68 27 00 00       	callq  406df0 <_ZNSt6vectorISt4pairISt6threadbESaIS2_EE3endEv>
  404688:	48 89 85 f8 fe ff ff 	mov    %rax,-0x108(%rbp)
  40468f:	48 8b bd 00 ff ff ff 	mov    -0x100(%rbp),%rdi
  404696:	48 89 c6             	mov    %rax,%rsi
  404699:	e8 c2 01 00 00       	callq  404860 <_ZSt9remove_ifIN9__gnu_cxx17__normal_iteratorIPSt4pairISt6threadbESt6vectorIS4_SaIS4_EEEEZ10run_serveriSt8functionIFviEEE3$_1ET_SE_SE_T0_>
  40469e:	48 89 85 a8 fe ff ff 	mov    %rax,-0x158(%rbp)
  4046a5:	e9 00 00 00 00       	jmpq   4046aa <_Z10run_serveriSt8functionIFviEE+0x31a>
  4046aa:	48 8b 85 a8 fe ff ff 	mov    -0x158(%rbp),%rax
  4046b1:	48 89 85 08 ff ff ff 	mov    %rax,-0xf8(%rbp)
  4046b8:	48 8d bd 10 ff ff ff 	lea    -0xf0(%rbp),%rdi
  4046bf:	48 8d b5 08 ff ff ff 	lea    -0xf8(%rbp),%rsi
  4046c6:	e8 75 28 00 00       	callq  406f40 <_ZN9__gnu_cxx17__normal_iteratorIPKSt4pairISt6threadbESt6vectorIS3_SaIS3_EEEC2IPS3_EERKNS0_IT_NS_11__enable_ifIXsr3std10__are_sameISC_SB_EE7__valueES8_E6__typeEEE>
  4046cb:	48 8d 45 c8          	lea    -0x38(%rbp),%rax
  4046cf:	48 89 c7             	mov    %rax,%rdi
  4046d2:	48 89 85 a0 fe ff ff 	mov    %rax,-0x160(%rbp)
  4046d9:	e8 12 27 00 00       	callq  406df0 <_ZNSt6vectorISt4pairISt6threadbESaIS2_EE3endEv>
  4046de:	48 89 85 e0 fe ff ff 	mov    %rax,-0x120(%rbp)
  4046e5:	48 8d bd e8 fe ff ff 	lea    -0x118(%rbp),%rdi
  4046ec:	48 8d b5 e0 fe ff ff 	lea    -0x120(%rbp),%rsi
  4046f3:	e8 48 28 00 00       	callq  406f40 <_ZN9__gnu_cxx17__normal_iteratorIPKSt4pairISt6threadbESt6vectorIS3_SaIS3_EEEC2IPS3_EERKNS0_IT_NS_11__enable_ifIXsr3std10__are_sameISC_SB_EE7__valueES8_E6__typeEEE>
  4046f8:	48 8b b5 10 ff ff ff 	mov    -0xf0(%rbp),%rsi
  4046ff:	48 8b 95 e8 fe ff ff 	mov    -0x118(%rbp),%rdx
  404706:	48 8b bd a0 fe ff ff 	mov    -0x160(%rbp),%rdi
  40470d:	e8 9e 27 00 00       	callq  406eb0 <_ZNSt6vectorISt4pairISt6threadbESaIS2_EE5eraseEN9__gnu_cxx17__normal_iteratorIPKS2_S4_EES9_>
  404712:	48 89 85 98 fe ff ff 	mov    %rax,-0x168(%rbp)
  404719:	e9 00 00 00 00       	jmpq   40471e <_Z10run_serveriSt8functionIFviEE+0x38e>
  40471e:	48 8d bd 70 ff ff ff 	lea    -0x90(%rbp),%rdi
  404725:	48 8b 85 98 fe ff ff 	mov    -0x168(%rbp),%rax
  40472c:	48 89 85 d8 fe ff ff 	mov    %rax,-0x128(%rbp)
  404733:	e8 48 28 00 00       	callq  406f80 <_ZNSt10lock_guardISt5mutexED2Ev>
  404738:	e9 61 fd ff ff       	jmpq   40449e <_Z10run_serveriSt8functionIFviEE+0x10e>
  40473d:	48 8d 7d c8          	lea    -0x38(%rbp),%rdi
  404741:	e8 6a 28 00 00       	callq  406fb0 <_ZNSt6vectorISt4pairISt6threadbESaIS2_EED2Ev>
  404746:	48 8b 7d 80          	mov    -0x80(%rbp),%rdi
  40474a:	e8 d1 e8 ff ff       	callq  403020 <_Unwind_Resume@plt>
  40474f:	90                   	nop

0000000000404750 <_ZNSt6vectorISt4pairISt6threadbESaIS2_EE12emplace_backIJRKSt21piecewise_construct_tSt5tupleIJOZ10run_serveriSt8functionIFviEEE3$_0EES9_IJObEEEEEvDpOT_>:
  404750:	55                   	push   %rbp
  404751:	48 89 e5             	mov    %rsp,%rbp
  404754:	48 83 ec 60          	sub    $0x60,%rsp
  404758:	48 89 7d f8          	mov    %rdi,-0x8(%rbp)
  40475c:	48 89 75 f0          	mov    %rsi,-0x10(%rbp)
  404760:	48 89 55 e8          	mov    %rdx,-0x18(%rbp)
  404764:	48 89 4d e0          	mov    %rcx,-0x20(%rbp)
  404768:	48 8b 4d f8          	mov    -0x8(%rbp),%rcx
  40476c:	48 8b 51 08          	mov    0x8(%rcx),%rdx
  404770:	48 3b 51 10          	cmp    0x10(%rcx),%rdx
  404774:	48 89 4d d8          	mov    %rcx,-0x28(%rbp)
  404778:	0f 84 64 00 00 00    	je     4047e2 <_ZNSt6vectorISt4pairISt6threadbESaIS2_EE12emplace_backIJRKSt21piecewise_construct_tSt5tupleIJOZ10run_serveriSt8functionIFviEEE3$_0EES9_IJObEEEEEvDpOT_+0x92>
  40477e:	48 8b 45 d8          	mov    -0x28(%rbp),%rax
  404782:	48 8b 4d d8          	mov    -0x28(%rbp),%rcx
  404786:	48 8b 71 08          	mov    0x8(%rcx),%rsi
  40478a:	48 8b 7d f0          	mov    -0x10(%rbp),%rdi
  40478e:	48 89 45 d0          	mov    %rax,-0x30(%rbp)
  404792:	48 89 75 c8          	mov    %rsi,-0x38(%rbp)
  404796:	e8 75 33 00 00       	callq  407b10 <_ZSt7forwardIRKSt21piecewise_construct_tEOT_RNSt16remove_referenceIS3_E4typeE>
  40479b:	48 8b 7d e8          	mov    -0x18(%rbp),%rdi
  40479f:	48 89 45 c0          	mov    %rax,-0x40(%rbp)
  4047a3:	e8 f8 02 00 00       	callq  404aa0 <_ZSt7forwardISt5tupleIJOZ10run_serveriSt8functionIFviEEE3$_0EEEOT_RNSt16remove_referenceIS7_E4typeE>
  4047a8:	48 8b 7d e0          	mov    -0x20(%rbp),%rdi
  4047ac:	48 89 45 b8          	mov    %rax,-0x48(%rbp)
  4047b0:	e8 cb 6d 00 00       	callq  40b580 <_ZSt7forwardISt5tupleIJObEEEOT_RNSt16remove_referenceIS3_E4typeE>
  4047b5:	48 8b 7d d0          	mov    -0x30(%rbp),%rdi
  4047b9:	48 8b 75 c8          	mov    -0x38(%rbp),%rsi
  4047bd:	48 8b 55 c0          	mov    -0x40(%rbp),%rdx
  4047c1:	48 8b 4d b8          	mov    -0x48(%rbp),%rcx
  4047c5:	49 89 c0             	mov    %rax,%r8
  4047c8:	e8 63 02 00 00       	callq  404a30 <_ZNSt16allocator_traitsISaISt4pairISt6threadbEEE9constructIS2_JRKSt21piecewise_construct_tSt5tupleIJOZ10run_serveriSt8functionIFviEEE3$_0EES9_IJObEEEEEvRS3_PT_DpOT0_>
  4047cd:	48 8b 45 d8          	mov    -0x28(%rbp),%rax
  4047d1:	48 8b 48 08          	mov    0x8(%rax),%rcx
  4047d5:	48 83 c1 10          	add    $0x10,%rcx
  4047d9:	48 89 48 08          	mov    %rcx,0x8(%rax)
  4047dd:	e9 37 00 00 00       	jmpq   404819 <_ZNSt6vectorISt4pairISt6threadbESaIS2_EE12emplace_backIJRKSt21piecewise_construct_tSt5tupleIJOZ10run_serveriSt8functionIFviEEE3$_0EES9_IJObEEEEEvDpOT_+0xc9>
  4047e2:	48 8b 7d f0          	mov    -0x10(%rbp),%rdi
  4047e6:	e8 25 33 00 00       	callq  407b10 <_ZSt7forwardIRKSt21piecewise_construct_tEOT_RNSt16remove_referenceIS3_E4typeE>
  4047eb:	48 8b 7d e8          	mov    -0x18(%rbp),%rdi
  4047ef:	48 89 45 b0          	mov    %rax,-0x50(%rbp)
  4047f3:	e8 a8 02 00 00       	callq  404aa0 <_ZSt7forwardISt5tupleIJOZ10run_serveriSt8functionIFviEEE3$_0EEEOT_RNSt16remove_referenceIS7_E4typeE>
  4047f8:	48 8b 7d e0          	mov    -0x20(%rbp),%rdi
  4047fc:	48 89 45 a8          	mov    %rax,-0x58(%rbp)
  404800:	e8 7b 6d 00 00       	callq  40b580 <_ZSt7forwardISt5tupleIJObEEEOT_RNSt16remove_referenceIS3_E4typeE>
  404805:	48 8b 7d d8          	mov    -0x28(%rbp),%rdi
  404809:	48 8b 75 b0          	mov    -0x50(%rbp),%rsi
  40480d:	48 8b 55 a8          	mov    -0x58(%rbp),%rdx
  404811:	48 89 c1             	mov    %rax,%rcx
  404814:	e8 97 02 00 00       	callq  404ab0 <_ZNSt6vectorISt4pairISt6threadbESaIS2_EE19_M_emplace_back_auxIJRKSt21piecewise_construct_tSt5tupleIJOZ10run_serveriSt8functionIFviEEE3$_0EES9_IJObEEEEEvDpOT_>
  404819:	48 83 c4 60          	add    $0x60,%rsp
  40481d:	5d                   	pop    %rbp
  40481e:	c3                   	retq   
  40481f:	90                   	nop

0000000000404820 <_ZSt16forward_as_tupleIJZ10run_serveriSt8functionIFviEEE3$_0EESt5tupleIJDpOT_EES7_>:
  404820:	55                   	push   %rbp
  404821:	48 89 e5             	mov    %rsp,%rbp
  404824:	48 83 ec 20          	sub    $0x20,%rsp
  404828:	48 89 7d f0          	mov    %rdi,-0x10(%rbp)
  40482c:	e8 3f 01 00 00       	callq  404970 <_ZSt7forwardIZ10run_serveriSt8functionIFviEEE3$_0EOT_RNSt16remove_referenceIS4_E4typeE>
  404831:	48 8d 7d f8          	lea    -0x8(%rbp),%rdi
  404835:	48 89 c6             	mov    %rax,%rsi
  404838:	e8 43 01 00 00       	callq  404980 <_ZNSt5tupleIJOZ10run_serveriSt8functionIFviEEE3$_0EEC2IJS3_EvEEDpOT_>
  40483d:	e9 00 00 00 00       	jmpq   404842 <_ZSt16forward_as_tupleIJZ10run_serveriSt8functionIFviEEE3$_0EESt5tupleIJDpOT_EES7_+0x22>
  404842:	48 8b 45 f8          	mov    -0x8(%rbp),%rax
  404846:	48 83 c4 20          	add    $0x20,%rsp
  40484a:	5d                   	pop    %rbp
  40484b:	c3                   	retq   
  40484c:	89 d1                	mov    %edx,%ecx
  40484e:	48 89 c7             	mov    %rax,%rdi
  404851:	89 4d ec             	mov    %ecx,-0x14(%rbp)
  404854:	e8 67 2c 00 00       	callq  4074c0 <__clang_call_terminate>
  404859:	0f 1f 80 00 00 00 00 	nopl   0x0(%rax)

0000000000404860 <_ZSt9remove_ifIN9__gnu_cxx17__normal_iteratorIPSt4pairISt6threadbESt6vectorIS4_SaIS4_EEEEZ10run_serveriSt8functionIFviEEE3$_1ET_SE_SE_T0_>:
  404860:	55                   	push   %rbp
  404861:	48 89 e5             	mov    %rsp,%rbp
  404864:	48 83 ec 50          	sub    $0x50,%rsp
  404868:	48 89 7d f0          	mov    %rdi,-0x10(%rbp)
  40486c:	48 89 75 e8          	mov    %rsi,-0x18(%rbp)
  404870:	48 8b 75 f0          	mov    -0x10(%rbp),%rsi
  404874:	48 89 75 d8          	mov    %rsi,-0x28(%rbp)
  404878:	48 8b 75 e8          	mov    -0x18(%rbp),%rsi
  40487c:	48 89 75 d0          	mov    %rsi,-0x30(%rbp)
  404880:	e8 0b 1b 00 00       	callq  406390 <_ZN9__gnu_cxx5__ops11__pred_iterIZ10run_serveriSt8functionIFviEEE3$_1EENS0_10_Iter_predIT_EES7_>
  404885:	48 8b 7d d8          	mov    -0x28(%rbp),%rdi
  404889:	48 8b 75 d0          	mov    -0x30(%rbp),%rsi
  40488d:	e8 de 19 00 00       	callq  406270 <_ZSt11__remove_ifIN9__gnu_cxx17__normal_iteratorIPSt4pairISt6threadbESt6vectorIS4_SaIS4_EEEENS0_5__ops10_Iter_predIZ10run_serveriSt8functionIFviEEE3$_1EEET_SH_SH_T0_>
  404892:	48 89 45 f8          	mov    %rax,-0x8(%rbp)
  404896:	48 8b 45 f8          	mov    -0x8(%rbp),%rax
  40489a:	48 83 c4 50          	add    $0x50,%rsp
  40489e:	5d                   	pop    %rbp
  40489f:	c3                   	retq   

00000000004048a0 <_ZL15__gthread_equalmm>:
  4048a0:	55                   	push   %rbp
  4048a1:	48 89 e5             	mov    %rsp,%rbp
  4048a4:	48 83 ec 10          	sub    $0x10,%rsp
  4048a8:	48 89 7d f8          	mov    %rdi,-0x8(%rbp)
  4048ac:	48 89 75 f0          	mov    %rsi,-0x10(%rbp)
  4048b0:	48 8b 7d f8          	mov    -0x8(%rbp),%rdi
  4048b4:	48 8b 75 f0          	mov    -0x10(%rbp),%rsi
  4048b8:	e8 53 e7 ff ff       	callq  403010 <pthread_equal@plt>
  4048bd:	48 83 c4 10          	add    $0x10,%rsp
  4048c1:	5d                   	pop    %rbp
  4048c2:	c3                   	retq   
  4048c3:	66 66 66 66 2e 0f 1f 	data16 data16 data16 nopw %cs:0x0(%rax,%rax,1)
  4048ca:	84 00 00 00 00 00 

00000000004048d0 <_ZL20__gthread_mutex_lockP15pthread_mutex_t>:
  4048d0:	55                   	push   %rbp
  4048d1:	48 89 e5             	mov    %rsp,%rbp
  4048d4:	48 83 ec 10          	sub    $0x10,%rsp
  4048d8:	48 89 7d f0          	mov    %rdi,-0x10(%rbp)
  4048dc:	e8 2f 00 00 00       	callq  404910 <_ZL18__gthread_active_pv>
  4048e1:	83 f8 00             	cmp    $0x0,%eax
  4048e4:	0f 84 11 00 00 00    	je     4048fb <_ZL20__gthread_mutex_lockP15pthread_mutex_t+0x2b>
  4048ea:	48 8b 7d f0          	mov    -0x10(%rbp),%rdi
  4048ee:	e8 3d e6 ff ff       	callq  402f30 <pthread_mutex_lock@plt>
  4048f3:	89 45 fc             	mov    %eax,-0x4(%rbp)
  4048f6:	e9 07 00 00 00       	jmpq   404902 <_ZL20__gthread_mutex_lockP15pthread_mutex_t+0x32>
  4048fb:	c7 45 fc 00 00 00 00 	movl   $0x0,-0x4(%rbp)
  404902:	8b 45 fc             	mov    -0x4(%rbp),%eax
  404905:	48 83 c4 10          	add    $0x10,%rsp
  404909:	5d                   	pop    %rbp
  40490a:	c3                   	retq   
  40490b:	0f 1f 44 00 00       	nopl   0x0(%rax,%rax,1)

0000000000404910 <_ZL18__gthread_active_pv>:
  404910:	55                   	push   %rbp
  404911:	48 89 e5             	mov    %rsp,%rbp
  404914:	48 83 3c 25 08 ed 40 	cmpq   $0x0,0x40ed08
  40491b:	00 00 
  40491d:	0f 95 c0             	setne  %al
  404920:	24 01                	and    $0x1,%al
  404922:	0f b6 c0             	movzbl %al,%eax
  404925:	5d                   	pop    %rbp
  404926:	c3                   	retq   
  404927:	66 0f 1f 84 00 00 00 	nopw   0x0(%rax,%rax,1)
  40492e:	00 00 

0000000000404930 <_ZL22__gthread_mutex_unlockP15pthread_mutex_t>:
  404930:	55                   	push   %rbp
  404931:	48 89 e5             	mov    %rsp,%rbp
  404934:	48 83 ec 10          	sub    $0x10,%rsp
  404938:	48 89 7d f0          	mov    %rdi,-0x10(%rbp)
  40493c:	e8 cf ff ff ff       	callq  404910 <_ZL18__gthread_active_pv>
  404941:	83 f8 00             	cmp    $0x0,%eax
  404944:	0f 84 11 00 00 00    	je     40495b <_ZL22__gthread_mutex_unlockP15pthread_mutex_t+0x2b>
  40494a:	48 8b 7d f0          	mov    -0x10(%rbp),%rdi
  40494e:	e8 bd e3 ff ff       	callq  402d10 <pthread_mutex_unlock@plt>
  404953:	89 45 fc             	mov    %eax,-0x4(%rbp)
  404956:	e9 07 00 00 00       	jmpq   404962 <_ZL22__gthread_mutex_unlockP15pthread_mutex_t+0x32>
  40495b:	c7 45 fc 00 00 00 00 	movl   $0x0,-0x4(%rbp)
  404962:	8b 45 fc             	mov    -0x4(%rbp),%eax
  404965:	48 83 c4 10          	add    $0x10,%rsp
  404969:	5d                   	pop    %rbp
  40496a:	c3                   	retq   
  40496b:	0f 1f 44 00 00       	nopl   0x0(%rax,%rax,1)

0000000000404970 <_ZSt7forwardIZ10run_serveriSt8functionIFviEEE3$_0EOT_RNSt16remove_referenceIS4_E4typeE>:
  404970:	55                   	push   %rbp
  404971:	48 89 e5             	mov    %rsp,%rbp
  404974:	48 89 7d f8          	mov    %rdi,-0x8(%rbp)
  404978:	48 8b 45 f8          	mov    -0x8(%rbp),%rax
  40497c:	5d                   	pop    %rbp
  40497d:	c3                   	retq   
  40497e:	66 90                	xchg   %ax,%ax

0000000000404980 <_ZNSt5tupleIJOZ10run_serveriSt8functionIFviEEE3$_0EEC2IJS3_EvEEDpOT_>:
  404980:	55                   	push   %rbp
  404981:	48 89 e5             	mov    %rsp,%rbp
  404984:	48 83 ec 20          	sub    $0x20,%rsp
  404988:	48 89 7d f8          	mov    %rdi,-0x8(%rbp)
  40498c:	48 89 75 f0          	mov    %rsi,-0x10(%rbp)
  404990:	48 8b 75 f8          	mov    -0x8(%rbp),%rsi
  404994:	48 8b 7d f0          	mov    -0x10(%rbp),%rdi
  404998:	48 89 75 e8          	mov    %rsi,-0x18(%rbp)
  40499c:	e8 cf ff ff ff       	callq  404970 <_ZSt7forwardIZ10run_serveriSt8functionIFviEEE3$_0EOT_RNSt16remove_referenceIS4_E4typeE>
  4049a1:	48 8b 7d e8          	mov    -0x18(%rbp),%rdi
  4049a5:	48 89 c6             	mov    %rax,%rsi
  4049a8:	e8 13 00 00 00       	callq  4049c0 <_ZNSt11_Tuple_implILm0EJOZ10run_serveriSt8functionIFviEEE3$_0EEC2IS3_EEOT_>
  4049ad:	48 83 c4 20          	add    $0x20,%rsp
  4049b1:	5d                   	pop    %rbp
  4049b2:	c3                   	retq   
  4049b3:	66 66 66 66 2e 0f 1f 	data16 data16 data16 nopw %cs:0x0(%rax,%rax,1)
  4049ba:	84 00 00 00 00 00 

00000000004049c0 <_ZNSt11_Tuple_implILm0EJOZ10run_serveriSt8functionIFviEEE3$_0EEC2IS3_EEOT_>:
  4049c0:	55                   	push   %rbp
  4049c1:	48 89 e5             	mov    %rsp,%rbp
  4049c4:	48 83 ec 20          	sub    $0x20,%rsp
  4049c8:	48 89 7d f8          	mov    %rdi,-0x8(%rbp)
  4049cc:	48 89 75 f0          	mov    %rsi,-0x10(%rbp)
  4049d0:	48 8b 75 f8          	mov    -0x8(%rbp),%rsi
  4049d4:	48 8b 7d f0          	mov    -0x10(%rbp),%rdi
  4049d8:	48 89 75 e8          	mov    %rsi,-0x18(%rbp)
  4049dc:	e8 8f ff ff ff       	callq  404970 <_ZSt7forwardIZ10run_serveriSt8functionIFviEEE3$_0EOT_RNSt16remove_referenceIS4_E4typeE>
  4049e1:	48 8b 7d e8          	mov    -0x18(%rbp),%rdi
  4049e5:	48 89 c6             	mov    %rax,%rsi
  4049e8:	e8 13 00 00 00       	callq  404a00 <_ZNSt10_Head_baseILm0EOZ10run_serveriSt8functionIFviEEE3$_0Lb0EEC2IS3_EEOT_>
  4049ed:	48 83 c4 20          	add    $0x20,%rsp
  4049f1:	5d                   	pop    %rbp
  4049f2:	c3                   	retq   
  4049f3:	66 66 66 66 2e 0f 1f 	data16 data16 data16 nopw %cs:0x0(%rax,%rax,1)
  4049fa:	84 00 00 00 00 00 

0000000000404a00 <_ZNSt10_Head_baseILm0EOZ10run_serveriSt8functionIFviEEE3$_0Lb0EEC2IS3_EEOT_>:
  404a00:	55                   	push   %rbp
  404a01:	48 89 e5             	mov    %rsp,%rbp
  404a04:	48 83 ec 20          	sub    $0x20,%rsp
  404a08:	48 89 7d f8          	mov    %rdi,-0x8(%rbp)
  404a0c:	48 89 75 f0          	mov    %rsi,-0x10(%rbp)
  404a10:	48 8b 75 f8          	mov    -0x8(%rbp),%rsi
  404a14:	48 8b 7d f0          	mov    -0x10(%rbp),%rdi
  404a18:	48 89 75 e8          	mov    %rsi,-0x18(%rbp)
  404a1c:	e8 4f ff ff ff       	callq  404970 <_ZSt7forwardIZ10run_serveriSt8functionIFviEEE3$_0EOT_RNSt16remove_referenceIS4_E4typeE>
  404a21:	48 8b 75 e8          	mov    -0x18(%rbp),%rsi
  404a25:	48 89 06             	mov    %rax,(%rsi)
  404a28:	48 83 c4 20          	add    $0x20,%rsp
  404a2c:	5d                   	pop    %rbp
  404a2d:	c3                   	retq   
  404a2e:	66 90                	xchg   %ax,%ax

0000000000404a30 <_ZNSt16allocator_traitsISaISt4pairISt6threadbEEE9constructIS2_JRKSt21piecewise_construct_tSt5tupleIJOZ10run_serveriSt8functionIFviEEE3$_0EES9_IJObEEEEEvRS3_PT_DpOT0_>:
  404a30:	55                   	push   %rbp
  404a31:	48 89 e5             	mov    %rsp,%rbp
  404a34:	48 83 ec 50          	sub    $0x50,%rsp
  404a38:	48 89 7d f8          	mov    %rdi,-0x8(%rbp)
  404a3c:	48 89 75 f0          	mov    %rsi,-0x10(%rbp)
  404a40:	48 89 55 e8          	mov    %rdx,-0x18(%rbp)
  404a44:	48 89 4d e0          	mov    %rcx,-0x20(%rbp)
  404a48:	4c 89 45 d8          	mov    %r8,-0x28(%rbp)
  404a4c:	48 8b 4d f8          	mov    -0x8(%rbp),%rcx
  404a50:	48 8b 75 f0          	mov    -0x10(%rbp),%rsi
  404a54:	48 8b 7d e8          	mov    -0x18(%rbp),%rdi
  404a58:	48 89 4d d0          	mov    %rcx,-0x30(%rbp)
  404a5c:	48 89 75 c8          	mov    %rsi,-0x38(%rbp)
  404a60:	e8 ab 30 00 00       	callq  407b10 <_ZSt7forwardIRKSt21piecewise_construct_tEOT_RNSt16remove_referenceIS3_E4typeE>
  404a65:	48 8b 7d e0          	mov    -0x20(%rbp),%rdi
  404a69:	48 89 45 c0          	mov    %rax,-0x40(%rbp)
  404a6d:	e8 2e 00 00 00       	callq  404aa0 <_ZSt7forwardISt5tupleIJOZ10run_serveriSt8functionIFviEEE3$_0EEEOT_RNSt16remove_referenceIS7_E4typeE>
  404a72:	48 8b 7d d8          	mov    -0x28(%rbp),%rdi
  404a76:	48 89 45 b8          	mov    %rax,-0x48(%rbp)
  404a7a:	e8 01 6b 00 00       	callq  40b580 <_ZSt7forwardISt5tupleIJObEEEOT_RNSt16remove_referenceIS3_E4typeE>
  404a7f:	48 8b 7d d0          	mov    -0x30(%rbp),%rdi
  404a83:	48 8b 75 c8          	mov    -0x38(%rbp),%rsi
  404a87:	48 8b 55 c0          	mov    -0x40(%rbp),%rdx
  404a8b:	48 8b 4d b8          	mov    -0x48(%rbp),%rcx
  404a8f:	49 89 c0             	mov    %rax,%r8
  404a92:	e8 c9 02 00 00       	callq  404d60 <_ZN9__gnu_cxx13new_allocatorISt4pairISt6threadbEE9constructIS3_JRKSt21piecewise_construct_tSt5tupleIJOZ10run_serveriSt8functionIFviEEE3$_0EES9_IJObEEEEEvPT_DpOT0_>
  404a97:	48 83 c4 50          	add    $0x50,%rsp
  404a9b:	5d                   	pop    %rbp
  404a9c:	c3                   	retq   
  404a9d:	0f 1f 00             	nopl   (%rax)

0000000000404aa0 <_ZSt7forwardISt5tupleIJOZ10run_serveriSt8functionIFviEEE3$_0EEEOT_RNSt16remove_referenceIS7_E4typeE>:
  404aa0:	55                   	push   %rbp
  404aa1:	48 89 e5             	mov    %rsp,%rbp
  404aa4:	48 89 7d f8          	mov    %rdi,-0x8(%rbp)
  404aa8:	48 8b 45 f8          	mov    -0x8(%rbp),%rax
  404aac:	5d                   	pop    %rbp
  404aad:	c3                   	retq   
  404aae:	66 90                	xchg   %ax,%ax

0000000000404ab0 <_ZNSt6vectorISt4pairISt6threadbESaIS2_EE19_M_emplace_back_auxIJRKSt21piecewise_construct_tSt5tupleIJOZ10run_serveriSt8functionIFviEEE3$_0EES9_IJObEEEEEvDpOT_>:
  404ab0:	55                   	push   %rbp
  404ab1:	48 89 e5             	mov    %rsp,%rbp
  404ab4:	48 81 ec e0 00 00 00 	sub    $0xe0,%rsp
  404abb:	48 89 7d f8          	mov    %rdi,-0x8(%rbp)
  404abf:	48 89 75 f0          	mov    %rsi,-0x10(%rbp)
  404ac3:	48 89 55 e8          	mov    %rdx,-0x18(%rbp)
  404ac7:	48 89 4d e0          	mov    %rcx,-0x20(%rbp)
  404acb:	48 8b 4d f8          	mov    -0x8(%rbp),%rcx
  404acf:	b8 20 ef 40 00       	mov    $0x40ef20,%eax
  404ad4:	89 c2                	mov    %eax,%edx
  404ad6:	b8 01 00 00 00       	mov    $0x1,%eax
  404adb:	89 c6                	mov    %eax,%esi
  404add:	48 89 cf             	mov    %rcx,%rdi
  404ae0:	48 89 4d b0          	mov    %rcx,-0x50(%rbp)
  404ae4:	e8 a7 70 00 00       	callq  40bb90 <_ZNKSt6vectorISt4pairISt6threadbESaIS2_EE12_M_check_lenEmPKc>
  404ae9:	48 89 45 d8          	mov    %rax,-0x28(%rbp)
  404aed:	48 8b 7d b0          	mov    -0x50(%rbp),%rdi
  404af1:	48 89 c6             	mov    %rax,%rsi
  404af4:	e8 77 71 00 00       	callq  40bc70 <_ZNSt12_Vector_baseISt4pairISt6threadbESaIS2_EE11_M_allocateEm>
  404af9:	48 89 45 d0          	mov    %rax,-0x30(%rbp)
  404afd:	48 89 45 c8          	mov    %rax,-0x38(%rbp)
  404b01:	48 8b 45 d0          	mov    -0x30(%rbp),%rax
  404b05:	48 8b 7d b0          	mov    -0x50(%rbp),%rdi
  404b09:	48 89 45 a8          	mov    %rax,-0x58(%rbp)
  404b0d:	e8 be 71 00 00       	callq  40bcd0 <_ZNKSt6vectorISt4pairISt6threadbESaIS2_EE4sizeEv>
  404b12:	48 c1 e0 04          	shl    $0x4,%rax
  404b16:	48 8b 4d a8          	mov    -0x58(%rbp),%rcx
  404b1a:	48 01 c1             	add    %rax,%rcx
  404b1d:	48 8b 7d f0          	mov    -0x10(%rbp),%rdi
  404b21:	48 89 4d a0          	mov    %rcx,-0x60(%rbp)
  404b25:	e8 e6 2f 00 00       	callq  407b10 <_ZSt7forwardIRKSt21piecewise_construct_tEOT_RNSt16remove_referenceIS3_E4typeE>
  404b2a:	48 8b 7d e8          	mov    -0x18(%rbp),%rdi
  404b2e:	48 89 45 98          	mov    %rax,-0x68(%rbp)
  404b32:	e8 69 ff ff ff       	callq  404aa0 <_ZSt7forwardISt5tupleIJOZ10run_serveriSt8functionIFviEEE3$_0EEEOT_RNSt16remove_referenceIS7_E4typeE>
  404b37:	48 8b 7d e0          	mov    -0x20(%rbp),%rdi
  404b3b:	48 89 45 90          	mov    %rax,-0x70(%rbp)
  404b3f:	e8 3c 6a 00 00       	callq  40b580 <_ZSt7forwardISt5tupleIJObEEEOT_RNSt16remove_referenceIS3_E4typeE>
  404b44:	48 8b 7d b0          	mov    -0x50(%rbp),%rdi
  404b48:	48 8b 75 a0          	mov    -0x60(%rbp),%rsi
  404b4c:	48 8b 55 98          	mov    -0x68(%rbp),%rdx
  404b50:	48 8b 4d 90          	mov    -0x70(%rbp),%rcx
  404b54:	49 89 c0             	mov    %rax,%r8
  404b57:	e8 d4 fe ff ff       	callq  404a30 <_ZNSt16allocator_traitsISaISt4pairISt6threadbEEE9constructIS2_JRKSt21piecewise_construct_tSt5tupleIJOZ10run_serveriSt8functionIFviEEE3$_0EES9_IJObEEEEEvRS3_PT_DpOT0_>
  404b5c:	e9 00 00 00 00       	jmpq   404b61 <_ZNSt6vectorISt4pairISt6threadbESaIS2_EE19_M_emplace_back_auxIJRKSt21piecewise_construct_tSt5tupleIJOZ10run_serveriSt8functionIFviEEE3$_0EES9_IJObEEEEEvDpOT_+0xb1>
  404b61:	48 c7 45 c8 00 00 00 	movq   $0x0,-0x38(%rbp)
  404b68:	00 
  404b69:	48 8b 45 b0          	mov    -0x50(%rbp),%rax
  404b6d:	48 8b 38             	mov    (%rax),%rdi
  404b70:	48 8b 70 08          	mov    0x8(%rax),%rsi
  404b74:	48 8b 55 d0          	mov    -0x30(%rbp),%rdx
  404b78:	48 89 7d 88          	mov    %rdi,-0x78(%rbp)
  404b7c:	48 89 c7             	mov    %rax,%rdi
  404b7f:	48 89 55 80          	mov    %rdx,-0x80(%rbp)
  404b83:	48 89 b5 78 ff ff ff 	mov    %rsi,-0x88(%rbp)
  404b8a:	e8 61 65 00 00       	callq  40b0f0 <_ZNSt12_Vector_baseISt4pairISt6threadbESaIS2_EE19_M_get_Tp_allocatorEv>
  404b8f:	48 8b 7d 88          	mov    -0x78(%rbp),%rdi
  404b93:	48 8b b5 78 ff ff ff 	mov    -0x88(%rbp),%rsi
  404b9a:	48 8b 55 80          	mov    -0x80(%rbp),%rdx
  404b9e:	48 89 c1             	mov    %rax,%rcx
  404ba1:	e8 4a 71 00 00       	callq  40bcf0 <_ZSt34__uninitialized_move_if_noexcept_aIPSt4pairISt6threadbES3_SaIS2_EET0_T_S6_S5_RT1_>
  404ba6:	48 89 85 70 ff ff ff 	mov    %rax,-0x90(%rbp)
  404bad:	e9 00 00 00 00       	jmpq   404bb2 <_ZNSt6vectorISt4pairISt6threadbESaIS2_EE19_M_emplace_back_auxIJRKSt21piecewise_construct_tSt5tupleIJOZ10run_serveriSt8functionIFviEEE3$_0EES9_IJObEEEEEvDpOT_+0x102>
  404bb2:	48 8b 85 70 ff ff ff 	mov    -0x90(%rbp),%rax
  404bb9:	48 89 45 c8          	mov    %rax,-0x38(%rbp)
  404bbd:	48 8b 4d c8          	mov    -0x38(%rbp),%rcx
  404bc1:	48 83 c1 10          	add    $0x10,%rcx
  404bc5:	48 89 4d c8          	mov    %rcx,-0x38(%rbp)
  404bc9:	e9 e4 00 00 00       	jmpq   404cb2 <_ZNSt6vectorISt4pairISt6threadbESaIS2_EE19_M_emplace_back_auxIJRKSt21piecewise_construct_tSt5tupleIJOZ10run_serveriSt8functionIFviEEE3$_0EES9_IJObEEEEEvDpOT_+0x202>
  404bce:	89 d1                	mov    %edx,%ecx
  404bd0:	48 89 45 c0          	mov    %rax,-0x40(%rbp)
  404bd4:	89 4d bc             	mov    %ecx,-0x44(%rbp)
  404bd7:	48 8b 7d c0          	mov    -0x40(%rbp),%rdi
  404bdb:	e8 e0 df ff ff       	callq  402bc0 <__cxa_begin_catch@plt>
  404be0:	48 83 7d c8 00       	cmpq   $0x0,-0x38(%rbp)
  404be5:	48 89 85 68 ff ff ff 	mov    %rax,-0x98(%rbp)
  404bec:	0f 85 59 00 00 00    	jne    404c4b <_ZNSt6vectorISt4pairISt6threadbESaIS2_EE19_M_emplace_back_auxIJRKSt21piecewise_construct_tSt5tupleIJOZ10run_serveriSt8functionIFviEEE3$_0EES9_IJObEEEEEvDpOT_+0x19b>
  404bf2:	48 8b 45 d0          	mov    -0x30(%rbp),%rax
  404bf6:	48 8b 7d b0          	mov    -0x50(%rbp),%rdi
  404bfa:	48 89 85 60 ff ff ff 	mov    %rax,-0xa0(%rbp)
  404c01:	e8 ca 70 00 00       	callq  40bcd0 <_ZNKSt6vectorISt4pairISt6threadbESaIS2_EE4sizeEv>
  404c06:	48 c1 e0 04          	shl    $0x4,%rax
  404c0a:	48 8b bd 60 ff ff ff 	mov    -0xa0(%rbp),%rdi
  404c11:	48 01 c7             	add    %rax,%rdi
  404c14:	48 8b 45 b0          	mov    -0x50(%rbp),%rax
  404c18:	48 89 bd 58 ff ff ff 	mov    %rdi,-0xa8(%rbp)
  404c1f:	48 89 c7             	mov    %rax,%rdi
  404c22:	48 8b b5 58 ff ff ff 	mov    -0xa8(%rbp),%rsi
  404c29:	e8 12 71 00 00       	callq  40bd40 <_ZNSt16allocator_traitsISaISt4pairISt6threadbEEE7destroyIS2_EEvRS3_PT_>
  404c2e:	e9 00 00 00 00       	jmpq   404c33 <_ZNSt6vectorISt4pairISt6threadbESaIS2_EE19_M_emplace_back_auxIJRKSt21piecewise_construct_tSt5tupleIJOZ10run_serveriSt8functionIFviEEE3$_0EES9_IJObEEEEEvDpOT_+0x183>
  404c33:	e9 55 00 00 00       	jmpq   404c8d <_ZNSt6vectorISt4pairISt6threadbESaIS2_EE19_M_emplace_back_auxIJRKSt21piecewise_construct_tSt5tupleIJOZ10run_serveriSt8functionIFviEEE3$_0EES9_IJObEEEEEvDpOT_+0x1dd>
  404c38:	89 d1                	mov    %edx,%ecx
  404c3a:	48 89 45 c0          	mov    %rax,-0x40(%rbp)
  404c3e:	89 4d bc             	mov    %ecx,-0x44(%rbp)
  404c41:	e8 4a e3 ff ff       	callq  402f90 <__cxa_end_catch@plt>
  404c46:	e9 62 00 00 00       	jmpq   404cad <_ZNSt6vectorISt4pairISt6threadbESaIS2_EE19_M_emplace_back_auxIJRKSt21piecewise_construct_tSt5tupleIJOZ10run_serveriSt8functionIFviEEE3$_0EES9_IJObEEEEEvDpOT_+0x1fd>
  404c4b:	48 8b 7d d0          	mov    -0x30(%rbp),%rdi
  404c4f:	48 8b 75 c8          	mov    -0x38(%rbp),%rsi
  404c53:	48 8b 45 b0          	mov    -0x50(%rbp),%rax
  404c57:	48 89 bd 50 ff ff ff 	mov    %rdi,-0xb0(%rbp)
  404c5e:	48 89 c7             	mov    %rax,%rdi
  404c61:	48 89 b5 48 ff ff ff 	mov    %rsi,-0xb8(%rbp)
  404c68:	e8 83 64 00 00       	callq  40b0f0 <_ZNSt12_Vector_baseISt4pairISt6threadbESaIS2_EE19_M_get_Tp_allocatorEv>
  404c6d:	48 8b bd 50 ff ff ff 	mov    -0xb0(%rbp),%rdi
  404c74:	48 8b b5 48 ff ff ff 	mov    -0xb8(%rbp),%rsi
  404c7b:	48 89 c2             	mov    %rax,%rdx
  404c7e:	e8 3d 64 00 00       	callq  40b0c0 <_ZSt8_DestroyIPSt4pairISt6threadbES2_EvT_S4_RSaIT0_E>
  404c83:	e9 00 00 00 00       	jmpq   404c88 <_ZNSt6vectorISt4pairISt6threadbESaIS2_EE19_M_emplace_back_auxIJRKSt21piecewise_construct_tSt5tupleIJOZ10run_serveriSt8functionIFviEEE3$_0EES9_IJObEEEEEvDpOT_+0x1d8>
  404c88:	e9 00 00 00 00       	jmpq   404c8d <_ZNSt6vectorISt4pairISt6threadbESaIS2_EE19_M_emplace_back_auxIJRKSt21piecewise_construct_tSt5tupleIJOZ10run_serveriSt8functionIFviEEE3$_0EES9_IJObEEEEEvDpOT_+0x1dd>
  404c8d:	48 8b 75 d0          	mov    -0x30(%rbp),%rsi
  404c91:	48 8b 55 d8          	mov    -0x28(%rbp),%rdx
  404c95:	48 8b 7d b0          	mov    -0x50(%rbp),%rdi
  404c99:	e8 92 66 00 00       	callq  40b330 <_ZNSt12_Vector_baseISt4pairISt6threadbESaIS2_EE13_M_deallocateEPS2_m>
  404c9e:	e9 00 00 00 00       	jmpq   404ca3 <_ZNSt6vectorISt4pairISt6threadbESaIS2_EE19_M_emplace_back_auxIJRKSt21piecewise_construct_tSt5tupleIJOZ10run_serveriSt8functionIFviEEE3$_0EES9_IJObEEEEEvDpOT_+0x1f3>
  404ca3:	e8 68 e2 ff ff       	callq  402f10 <__cxa_rethrow@plt>
  404ca8:	e9 b3 00 00 00       	jmpq   404d60 <_ZN9__gnu_cxx13new_allocatorISt4pairISt6threadbEE9constructIS3_JRKSt21piecewise_construct_tSt5tupleIJOZ10run_serveriSt8functionIFviEEE3$_0EES9_IJObEEEEEvPT_DpOT0_>
  404cad:	e9 95 00 00 00       	jmpq   404d47 <_ZNSt6vectorISt4pairISt6threadbESaIS2_EE19_M_emplace_back_auxIJRKSt21piecewise_construct_tSt5tupleIJOZ10run_serveriSt8functionIFviEEE3$_0EES9_IJObEEEEEvDpOT_+0x297>
  404cb2:	48 8b 45 b0          	mov    -0x50(%rbp),%rax
  404cb6:	48 8b 38             	mov    (%rax),%rdi
  404cb9:	48 8b 70 08          	mov    0x8(%rax),%rsi
  404cbd:	48 89 bd 40 ff ff ff 	mov    %rdi,-0xc0(%rbp)
  404cc4:	48 89 c7             	mov    %rax,%rdi
  404cc7:	48 89 b5 38 ff ff ff 	mov    %rsi,-0xc8(%rbp)
  404cce:	e8 1d 64 00 00       	callq  40b0f0 <_ZNSt12_Vector_baseISt4pairISt6threadbESaIS2_EE19_M_get_Tp_allocatorEv>
  404cd3:	48 8b bd 40 ff ff ff 	mov    -0xc0(%rbp),%rdi
  404cda:	48 8b b5 38 ff ff ff 	mov    -0xc8(%rbp),%rsi
  404ce1:	48 89 c2             	mov    %rax,%rdx
  404ce4:	e8 d7 63 00 00       	callq  40b0c0 <_ZSt8_DestroyIPSt4pairISt6threadbES2_EvT_S4_RSaIT0_E>
  404ce9:	48 8b 45 b0          	mov    -0x50(%rbp),%rax
  404ced:	48 8b 55 b0          	mov    -0x50(%rbp),%rdx
  404cf1:	48 8b 32             	mov    (%rdx),%rsi
  404cf4:	48 8b 7a 10          	mov    0x10(%rdx),%rdi
  404cf8:	48 8b 0a             	mov    (%rdx),%rcx
  404cfb:	48 29 cf             	sub    %rcx,%rdi
  404cfe:	48 c1 ff 04          	sar    $0x4,%rdi
  404d02:	48 89 bd 30 ff ff ff 	mov    %rdi,-0xd0(%rbp)
  404d09:	48 89 c7             	mov    %rax,%rdi
  404d0c:	48 8b 95 30 ff ff ff 	mov    -0xd0(%rbp),%rdx
  404d13:	e8 18 66 00 00       	callq  40b330 <_ZNSt12_Vector_baseISt4pairISt6threadbESaIS2_EE13_M_deallocateEPS2_m>
  404d18:	48 8b 45 d0          	mov    -0x30(%rbp),%rax
  404d1c:	48 8b 4d b0          	mov    -0x50(%rbp),%rcx
  404d20:	48 89 01             	mov    %rax,(%rcx)
  404d23:	48 8b 45 c8          	mov    -0x38(%rbp),%rax
  404d27:	48 89 41 08          	mov    %rax,0x8(%rcx)
  404d2b:	48 8b 45 d0          	mov    -0x30(%rbp),%rax
  404d2f:	48 8b 55 d8          	mov    -0x28(%rbp),%rdx
  404d33:	48 c1 e2 04          	shl    $0x4,%rdx
  404d37:	48 01 d0             	add    %rdx,%rax
  404d3a:	48 89 41 10          	mov    %rax,0x10(%rcx)
  404d3e:	48 81 c4 e0 00 00 00 	add    $0xe0,%rsp
  404d45:	5d                   	pop    %rbp
  404d46:	c3                   	retq   
  404d47:	48 8b 7d c0          	mov    -0x40(%rbp),%rdi
  404d4b:	e8 d0 e2 ff ff       	callq  403020 <_Unwind_Resume@plt>
  404d50:	89 d1                	mov    %edx,%ecx
  404d52:	48 89 c7             	mov    %rax,%rdi
  404d55:	89 8d 2c ff ff ff    	mov    %ecx,-0xd4(%rbp)
  404d5b:	e8 60 27 00 00       	callq  4074c0 <__clang_call_terminate>

0000000000404d60 <_ZN9__gnu_cxx13new_allocatorISt4pairISt6threadbEE9constructIS3_JRKSt21piecewise_construct_tSt5tupleIJOZ10run_serveriSt8functionIFviEEE3$_0EES9_IJObEEEEEvPT_DpOT0_>:
  404d60:	55                   	push   %rbp
  404d61:	48 89 e5             	mov    %rsp,%rbp
  404d64:	48 83 ec 50          	sub    $0x50,%rsp
  404d68:	48 89 7d f8          	mov    %rdi,-0x8(%rbp)
  404d6c:	48 89 75 f0          	mov    %rsi,-0x10(%rbp)
  404d70:	48 89 55 e8          	mov    %rdx,-0x18(%rbp)
  404d74:	48 89 4d e0          	mov    %rcx,-0x20(%rbp)
  404d78:	4c 89 45 d8          	mov    %r8,-0x28(%rbp)
  404d7c:	48 8b 4d f0          	mov    -0x10(%rbp),%rcx
  404d80:	48 8b 7d e8          	mov    -0x18(%rbp),%rdi
  404d84:	48 89 4d b8          	mov    %rcx,-0x48(%rbp)
  404d88:	e8 83 2d 00 00       	callq  407b10 <_ZSt7forwardIRKSt21piecewise_construct_tEOT_RNSt16remove_referenceIS3_E4typeE>
  404d8d:	48 8b 7d e0          	mov    -0x20(%rbp),%rdi
  404d91:	48 89 45 b0          	mov    %rax,-0x50(%rbp)
  404d95:	e8 06 fd ff ff       	callq  404aa0 <_ZSt7forwardISt5tupleIJOZ10run_serveriSt8functionIFviEEE3$_0EEEOT_RNSt16remove_referenceIS7_E4typeE>
  404d9a:	48 8d 7d c8          	lea    -0x38(%rbp),%rdi
  404d9e:	48 89 c6             	mov    %rax,%rsi
  404da1:	e8 3a 00 00 00       	callq  404de0 <_ZNSt5tupleIJOZ10run_serveriSt8functionIFviEEE3$_0EEC2EOS5_>
  404da6:	48 8b 7d d8          	mov    -0x28(%rbp),%rdi
  404daa:	e8 d1 67 00 00       	callq  40b580 <_ZSt7forwardISt5tupleIJObEEEOT_RNSt16remove_referenceIS3_E4typeE>
  404daf:	48 8d 7d c0          	lea    -0x40(%rbp),%rdi
  404db3:	48 89 c6             	mov    %rax,%rsi
  404db6:	e8 d5 67 00 00       	callq  40b590 <_ZNSt5tupleIJObEEC2EOS1_>
  404dbb:	48 8b 75 c8          	mov    -0x38(%rbp),%rsi
  404dbf:	48 8b 55 c0          	mov    -0x40(%rbp),%rdx
  404dc3:	48 8b 7d b8          	mov    -0x48(%rbp),%rdi
  404dc7:	e8 44 00 00 00       	callq  404e10 <_ZNSt4pairISt6threadbEC2IJOZ10run_serveriSt8functionIFviEEE3$_0EJObEEESt21piecewise_construct_tSt5tupleIJDpT_EESA_IJDpT0_EE>
  404dcc:	48 83 c4 50          	add    $0x50,%rsp
  404dd0:	5d                   	pop    %rbp
  404dd1:	c3                   	retq   
  404dd2:	66 66 66 66 66 2e 0f 	data16 data16 data16 data16 nopw %cs:0x0(%rax,%rax,1)
  404dd9:	1f 84 00 00 00 00 00 

0000000000404de0 <_ZNSt5tupleIJOZ10run_serveriSt8functionIFviEEE3$_0EEC2EOS5_>:
  404de0:	55                   	push   %rbp
  404de1:	48 89 e5             	mov    %rsp,%rbp
  404de4:	48 83 ec 20          	sub    $0x20,%rsp
  404de8:	48 89 7d f8          	mov    %rdi,-0x8(%rbp)
  404dec:	48 89 75 f0          	mov    %rsi,-0x10(%rbp)
  404df0:	48 8b 75 f8          	mov    -0x8(%rbp),%rsi
  404df4:	48 8b 7d f0          	mov    -0x10(%rbp),%rdi
  404df8:	48 89 7d e8          	mov    %rdi,-0x18(%rbp)
  404dfc:	48 89 f7             	mov    %rsi,%rdi
  404dff:	48 8b 75 e8          	mov    -0x18(%rbp),%rsi
  404e03:	e8 48 00 00 00       	callq  404e50 <_ZNSt11_Tuple_implILm0EJOZ10run_serveriSt8functionIFviEEE3$_0EEC2EOS5_>
  404e08:	48 83 c4 20          	add    $0x20,%rsp
  404e0c:	5d                   	pop    %rbp
  404e0d:	c3                   	retq   
  404e0e:	66 90                	xchg   %ax,%ax

0000000000404e10 <_ZNSt4pairISt6threadbEC2IJOZ10run_serveriSt8functionIFviEEE3$_0EJObEEESt21piecewise_construct_tSt5tupleIJDpT_EESA_IJDpT0_EE>:
  404e10:	55                   	push   %rbp
  404e11:	48 89 e5             	mov    %rsp,%rbp
  404e14:	48 83 ec 30          	sub    $0x30,%rsp
  404e18:	48 8d 45 f0          	lea    -0x10(%rbp),%rax
  404e1c:	48 8d 4d e8          	lea    -0x18(%rbp),%rcx
  404e20:	48 89 75 f0          	mov    %rsi,-0x10(%rbp)
  404e24:	48 89 55 e8          	mov    %rdx,-0x18(%rbp)
  404e28:	48 89 7d e0          	mov    %rdi,-0x20(%rbp)
  404e2c:	48 8b 7d e0          	mov    -0x20(%rbp),%rdi
  404e30:	48 89 c6             	mov    %rax,%rsi
  404e33:	48 89 ca             	mov    %rcx,%rdx
  404e36:	e8 b5 00 00 00       	callq  404ef0 <_ZNSt4pairISt6threadbEC2IJOZ10run_serveriSt8functionIFviEEE3$_0EJLm0EEJObEJLm0EEEERSt5tupleIJDpT_EERS9_IJDpT1_EESt12_Index_tupleIJXspT0_EEESI_IJXspT2_EEE>
  404e3b:	48 83 c4 30          	add    $0x30,%rsp
  404e3f:	5d                   	pop    %rbp
  404e40:	c3                   	retq   
  404e41:	66 66 66 66 66 66 2e 	data16 data16 data16 data16 data16 nopw %cs:0x0(%rax,%rax,1)
  404e48:	0f 1f 84 00 00 00 00 
  404e4f:	00 

0000000000404e50 <_ZNSt11_Tuple_implILm0EJOZ10run_serveriSt8functionIFviEEE3$_0EEC2EOS5_>:
  404e50:	55                   	push   %rbp
  404e51:	48 89 e5             	mov    %rsp,%rbp
  404e54:	48 83 ec 20          	sub    $0x20,%rsp
  404e58:	48 89 7d f8          	mov    %rdi,-0x8(%rbp)
  404e5c:	48 89 75 f0          	mov    %rsi,-0x10(%rbp)
  404e60:	48 8b 7d f8          	mov    -0x8(%rbp),%rdi
  404e64:	48 89 7d e8          	mov    %rdi,-0x18(%rbp)
  404e68:	48 89 f7             	mov    %rsi,%rdi
  404e6b:	e8 40 00 00 00       	callq  404eb0 <_ZNSt11_Tuple_implILm0EJOZ10run_serveriSt8functionIFviEEE3$_0EE7_M_headERS5_>
  404e70:	48 89 c7             	mov    %rax,%rdi
  404e73:	e8 28 00 00 00       	callq  404ea0 <_ZSt7forwardIOZ10run_serveriSt8functionIFviEEE3$_0EOT_RNSt16remove_referenceIS5_E4typeE>
  404e78:	48 8b 7d e8          	mov    -0x18(%rbp),%rdi
  404e7c:	48 89 c6             	mov    %rax,%rsi
  404e7f:	e8 7c fb ff ff       	callq  404a00 <_ZNSt10_Head_baseILm0EOZ10run_serveriSt8functionIFviEEE3$_0Lb0EEC2IS3_EEOT_>
  404e84:	e9 00 00 00 00       	jmpq   404e89 <_ZNSt11_Tuple_implILm0EJOZ10run_serveriSt8functionIFviEEE3$_0EEC2EOS5_+0x39>
  404e89:	48 83 c4 20          	add    $0x20,%rsp
  404e8d:	5d                   	pop    %rbp
  404e8e:	c3                   	retq   
  404e8f:	89 d1                	mov    %edx,%ecx
  404e91:	48 89 c7             	mov    %rax,%rdi
  404e94:	89 4d e4             	mov    %ecx,-0x1c(%rbp)
  404e97:	e8 24 26 00 00       	callq  4074c0 <__clang_call_terminate>
  404e9c:	0f 1f 40 00          	nopl   0x0(%rax)

0000000000404ea0 <_ZSt7forwardIOZ10run_serveriSt8functionIFviEEE3$_0EOT_RNSt16remove_referenceIS5_E4typeE>:
  404ea0:	55                   	push   %rbp
  404ea1:	48 89 e5             	mov    %rsp,%rbp
  404ea4:	48 89 7d f8          	mov    %rdi,-0x8(%rbp)
  404ea8:	48 8b 45 f8          	mov    -0x8(%rbp),%rax
  404eac:	5d                   	pop    %rbp
  404ead:	c3                   	retq   
  404eae:	66 90                	xchg   %ax,%ax

0000000000404eb0 <_ZNSt11_Tuple_implILm0EJOZ10run_serveriSt8functionIFviEEE3$_0EE7_M_headERS5_>:
  404eb0:	55                   	push   %rbp
  404eb1:	48 89 e5             	mov    %rsp,%rbp
  404eb4:	48 83 ec 10          	sub    $0x10,%rsp
  404eb8:	48 89 7d f8          	mov    %rdi,-0x8(%rbp)
  404ebc:	48 8b 7d f8          	mov    -0x8(%rbp),%rdi
  404ec0:	e8 0b 00 00 00       	callq  404ed0 <_ZNSt10_Head_baseILm0EOZ10run_serveriSt8functionIFviEEE3$_0Lb0EE7_M_headERS5_>
  404ec5:	48 83 c4 10          	add    $0x10,%rsp
  404ec9:	5d                   	pop    %rbp
  404eca:	c3                   	retq   
  404ecb:	0f 1f 44 00 00       	nopl   0x0(%rax,%rax,1)

0000000000404ed0 <_ZNSt10_Head_baseILm0EOZ10run_serveriSt8functionIFviEEE3$_0Lb0EE7_M_headERS5_>:
  404ed0:	55                   	push   %rbp
  404ed1:	48 89 e5             	mov    %rsp,%rbp
  404ed4:	48 89 7d f8          	mov    %rdi,-0x8(%rbp)
  404ed8:	48 8b 7d f8          	mov    -0x8(%rbp),%rdi
  404edc:	48 8b 07             	mov    (%rdi),%rax
  404edf:	5d                   	pop    %rbp
  404ee0:	c3                   	retq   
  404ee1:	66 66 66 66 66 66 2e 	data16 data16 data16 data16 data16 nopw %cs:0x0(%rax,%rax,1)
  404ee8:	0f 1f 84 00 00 00 00 
  404eef:	00 

0000000000404ef0 <_ZNSt4pairISt6threadbEC2IJOZ10run_serveriSt8functionIFviEEE3$_0EJLm0EEJObEJLm0EEEERSt5tupleIJDpT_EERS9_IJDpT1_EESt12_Index_tupleIJXspT0_EEESI_IJXspT2_EEE>:
  404ef0:	55                   	push   %rbp
  404ef1:	48 89 e5             	mov    %rsp,%rbp
  404ef4:	48 83 ec 30          	sub    $0x30,%rsp
  404ef8:	48 89 7d e8          	mov    %rdi,-0x18(%rbp)
  404efc:	48 89 75 e0          	mov    %rsi,-0x20(%rbp)
  404f00:	48 89 55 d8          	mov    %rdx,-0x28(%rbp)
  404f04:	48 8b 55 e8          	mov    -0x18(%rbp),%rdx
  404f08:	48 8b 7d e0          	mov    -0x20(%rbp),%rdi
  404f0c:	48 89 55 d0          	mov    %rdx,-0x30(%rbp)
  404f10:	e8 3b 00 00 00       	callq  404f50 <_ZSt3getILm0EJOZ10run_serveriSt8functionIFviEEE3$_0EERNSt13tuple_elementIXT_ESt5tupleIJDpT0_EEE4typeERS9_>
  404f15:	48 89 c7             	mov    %rax,%rdi
  404f18:	e8 83 ff ff ff       	callq  404ea0 <_ZSt7forwardIOZ10run_serveriSt8functionIFviEEE3$_0EOT_RNSt16remove_referenceIS5_E4typeE>
  404f1d:	48 8b 7d d0          	mov    -0x30(%rbp),%rdi
  404f21:	48 89 c6             	mov    %rax,%rsi
  404f24:	e8 47 00 00 00       	callq  404f70 <_ZNSt6threadC2IZ10run_serveriSt8functionIFviEEE3$_0JEEEOT_DpOT0_>
  404f29:	48 8b 7d d8          	mov    -0x28(%rbp),%rdi
  404f2d:	e8 2e 67 00 00       	callq  40b660 <_ZSt3getILm0EJObEERNSt13tuple_elementIXT_ESt5tupleIJDpT0_EEE4typeERS5_>
  404f32:	48 89 c7             	mov    %rax,%rdi
  404f35:	e8 d6 66 00 00       	callq  40b610 <_ZSt7forwardIObEOT_RNSt16remove_referenceIS1_E4typeE>
  404f3a:	8a 08                	mov    (%rax),%cl
  404f3c:	80 e1 01             	and    $0x1,%cl
  404f3f:	48 8b 45 d0          	mov    -0x30(%rbp),%rax
  404f43:	88 48 08             	mov    %cl,0x8(%rax)
  404f46:	48 83 c4 30          	add    $0x30,%rsp
  404f4a:	5d                   	pop    %rbp
  404f4b:	c3                   	retq   
  404f4c:	0f 1f 40 00          	nopl   0x0(%rax)

0000000000404f50 <_ZSt3getILm0EJOZ10run_serveriSt8functionIFviEEE3$_0EERNSt13tuple_elementIXT_ESt5tupleIJDpT0_EEE4typeERS9_>:
  404f50:	55                   	push   %rbp
  404f51:	48 89 e5             	mov    %rsp,%rbp
  404f54:	48 83 ec 10          	sub    $0x10,%rsp
  404f58:	48 89 7d f8          	mov    %rdi,-0x8(%rbp)
  404f5c:	48 8b 7d f8          	mov    -0x8(%rbp),%rdi
  404f60:	e8 db 00 00 00       	callq  405040 <_ZSt12__get_helperILm0EOZ10run_serveriSt8functionIFviEEE3$_0JEERT0_RSt11_Tuple_implIXT_EJS5_DpT1_EE>
  404f65:	48 83 c4 10          	add    $0x10,%rsp
  404f69:	5d                   	pop    %rbp
  404f6a:	c3                   	retq   
  404f6b:	0f 1f 44 00 00       	nopl   0x0(%rax,%rax,1)

0000000000404f70 <_ZNSt6threadC2IZ10run_serveriSt8functionIFviEEE3$_0JEEEOT_DpOT0_>:
  404f70:	55                   	push   %rbp
  404f71:	48 89 e5             	mov    %rsp,%rbp
  404f74:	48 81 ec 80 00 00 00 	sub    $0x80,%rsp
  404f7b:	48 89 7d f8          	mov    %rdi,-0x8(%rbp)
  404f7f:	48 89 75 f0          	mov    %rsi,-0x10(%rbp)
  404f83:	48 8b 75 f8          	mov    -0x8(%rbp),%rsi
  404f87:	48 89 f7             	mov    %rsi,%rdi
  404f8a:	48 89 75 98          	mov    %rsi,-0x68(%rbp)
  404f8e:	e8 7d 63 00 00       	callq  40b310 <_ZNSt6thread2idC2Ev>
  404f93:	48 8b 7d f0          	mov    -0x10(%rbp),%rdi
  404f97:	e8 d4 f9 ff ff       	callq  404970 <_ZSt7forwardIZ10run_serveriSt8functionIFviEEE3$_0EOT_RNSt16remove_referenceIS4_E4typeE>
  404f9c:	48 8d 75 b0          	lea    -0x50(%rbp),%rsi
  404fa0:	48 89 f7             	mov    %rsi,%rdi
  404fa3:	48 89 75 90          	mov    %rsi,-0x70(%rbp)
  404fa7:	48 89 c6             	mov    %rax,%rsi
  404faa:	e8 f1 00 00 00       	callq  4050a0 <_ZSt13__bind_simpleIZ10run_serveriSt8functionIFviEEE3$_0JEENSt19_Bind_simple_helperIT_JDpT0_EE6__typeEOS5_DpOS6_>
  404faf:	48 8d 45 d0          	lea    -0x30(%rbp),%rax
  404fb3:	48 89 c7             	mov    %rax,%rdi
  404fb6:	48 8b 75 98          	mov    -0x68(%rbp),%rsi
  404fba:	48 8b 55 90          	mov    -0x70(%rbp),%rdx
  404fbe:	48 89 45 88          	mov    %rax,-0x78(%rbp)
  404fc2:	e8 99 00 00 00       	callq  405060 <_ZNSt6thread15_M_make_routineISt12_Bind_simpleIFZ10run_serveriSt8functionIFviEEE3$_0vEEEESt10shared_ptrINS_5_ImplIT_EEEOSA_>
  404fc7:	48 8d 45 e0          	lea    -0x20(%rbp),%rax
  404fcb:	48 89 c7             	mov    %rax,%rdi
  404fce:	48 8b 75 88          	mov    -0x78(%rbp),%rsi
  404fd2:	48 89 45 80          	mov    %rax,-0x80(%rbp)
  404fd6:	e8 15 01 00 00       	callq  4050f0 <_ZNSt10shared_ptrINSt6thread10_Impl_baseEEC2INS0_5_ImplISt12_Bind_simpleIFZ10run_serveriSt8functionIFviEEE3$_0vEEEEvEEOS_IT_E>
  404fdb:	b9 40 2c 40 00       	mov    $0x402c40,%ecx
  404fe0:	89 ca                	mov    %ecx,%edx
  404fe2:	48 8b 7d 98          	mov    -0x68(%rbp),%rdi
  404fe6:	48 8b 75 80          	mov    -0x80(%rbp),%rsi
  404fea:	e8 91 dd ff ff       	callq  402d80 <_ZNSt6thread15_M_start_threadESt10shared_ptrINS_10_Impl_baseEEPFvvE@plt>
  404fef:	e9 00 00 00 00       	jmpq   404ff4 <_ZNSt6threadC2IZ10run_serveriSt8functionIFviEEE3$_0JEEEOT_DpOT0_+0x84>
  404ff4:	48 8d 7d e0          	lea    -0x20(%rbp),%rdi
  404ff8:	e8 83 66 00 00       	callq  40b680 <_ZNSt10shared_ptrINSt6thread10_Impl_baseEED2Ev>
  404ffd:	48 8d 7d d0          	lea    -0x30(%rbp),%rdi
  405001:	e8 2a 01 00 00       	callq  405130 <_ZNSt10shared_ptrINSt6thread5_ImplISt12_Bind_simpleIFZ10run_serveriSt8functionIFviEEE3$_0vEEEEED2Ev>
  405006:	48 81 c4 80 00 00 00 	add    $0x80,%rsp
  40500d:	5d                   	pop    %rbp
  40500e:	c3                   	retq   
  40500f:	48 8d 7d e0          	lea    -0x20(%rbp),%rdi
  405013:	89 d1                	mov    %edx,%ecx
  405015:	48 89 45 a8          	mov    %rax,-0x58(%rbp)
  405019:	89 4d a4             	mov    %ecx,-0x5c(%rbp)
  40501c:	e8 5f 66 00 00       	callq  40b680 <_ZNSt10shared_ptrINSt6thread10_Impl_baseEED2Ev>
  405021:	48 8d 7d d0          	lea    -0x30(%rbp),%rdi
  405025:	e8 06 01 00 00       	callq  405130 <_ZNSt10shared_ptrINSt6thread5_ImplISt12_Bind_simpleIFZ10run_serveriSt8functionIFviEEE3$_0vEEEEED2Ev>
  40502a:	48 8b 7d a8          	mov    -0x58(%rbp),%rdi
  40502e:	e8 ed df ff ff       	callq  403020 <_Unwind_Resume@plt>
  405033:	66 66 66 66 2e 0f 1f 	data16 data16 data16 nopw %cs:0x0(%rax,%rax,1)
  40503a:	84 00 00 00 00 00 

0000000000405040 <_ZSt12__get_helperILm0EOZ10run_serveriSt8functionIFviEEE3$_0JEERT0_RSt11_Tuple_implIXT_EJS5_DpT1_EE>:
  405040:	55                   	push   %rbp
  405041:	48 89 e5             	mov    %rsp,%rbp
  405044:	48 83 ec 10          	sub    $0x10,%rsp
  405048:	48 89 7d f8          	mov    %rdi,-0x8(%rbp)
  40504c:	48 8b 7d f8          	mov    -0x8(%rbp),%rdi
  405050:	e8 5b fe ff ff       	callq  404eb0 <_ZNSt11_Tuple_implILm0EJOZ10run_serveriSt8functionIFviEEE3$_0EE7_M_headERS5_>
  405055:	48 83 c4 10          	add    $0x10,%rsp
  405059:	5d                   	pop    %rbp
  40505a:	c3                   	retq   
  40505b:	0f 1f 44 00 00       	nopl   0x0(%rax,%rax,1)

0000000000405060 <_ZNSt6thread15_M_make_routineISt12_Bind_simpleIFZ10run_serveriSt8functionIFviEEE3$_0vEEEESt10shared_ptrINS_5_ImplIT_EEEOSA_>:
  405060:	55                   	push   %rbp
  405061:	48 89 e5             	mov    %rsp,%rbp
  405064:	48 83 ec 20          	sub    $0x20,%rsp
  405068:	48 89 f8             	mov    %rdi,%rax
  40506b:	48 89 75 f8          	mov    %rsi,-0x8(%rbp)
  40506f:	48 89 55 f0          	mov    %rdx,-0x10(%rbp)
  405073:	48 8b 55 f0          	mov    -0x10(%rbp),%rdx
  405077:	48 89 7d e8          	mov    %rdi,-0x18(%rbp)
  40507b:	48 89 d7             	mov    %rdx,%rdi
  40507e:	48 89 45 e0          	mov    %rax,-0x20(%rbp)
  405082:	e8 49 01 00 00       	callq  4051d0 <_ZSt7forwardISt12_Bind_simpleIFZ10run_serveriSt8functionIFviEEE3$_0vEEEOT_RNSt16remove_referenceIS7_E4typeE>
  405087:	48 8b 7d e8          	mov    -0x18(%rbp),%rdi
  40508b:	48 89 c6             	mov    %rax,%rsi
  40508e:	e8 bd 00 00 00       	callq  405150 <_ZSt11make_sharedINSt6thread5_ImplISt12_Bind_simpleIFZ10run_serveriSt8functionIFviEEE3$_0vEEEEJS8_EESt10shared_ptrIT_EDpOT0_>
  405093:	48 8b 45 e0          	mov    -0x20(%rbp),%rax
  405097:	48 83 c4 20          	add    $0x20,%rsp
  40509b:	5d                   	pop    %rbp
  40509c:	c3                   	retq   
  40509d:	0f 1f 00             	nopl   (%rax)

00000000004050a0 <_ZSt13__bind_simpleIZ10run_serveriSt8functionIFviEEE3$_0JEENSt19_Bind_simple_helperIT_JDpT0_EE6__typeEOS5_DpOS6_>:
  4050a0:	55                   	push   %rbp
  4050a1:	48 89 e5             	mov    %rsp,%rbp
  4050a4:	48 83 ec 20          	sub    $0x20,%rsp
  4050a8:	48 89 f8             	mov    %rdi,%rax
  4050ab:	48 89 75 f8          	mov    %rsi,-0x8(%rbp)
  4050af:	48 8b 75 f8          	mov    -0x8(%rbp),%rsi
  4050b3:	48 89 7d f0          	mov    %rdi,-0x10(%rbp)
  4050b7:	48 89 f7             	mov    %rsi,%rdi
  4050ba:	48 89 45 e8          	mov    %rax,-0x18(%rbp)
  4050be:	e8 ad f8 ff ff       	callq  404970 <_ZSt7forwardIZ10run_serveriSt8functionIFviEEE3$_0EOT_RNSt16remove_referenceIS4_E4typeE>
  4050c3:	48 89 c7             	mov    %rax,%rdi
  4050c6:	e8 a5 0f 00 00       	callq  406070 <_ZNSt26_Maybe_wrap_member_pointerIZ10run_serveriSt8functionIFviEEE3$_0E9__do_wrapEOS3_>
  4050cb:	48 8b 7d f0          	mov    -0x10(%rbp),%rdi
  4050cf:	48 89 c6             	mov    %rax,%rsi
  4050d2:	e8 a9 0f 00 00       	callq  406080 <_ZNSt12_Bind_simpleIFZ10run_serveriSt8functionIFviEEE3$_0vEEC2IS3_JEEEOT_DpOT0_>
  4050d7:	48 8b 45 e8          	mov    -0x18(%rbp),%rax
  4050db:	48 83 c4 20          	add    $0x20,%rsp
  4050df:	5d                   	pop    %rbp
  4050e0:	c3                   	retq   
  4050e1:	66 66 66 66 66 66 2e 	data16 data16 data16 data16 data16 nopw %cs:0x0(%rax,%rax,1)
  4050e8:	0f 1f 84 00 00 00 00 
  4050ef:	00 

00000000004050f0 <_ZNSt10shared_ptrINSt6thread10_Impl_baseEEC2INS0_5_ImplISt12_Bind_simpleIFZ10run_serveriSt8functionIFviEEE3$_0vEEEEvEEOS_IT_E>:
  4050f0:	55                   	push   %rbp
  4050f1:	48 89 e5             	mov    %rsp,%rbp
  4050f4:	48 83 ec 20          	sub    $0x20,%rsp
  4050f8:	48 89 7d f8          	mov    %rdi,-0x8(%rbp)
  4050fc:	48 89 75 f0          	mov    %rsi,-0x10(%rbp)
  405100:	48 8b 75 f8          	mov    -0x8(%rbp),%rsi
  405104:	48 8b 7d f0          	mov    -0x10(%rbp),%rdi
  405108:	48 89 75 e8          	mov    %rsi,-0x18(%rbp)
  40510c:	e8 2f 10 00 00       	callq  406140 <_ZSt4moveIRSt10shared_ptrINSt6thread5_ImplISt12_Bind_simpleIFZ10run_serveriSt8functionIFviEEE3$_0vEEEEEEONSt16remove_referenceIT_E4typeEOSE_>
  405111:	48 8b 7d e8          	mov    -0x18(%rbp),%rdi
  405115:	48 89 c6             	mov    %rax,%rsi
  405118:	e8 33 10 00 00       	callq  406150 <_ZNSt12__shared_ptrINSt6thread10_Impl_baseELN9__gnu_cxx12_Lock_policyE2EEC2INS0_5_ImplISt12_Bind_simpleIFZ10run_serveriSt8functionIFviEEE3$_0vEEEEvEEOS_IT_LS3_2EE>
  40511d:	48 83 c4 20          	add    $0x20,%rsp
  405121:	5d                   	pop    %rbp
  405122:	c3                   	retq   
  405123:	66 66 66 66 2e 0f 1f 	data16 data16 data16 nopw %cs:0x0(%rax,%rax,1)
  40512a:	84 00 00 00 00 00 

0000000000405130 <_ZNSt10shared_ptrINSt6thread5_ImplISt12_Bind_simpleIFZ10run_serveriSt8functionIFviEEE3$_0vEEEEED2Ev>:
  405130:	55                   	push   %rbp
  405131:	48 89 e5             	mov    %rsp,%rbp
  405134:	48 83 ec 10          	sub    $0x10,%rsp
  405138:	48 89 7d f8          	mov    %rdi,-0x8(%rbp)
  40513c:	48 8b 7d f8          	mov    -0x8(%rbp),%rdi
  405140:	e8 0b 11 00 00       	callq  406250 <_ZNSt12__shared_ptrINSt6thread5_ImplISt12_Bind_simpleIFZ10run_serveriSt8functionIFviEEE3$_0vEEEELN9__gnu_cxx12_Lock_policyE2EED2Ev>
  405145:	48 83 c4 10          	add    $0x10,%rsp
  405149:	5d                   	pop    %rbp
  40514a:	c3                   	retq   
  40514b:	0f 1f 44 00 00       	nopl   0x0(%rax,%rax,1)

0000000000405150 <_ZSt11make_sharedINSt6thread5_ImplISt12_Bind_simpleIFZ10run_serveriSt8functionIFviEEE3$_0vEEEEJS8_EESt10shared_ptrIT_EDpOT0_>:
  405150:	55                   	push   %rbp
  405151:	48 89 e5             	mov    %rsp,%rbp
  405154:	48 83 ec 40          	sub    $0x40,%rsp
  405158:	48 89 f8             	mov    %rdi,%rax
  40515b:	48 89 75 f8          	mov    %rsi,-0x8(%rbp)
  40515f:	48 8d 75 f0          	lea    -0x10(%rbp),%rsi
  405163:	48 89 7d d8          	mov    %rdi,-0x28(%rbp)
  405167:	48 89 f7             	mov    %rsi,%rdi
  40516a:	48 89 45 d0          	mov    %rax,-0x30(%rbp)
  40516e:	48 89 75 c8          	mov    %rsi,-0x38(%rbp)
  405172:	e8 b9 00 00 00       	callq  405230 <_ZNSaINSt6thread5_ImplISt12_Bind_simpleIFZ10run_serveriSt8functionIFviEEE3$_0vEEEEEC2Ev>
  405177:	48 8b 7d f8          	mov    -0x8(%rbp),%rdi
  40517b:	e8 50 00 00 00       	callq  4051d0 <_ZSt7forwardISt12_Bind_simpleIFZ10run_serveriSt8functionIFviEEE3$_0vEEEOT_RNSt16remove_referenceIS7_E4typeE>
  405180:	48 8b 7d d8          	mov    -0x28(%rbp),%rdi
  405184:	48 8b 75 c8          	mov    -0x38(%rbp),%rsi
  405188:	48 89 c2             	mov    %rax,%rdx
  40518b:	e8 50 00 00 00       	callq  4051e0 <_ZSt15allocate_sharedINSt6thread5_ImplISt12_Bind_simpleIFZ10run_serveriSt8functionIFviEEE3$_0vEEEESaIS9_EJS8_EESt10shared_ptrIT_ERKT0_DpOT1_>
  405190:	e9 00 00 00 00       	jmpq   405195 <_ZSt11make_sharedINSt6thread5_ImplISt12_Bind_simpleIFZ10run_serveriSt8functionIFviEEE3$_0vEEEEJS8_EESt10shared_ptrIT_EDpOT0_+0x45>
  405195:	48 8d 7d f0          	lea    -0x10(%rbp),%rdi
  405199:	e8 b2 00 00 00       	callq  405250 <_ZNSaINSt6thread5_ImplISt12_Bind_simpleIFZ10run_serveriSt8functionIFviEEE3$_0vEEEEED2Ev>
  40519e:	48 8b 45 d0          	mov    -0x30(%rbp),%rax
  4051a2:	48 83 c4 40          	add    $0x40,%rsp
  4051a6:	5d                   	pop    %rbp
  4051a7:	c3                   	retq   
  4051a8:	48 8d 7d f0          	lea    -0x10(%rbp),%rdi
  4051ac:	89 d1                	mov    %edx,%ecx
  4051ae:	48 89 45 e8          	mov    %rax,-0x18(%rbp)
  4051b2:	89 4d e4             	mov    %ecx,-0x1c(%rbp)
  4051b5:	e8 96 00 00 00       	callq  405250 <_ZNSaINSt6thread5_ImplISt12_Bind_simpleIFZ10run_serveriSt8functionIFviEEE3$_0vEEEEED2Ev>
  4051ba:	48 8b 7d e8          	mov    -0x18(%rbp),%rdi
  4051be:	e8 5d de ff ff       	callq  403020 <_Unwind_Resume@plt>
  4051c3:	66 66 66 66 2e 0f 1f 	data16 data16 data16 nopw %cs:0x0(%rax,%rax,1)
  4051ca:	84 00 00 00 00 00 

00000000004051d0 <_ZSt7forwardISt12_Bind_simpleIFZ10run_serveriSt8functionIFviEEE3$_0vEEEOT_RNSt16remove_referenceIS7_E4typeE>:
  4051d0:	55                   	push   %rbp
  4051d1:	48 89 e5             	mov    %rsp,%rbp
  4051d4:	48 89 7d f8          	mov    %rdi,-0x8(%rbp)
  4051d8:	48 8b 45 f8          	mov    -0x8(%rbp),%rax
  4051dc:	5d                   	pop    %rbp
  4051dd:	c3                   	retq   
  4051de:	66 90                	xchg   %ax,%ax

00000000004051e0 <_ZSt15allocate_sharedINSt6thread5_ImplISt12_Bind_simpleIFZ10run_serveriSt8functionIFviEEE3$_0vEEEESaIS9_EJS8_EESt10shared_ptrIT_ERKT0_DpOT1_>:
  4051e0:	55                   	push   %rbp
  4051e1:	48 89 e5             	mov    %rsp,%rbp
  4051e4:	48 83 ec 30          	sub    $0x30,%rsp
  4051e8:	48 89 f8             	mov    %rdi,%rax
  4051eb:	48 89 75 f8          	mov    %rsi,-0x8(%rbp)
  4051ef:	48 89 55 f0          	mov    %rdx,-0x10(%rbp)
  4051f3:	48 8b 75 f8          	mov    -0x8(%rbp),%rsi
  4051f7:	48 8b 55 f0          	mov    -0x10(%rbp),%rdx
  4051fb:	48 89 7d e0          	mov    %rdi,-0x20(%rbp)
  4051ff:	48 89 d7             	mov    %rdx,%rdi
  405202:	48 89 45 d8          	mov    %rax,-0x28(%rbp)
  405206:	48 89 75 d0          	mov    %rsi,-0x30(%rbp)
  40520a:	e8 c1 ff ff ff       	callq  4051d0 <_ZSt7forwardISt12_Bind_simpleIFZ10run_serveriSt8functionIFviEEE3$_0vEEEOT_RNSt16remove_referenceIS7_E4typeE>
  40520f:	48 8b 7d e0          	mov    -0x20(%rbp),%rdi
  405213:	48 8b 75 d0          	mov    -0x30(%rbp),%rsi
  405217:	48 89 c2             	mov    %rax,%rdx
  40521a:	e8 51 00 00 00       	callq  405270 <_ZNSt10shared_ptrINSt6thread5_ImplISt12_Bind_simpleIFZ10run_serveriSt8functionIFviEEE3$_0vEEEEEC2ISaIS9_EJS8_EEESt19_Sp_make_shared_tagRKT_DpOT0_>
  40521f:	48 8b 45 d8          	mov    -0x28(%rbp),%rax
  405223:	48 83 c4 30          	add    $0x30,%rsp
  405227:	5d                   	pop    %rbp
  405228:	c3                   	retq   
  405229:	0f 1f 80 00 00 00 00 	nopl   0x0(%rax)

0000000000405230 <_ZNSaINSt6thread5_ImplISt12_Bind_simpleIFZ10run_serveriSt8functionIFviEEE3$_0vEEEEEC2Ev>:
  405230:	55                   	push   %rbp
  405231:	48 89 e5             	mov    %rsp,%rbp
  405234:	48 83 ec 10          	sub    $0x10,%rsp
  405238:	48 89 7d f8          	mov    %rdi,-0x8(%rbp)
  40523c:	48 8b 7d f8          	mov    -0x8(%rbp),%rdi
  405240:	e8 1b 0e 00 00       	callq  406060 <_ZN9__gnu_cxx13new_allocatorINSt6thread5_ImplISt12_Bind_simpleIFZ10run_serveriSt8functionIFviEEE3$_0vEEEEEC2Ev>
  405245:	48 83 c4 10          	add    $0x10,%rsp
  405249:	5d                   	pop    %rbp
  40524a:	c3                   	retq   
  40524b:	0f 1f 44 00 00       	nopl   0x0(%rax,%rax,1)

0000000000405250 <_ZNSaINSt6thread5_ImplISt12_Bind_simpleIFZ10run_serveriSt8functionIFviEEE3$_0vEEEEED2Ev>:
  405250:	55                   	push   %rbp
  405251:	48 89 e5             	mov    %rsp,%rbp
  405254:	48 83 ec 10          	sub    $0x10,%rsp
  405258:	48 89 7d f8          	mov    %rdi,-0x8(%rbp)
  40525c:	48 8b 7d f8          	mov    -0x8(%rbp),%rdi
  405260:	e8 ab 0c 00 00       	callq  405f10 <_ZN9__gnu_cxx13new_allocatorINSt6thread5_ImplISt12_Bind_simpleIFZ10run_serveriSt8functionIFviEEE3$_0vEEEEED2Ev>
  405265:	48 83 c4 10          	add    $0x10,%rsp
  405269:	5d                   	pop    %rbp
  40526a:	c3                   	retq   
  40526b:	0f 1f 44 00 00       	nopl   0x0(%rax,%rax,1)

0000000000405270 <_ZNSt10shared_ptrINSt6thread5_ImplISt12_Bind_simpleIFZ10run_serveriSt8functionIFviEEE3$_0vEEEEEC2ISaIS9_EJS8_EEESt19_Sp_make_shared_tagRKT_DpOT0_>:
  405270:	55                   	push   %rbp
  405271:	48 89 e5             	mov    %rsp,%rbp
  405274:	48 83 ec 40          	sub    $0x40,%rsp
  405278:	48 89 7d f0          	mov    %rdi,-0x10(%rbp)
  40527c:	48 89 75 e8          	mov    %rsi,-0x18(%rbp)
  405280:	48 89 55 e0          	mov    %rdx,-0x20(%rbp)
  405284:	48 8b 55 f0          	mov    -0x10(%rbp),%rdx
  405288:	48 8b 75 e8          	mov    -0x18(%rbp),%rsi
  40528c:	48 8b 7d e0          	mov    -0x20(%rbp),%rdi
  405290:	48 89 55 d0          	mov    %rdx,-0x30(%rbp)
  405294:	48 89 75 c8          	mov    %rsi,-0x38(%rbp)
  405298:	e8 33 ff ff ff       	callq  4051d0 <_ZSt7forwardISt12_Bind_simpleIFZ10run_serveriSt8functionIFviEEE3$_0vEEEOT_RNSt16remove_referenceIS7_E4typeE>
  40529d:	48 8b 7d d0          	mov    -0x30(%rbp),%rdi
  4052a1:	48 8b 75 c8          	mov    -0x38(%rbp),%rsi
  4052a5:	48 89 c2             	mov    %rax,%rdx
  4052a8:	e8 13 00 00 00       	callq  4052c0 <_ZNSt12__shared_ptrINSt6thread5_ImplISt12_Bind_simpleIFZ10run_serveriSt8functionIFviEEE3$_0vEEEELN9__gnu_cxx12_Lock_policyE2EEC2ISaIS9_EJS8_EEESt19_Sp_make_shared_tagRKT_DpOT0_>
  4052ad:	48 83 c4 40          	add    $0x40,%rsp
  4052b1:	5d                   	pop    %rbp
  4052b2:	c3                   	retq   
  4052b3:	66 66 66 66 2e 0f 1f 	data16 data16 data16 nopw %cs:0x0(%rax,%rax,1)
  4052ba:	84 00 00 00 00 00 

00000000004052c0 <_ZNSt12__shared_ptrINSt6thread5_ImplISt12_Bind_simpleIFZ10run_serveriSt8functionIFviEEE3$_0vEEEELN9__gnu_cxx12_Lock_policyE2EEC2ISaIS9_EJS8_EEESt19_Sp_make_shared_tagRKT_DpOT0_>:
  4052c0:	55                   	push   %rbp
  4052c1:	48 89 e5             	mov    %rsp,%rbp
  4052c4:	48 83 ec 50          	sub    $0x50,%rsp
  4052c8:	48 89 7d f0          	mov    %rdi,-0x10(%rbp)
  4052cc:	48 89 75 e8          	mov    %rsi,-0x18(%rbp)
  4052d0:	48 89 55 e0          	mov    %rdx,-0x20(%rbp)
  4052d4:	48 8b 55 f0          	mov    -0x10(%rbp),%rdx
  4052d8:	48 c7 02 00 00 00 00 	movq   $0x0,(%rdx)
  4052df:	48 89 d6             	mov    %rdx,%rsi
  4052e2:	48 83 c6 08          	add    $0x8,%rsi
  4052e6:	48 8b 7d e8          	mov    -0x18(%rbp),%rdi
  4052ea:	48 8b 45 e0          	mov    -0x20(%rbp),%rax
  4052ee:	48 89 7d c8          	mov    %rdi,-0x38(%rbp)
  4052f2:	48 89 c7             	mov    %rax,%rdi
  4052f5:	48 89 55 c0          	mov    %rdx,-0x40(%rbp)
  4052f9:	48 89 75 b8          	mov    %rsi,-0x48(%rbp)
  4052fd:	e8 ce fe ff ff       	callq  4051d0 <_ZSt7forwardISt12_Bind_simpleIFZ10run_serveriSt8functionIFviEEE3$_0vEEEOT_RNSt16remove_referenceIS7_E4typeE>
  405302:	31 c9                	xor    %ecx,%ecx
  405304:	89 ce                	mov    %ecx,%esi
  405306:	48 8b 7d b8          	mov    -0x48(%rbp),%rdi
  40530a:	48 8b 55 c8          	mov    -0x38(%rbp),%rdx
  40530e:	48 89 c1             	mov    %rax,%rcx
  405311:	e8 4a 00 00 00       	callq  405360 <_ZNSt14__shared_countILN9__gnu_cxx12_Lock_policyE2EEC2INSt6thread5_ImplISt12_Bind_simpleIFZ10run_serveriSt8functionIFviEEE3$_0vEEEESaISD_EJSC_EEESt19_Sp_make_shared_tagPT_RKT0_DpOT1_>
  405316:	48 b8 58 ef 40 00 00 	movabs $0x40ef58,%rax
  40531d:	00 00 00 
  405320:	48 8b 4d c0          	mov    -0x40(%rbp),%rcx
  405324:	48 83 c1 08          	add    $0x8,%rcx
  405328:	48 89 cf             	mov    %rcx,%rdi
  40532b:	48 89 c6             	mov    %rax,%rsi
  40532e:	e8 6d 63 00 00       	callq  40b6a0 <_ZNKSt14__shared_countILN9__gnu_cxx12_Lock_policyE2EE14_M_get_deleterERKSt9type_info>
  405333:	48 89 45 d0          	mov    %rax,-0x30(%rbp)
  405337:	48 8b 45 d0          	mov    -0x30(%rbp),%rax
  40533b:	48 8b 4d c0          	mov    -0x40(%rbp),%rcx
  40533f:	48 89 01             	mov    %rax,(%rcx)
  405342:	48 83 c1 08          	add    $0x8,%rcx
  405346:	48 8b 45 c0          	mov    -0x40(%rbp),%rax
  40534a:	48 8b 30             	mov    (%rax),%rsi
  40534d:	48 8b 10             	mov    (%rax),%rdx
  405350:	48 89 cf             	mov    %rcx,%rdi
  405353:	b0 00                	mov    $0x0,%al
  405355:	e8 a6 63 00 00       	callq  40b700 <_ZSt32__enable_shared_from_this_helperILN9__gnu_cxx12_Lock_policyE2EEvRKSt14__shared_countIXT_EEz>
  40535a:	48 83 c4 50          	add    $0x50,%rsp
  40535e:	5d                   	pop    %rbp
  40535f:	c3                   	retq   

0000000000405360 <_ZNSt14__shared_countILN9__gnu_cxx12_Lock_policyE2EEC2INSt6thread5_ImplISt12_Bind_simpleIFZ10run_serveriSt8functionIFviEEE3$_0vEEEESaISD_EJSC_EEESt19_Sp_make_shared_tagPT_RKT0_DpOT1_>:
  405360:	55                   	push   %rbp
  405361:	48 89 e5             	mov    %rsp,%rbp
  405364:	48 81 ec 90 00 00 00 	sub    $0x90,%rsp
  40536b:	48 89 7d f0          	mov    %rdi,-0x10(%rbp)
  40536f:	48 89 75 e8          	mov    %rsi,-0x18(%rbp)
  405373:	48 89 55 e0          	mov    %rdx,-0x20(%rbp)
  405377:	48 89 4d d8          	mov    %rcx,-0x28(%rbp)
  40537b:	48 8b 4d f0          	mov    -0x10(%rbp),%rcx
  40537f:	48 c7 01 00 00 00 00 	movq   $0x0,(%rcx)
  405386:	48 8b 75 e0          	mov    -0x20(%rbp),%rsi
  40538a:	48 8d 55 d0          	lea    -0x30(%rbp),%rdx
  40538e:	48 89 d7             	mov    %rdx,%rdi
  405391:	48 89 4d 98          	mov    %rcx,-0x68(%rbp)
  405395:	48 89 55 90          	mov    %rdx,-0x70(%rbp)
  405399:	e8 f2 00 00 00       	callq  405490 <_ZNSaISt23_Sp_counted_ptr_inplaceINSt6thread5_ImplISt12_Bind_simpleIFZ10run_serveriSt8functionIFviEEE3$_0vEEEESaIS9_ELN9__gnu_cxx12_Lock_policyE2EEEC2IS9_EERKSaIT_E>
  40539e:	48 8d 7d c0          	lea    -0x40(%rbp),%rdi
  4053a2:	48 8b 75 90          	mov    -0x70(%rbp),%rsi
  4053a6:	e8 15 01 00 00       	callq  4054c0 <_ZSt18__allocate_guardedISaISt23_Sp_counted_ptr_inplaceINSt6thread5_ImplISt12_Bind_simpleIFZ10run_serveriSt8functionIFviEEE3$_0vEEEESaISA_ELN9__gnu_cxx12_Lock_policyE2EEEESt15__allocated_ptrIT_ERSH_>
  4053ab:	e9 00 00 00 00       	jmpq   4053b0 <_ZNSt14__shared_countILN9__gnu_cxx12_Lock_policyE2EEC2INSt6thread5_ImplISt12_Bind_simpleIFZ10run_serveriSt8functionIFviEEE3$_0vEEEESaISD_EJSC_EEESt19_Sp_make_shared_tagPT_RKT0_DpOT1_+0x50>
  4053b0:	48 8d 7d c0          	lea    -0x40(%rbp),%rdi
  4053b4:	e8 57 01 00 00       	callq  405510 <_ZNSt15__allocated_ptrISaISt23_Sp_counted_ptr_inplaceINSt6thread5_ImplISt12_Bind_simpleIFZ10run_serveriSt8functionIFviEEE3$_0vEEEESaISA_ELN9__gnu_cxx12_Lock_policyE2EEEE3getEv>
  4053b9:	48 89 45 88          	mov    %rax,-0x78(%rbp)
  4053bd:	e9 00 00 00 00       	jmpq   4053c2 <_ZNSt14__shared_countILN9__gnu_cxx12_Lock_policyE2EEC2INSt6thread5_ImplISt12_Bind_simpleIFZ10run_serveriSt8functionIFviEEE3$_0vEEEESaISD_EJSC_EEESt19_Sp_make_shared_tagPT_RKT0_DpOT1_+0x62>
  4053c2:	48 8b 45 88          	mov    -0x78(%rbp),%rax
  4053c6:	48 89 45 a8          	mov    %rax,-0x58(%rbp)
  4053ca:	48 8b 7d e0          	mov    -0x20(%rbp),%rdi
  4053ce:	e8 5d 01 00 00       	callq  405530 <_ZSt4moveIRKSaINSt6thread5_ImplISt12_Bind_simpleIFZ10run_serveriSt8functionIFviEEE3$_0vEEEEEEONSt16remove_referenceIT_E4typeEOSE_>
  4053d3:	48 8d 7d a0          	lea    -0x60(%rbp),%rdi
  4053d7:	48 89 7d 80          	mov    %rdi,-0x80(%rbp)
  4053db:	48 89 c6             	mov    %rax,%rsi
  4053de:	e8 5d 01 00 00       	callq  405540 <_ZNSaINSt6thread5_ImplISt12_Bind_simpleIFZ10run_serveriSt8functionIFviEEE3$_0vEEEEEC2ERKS9_>
  4053e3:	48 8b 7d d8          	mov    -0x28(%rbp),%rdi
  4053e7:	e8 e4 fd ff ff       	callq  4051d0 <_ZSt7forwardISt12_Bind_simpleIFZ10run_serveriSt8functionIFviEEE3$_0vEEEOT_RNSt16remove_referenceIS7_E4typeE>
  4053ec:	48 8b 7d 88          	mov    -0x78(%rbp),%rdi
  4053f0:	48 8b 75 80          	mov    -0x80(%rbp),%rsi
  4053f4:	48 89 c2             	mov    %rax,%rdx
  4053f7:	e8 74 01 00 00       	callq  405570 <_ZNSt23_Sp_counted_ptr_inplaceINSt6thread5_ImplISt12_Bind_simpleIFZ10run_serveriSt8functionIFviEEE3$_0vEEEESaIS9_ELN9__gnu_cxx12_Lock_policyE2EEC2IJS8_EEESA_DpOT_>
  4053fc:	e9 00 00 00 00       	jmpq   405401 <_ZNSt14__shared_countILN9__gnu_cxx12_Lock_policyE2EEC2INSt6thread5_ImplISt12_Bind_simpleIFZ10run_serveriSt8functionIFviEEE3$_0vEEEESaISD_EJSC_EEESt19_Sp_make_shared_tagPT_RKT0_DpOT1_+0xa1>
  405401:	48 8d 7d a0          	lea    -0x60(%rbp),%rdi
  405405:	e8 46 fe ff ff       	callq  405250 <_ZNSaINSt6thread5_ImplISt12_Bind_simpleIFZ10run_serveriSt8functionIFviEEE3$_0vEEEEED2Ev>
  40540a:	48 8d 7d c0          	lea    -0x40(%rbp),%rdi
  40540e:	31 c0                	xor    %eax,%eax
  405410:	89 c6                	mov    %eax,%esi
  405412:	48 8b 4d a8          	mov    -0x58(%rbp),%rcx
  405416:	48 8b 55 98          	mov    -0x68(%rbp),%rdx
  40541a:	48 89 0a             	mov    %rcx,(%rdx)
  40541d:	e8 0e 02 00 00       	callq  405630 <_ZNSt15__allocated_ptrISaISt23_Sp_counted_ptr_inplaceINSt6thread5_ImplISt12_Bind_simpleIFZ10run_serveriSt8functionIFviEEE3$_0vEEEESaISA_ELN9__gnu_cxx12_Lock_policyE2EEEEaSEDn>
  405422:	48 8d 7d c0          	lea    -0x40(%rbp),%rdi
  405426:	48 89 85 78 ff ff ff 	mov    %rax,-0x88(%rbp)
  40542d:	e8 1e 02 00 00       	callq  405650 <_ZNSt15__allocated_ptrISaISt23_Sp_counted_ptr_inplaceINSt6thread5_ImplISt12_Bind_simpleIFZ10run_serveriSt8functionIFviEEE3$_0vEEEESaISA_ELN9__gnu_cxx12_Lock_policyE2EEEED2Ev>
  405432:	48 8d 7d d0          	lea    -0x30(%rbp),%rdi
  405436:	e8 75 02 00 00       	callq  4056b0 <_ZNSaISt23_Sp_counted_ptr_inplaceINSt6thread5_ImplISt12_Bind_simpleIFZ10run_serveriSt8functionIFviEEE3$_0vEEEESaIS9_ELN9__gnu_cxx12_Lock_policyE2EEED2Ev>
  40543b:	48 81 c4 90 00 00 00 	add    $0x90,%rsp
  405442:	5d                   	pop    %rbp
  405443:	c3                   	retq   
  405444:	89 d1                	mov    %edx,%ecx
  405446:	48 89 45 b8          	mov    %rax,-0x48(%rbp)
  40544a:	89 4d b4             	mov    %ecx,-0x4c(%rbp)
  40544d:	e9 29 00 00 00       	jmpq   40547b <_ZNSt14__shared_countILN9__gnu_cxx12_Lock_policyE2EEC2INSt6thread5_ImplISt12_Bind_simpleIFZ10run_serveriSt8functionIFviEEE3$_0vEEEESaISD_EJSC_EEESt19_Sp_make_shared_tagPT_RKT0_DpOT1_+0x11b>
  405452:	89 d1                	mov    %edx,%ecx
  405454:	48 89 45 b8          	mov    %rax,-0x48(%rbp)
  405458:	89 4d b4             	mov    %ecx,-0x4c(%rbp)
  40545b:	e9 12 00 00 00       	jmpq   405472 <_ZNSt14__shared_countILN9__gnu_cxx12_Lock_policyE2EEC2INSt6thread5_ImplISt12_Bind_simpleIFZ10run_serveriSt8functionIFviEEE3$_0vEEEESaISD_EJSC_EEESt19_Sp_make_shared_tagPT_RKT0_DpOT1_+0x112>
  405460:	48 8d 7d a0          	lea    -0x60(%rbp),%rdi
  405464:	89 d1                	mov    %edx,%ecx
  405466:	48 89 45 b8          	mov    %rax,-0x48(%rbp)
  40546a:	89 4d b4             	mov    %ecx,-0x4c(%rbp)
  40546d:	e8 de fd ff ff       	callq  405250 <_ZNSaINSt6thread5_ImplISt12_Bind_simpleIFZ10run_serveriSt8functionIFviEEE3$_0vEEEEED2Ev>
  405472:	48 8d 7d c0          	lea    -0x40(%rbp),%rdi
  405476:	e8 d5 01 00 00       	callq  405650 <_ZNSt15__allocated_ptrISaISt23_Sp_counted_ptr_inplaceINSt6thread5_ImplISt12_Bind_simpleIFZ10run_serveriSt8functionIFviEEE3$_0vEEEESaISA_ELN9__gnu_cxx12_Lock_policyE2EEEED2Ev>
  40547b:	48 8d 7d d0          	lea    -0x30(%rbp),%rdi
  40547f:	e8 2c 02 00 00       	callq  4056b0 <_ZNSaISt23_Sp_counted_ptr_inplaceINSt6thread5_ImplISt12_Bind_simpleIFZ10run_serveriSt8functionIFviEEE3$_0vEEEESaIS9_ELN9__gnu_cxx12_Lock_policyE2EEED2Ev>
  405484:	48 8b 7d b8          	mov    -0x48(%rbp),%rdi
  405488:	e8 93 db ff ff       	callq  403020 <_Unwind_Resume@plt>
  40548d:	0f 1f 00             	nopl   (%rax)

0000000000405490 <_ZNSaISt23_Sp_counted_ptr_inplaceINSt6thread5_ImplISt12_Bind_simpleIFZ10run_serveriSt8functionIFviEEE3$_0vEEEESaIS9_ELN9__gnu_cxx12_Lock_policyE2EEEC2IS9_EERKSaIT_E>:
  405490:	55                   	push   %rbp
  405491:	48 89 e5             	mov    %rsp,%rbp
  405494:	48 83 ec 10          	sub    $0x10,%rsp
  405498:	48 89 7d f8          	mov    %rdi,-0x8(%rbp)
  40549c:	48 89 75 f0          	mov    %rsi,-0x10(%rbp)
  4054a0:	48 8b 75 f8          	mov    -0x8(%rbp),%rsi
  4054a4:	48 89 f7             	mov    %rsi,%rdi
  4054a7:	e8 24 02 00 00       	callq  4056d0 <_ZN9__gnu_cxx13new_allocatorISt23_Sp_counted_ptr_inplaceINSt6thread5_ImplISt12_Bind_simpleIFZ10run_serveriSt8functionIFviEEE3$_0vEEEESaISB_ELNS_12_Lock_policyE2EEEC2Ev>
  4054ac:	48 83 c4 10          	add    $0x10,%rsp
  4054b0:	5d                   	pop    %rbp
  4054b1:	c3                   	retq   
  4054b2:	66 66 66 66 66 2e 0f 	data16 data16 data16 data16 nopw %cs:0x0(%rax,%rax,1)
  4054b9:	1f 84 00 00 00 00 00 

00000000004054c0 <_ZSt18__allocate_guardedISaISt23_Sp_counted_ptr_inplaceINSt6thread5_ImplISt12_Bind_simpleIFZ10run_serveriSt8functionIFviEEE3$_0vEEEESaISA_ELN9__gnu_cxx12_Lock_policyE2EEEESt15__allocated_ptrIT_ERSH_>:
  4054c0:	55                   	push   %rbp
  4054c1:	48 89 e5             	mov    %rsp,%rbp
  4054c4:	48 83 ec 20          	sub    $0x20,%rsp
  4054c8:	48 89 f8             	mov    %rdi,%rax
  4054cb:	b9 01 00 00 00       	mov    $0x1,%ecx
  4054d0:	89 ca                	mov    %ecx,%edx
  4054d2:	48 89 75 f8          	mov    %rsi,-0x8(%rbp)
  4054d6:	48 8b 75 f8          	mov    -0x8(%rbp),%rsi
  4054da:	4c 8b 45 f8          	mov    -0x8(%rbp),%r8
  4054de:	48 89 7d f0          	mov    %rdi,-0x10(%rbp)
  4054e2:	4c 89 c7             	mov    %r8,%rdi
  4054e5:	48 89 75 e8          	mov    %rsi,-0x18(%rbp)
  4054e9:	48 89 d6             	mov    %rdx,%rsi
  4054ec:	48 89 45 e0          	mov    %rax,-0x20(%rbp)
  4054f0:	e8 eb 01 00 00       	callq  4056e0 <_ZNSt16allocator_traitsISaISt23_Sp_counted_ptr_inplaceINSt6thread5_ImplISt12_Bind_simpleIFZ10run_serveriSt8functionIFviEEE3$_0vEEEESaISA_ELN9__gnu_cxx12_Lock_policyE2EEEE8allocateERSF_m>
  4054f5:	48 8b 7d f0          	mov    -0x10(%rbp),%rdi
  4054f9:	48 8b 75 e8          	mov    -0x18(%rbp),%rsi
  4054fd:	48 89 c2             	mov    %rax,%rdx
  405500:	e8 1b 02 00 00       	callq  405720 <_ZNSt15__allocated_ptrISaISt23_Sp_counted_ptr_inplaceINSt6thread5_ImplISt12_Bind_simpleIFZ10run_serveriSt8functionIFviEEE3$_0vEEEESaISA_ELN9__gnu_cxx12_Lock_policyE2EEEEC2ERSF_PSE_>
  405505:	48 8b 45 e0          	mov    -0x20(%rbp),%rax
  405509:	48 83 c4 20          	add    $0x20,%rsp
  40550d:	5d                   	pop    %rbp
  40550e:	c3                   	retq   
  40550f:	90                   	nop

0000000000405510 <_ZNSt15__allocated_ptrISaISt23_Sp_counted_ptr_inplaceINSt6thread5_ImplISt12_Bind_simpleIFZ10run_serveriSt8functionIFviEEE3$_0vEEEESaISA_ELN9__gnu_cxx12_Lock_policyE2EEEE3getEv>:
  405510:	55                   	push   %rbp
  405511:	48 89 e5             	mov    %rsp,%rbp
  405514:	48 83 ec 10          	sub    $0x10,%rsp
  405518:	48 89 7d f8          	mov    %rdi,-0x8(%rbp)
  40551c:	48 8b 7d f8          	mov    -0x8(%rbp),%rdi
  405520:	48 8b 77 08          	mov    0x8(%rdi),%rsi
  405524:	e8 97 02 00 00       	callq  4057c0 <_ZNSt15__allocated_ptrISaISt23_Sp_counted_ptr_inplaceINSt6thread5_ImplISt12_Bind_simpleIFZ10run_serveriSt8functionIFviEEE3$_0vEEEESaISA_ELN9__gnu_cxx12_Lock_policyE2EEEE10_S_raw_ptrEPSE_>
  405529:	48 83 c4 10          	add    $0x10,%rsp
  40552d:	5d                   	pop    %rbp
  40552e:	c3                   	retq   
  40552f:	90                   	nop

0000000000405530 <_ZSt4moveIRKSaINSt6thread5_ImplISt12_Bind_simpleIFZ10run_serveriSt8functionIFviEEE3$_0vEEEEEEONSt16remove_referenceIT_E4typeEOSE_>:
  405530:	55                   	push   %rbp
  405531:	48 89 e5             	mov    %rsp,%rbp
  405534:	48 89 7d f8          	mov    %rdi,-0x8(%rbp)
  405538:	48 8b 45 f8          	mov    -0x8(%rbp),%rax
  40553c:	5d                   	pop    %rbp
  40553d:	c3                   	retq   
  40553e:	66 90                	xchg   %ax,%ax

0000000000405540 <_ZNSaINSt6thread5_ImplISt12_Bind_simpleIFZ10run_serveriSt8functionIFviEEE3$_0vEEEEEC2ERKS9_>:
  405540:	55                   	push   %rbp
  405541:	48 89 e5             	mov    %rsp,%rbp
  405544:	48 83 ec 20          	sub    $0x20,%rsp
  405548:	48 89 7d f8          	mov    %rdi,-0x8(%rbp)
  40554c:	48 89 75 f0          	mov    %rsi,-0x10(%rbp)
  405550:	48 8b 75 f8          	mov    -0x8(%rbp),%rsi
  405554:	48 8b 7d f0          	mov    -0x10(%rbp),%rdi
  405558:	48 89 7d e8          	mov    %rdi,-0x18(%rbp)
  40555c:	48 89 f7             	mov    %rsi,%rdi
  40555f:	48 8b 75 e8          	mov    -0x18(%rbp),%rsi
  405563:	e8 78 02 00 00       	callq  4057e0 <_ZN9__gnu_cxx13new_allocatorINSt6thread5_ImplISt12_Bind_simpleIFZ10run_serveriSt8functionIFviEEE3$_0vEEEEEC2ERKSB_>
  405568:	48 83 c4 20          	add    $0x20,%rsp
  40556c:	5d                   	pop    %rbp
  40556d:	c3                   	retq   
  40556e:	66 90                	xchg   %ax,%ax

0000000000405570 <_ZNSt23_Sp_counted_ptr_inplaceINSt6thread5_ImplISt12_Bind_simpleIFZ10run_serveriSt8functionIFviEEE3$_0vEEEESaIS9_ELN9__gnu_cxx12_Lock_policyE2EEC2IJS8_EEESA_DpOT_>:
  405570:	55                   	push   %rbp
  405571:	48 89 e5             	mov    %rsp,%rbp
  405574:	48 83 ec 50          	sub    $0x50,%rsp
  405578:	48 89 7d f8          	mov    %rdi,-0x8(%rbp)
  40557c:	48 89 55 f0          	mov    %rdx,-0x10(%rbp)
  405580:	48 8b 55 f8          	mov    -0x8(%rbp),%rdx
  405584:	48 89 d7             	mov    %rdx,%rdi
  405587:	48 89 75 d0          	mov    %rsi,-0x30(%rbp)
  40558b:	48 89 55 c8          	mov    %rdx,-0x38(%rbp)
  40558f:	e8 7c 61 00 00       	callq  40b710 <_ZNSt16_Sp_counted_baseILN9__gnu_cxx12_Lock_policyE2EEC2Ev>
  405594:	48 8b 55 c8          	mov    -0x38(%rbp),%rdx
  405598:	48 c7 02 20 ed 40 00 	movq   $0x40ed20,(%rdx)
  40559f:	48 83 c2 10          	add    $0x10,%rdx
  4055a3:	48 8d 75 e8          	lea    -0x18(%rbp),%rsi
  4055a7:	48 89 f7             	mov    %rsi,%rdi
  4055aa:	48 8b 45 d0          	mov    -0x30(%rbp),%rax
  4055ae:	48 89 75 c0          	mov    %rsi,-0x40(%rbp)
  4055b2:	48 89 c6             	mov    %rax,%rsi
  4055b5:	48 89 55 b8          	mov    %rdx,-0x48(%rbp)
  4055b9:	e8 82 ff ff ff       	callq  405540 <_ZNSaINSt6thread5_ImplISt12_Bind_simpleIFZ10run_serveriSt8functionIFviEEE3$_0vEEEEEC2ERKS9_>
  4055be:	48 8b 7d b8          	mov    -0x48(%rbp),%rdi
  4055c2:	48 8b 75 c0          	mov    -0x40(%rbp),%rsi
  4055c6:	e8 25 02 00 00       	callq  4057f0 <_ZNSt23_Sp_counted_ptr_inplaceINSt6thread5_ImplISt12_Bind_simpleIFZ10run_serveriSt8functionIFviEEE3$_0vEEEESaIS9_ELN9__gnu_cxx12_Lock_policyE2EE5_ImplC2ESA_>
  4055cb:	48 8b 7d c0          	mov    -0x40(%rbp),%rdi
  4055cf:	e8 7c fc ff ff       	callq  405250 <_ZNSaINSt6thread5_ImplISt12_Bind_simpleIFZ10run_serveriSt8functionIFviEEE3$_0vEEEEED2Ev>
  4055d4:	48 8b 7d c8          	mov    -0x38(%rbp),%rdi
  4055d8:	e8 93 02 00 00       	callq  405870 <_ZNSt23_Sp_counted_ptr_inplaceINSt6thread5_ImplISt12_Bind_simpleIFZ10run_serveriSt8functionIFviEEE3$_0vEEEESaIS9_ELN9__gnu_cxx12_Lock_policyE2EE6_M_ptrEv>
  4055dd:	48 8b 7d f0          	mov    -0x10(%rbp),%rdi
  4055e1:	48 89 45 b0          	mov    %rax,-0x50(%rbp)
  4055e5:	e8 e6 fb ff ff       	callq  4051d0 <_ZSt7forwardISt12_Bind_simpleIFZ10run_serveriSt8functionIFviEEE3$_0vEEEOT_RNSt16remove_referenceIS7_E4typeE>
  4055ea:	48 8b 7d d0          	mov    -0x30(%rbp),%rdi
  4055ee:	48 8b 75 b0          	mov    -0x50(%rbp),%rsi
  4055f2:	48 89 c2             	mov    %rax,%rdx
  4055f5:	e8 26 02 00 00       	callq  405820 <_ZNSt16allocator_traitsISaINSt6thread5_ImplISt12_Bind_simpleIFZ10run_serveriSt8functionIFviEEE3$_0vEEEEEE9constructIS9_JS8_EEEvRSA_PT_DpOT0_>
  4055fa:	e9 00 00 00 00       	jmpq   4055ff <_ZNSt23_Sp_counted_ptr_inplaceINSt6thread5_ImplISt12_Bind_simpleIFZ10run_serveriSt8functionIFviEEE3$_0vEEEESaIS9_ELN9__gnu_cxx12_Lock_policyE2EEC2IJS8_EEESA_DpOT_+0x8f>
  4055ff:	48 83 c4 50          	add    $0x50,%rsp
  405603:	5d                   	pop    %rbp
  405604:	c3                   	retq   
  405605:	89 d1                	mov    %edx,%ecx
  405607:	48 89 45 e0          	mov    %rax,-0x20(%rbp)
  40560b:	89 4d dc             	mov    %ecx,-0x24(%rbp)
  40560e:	48 8b 7d b8          	mov    -0x48(%rbp),%rdi
  405612:	e8 79 02 00 00       	callq  405890 <_ZNSt23_Sp_counted_ptr_inplaceINSt6thread5_ImplISt12_Bind_simpleIFZ10run_serveriSt8functionIFviEEE3$_0vEEEESaIS9_ELN9__gnu_cxx12_Lock_policyE2EE5_ImplD2Ev>
  405617:	48 8b 45 c8          	mov    -0x38(%rbp),%rax
  40561b:	48 89 c7             	mov    %rax,%rdi
  40561e:	e8 1d 61 00 00       	callq  40b740 <_ZNSt16_Sp_counted_baseILN9__gnu_cxx12_Lock_policyE2EED2Ev>
  405623:	48 8b 7d e0          	mov    -0x20(%rbp),%rdi
  405627:	e8 f4 d9 ff ff       	callq  403020 <_Unwind_Resume@plt>
  40562c:	0f 1f 40 00          	nopl   0x0(%rax)

0000000000405630 <_ZNSt15__allocated_ptrISaISt23_Sp_counted_ptr_inplaceINSt6thread5_ImplISt12_Bind_simpleIFZ10run_serveriSt8functionIFviEEE3$_0vEEEESaISA_ELN9__gnu_cxx12_Lock_policyE2EEEEaSEDn>:
  405630:	55                   	push   %rbp
  405631:	48 89 e5             	mov    %rsp,%rbp
  405634:	48 89 7d f8          	mov    %rdi,-0x8(%rbp)
  405638:	48 89 75 f0          	mov    %rsi,-0x10(%rbp)
  40563c:	48 8b 75 f8          	mov    -0x8(%rbp),%rsi
  405640:	48 c7 46 08 00 00 00 	movq   $0x0,0x8(%rsi)
  405647:	00 
  405648:	48 89 f0             	mov    %rsi,%rax
  40564b:	5d                   	pop    %rbp
  40564c:	c3                   	retq   
  40564d:	0f 1f 00             	nopl   (%rax)

0000000000405650 <_ZNSt15__allocated_ptrISaISt23_Sp_counted_ptr_inplaceINSt6thread5_ImplISt12_Bind_simpleIFZ10run_serveriSt8functionIFviEEE3$_0vEEEESaISA_ELN9__gnu_cxx12_Lock_policyE2EEEED2Ev>:
  405650:	55                   	push   %rbp
  405651:	48 89 e5             	mov    %rsp,%rbp
  405654:	48 83 ec 20          	sub    $0x20,%rsp
  405658:	48 89 7d f8          	mov    %rdi,-0x8(%rbp)
  40565c:	48 8b 7d f8          	mov    -0x8(%rbp),%rdi
  405660:	48 83 7f 08 00       	cmpq   $0x0,0x8(%rdi)
  405665:	48 89 7d f0          	mov    %rdi,-0x10(%rbp)
  405669:	0f 84 21 00 00 00    	je     405690 <_ZNSt15__allocated_ptrISaISt23_Sp_counted_ptr_inplaceINSt6thread5_ImplISt12_Bind_simpleIFZ10run_serveriSt8functionIFviEEE3$_0vEEEESaISA_ELN9__gnu_cxx12_Lock_policyE2EEEED2Ev+0x40>
  40566f:	48 8b 45 f0          	mov    -0x10(%rbp),%rax
  405673:	48 8b 38             	mov    (%rax),%rdi
  405676:	48 8b 70 08          	mov    0x8(%rax),%rsi
  40567a:	b9 01 00 00 00       	mov    $0x1,%ecx
  40567f:	89 ca                	mov    %ecx,%edx
  405681:	e8 5a 09 00 00       	callq  405fe0 <_ZNSt16allocator_traitsISaISt23_Sp_counted_ptr_inplaceINSt6thread5_ImplISt12_Bind_simpleIFZ10run_serveriSt8functionIFviEEE3$_0vEEEESaISA_ELN9__gnu_cxx12_Lock_policyE2EEEE10deallocateERSF_PSE_m>
  405686:	e9 00 00 00 00       	jmpq   40568b <_ZNSt15__allocated_ptrISaISt23_Sp_counted_ptr_inplaceINSt6thread5_ImplISt12_Bind_simpleIFZ10run_serveriSt8functionIFviEEE3$_0vEEEESaISA_ELN9__gnu_cxx12_Lock_policyE2EEEED2Ev+0x3b>
  40568b:	e9 00 00 00 00       	jmpq   405690 <_ZNSt15__allocated_ptrISaISt23_Sp_counted_ptr_inplaceINSt6thread5_ImplISt12_Bind_simpleIFZ10run_serveriSt8functionIFviEEE3$_0vEEEESaISA_ELN9__gnu_cxx12_Lock_policyE2EEEED2Ev+0x40>
  405690:	48 83 c4 20          	add    $0x20,%rsp
  405694:	5d                   	pop    %rbp
  405695:	c3                   	retq   
  405696:	89 d1                	mov    %edx,%ecx
  405698:	48 89 c7             	mov    %rax,%rdi
  40569b:	89 4d ec             	mov    %ecx,-0x14(%rbp)
  40569e:	e8 1d 1e 00 00       	callq  4074c0 <__clang_call_terminate>
  4056a3:	66 66 66 66 2e 0f 1f 	data16 data16 data16 nopw %cs:0x0(%rax,%rax,1)
  4056aa:	84 00 00 00 00 00 

00000000004056b0 <_ZNSaISt23_Sp_counted_ptr_inplaceINSt6thread5_ImplISt12_Bind_simpleIFZ10run_serveriSt8functionIFviEEE3$_0vEEEESaIS9_ELN9__gnu_cxx12_Lock_policyE2EEED2Ev>:
  4056b0:	55                   	push   %rbp
  4056b1:	48 89 e5             	mov    %rsp,%rbp
  4056b4:	48 83 ec 10          	sub    $0x10,%rsp
  4056b8:	48 89 7d f8          	mov    %rdi,-0x8(%rbp)
  4056bc:	48 8b 7d f8          	mov    -0x8(%rbp),%rdi
  4056c0:	e8 8b 09 00 00       	callq  406050 <_ZN9__gnu_cxx13new_allocatorISt23_Sp_counted_ptr_inplaceINSt6thread5_ImplISt12_Bind_simpleIFZ10run_serveriSt8functionIFviEEE3$_0vEEEESaISB_ELNS_12_Lock_policyE2EEED2Ev>
  4056c5:	48 83 c4 10          	add    $0x10,%rsp
  4056c9:	5d                   	pop    %rbp
  4056ca:	c3                   	retq   
  4056cb:	0f 1f 44 00 00       	nopl   0x0(%rax,%rax,1)

00000000004056d0 <_ZN9__gnu_cxx13new_allocatorISt23_Sp_counted_ptr_inplaceINSt6thread5_ImplISt12_Bind_simpleIFZ10run_serveriSt8functionIFviEEE3$_0vEEEESaISB_ELNS_12_Lock_policyE2EEEC2Ev>:
  4056d0:	55                   	push   %rbp
  4056d1:	48 89 e5             	mov    %rsp,%rbp
  4056d4:	48 89 7d f8          	mov    %rdi,-0x8(%rbp)
  4056d8:	5d                   	pop    %rbp
  4056d9:	c3                   	retq   
  4056da:	66 0f 1f 44 00 00    	nopw   0x0(%rax,%rax,1)

00000000004056e0 <_ZNSt16allocator_traitsISaISt23_Sp_counted_ptr_inplaceINSt6thread5_ImplISt12_Bind_simpleIFZ10run_serveriSt8functionIFviEEE3$_0vEEEESaISA_ELN9__gnu_cxx12_Lock_policyE2EEEE8allocateERSF_m>:
  4056e0:	55                   	push   %rbp
  4056e1:	48 89 e5             	mov    %rsp,%rbp
  4056e4:	48 83 ec 20          	sub    $0x20,%rsp
  4056e8:	31 c0                	xor    %eax,%eax
  4056ea:	89 c2                	mov    %eax,%edx
  4056ec:	48 89 7d f8          	mov    %rdi,-0x8(%rbp)
  4056f0:	48 89 75 f0          	mov    %rsi,-0x10(%rbp)
  4056f4:	48 8b 75 f8          	mov    -0x8(%rbp),%rsi
  4056f8:	48 8b 7d f0          	mov    -0x10(%rbp),%rdi
  4056fc:	48 89 7d e8          	mov    %rdi,-0x18(%rbp)
  405700:	48 89 f7             	mov    %rsi,%rdi
  405703:	48 8b 75 e8          	mov    -0x18(%rbp),%rsi
  405707:	e8 44 00 00 00       	callq  405750 <_ZN9__gnu_cxx13new_allocatorISt23_Sp_counted_ptr_inplaceINSt6thread5_ImplISt12_Bind_simpleIFZ10run_serveriSt8functionIFviEEE3$_0vEEEESaISB_ELNS_12_Lock_policyE2EEE8allocateEmPKv>
  40570c:	48 83 c4 20          	add    $0x20,%rsp
  405710:	5d                   	pop    %rbp
  405711:	c3                   	retq   
  405712:	66 66 66 66 66 2e 0f 	data16 data16 data16 data16 nopw %cs:0x0(%rax,%rax,1)
  405719:	1f 84 00 00 00 00 00 

0000000000405720 <_ZNSt15__allocated_ptrISaISt23_Sp_counted_ptr_inplaceINSt6thread5_ImplISt12_Bind_simpleIFZ10run_serveriSt8functionIFviEEE3$_0vEEEESaISA_ELN9__gnu_cxx12_Lock_policyE2EEEEC2ERSF_PSE_>:
  405720:	55                   	push   %rbp
  405721:	48 89 e5             	mov    %rsp,%rbp
  405724:	48 89 7d f8          	mov    %rdi,-0x8(%rbp)
  405728:	48 89 75 f0          	mov    %rsi,-0x10(%rbp)
  40572c:	48 89 55 e8          	mov    %rdx,-0x18(%rbp)
  405730:	48 8b 55 f8          	mov    -0x8(%rbp),%rdx
  405734:	48 8b 75 f0          	mov    -0x10(%rbp),%rsi
  405738:	48 89 32             	mov    %rsi,(%rdx)
  40573b:	48 8b 75 e8          	mov    -0x18(%rbp),%rsi
  40573f:	48 89 72 08          	mov    %rsi,0x8(%rdx)
  405743:	5d                   	pop    %rbp
  405744:	c3                   	retq   
  405745:	66 66 2e 0f 1f 84 00 	data16 nopw %cs:0x0(%rax,%rax,1)
  40574c:	00 00 00 00 

0000000000405750 <_ZN9__gnu_cxx13new_allocatorISt23_Sp_counted_ptr_inplaceINSt6thread5_ImplISt12_Bind_simpleIFZ10run_serveriSt8functionIFviEEE3$_0vEEEESaISB_ELNS_12_Lock_policyE2EEE8allocateEmPKv>:
  405750:	55                   	push   %rbp
  405751:	48 89 e5             	mov    %rsp,%rbp
  405754:	48 83 ec 20          	sub    $0x20,%rsp
  405758:	48 89 7d f8          	mov    %rdi,-0x8(%rbp)
  40575c:	48 89 75 f0          	mov    %rsi,-0x10(%rbp)
  405760:	48 89 55 e8          	mov    %rdx,-0x18(%rbp)
  405764:	48 8b 7d f8          	mov    -0x8(%rbp),%rdi
  405768:	48 8b 55 f0          	mov    -0x10(%rbp),%rdx
  40576c:	48 89 55 e0          	mov    %rdx,-0x20(%rbp)
  405770:	e8 2b 00 00 00       	callq  4057a0 <_ZNK9__gnu_cxx13new_allocatorISt23_Sp_counted_ptr_inplaceINSt6thread5_ImplISt12_Bind_simpleIFZ10run_serveriSt8functionIFviEEE3$_0vEEEESaISB_ELNS_12_Lock_policyE2EEE8max_sizeEv>
  405775:	48 8b 55 e0          	mov    -0x20(%rbp),%rdx
  405779:	48 39 c2             	cmp    %rax,%rdx
  40577c:	0f 86 05 00 00 00    	jbe    405787 <_ZN9__gnu_cxx13new_allocatorISt23_Sp_counted_ptr_inplaceINSt6thread5_ImplISt12_Bind_simpleIFZ10run_serveriSt8functionIFviEEE3$_0vEEEESaISB_ELNS_12_Lock_policyE2EEE8allocateEmPKv+0x37>
  405782:	e8 19 d4 ff ff       	callq  402ba0 <_ZSt17__throw_bad_allocv@plt>
  405787:	48 6b 7d f0 48       	imul   $0x48,-0x10(%rbp),%rdi
  40578c:	e8 1f d6 ff ff       	callq  402db0 <_Znwm@plt>
  405791:	48 83 c4 20          	add    $0x20,%rsp
  405795:	5d                   	pop    %rbp
  405796:	c3                   	retq   
  405797:	66 0f 1f 84 00 00 00 	nopw   0x0(%rax,%rax,1)
  40579e:	00 00 

00000000004057a0 <_ZNK9__gnu_cxx13new_allocatorISt23_Sp_counted_ptr_inplaceINSt6thread5_ImplISt12_Bind_simpleIFZ10run_serveriSt8functionIFviEEE3$_0vEEEESaISB_ELNS_12_Lock_policyE2EEE8max_sizeEv>:
  4057a0:	55                   	push   %rbp
  4057a1:	48 89 e5             	mov    %rsp,%rbp
  4057a4:	48 b8 8e e3 38 8e e3 	movabs $0x38e38e38e38e38e,%rax
  4057ab:	38 8e 03 
  4057ae:	48 89 7d f8          	mov    %rdi,-0x8(%rbp)
  4057b2:	5d                   	pop    %rbp
  4057b3:	c3                   	retq   
  4057b4:	66 66 66 2e 0f 1f 84 	data16 data16 nopw %cs:0x0(%rax,%rax,1)
  4057bb:	00 00 00 00 00 

00000000004057c0 <_ZNSt15__allocated_ptrISaISt23_Sp_counted_ptr_inplaceINSt6thread5_ImplISt12_Bind_simpleIFZ10run_serveriSt8functionIFviEEE3$_0vEEEESaISA_ELN9__gnu_cxx12_Lock_policyE2EEEE10_S_raw_ptrEPSE_>:
  4057c0:	55                   	push   %rbp
  4057c1:	48 89 e5             	mov    %rsp,%rbp
  4057c4:	48 89 7d f8          	mov    %rdi,-0x8(%rbp)
  4057c8:	48 89 75 f0          	mov    %rsi,-0x10(%rbp)
  4057cc:	48 8b 45 f0          	mov    -0x10(%rbp),%rax
  4057d0:	5d                   	pop    %rbp
  4057d1:	c3                   	retq   
  4057d2:	66 66 66 66 66 2e 0f 	data16 data16 data16 data16 nopw %cs:0x0(%rax,%rax,1)
  4057d9:	1f 84 00 00 00 00 00 

00000000004057e0 <_ZN9__gnu_cxx13new_allocatorINSt6thread5_ImplISt12_Bind_simpleIFZ10run_serveriSt8functionIFviEEE3$_0vEEEEEC2ERKSB_>:
  4057e0:	55                   	push   %rbp
  4057e1:	48 89 e5             	mov    %rsp,%rbp
  4057e4:	48 89 7d f8          	mov    %rdi,-0x8(%rbp)
  4057e8:	48 89 75 f0          	mov    %rsi,-0x10(%rbp)
  4057ec:	5d                   	pop    %rbp
  4057ed:	c3                   	retq   
  4057ee:	66 90                	xchg   %ax,%ax

00000000004057f0 <_ZNSt23_Sp_counted_ptr_inplaceINSt6thread5_ImplISt12_Bind_simpleIFZ10run_serveriSt8functionIFviEEE3$_0vEEEESaIS9_ELN9__gnu_cxx12_Lock_policyE2EE5_ImplC2ESA_>:
  4057f0:	55                   	push   %rbp
  4057f1:	48 89 e5             	mov    %rsp,%rbp
  4057f4:	48 83 ec 20          	sub    $0x20,%rsp
  4057f8:	48 89 7d f8          	mov    %rdi,-0x8(%rbp)
  4057fc:	48 89 f8             	mov    %rdi,%rax
  4057ff:	48 89 45 f0          	mov    %rax,-0x10(%rbp)
  405803:	e8 48 02 00 00       	callq  405a50 <_ZNSt14_Sp_ebo_helperILi0ESaINSt6thread5_ImplISt12_Bind_simpleIFZ10run_serveriSt8functionIFviEEE3$_0vEEEEELb1EEC2ERKSA_>
  405808:	e9 00 00 00 00       	jmpq   40580d <_ZNSt23_Sp_counted_ptr_inplaceINSt6thread5_ImplISt12_Bind_simpleIFZ10run_serveriSt8functionIFviEEE3$_0vEEEESaIS9_ELN9__gnu_cxx12_Lock_policyE2EE5_ImplC2ESA_+0x1d>
  40580d:	48 83 c4 20          	add    $0x20,%rsp
  405811:	5d                   	pop    %rbp
  405812:	c3                   	retq   
  405813:	89 d1                	mov    %edx,%ecx
  405815:	48 89 c7             	mov    %rax,%rdi
  405818:	89 4d ec             	mov    %ecx,-0x14(%rbp)
  40581b:	e8 a0 1c 00 00       	callq  4074c0 <__clang_call_terminate>

0000000000405820 <_ZNSt16allocator_traitsISaINSt6thread5_ImplISt12_Bind_simpleIFZ10run_serveriSt8functionIFviEEE3$_0vEEEEEE9constructIS9_JS8_EEEvRSA_PT_DpOT0_>:
  405820:	55                   	push   %rbp
  405821:	48 89 e5             	mov    %rsp,%rbp
  405824:	48 83 ec 30          	sub    $0x30,%rsp
  405828:	48 89 7d f8          	mov    %rdi,-0x8(%rbp)
  40582c:	48 89 75 f0          	mov    %rsi,-0x10(%rbp)
  405830:	48 89 55 e8          	mov    %rdx,-0x18(%rbp)
  405834:	48 8b 55 f8          	mov    -0x8(%rbp),%rdx
  405838:	48 8b 75 f0          	mov    -0x10(%rbp),%rsi
  40583c:	48 8b 7d e8          	mov    -0x18(%rbp),%rdi
  405840:	48 89 55 e0          	mov    %rdx,-0x20(%rbp)
  405844:	48 89 75 d8          	mov    %rsi,-0x28(%rbp)
  405848:	e8 83 f9 ff ff       	callq  4051d0 <_ZSt7forwardISt12_Bind_simpleIFZ10run_serveriSt8functionIFviEEE3$_0vEEEOT_RNSt16remove_referenceIS7_E4typeE>
  40584d:	48 8b 7d e0          	mov    -0x20(%rbp),%rdi
  405851:	48 8b 75 d8          	mov    -0x28(%rbp),%rsi
  405855:	48 89 c2             	mov    %rax,%rdx
  405858:	e8 23 02 00 00       	callq  405a80 <_ZN9__gnu_cxx13new_allocatorINSt6thread5_ImplISt12_Bind_simpleIFZ10run_serveriSt8functionIFviEEE3$_0vEEEEE9constructISA_JS9_EEEvPT_DpOT0_>
  40585d:	48 83 c4 30          	add    $0x30,%rsp
  405861:	5d                   	pop    %rbp
  405862:	c3                   	retq   
  405863:	66 66 66 66 2e 0f 1f 	data16 data16 data16 nopw %cs:0x0(%rax,%rax,1)
  40586a:	84 00 00 00 00 00 

0000000000405870 <_ZNSt23_Sp_counted_ptr_inplaceINSt6thread5_ImplISt12_Bind_simpleIFZ10run_serveriSt8functionIFviEEE3$_0vEEEESaIS9_ELN9__gnu_cxx12_Lock_policyE2EE6_M_ptrEv>:
  405870:	55                   	push   %rbp
  405871:	48 89 e5             	mov    %rsp,%rbp
  405874:	48 83 ec 10          	sub    $0x10,%rsp
  405878:	48 89 7d f8          	mov    %rdi,-0x8(%rbp)
  40587c:	48 8b 7d f8          	mov    -0x8(%rbp),%rdi
  405880:	48 83 c7 10          	add    $0x10,%rdi
  405884:	e8 27 06 00 00       	callq  405eb0 <_ZN9__gnu_cxx16__aligned_bufferINSt6thread5_ImplISt12_Bind_simpleIFZ10run_serveriSt8functionIFviEEE3$_0vEEEEE6_M_ptrEv>
  405889:	48 83 c4 10          	add    $0x10,%rsp
  40588d:	5d                   	pop    %rbp
  40588e:	c3                   	retq   
  40588f:	90                   	nop

0000000000405890 <_ZNSt23_Sp_counted_ptr_inplaceINSt6thread5_ImplISt12_Bind_simpleIFZ10run_serveriSt8functionIFviEEE3$_0vEEEESaIS9_ELN9__gnu_cxx12_Lock_policyE2EE5_ImplD2Ev>:
  405890:	55                   	push   %rbp
  405891:	48 89 e5             	mov    %rsp,%rbp
  405894:	48 83 ec 10          	sub    $0x10,%rsp
  405898:	48 89 7d f8          	mov    %rdi,-0x8(%rbp)
  40589c:	48 8b 7d f8          	mov    -0x8(%rbp),%rdi
  4058a0:	e8 4b 06 00 00       	callq  405ef0 <_ZNSt14_Sp_ebo_helperILi0ESaINSt6thread5_ImplISt12_Bind_simpleIFZ10run_serveriSt8functionIFviEEE3$_0vEEEEELb1EED2Ev>
  4058a5:	48 83 c4 10          	add    $0x10,%rsp
  4058a9:	5d                   	pop    %rbp
  4058aa:	c3                   	retq   
  4058ab:	0f 1f 44 00 00       	nopl   0x0(%rax,%rax,1)

00000000004058b0 <_ZNSt23_Sp_counted_ptr_inplaceINSt6thread5_ImplISt12_Bind_simpleIFZ10run_serveriSt8functionIFviEEE3$_0vEEEESaIS9_ELN9__gnu_cxx12_Lock_policyE2EED2Ev>:
  4058b0:	55                   	push   %rbp
  4058b1:	48 89 e5             	mov    %rsp,%rbp
  4058b4:	48 83 ec 10          	sub    $0x10,%rsp
  4058b8:	48 89 7d f8          	mov    %rdi,-0x8(%rbp)
  4058bc:	48 8b 7d f8          	mov    -0x8(%rbp),%rdi
  4058c0:	48 89 f8             	mov    %rdi,%rax
  4058c3:	48 83 c0 10          	add    $0x10,%rax
  4058c7:	48 89 7d f0          	mov    %rdi,-0x10(%rbp)
  4058cb:	48 89 c7             	mov    %rax,%rdi
  4058ce:	e8 bd ff ff ff       	callq  405890 <_ZNSt23_Sp_counted_ptr_inplaceINSt6thread5_ImplISt12_Bind_simpleIFZ10run_serveriSt8functionIFviEEE3$_0vEEEESaIS9_ELN9__gnu_cxx12_Lock_policyE2EE5_ImplD2Ev>
  4058d3:	48 8b 45 f0          	mov    -0x10(%rbp),%rax
  4058d7:	48 89 c7             	mov    %rax,%rdi
  4058da:	e8 61 5e 00 00       	callq  40b740 <_ZNSt16_Sp_counted_baseILN9__gnu_cxx12_Lock_policyE2EED2Ev>
  4058df:	48 83 c4 10          	add    $0x10,%rsp
  4058e3:	5d                   	pop    %rbp
  4058e4:	c3                   	retq   
  4058e5:	66 66 2e 0f 1f 84 00 	data16 nopw %cs:0x0(%rax,%rax,1)
  4058ec:	00 00 00 00 

00000000004058f0 <_ZNSt23_Sp_counted_ptr_inplaceINSt6thread5_ImplISt12_Bind_simpleIFZ10run_serveriSt8functionIFviEEE3$_0vEEEESaIS9_ELN9__gnu_cxx12_Lock_policyE2EED0Ev>:
  4058f0:	55                   	push   %rbp
  4058f1:	48 89 e5             	mov    %rsp,%rbp
  4058f4:	48 83 ec 10          	sub    $0x10,%rsp
  4058f8:	48 89 7d f8          	mov    %rdi,-0x8(%rbp)
  4058fc:	48 8b 7d f8          	mov    -0x8(%rbp),%rdi
  405900:	48 89 7d f0          	mov    %rdi,-0x10(%rbp)
  405904:	e8 a7 ff ff ff       	callq  4058b0 <_ZNSt23_Sp_counted_ptr_inplaceINSt6thread5_ImplISt12_Bind_simpleIFZ10run_serveriSt8functionIFviEEE3$_0vEEEESaIS9_ELN9__gnu_cxx12_Lock_policyE2EED2Ev>
  405909:	48 8b 7d f0          	mov    -0x10(%rbp),%rdi
  40590d:	e8 7e d4 ff ff       	callq  402d90 <_ZdlPv@plt>
  405912:	48 83 c4 10          	add    $0x10,%rsp
  405916:	5d                   	pop    %rbp
  405917:	c3                   	retq   
  405918:	0f 1f 84 00 00 00 00 	nopl   0x0(%rax,%rax,1)
  40591f:	00 

0000000000405920 <_ZNSt23_Sp_counted_ptr_inplaceINSt6thread5_ImplISt12_Bind_simpleIFZ10run_serveriSt8functionIFviEEE3$_0vEEEESaIS9_ELN9__gnu_cxx12_Lock_policyE2EE10_M_disposeEv>:
  405920:	55                   	push   %rbp
  405921:	48 89 e5             	mov    %rsp,%rbp
  405924:	48 83 ec 20          	sub    $0x20,%rsp
  405928:	48 89 7d f8          	mov    %rdi,-0x8(%rbp)
  40592c:	48 89 f8             	mov    %rdi,%rax
  40592f:	48 83 c0 10          	add    $0x10,%rax
  405933:	48 89 7d f0          	mov    %rdi,-0x10(%rbp)
  405937:	48 89 c7             	mov    %rax,%rdi
  40593a:	e8 11 06 00 00       	callq  405f50 <_ZNSt23_Sp_counted_ptr_inplaceINSt6thread5_ImplISt12_Bind_simpleIFZ10run_serveriSt8functionIFviEEE3$_0vEEEESaIS9_ELN9__gnu_cxx12_Lock_policyE2EE5_Impl8_M_allocEv>
  40593f:	48 8b 7d f0          	mov    -0x10(%rbp),%rdi
  405943:	48 89 45 e8          	mov    %rax,-0x18(%rbp)
  405947:	e8 24 ff ff ff       	callq  405870 <_ZNSt23_Sp_counted_ptr_inplaceINSt6thread5_ImplISt12_Bind_simpleIFZ10run_serveriSt8functionIFviEEE3$_0vEEEESaIS9_ELN9__gnu_cxx12_Lock_policyE2EE6_M_ptrEv>
  40594c:	48 8b 7d e8          	mov    -0x18(%rbp),%rdi
  405950:	48 89 c6             	mov    %rax,%rsi
  405953:	e8 c8 05 00 00       	callq  405f20 <_ZNSt16allocator_traitsISaINSt6thread5_ImplISt12_Bind_simpleIFZ10run_serveriSt8functionIFviEEE3$_0vEEEEEE7destroyIS9_EEvRSA_PT_>
  405958:	e9 00 00 00 00       	jmpq   40595d <_ZNSt23_Sp_counted_ptr_inplaceINSt6thread5_ImplISt12_Bind_simpleIFZ10run_serveriSt8functionIFviEEE3$_0vEEEESaIS9_ELN9__gnu_cxx12_Lock_policyE2EE10_M_disposeEv+0x3d>
  40595d:	48 83 c4 20          	add    $0x20,%rsp
  405961:	5d                   	pop    %rbp
  405962:	c3                   	retq   
  405963:	89 d1                	mov    %edx,%ecx
  405965:	48 89 c7             	mov    %rax,%rdi
  405968:	89 4d e4             	mov    %ecx,-0x1c(%rbp)
  40596b:	e8 50 1b 00 00       	callq  4074c0 <__clang_call_terminate>

0000000000405970 <_ZNSt23_Sp_counted_ptr_inplaceINSt6thread5_ImplISt12_Bind_simpleIFZ10run_serveriSt8functionIFviEEE3$_0vEEEESaIS9_ELN9__gnu_cxx12_Lock_policyE2EE10_M_destroyEv>:
  405970:	55                   	push   %rbp
  405971:	48 89 e5             	mov    %rsp,%rbp
  405974:	48 83 ec 30          	sub    $0x30,%rsp
  405978:	48 89 7d f8          	mov    %rdi,-0x8(%rbp)
  40597c:	48 8b 7d f8          	mov    -0x8(%rbp),%rdi
  405980:	48 89 f8             	mov    %rdi,%rax
  405983:	48 83 c0 10          	add    $0x10,%rax
  405987:	48 89 7d d8          	mov    %rdi,-0x28(%rbp)
  40598b:	48 89 c7             	mov    %rax,%rdi
  40598e:	e8 bd 05 00 00       	callq  405f50 <_ZNSt23_Sp_counted_ptr_inplaceINSt6thread5_ImplISt12_Bind_simpleIFZ10run_serveriSt8functionIFviEEE3$_0vEEEESaIS9_ELN9__gnu_cxx12_Lock_policyE2EE5_Impl8_M_allocEv>
  405993:	48 8d 7d f0          	lea    -0x10(%rbp),%rdi
  405997:	48 89 c6             	mov    %rax,%rsi
  40599a:	e8 f1 fa ff ff       	callq  405490 <_ZNSaISt23_Sp_counted_ptr_inplaceINSt6thread5_ImplISt12_Bind_simpleIFZ10run_serveriSt8functionIFviEEE3$_0vEEEESaIS9_ELN9__gnu_cxx12_Lock_policyE2EEEC2IS9_EERKSaIT_E>
  40599f:	48 8d 7d e0          	lea    -0x20(%rbp),%rdi
  4059a3:	48 8d 75 f0          	lea    -0x10(%rbp),%rsi
  4059a7:	48 8b 55 d8          	mov    -0x28(%rbp),%rdx
  4059ab:	e8 70 fd ff ff       	callq  405720 <_ZNSt15__allocated_ptrISaISt23_Sp_counted_ptr_inplaceINSt6thread5_ImplISt12_Bind_simpleIFZ10run_serveriSt8functionIFviEEE3$_0vEEEESaISA_ELN9__gnu_cxx12_Lock_policyE2EEEEC2ERSF_PSE_>
  4059b0:	48 8b 7d d8          	mov    -0x28(%rbp),%rdi
  4059b4:	e8 f7 fe ff ff       	callq  4058b0 <_ZNSt23_Sp_counted_ptr_inplaceINSt6thread5_ImplISt12_Bind_simpleIFZ10run_serveriSt8functionIFviEEE3$_0vEEEESaIS9_ELN9__gnu_cxx12_Lock_policyE2EED2Ev>
  4059b9:	48 8d 7d e0          	lea    -0x20(%rbp),%rdi
  4059bd:	e8 8e fc ff ff       	callq  405650 <_ZNSt15__allocated_ptrISaISt23_Sp_counted_ptr_inplaceINSt6thread5_ImplISt12_Bind_simpleIFZ10run_serveriSt8functionIFviEEE3$_0vEEEESaISA_ELN9__gnu_cxx12_Lock_policyE2EEEED2Ev>
  4059c2:	48 8d 7d f0          	lea    -0x10(%rbp),%rdi
  4059c6:	e8 e5 fc ff ff       	callq  4056b0 <_ZNSaISt23_Sp_counted_ptr_inplaceINSt6thread5_ImplISt12_Bind_simpleIFZ10run_serveriSt8functionIFviEEE3$_0vEEEESaIS9_ELN9__gnu_cxx12_Lock_policyE2EEED2Ev>
  4059cb:	48 83 c4 30          	add    $0x30,%rsp
  4059cf:	5d                   	pop    %rbp
  4059d0:	c3                   	retq   
  4059d1:	66 66 66 66 66 66 2e 	data16 data16 data16 data16 data16 nopw %cs:0x0(%rax,%rax,1)
  4059d8:	0f 1f 84 00 00 00 00 
  4059df:	00 

00000000004059e0 <_ZNSt23_Sp_counted_ptr_inplaceINSt6thread5_ImplISt12_Bind_simpleIFZ10run_serveriSt8functionIFviEEE3$_0vEEEESaIS9_ELN9__gnu_cxx12_Lock_policyE2EE14_M_get_deleterERKSt9type_info>:
  4059e0:	55                   	push   %rbp
  4059e1:	48 89 e5             	mov    %rsp,%rbp
  4059e4:	48 83 ec 20          	sub    $0x20,%rsp
  4059e8:	48 b8 58 ef 40 00 00 	movabs $0x40ef58,%rax
  4059ef:	00 00 00 
  4059f2:	48 89 7d f0          	mov    %rdi,-0x10(%rbp)
  4059f6:	48 89 75 e8          	mov    %rsi,-0x18(%rbp)
  4059fa:	48 8b 7d f0          	mov    -0x10(%rbp),%rdi
  4059fe:	48 8b 75 e8          	mov    -0x18(%rbp),%rsi
  405a02:	48 89 7d e0          	mov    %rdi,-0x20(%rbp)
  405a06:	48 89 f7             	mov    %rsi,%rdi
  405a09:	48 89 c6             	mov    %rax,%rsi
  405a0c:	e8 bf 5f 00 00       	callq  40b9d0 <_ZNKSt9type_infoeqERKS_>
  405a11:	a8 01                	test   $0x1,%al
  405a13:	0f 85 05 00 00 00    	jne    405a1e <_ZNSt23_Sp_counted_ptr_inplaceINSt6thread5_ImplISt12_Bind_simpleIFZ10run_serveriSt8functionIFviEEE3$_0vEEEESaIS9_ELN9__gnu_cxx12_Lock_policyE2EE14_M_get_deleterERKSt9type_info+0x3e>
  405a19:	e9 12 00 00 00       	jmpq   405a30 <_ZNSt23_Sp_counted_ptr_inplaceINSt6thread5_ImplISt12_Bind_simpleIFZ10run_serveriSt8functionIFviEEE3$_0vEEEESaIS9_ELN9__gnu_cxx12_Lock_policyE2EE14_M_get_deleterERKSt9type_info+0x50>
  405a1e:	48 8b 7d e0          	mov    -0x20(%rbp),%rdi
  405a22:	e8 49 fe ff ff       	callq  405870 <_ZNSt23_Sp_counted_ptr_inplaceINSt6thread5_ImplISt12_Bind_simpleIFZ10run_serveriSt8functionIFviEEE3$_0vEEEESaIS9_ELN9__gnu_cxx12_Lock_policyE2EE6_M_ptrEv>
  405a27:	48 89 45 f8          	mov    %rax,-0x8(%rbp)
  405a2b:	e9 08 00 00 00       	jmpq   405a38 <_ZNSt23_Sp_counted_ptr_inplaceINSt6thread5_ImplISt12_Bind_simpleIFZ10run_serveriSt8functionIFviEEE3$_0vEEEESaIS9_ELN9__gnu_cxx12_Lock_policyE2EE14_M_get_deleterERKSt9type_info+0x58>
  405a30:	48 c7 45 f8 00 00 00 	movq   $0x0,-0x8(%rbp)
  405a37:	00 
  405a38:	48 8b 45 f8          	mov    -0x8(%rbp),%rax
  405a3c:	48 83 c4 20          	add    $0x20,%rsp
  405a40:	5d                   	pop    %rbp
  405a41:	c3                   	retq   
  405a42:	66 66 66 66 66 2e 0f 	data16 data16 data16 data16 nopw %cs:0x0(%rax,%rax,1)
  405a49:	1f 84 00 00 00 00 00 

0000000000405a50 <_ZNSt14_Sp_ebo_helperILi0ESaINSt6thread5_ImplISt12_Bind_simpleIFZ10run_serveriSt8functionIFviEEE3$_0vEEEEELb1EEC2ERKSA_>:
  405a50:	55                   	push   %rbp
  405a51:	48 89 e5             	mov    %rsp,%rbp
  405a54:	48 83 ec 20          	sub    $0x20,%rsp
  405a58:	48 89 7d f8          	mov    %rdi,-0x8(%rbp)
  405a5c:	48 89 75 f0          	mov    %rsi,-0x10(%rbp)
  405a60:	48 8b 75 f8          	mov    -0x8(%rbp),%rsi
  405a64:	48 8b 7d f0          	mov    -0x10(%rbp),%rdi
  405a68:	48 89 7d e8          	mov    %rdi,-0x18(%rbp)
  405a6c:	48 89 f7             	mov    %rsi,%rdi
  405a6f:	48 8b 75 e8          	mov    -0x18(%rbp),%rsi
  405a73:	e8 c8 fa ff ff       	callq  405540 <_ZNSaINSt6thread5_ImplISt12_Bind_simpleIFZ10run_serveriSt8functionIFviEEE3$_0vEEEEEC2ERKS9_>
  405a78:	48 83 c4 20          	add    $0x20,%rsp
  405a7c:	5d                   	pop    %rbp
  405a7d:	c3                   	retq   
  405a7e:	66 90                	xchg   %ax,%ax

0000000000405a80 <_ZN9__gnu_cxx13new_allocatorINSt6thread5_ImplISt12_Bind_simpleIFZ10run_serveriSt8functionIFviEEE3$_0vEEEEE9constructISA_JS9_EEEvPT_DpOT0_>:
  405a80:	55                   	push   %rbp
  405a81:	48 89 e5             	mov    %rsp,%rbp
  405a84:	48 83 ec 20          	sub    $0x20,%rsp
  405a88:	48 89 7d f8          	mov    %rdi,-0x8(%rbp)
  405a8c:	48 89 75 f0          	mov    %rsi,-0x10(%rbp)
  405a90:	48 89 55 e8          	mov    %rdx,-0x18(%rbp)
  405a94:	48 8b 55 f0          	mov    -0x10(%rbp),%rdx
  405a98:	48 8b 7d e8          	mov    -0x18(%rbp),%rdi
  405a9c:	48 89 55 e0          	mov    %rdx,-0x20(%rbp)
  405aa0:	e8 2b f7 ff ff       	callq  4051d0 <_ZSt7forwardISt12_Bind_simpleIFZ10run_serveriSt8functionIFviEEE3$_0vEEEOT_RNSt16remove_referenceIS7_E4typeE>
  405aa5:	48 8b 7d e0          	mov    -0x20(%rbp),%rdi
  405aa9:	48 89 c6             	mov    %rax,%rsi
  405aac:	e8 0f 00 00 00       	callq  405ac0 <_ZNSt6thread5_ImplISt12_Bind_simpleIFZ10run_serveriSt8functionIFviEEE3$_0vEEEC2EOS7_>
  405ab1:	48 83 c4 20          	add    $0x20,%rsp
  405ab5:	5d                   	pop    %rbp
  405ab6:	c3                   	retq   
  405ab7:	66 0f 1f 84 00 00 00 	nopw   0x0(%rax,%rax,1)
  405abe:	00 00 

0000000000405ac0 <_ZNSt6thread5_ImplISt12_Bind_simpleIFZ10run_serveriSt8functionIFviEEE3$_0vEEEC2EOS7_>:
  405ac0:	55                   	push   %rbp
  405ac1:	48 89 e5             	mov    %rsp,%rbp
  405ac4:	48 83 ec 20          	sub    $0x20,%rsp
  405ac8:	48 89 7d f8          	mov    %rdi,-0x8(%rbp)
  405acc:	48 89 75 f0          	mov    %rsi,-0x10(%rbp)
  405ad0:	48 8b 75 f8          	mov    -0x8(%rbp),%rsi
  405ad4:	48 89 f7             	mov    %rsi,%rdi
  405ad7:	48 89 75 e8          	mov    %rsi,-0x18(%rbp)
  405adb:	e8 e0 5c 00 00       	callq  40b7c0 <_ZNSt6thread10_Impl_baseC2Ev>
  405ae0:	48 be f8 ed 40 00 00 	movabs $0x40edf8,%rsi
  405ae7:	00 00 00 
  405aea:	48 83 c6 10          	add    $0x10,%rsi
  405aee:	48 8b 7d e8          	mov    -0x18(%rbp),%rdi
  405af2:	48 89 37             	mov    %rsi,(%rdi)
  405af5:	48 83 c7 18          	add    $0x18,%rdi
  405af9:	48 8b 75 f0          	mov    -0x10(%rbp),%rsi
  405afd:	48 89 7d e0          	mov    %rdi,-0x20(%rbp)
  405b01:	48 89 f7             	mov    %rsi,%rdi
  405b04:	e8 c7 f6 ff ff       	callq  4051d0 <_ZSt7forwardISt12_Bind_simpleIFZ10run_serveriSt8functionIFviEEE3$_0vEEEOT_RNSt16remove_referenceIS7_E4typeE>
  405b09:	48 8b 7d e0          	mov    -0x20(%rbp),%rdi
  405b0d:	48 89 c6             	mov    %rax,%rsi
  405b10:	e8 0b 00 00 00       	callq  405b20 <_ZNSt12_Bind_simpleIFZ10run_serveriSt8functionIFviEEE3$_0vEEC2EOS5_>
  405b15:	48 83 c4 20          	add    $0x20,%rsp
  405b19:	5d                   	pop    %rbp
  405b1a:	c3                   	retq   
  405b1b:	0f 1f 44 00 00       	nopl   0x0(%rax,%rax,1)

0000000000405b20 <_ZNSt12_Bind_simpleIFZ10run_serveriSt8functionIFviEEE3$_0vEEC2EOS5_>:
  405b20:	55                   	push   %rbp
  405b21:	48 89 e5             	mov    %rsp,%rbp
  405b24:	48 83 ec 10          	sub    $0x10,%rsp
  405b28:	48 89 7d f8          	mov    %rdi,-0x8(%rbp)
  405b2c:	48 89 75 f0          	mov    %rsi,-0x10(%rbp)
  405b30:	48 8b 7d f8          	mov    -0x8(%rbp),%rdi
  405b34:	48 8b 75 f0          	mov    -0x10(%rbp),%rsi
  405b38:	e8 83 00 00 00       	callq  405bc0 <_ZNSt5tupleIJZ10run_serveriSt8functionIFviEEE3$_0EEC2EOS4_>
  405b3d:	48 83 c4 10          	add    $0x10,%rsp
  405b41:	5d                   	pop    %rbp
  405b42:	c3                   	retq   
  405b43:	66 66 66 66 2e 0f 1f 	data16 data16 data16 nopw %cs:0x0(%rax,%rax,1)
  405b4a:	84 00 00 00 00 00 

0000000000405b50 <_ZNSt6thread5_ImplISt12_Bind_simpleIFZ10run_serveriSt8functionIFviEEE3$_0vEEED2Ev>:
  405b50:	55                   	push   %rbp
  405b51:	48 89 e5             	mov    %rsp,%rbp
  405b54:	48 83 ec 10          	sub    $0x10,%rsp
  405b58:	48 89 7d f8          	mov    %rdi,-0x8(%rbp)
  405b5c:	48 8b 7d f8          	mov    -0x8(%rbp),%rdi
  405b60:	e8 ab 5c 00 00       	callq  40b810 <_ZNSt6thread10_Impl_baseD2Ev>
  405b65:	48 83 c4 10          	add    $0x10,%rsp
  405b69:	5d                   	pop    %rbp
  405b6a:	c3                   	retq   
  405b6b:	0f 1f 44 00 00       	nopl   0x0(%rax,%rax,1)

0000000000405b70 <_ZNSt6thread5_ImplISt12_Bind_simpleIFZ10run_serveriSt8functionIFviEEE3$_0vEEED0Ev>:
  405b70:	55                   	push   %rbp
  405b71:	48 89 e5             	mov    %rsp,%rbp
  405b74:	48 83 ec 10          	sub    $0x10,%rsp
  405b78:	48 89 7d f8          	mov    %rdi,-0x8(%rbp)
  405b7c:	48 8b 7d f8          	mov    -0x8(%rbp),%rdi
  405b80:	48 89 7d f0          	mov    %rdi,-0x10(%rbp)
  405b84:	e8 c7 ff ff ff       	callq  405b50 <_ZNSt6thread5_ImplISt12_Bind_simpleIFZ10run_serveriSt8functionIFviEEE3$_0vEEED2Ev>
  405b89:	48 8b 7d f0          	mov    -0x10(%rbp),%rdi
  405b8d:	e8 fe d1 ff ff       	callq  402d90 <_ZdlPv@plt>
  405b92:	48 83 c4 10          	add    $0x10,%rsp
  405b96:	5d                   	pop    %rbp
  405b97:	c3                   	retq   
  405b98:	0f 1f 84 00 00 00 00 	nopl   0x0(%rax,%rax,1)
  405b9f:	00 

0000000000405ba0 <_ZNSt6thread5_ImplISt12_Bind_simpleIFZ10run_serveriSt8functionIFviEEE3$_0vEEE6_M_runEv>:
  405ba0:	55                   	push   %rbp
  405ba1:	48 89 e5             	mov    %rsp,%rbp
  405ba4:	48 83 ec 10          	sub    $0x10,%rsp
  405ba8:	48 89 7d f8          	mov    %rdi,-0x8(%rbp)
  405bac:	48 8b 7d f8          	mov    -0x8(%rbp),%rdi
  405bb0:	48 83 c7 18          	add    $0x18,%rdi
  405bb4:	e8 07 01 00 00       	callq  405cc0 <_ZNSt12_Bind_simpleIFZ10run_serveriSt8functionIFviEEE3$_0vEEclEv>
  405bb9:	48 83 c4 10          	add    $0x10,%rsp
  405bbd:	5d                   	pop    %rbp
  405bbe:	c3                   	retq   
  405bbf:	90                   	nop

0000000000405bc0 <_ZNSt5tupleIJZ10run_serveriSt8functionIFviEEE3$_0EEC2EOS4_>:
  405bc0:	55                   	push   %rbp
  405bc1:	48 89 e5             	mov    %rsp,%rbp
  405bc4:	48 83 ec 20          	sub    $0x20,%rsp
  405bc8:	48 89 7d f8          	mov    %rdi,-0x8(%rbp)
  405bcc:	48 89 75 f0          	mov    %rsi,-0x10(%rbp)
  405bd0:	48 8b 75 f8          	mov    -0x8(%rbp),%rsi
  405bd4:	48 8b 7d f0          	mov    -0x10(%rbp),%rdi
  405bd8:	48 89 7d e8          	mov    %rdi,-0x18(%rbp)
  405bdc:	48 89 f7             	mov    %rsi,%rdi
  405bdf:	48 8b 75 e8          	mov    -0x18(%rbp),%rsi
  405be3:	e8 08 00 00 00       	callq  405bf0 <_ZNSt11_Tuple_implILm0EJZ10run_serveriSt8functionIFviEEE3$_0EEC2EOS4_>
  405be8:	48 83 c4 20          	add    $0x20,%rsp
  405bec:	5d                   	pop    %rbp
  405bed:	c3                   	retq   
  405bee:	66 90                	xchg   %ax,%ax

0000000000405bf0 <_ZNSt11_Tuple_implILm0EJZ10run_serveriSt8functionIFviEEE3$_0EEC2EOS4_>:
  405bf0:	55                   	push   %rbp
  405bf1:	48 89 e5             	mov    %rsp,%rbp
  405bf4:	48 83 ec 20          	sub    $0x20,%rsp
  405bf8:	48 89 7d f8          	mov    %rdi,-0x8(%rbp)
  405bfc:	48 89 75 f0          	mov    %rsi,-0x10(%rbp)
  405c00:	48 8b 7d f8          	mov    -0x8(%rbp),%rdi
  405c04:	48 89 7d e8          	mov    %rdi,-0x18(%rbp)
  405c08:	48 89 f7             	mov    %rsi,%rdi
  405c0b:	e8 30 00 00 00       	callq  405c40 <_ZNSt11_Tuple_implILm0EJZ10run_serveriSt8functionIFviEEE3$_0EE7_M_headERS4_>
  405c10:	48 89 c7             	mov    %rax,%rdi
  405c13:	e8 58 ed ff ff       	callq  404970 <_ZSt7forwardIZ10run_serveriSt8functionIFviEEE3$_0EOT_RNSt16remove_referenceIS4_E4typeE>
  405c18:	48 8b 7d e8          	mov    -0x18(%rbp),%rdi
  405c1c:	48 89 c6             	mov    %rax,%rsi
  405c1f:	e8 3c 00 00 00       	callq  405c60 <_ZNSt10_Head_baseILm0EZ10run_serveriSt8functionIFviEEE3$_0Lb0EEC2IS3_EEOT_>
  405c24:	e9 00 00 00 00       	jmpq   405c29 <_ZNSt11_Tuple_implILm0EJZ10run_serveriSt8functionIFviEEE3$_0EEC2EOS4_+0x39>
  405c29:	48 83 c4 20          	add    $0x20,%rsp
  405c2d:	5d                   	pop    %rbp
  405c2e:	c3                   	retq   
  405c2f:	89 d1                	mov    %edx,%ecx
  405c31:	48 89 c7             	mov    %rax,%rdi
  405c34:	89 4d e4             	mov    %ecx,-0x1c(%rbp)
  405c37:	e8 84 18 00 00       	callq  4074c0 <__clang_call_terminate>
  405c3c:	0f 1f 40 00          	nopl   0x0(%rax)

0000000000405c40 <_ZNSt11_Tuple_implILm0EJZ10run_serveriSt8functionIFviEEE3$_0EE7_M_headERS4_>:
  405c40:	55                   	push   %rbp
  405c41:	48 89 e5             	mov    %rsp,%rbp
  405c44:	48 83 ec 10          	sub    $0x10,%rsp
  405c48:	48 89 7d f8          	mov    %rdi,-0x8(%rbp)
  405c4c:	48 8b 7d f8          	mov    -0x8(%rbp),%rdi
  405c50:	e8 5b 00 00 00       	callq  405cb0 <_ZNSt10_Head_baseILm0EZ10run_serveriSt8functionIFviEEE3$_0Lb0EE7_M_headERS4_>
  405c55:	48 83 c4 10          	add    $0x10,%rsp
  405c59:	5d                   	pop    %rbp
  405c5a:	c3                   	retq   
  405c5b:	0f 1f 44 00 00       	nopl   0x0(%rax,%rax,1)

0000000000405c60 <_ZNSt10_Head_baseILm0EZ10run_serveriSt8functionIFviEEE3$_0Lb0EEC2IS3_EEOT_>:
  405c60:	55                   	push   %rbp
  405c61:	48 89 e5             	mov    %rsp,%rbp
  405c64:	48 83 ec 20          	sub    $0x20,%rsp
  405c68:	48 89 7d f8          	mov    %rdi,-0x8(%rbp)
  405c6c:	48 89 75 f0          	mov    %rsi,-0x10(%rbp)
  405c70:	48 8b 75 f8          	mov    -0x8(%rbp),%rsi
  405c74:	48 8b 7d f0          	mov    -0x10(%rbp),%rdi
  405c78:	48 89 75 e8          	mov    %rsi,-0x18(%rbp)
  405c7c:	e8 ef ec ff ff       	callq  404970 <_ZSt7forwardIZ10run_serveriSt8functionIFviEEE3$_0EOT_RNSt16remove_referenceIS4_E4typeE>
  405c81:	48 8b 30             	mov    (%rax),%rsi
  405c84:	48 8b 7d e8          	mov    -0x18(%rbp),%rdi
  405c88:	48 89 37             	mov    %rsi,(%rdi)
  405c8b:	48 8b 70 08          	mov    0x8(%rax),%rsi
  405c8f:	48 89 77 08          	mov    %rsi,0x8(%rdi)
  405c93:	48 8b 70 10          	mov    0x10(%rax),%rsi
  405c97:	48 89 77 10          	mov    %rsi,0x10(%rdi)
  405c9b:	48 8b 40 18          	mov    0x18(%rax),%rax
  405c9f:	48 89 47 18          	mov    %rax,0x18(%rdi)
  405ca3:	48 83 c4 20          	add    $0x20,%rsp
  405ca7:	5d                   	pop    %rbp
  405ca8:	c3                   	retq   
  405ca9:	0f 1f 80 00 00 00 00 	nopl   0x0(%rax)

0000000000405cb0 <_ZNSt10_Head_baseILm0EZ10run_serveriSt8functionIFviEEE3$_0Lb0EE7_M_headERS4_>:
  405cb0:	55                   	push   %rbp
  405cb1:	48 89 e5             	mov    %rsp,%rbp
  405cb4:	48 89 7d f8          	mov    %rdi,-0x8(%rbp)
  405cb8:	48 8b 45 f8          	mov    -0x8(%rbp),%rax
  405cbc:	5d                   	pop    %rbp
  405cbd:	c3                   	retq   
  405cbe:	66 90                	xchg   %ax,%ax

0000000000405cc0 <_ZNSt12_Bind_simpleIFZ10run_serveriSt8functionIFviEEE3$_0vEEclEv>:
  405cc0:	55                   	push   %rbp
  405cc1:	48 89 e5             	mov    %rsp,%rbp
  405cc4:	48 83 ec 10          	sub    $0x10,%rsp
  405cc8:	48 89 7d f8          	mov    %rdi,-0x8(%rbp)
  405ccc:	48 8b 7d f8          	mov    -0x8(%rbp),%rdi
  405cd0:	e8 0b 00 00 00       	callq  405ce0 <_ZNSt12_Bind_simpleIFZ10run_serveriSt8functionIFviEEE3$_0vEE9_M_invokeIJEEEvSt12_Index_tupleIJXspT_EEE>
  405cd5:	48 83 c4 10          	add    $0x10,%rsp
  405cd9:	5d                   	pop    %rbp
  405cda:	c3                   	retq   
  405cdb:	0f 1f 44 00 00       	nopl   0x0(%rax,%rax,1)

0000000000405ce0 <_ZNSt12_Bind_simpleIFZ10run_serveriSt8functionIFviEEE3$_0vEE9_M_invokeIJEEEvSt12_Index_tupleIJXspT_EEE>:
  405ce0:	55                   	push   %rbp
  405ce1:	48 89 e5             	mov    %rsp,%rbp
  405ce4:	48 83 ec 10          	sub    $0x10,%rsp
  405ce8:	48 89 7d f0          	mov    %rdi,-0x10(%rbp)
  405cec:	48 8b 7d f0          	mov    -0x10(%rbp),%rdi
  405cf0:	e8 1b 00 00 00       	callq  405d10 <_ZSt3getILm0EJZ10run_serveriSt8functionIFviEEE3$_0EERNSt13tuple_elementIXT_ESt5tupleIJDpT0_EEE4typeERS8_>
  405cf5:	48 89 c7             	mov    %rax,%rdi
  405cf8:	e8 73 ec ff ff       	callq  404970 <_ZSt7forwardIZ10run_serveriSt8functionIFviEEE3$_0EOT_RNSt16remove_referenceIS4_E4typeE>
  405cfd:	48 89 c7             	mov    %rax,%rdi
  405d00:	e8 2b 00 00 00       	callq  405d30 <_ZZ10run_serveriSt8functionIFviEEENK3$_0clEv>
  405d05:	48 83 c4 10          	add    $0x10,%rsp
  405d09:	5d                   	pop    %rbp
  405d0a:	c3                   	retq   
  405d0b:	0f 1f 44 00 00       	nopl   0x0(%rax,%rax,1)

0000000000405d10 <_ZSt3getILm0EJZ10run_serveriSt8functionIFviEEE3$_0EERNSt13tuple_elementIXT_ESt5tupleIJDpT0_EEE4typeERS8_>:
  405d10:	55                   	push   %rbp
  405d11:	48 89 e5             	mov    %rsp,%rbp
  405d14:	48 83 ec 10          	sub    $0x10,%rsp
  405d18:	48 89 7d f8          	mov    %rdi,-0x8(%rbp)
  405d1c:	48 8b 7d f8          	mov    -0x8(%rbp),%rdi
  405d20:	e8 5b 01 00 00       	callq  405e80 <_ZSt12__get_helperILm0EZ10run_serveriSt8functionIFviEEE3$_0JEERT0_RSt11_Tuple_implIXT_EJS4_DpT1_EE>
  405d25:	48 83 c4 10          	add    $0x10,%rsp
  405d29:	5d                   	pop    %rbp
  405d2a:	c3                   	retq   
  405d2b:	0f 1f 44 00 00       	nopl   0x0(%rax,%rax,1)

0000000000405d30 <_ZZ10run_serveriSt8functionIFviEEENK3$_0clEv>:
  405d30:	55                   	push   %rbp
  405d31:	48 89 e5             	mov    %rsp,%rbp
  405d34:	48 81 ec 90 00 00 00 	sub    $0x90,%rsp
  405d3b:	48 89 7d f8          	mov    %rdi,-0x8(%rbp)
  405d3f:	48 89 f8             	mov    %rdi,%rax
  405d42:	48 8b 4f 10          	mov    0x10(%rdi),%rcx
  405d46:	8b 37                	mov    (%rdi),%esi
  405d48:	48 89 cf             	mov    %rcx,%rdi
  405d4b:	48 89 45 98          	mov    %rax,-0x68(%rbp)
  405d4f:	e8 6c 5b 00 00       	callq  40b8c0 <_ZNKSt8functionIFviEEclEi>
  405d54:	e9 00 00 00 00       	jmpq   405d59 <_ZZ10run_serveriSt8functionIFviEEENK3$_0clEv+0x29>
  405d59:	e9 45 00 00 00       	jmpq   405da3 <_ZZ10run_serveriSt8functionIFviEEENK3$_0clEv+0x73>
  405d5e:	89 d1                	mov    %edx,%ecx
  405d60:	48 89 45 f0          	mov    %rax,-0x10(%rbp)
  405d64:	89 4d ec             	mov    %ecx,-0x14(%rbp)
  405d67:	e9 00 00 00 00       	jmpq   405d6c <_ZZ10run_serveriSt8functionIFviEEENK3$_0clEv+0x3c>
  405d6c:	48 8b 45 f0          	mov    -0x10(%rbp),%rax
  405d70:	48 89 c7             	mov    %rax,%rdi
  405d73:	48 89 45 90          	mov    %rax,-0x70(%rbp)
  405d77:	e8 f4 d0 ff ff       	callq  402e70 <__cxa_get_exception_ptr@plt>
  405d7c:	48 8d 7d d8          	lea    -0x28(%rbp),%rdi
  405d80:	48 89 c6             	mov    %rax,%rsi
  405d83:	e8 58 ce ff ff       	callq  402be0 <_ZNSt13runtime_errorC1ERKS_@plt>
  405d88:	48 8b 7d 90          	mov    -0x70(%rbp),%rdi
  405d8c:	e8 2f ce ff ff       	callq  402bc0 <__cxa_begin_catch@plt>
  405d91:	48 8d 7d d8          	lea    -0x28(%rbp),%rdi
  405d95:	48 89 45 88          	mov    %rax,-0x78(%rbp)
  405d99:	e8 32 d0 ff ff       	callq  402dd0 <_ZNSt13runtime_errorD1Ev@plt>
  405d9e:	e8 ed d1 ff ff       	callq  402f90 <__cxa_end_catch@plt>
  405da3:	48 8b 45 98          	mov    -0x68(%rbp),%rax
  405da7:	8b 38                	mov    (%rax),%edi
  405da9:	e8 12 d3 ff ff       	callq  4030c0 <close@plt>
  405dae:	48 8d 7d d0          	lea    -0x30(%rbp),%rdi
  405db2:	48 8b 4d 98          	mov    -0x68(%rbp),%rcx
  405db6:	48 8b 71 18          	mov    0x18(%rcx),%rsi
  405dba:	89 45 84             	mov    %eax,-0x7c(%rbp)
  405dbd:	e8 8e 0f 00 00       	callq  406d50 <_ZNSt10lock_guardISt5mutexEC2ERS0_>
  405dc2:	48 8b 4d 98          	mov    -0x68(%rbp),%rcx
  405dc6:	48 8b 71 08          	mov    0x8(%rcx),%rsi
  405dca:	48 89 75 c8          	mov    %rsi,-0x38(%rbp)
  405dce:	48 8b 7d c8          	mov    -0x38(%rbp),%rdi
  405dd2:	e8 e9 0f 00 00       	callq  406dc0 <_ZNSt6vectorISt4pairISt6threadbESaIS2_EE5beginEv>
  405dd7:	48 89 45 c0          	mov    %rax,-0x40(%rbp)
  405ddb:	48 8b 7d c8          	mov    -0x38(%rbp),%rdi
  405ddf:	e8 0c 10 00 00       	callq  406df0 <_ZNSt6vectorISt4pairISt6threadbESaIS2_EE3endEv>
  405de4:	48 89 45 b8          	mov    %rax,-0x48(%rbp)
  405de8:	48 8d 7d c0          	lea    -0x40(%rbp),%rdi
  405dec:	48 8d 75 b8          	lea    -0x48(%rbp),%rsi
  405df0:	e8 3b 10 00 00       	callq  406e30 <_ZN9__gnu_cxxneIPSt4pairISt6threadbESt6vectorIS3_SaIS3_EEEEbRKNS_17__normal_iteratorIT_T0_EESD_>
  405df5:	a8 01                	test   $0x1,%al
  405df7:	0f 85 05 00 00 00    	jne    405e02 <_ZZ10run_serveriSt8functionIFviEEENK3$_0clEv+0xd2>
  405dfd:	e9 5f 00 00 00       	jmpq   405e61 <_ZZ10run_serveriSt8functionIFviEEENK3$_0clEv+0x131>
  405e02:	48 8d 7d c0          	lea    -0x40(%rbp),%rdi
  405e06:	e8 65 10 00 00       	callq  406e70 <_ZNK9__gnu_cxx17__normal_iteratorIPSt4pairISt6threadbESt6vectorIS3_SaIS3_EEEdeEv>
  405e0b:	48 89 45 b0          	mov    %rax,-0x50(%rbp)
  405e0f:	48 8b 7d b0          	mov    -0x50(%rbp),%rdi
  405e13:	e8 08 5b 00 00       	callq  40b920 <_ZNKSt6thread6get_idEv>
  405e18:	48 89 45 a8          	mov    %rax,-0x58(%rbp)
  405e1c:	e8 1f 5b 00 00       	callq  40b940 <_ZNSt11this_thread6get_idEv>
  405e21:	48 89 45 a0          	mov    %rax,-0x60(%rbp)
  405e25:	48 8b 7d a8          	mov    -0x58(%rbp),%rdi
  405e29:	48 8b 75 a0          	mov    -0x60(%rbp),%rsi
  405e2d:	e8 8e 54 00 00       	callq  40b2c0 <_ZSteqNSt6thread2idES0_>
  405e32:	a8 01                	test   $0x1,%al
  405e34:	0f 85 05 00 00 00    	jne    405e3f <_ZZ10run_serveriSt8functionIFviEEENK3$_0clEv+0x10f>
  405e3a:	e9 08 00 00 00       	jmpq   405e47 <_ZZ10run_serveriSt8functionIFviEEENK3$_0clEv+0x117>
  405e3f:	48 8b 45 b0          	mov    -0x50(%rbp),%rax
  405e43:	c6 40 08 01          	movb   $0x1,0x8(%rax)
  405e47:	e9 00 00 00 00       	jmpq   405e4c <_ZZ10run_serveriSt8functionIFviEEENK3$_0clEv+0x11c>
  405e4c:	48 8d 7d c0          	lea    -0x40(%rbp),%rdi
  405e50:	e8 3b 10 00 00       	callq  406e90 <_ZN9__gnu_cxx17__normal_iteratorIPSt4pairISt6threadbESt6vectorIS3_SaIS3_EEEppEv>
  405e55:	48 89 85 78 ff ff ff 	mov    %rax,-0x88(%rbp)
  405e5c:	e9 87 ff ff ff       	jmpq   405de8 <_ZZ10run_serveriSt8functionIFviEEENK3$_0clEv+0xb8>
  405e61:	48 8d 7d d0          	lea    -0x30(%rbp),%rdi
  405e65:	e8 16 11 00 00       	callq  406f80 <_ZNSt10lock_guardISt5mutexED2Ev>
  405e6a:	48 81 c4 90 00 00 00 	add    $0x90,%rsp
  405e71:	5d                   	pop    %rbp
  405e72:	c3                   	retq   
  405e73:	66 66 66 66 2e 0f 1f 	data16 data16 data16 nopw %cs:0x0(%rax,%rax,1)
  405e7a:	84 00 00 00 00 00 

0000000000405e80 <_ZSt12__get_helperILm0EZ10run_serveriSt8functionIFviEEE3$_0JEERT0_RSt11_Tuple_implIXT_EJS4_DpT1_EE>:
  405e80:	55                   	push   %rbp
  405e81:	48 89 e5             	mov    %rsp,%rbp
  405e84:	48 83 ec 10          	sub    $0x10,%rsp
  405e88:	48 89 7d f8          	mov    %rdi,-0x8(%rbp)
  405e8c:	48 8b 7d f8          	mov    -0x8(%rbp),%rdi
  405e90:	e8 ab fd ff ff       	callq  405c40 <_ZNSt11_Tuple_implILm0EJZ10run_serveriSt8functionIFviEEE3$_0EE7_M_headERS4_>
  405e95:	48 83 c4 10          	add    $0x10,%rsp
  405e99:	5d                   	pop    %rbp
  405e9a:	c3                   	retq   
  405e9b:	0f 1f 44 00 00       	nopl   0x0(%rax,%rax,1)

0000000000405ea0 <_ZL14__gthread_selfv>:
  405ea0:	55                   	push   %rbp
  405ea1:	48 89 e5             	mov    %rsp,%rbp
  405ea4:	e8 c7 ce ff ff       	callq  402d70 <pthread_self@plt>
  405ea9:	5d                   	pop    %rbp
  405eaa:	c3                   	retq   
  405eab:	0f 1f 44 00 00       	nopl   0x0(%rax,%rax,1)

0000000000405eb0 <_ZN9__gnu_cxx16__aligned_bufferINSt6thread5_ImplISt12_Bind_simpleIFZ10run_serveriSt8functionIFviEEE3$_0vEEEEE6_M_ptrEv>:
  405eb0:	55                   	push   %rbp
  405eb1:	48 89 e5             	mov    %rsp,%rbp
  405eb4:	48 83 ec 10          	sub    $0x10,%rsp
  405eb8:	48 89 7d f8          	mov    %rdi,-0x8(%rbp)
  405ebc:	48 8b 7d f8          	mov    -0x8(%rbp),%rdi
  405ec0:	e8 0b 00 00 00       	callq  405ed0 <_ZN9__gnu_cxx16__aligned_bufferINSt6thread5_ImplISt12_Bind_simpleIFZ10run_serveriSt8functionIFviEEE3$_0vEEEEE7_M_addrEv>
  405ec5:	48 83 c4 10          	add    $0x10,%rsp
  405ec9:	5d                   	pop    %rbp
  405eca:	c3                   	retq   
  405ecb:	0f 1f 44 00 00       	nopl   0x0(%rax,%rax,1)

0000000000405ed0 <_ZN9__gnu_cxx16__aligned_bufferINSt6thread5_ImplISt12_Bind_simpleIFZ10run_serveriSt8functionIFviEEE3$_0vEEEEE7_M_addrEv>:
  405ed0:	55                   	push   %rbp
  405ed1:	48 89 e5             	mov    %rsp,%rbp
  405ed4:	48 89 7d f8          	mov    %rdi,-0x8(%rbp)
  405ed8:	48 8b 7d f8          	mov    -0x8(%rbp),%rdi
  405edc:	48 89 f8             	mov    %rdi,%rax
  405edf:	5d                   	pop    %rbp
  405ee0:	c3                   	retq   
  405ee1:	66 66 66 66 66 66 2e 	data16 data16 data16 data16 data16 nopw %cs:0x0(%rax,%rax,1)
  405ee8:	0f 1f 84 00 00 00 00 
  405eef:	00 

0000000000405ef0 <_ZNSt14_Sp_ebo_helperILi0ESaINSt6thread5_ImplISt12_Bind_simpleIFZ10run_serveriSt8functionIFviEEE3$_0vEEEEELb1EED2Ev>:
  405ef0:	55                   	push   %rbp
  405ef1:	48 89 e5             	mov    %rsp,%rbp
  405ef4:	48 83 ec 10          	sub    $0x10,%rsp
  405ef8:	48 89 7d f8          	mov    %rdi,-0x8(%rbp)
  405efc:	48 8b 7d f8          	mov    -0x8(%rbp),%rdi
  405f00:	e8 4b f3 ff ff       	callq  405250 <_ZNSaINSt6thread5_ImplISt12_Bind_simpleIFZ10run_serveriSt8functionIFviEEE3$_0vEEEEED2Ev>
  405f05:	48 83 c4 10          	add    $0x10,%rsp
  405f09:	5d                   	pop    %rbp
  405f0a:	c3                   	retq   
  405f0b:	0f 1f 44 00 00       	nopl   0x0(%rax,%rax,1)

0000000000405f10 <_ZN9__gnu_cxx13new_allocatorINSt6thread5_ImplISt12_Bind_simpleIFZ10run_serveriSt8functionIFviEEE3$_0vEEEEED2Ev>:
  405f10:	55                   	push   %rbp
  405f11:	48 89 e5             	mov    %rsp,%rbp
  405f14:	48 89 7d f8          	mov    %rdi,-0x8(%rbp)
  405f18:	5d                   	pop    %rbp
  405f19:	c3                   	retq   
  405f1a:	66 0f 1f 44 00 00    	nopw   0x0(%rax,%rax,1)

0000000000405f20 <_ZNSt16allocator_traitsISaINSt6thread5_ImplISt12_Bind_simpleIFZ10run_serveriSt8functionIFviEEE3$_0vEEEEEE7destroyIS9_EEvRSA_PT_>:
  405f20:	55                   	push   %rbp
  405f21:	48 89 e5             	mov    %rsp,%rbp
  405f24:	48 83 ec 20          	sub    $0x20,%rsp
  405f28:	48 89 7d f8          	mov    %rdi,-0x8(%rbp)
  405f2c:	48 89 75 f0          	mov    %rsi,-0x10(%rbp)
  405f30:	48 8b 75 f8          	mov    -0x8(%rbp),%rsi
  405f34:	48 8b 7d f0          	mov    -0x10(%rbp),%rdi
  405f38:	48 89 7d e8          	mov    %rdi,-0x18(%rbp)
  405f3c:	48 89 f7             	mov    %rsi,%rdi
  405f3f:	48 8b 75 e8          	mov    -0x18(%rbp),%rsi
  405f43:	e8 48 00 00 00       	callq  405f90 <_ZN9__gnu_cxx13new_allocatorINSt6thread5_ImplISt12_Bind_simpleIFZ10run_serveriSt8functionIFviEEE3$_0vEEEEE7destroyISA_EEvPT_>
  405f48:	48 83 c4 20          	add    $0x20,%rsp
  405f4c:	5d                   	pop    %rbp
  405f4d:	c3                   	retq   
  405f4e:	66 90                	xchg   %ax,%ax

0000000000405f50 <_ZNSt23_Sp_counted_ptr_inplaceINSt6thread5_ImplISt12_Bind_simpleIFZ10run_serveriSt8functionIFviEEE3$_0vEEEESaIS9_ELN9__gnu_cxx12_Lock_policyE2EE5_Impl8_M_allocEv>:
  405f50:	55                   	push   %rbp
  405f51:	48 89 e5             	mov    %rsp,%rbp
  405f54:	48 83 ec 20          	sub    $0x20,%rsp
  405f58:	48 89 7d f8          	mov    %rdi,-0x8(%rbp)
  405f5c:	e8 5f 00 00 00       	callq  405fc0 <_ZNSt14_Sp_ebo_helperILi0ESaINSt6thread5_ImplISt12_Bind_simpleIFZ10run_serveriSt8functionIFviEEE3$_0vEEEEELb1EE6_S_getERSB_>
  405f61:	48 89 45 f0          	mov    %rax,-0x10(%rbp)
  405f65:	e9 00 00 00 00       	jmpq   405f6a <_ZNSt23_Sp_counted_ptr_inplaceINSt6thread5_ImplISt12_Bind_simpleIFZ10run_serveriSt8functionIFviEEE3$_0vEEEESaIS9_ELN9__gnu_cxx12_Lock_policyE2EE5_Impl8_M_allocEv+0x1a>
  405f6a:	48 8b 45 f0          	mov    -0x10(%rbp),%rax
  405f6e:	48 83 c4 20          	add    $0x20,%rsp
  405f72:	5d                   	pop    %rbp
  405f73:	c3                   	retq   
  405f74:	89 d1                	mov    %edx,%ecx
  405f76:	48 89 c7             	mov    %rax,%rdi
  405f79:	89 4d ec             	mov    %ecx,-0x14(%rbp)
  405f7c:	e8 3f 15 00 00       	callq  4074c0 <__clang_call_terminate>
  405f81:	66 66 66 66 66 66 2e 	data16 data16 data16 data16 data16 nopw %cs:0x0(%rax,%rax,1)
  405f88:	0f 1f 84 00 00 00 00 
  405f8f:	00 

0000000000405f90 <_ZN9__gnu_cxx13new_allocatorINSt6thread5_ImplISt12_Bind_simpleIFZ10run_serveriSt8functionIFviEEE3$_0vEEEEE7destroyISA_EEvPT_>:
  405f90:	55                   	push   %rbp
  405f91:	48 89 e5             	mov    %rsp,%rbp
  405f94:	48 83 ec 20          	sub    $0x20,%rsp
  405f98:	48 89 7d f8          	mov    %rdi,-0x8(%rbp)
  405f9c:	48 89 75 f0          	mov    %rsi,-0x10(%rbp)
  405fa0:	48 8b 75 f0          	mov    -0x10(%rbp),%rsi
  405fa4:	48 8b 3e             	mov    (%rsi),%rdi
  405fa7:	48 89 7d e8          	mov    %rdi,-0x18(%rbp)
  405fab:	48 89 f7             	mov    %rsi,%rdi
  405fae:	48 8b 75 e8          	mov    -0x18(%rbp),%rsi
  405fb2:	ff 16                	callq  *(%rsi)
  405fb4:	48 83 c4 20          	add    $0x20,%rsp
  405fb8:	5d                   	pop    %rbp
  405fb9:	c3                   	retq   
  405fba:	66 0f 1f 44 00 00    	nopw   0x0(%rax,%rax,1)

0000000000405fc0 <_ZNSt14_Sp_ebo_helperILi0ESaINSt6thread5_ImplISt12_Bind_simpleIFZ10run_serveriSt8functionIFviEEE3$_0vEEEEELb1EE6_S_getERSB_>:
  405fc0:	55                   	push   %rbp
  405fc1:	48 89 e5             	mov    %rsp,%rbp
  405fc4:	48 89 7d f8          	mov    %rdi,-0x8(%rbp)
  405fc8:	48 8b 7d f8          	mov    -0x8(%rbp),%rdi
  405fcc:	48 89 f8             	mov    %rdi,%rax
  405fcf:	5d                   	pop    %rbp
  405fd0:	c3                   	retq   
  405fd1:	66 66 66 66 66 66 2e 	data16 data16 data16 data16 data16 nopw %cs:0x0(%rax,%rax,1)
  405fd8:	0f 1f 84 00 00 00 00 
  405fdf:	00 

0000000000405fe0 <_ZNSt16allocator_traitsISaISt23_Sp_counted_ptr_inplaceINSt6thread5_ImplISt12_Bind_simpleIFZ10run_serveriSt8functionIFviEEE3$_0vEEEESaISA_ELN9__gnu_cxx12_Lock_policyE2EEEE10deallocateERSF_PSE_m>:
  405fe0:	55                   	push   %rbp
  405fe1:	48 89 e5             	mov    %rsp,%rbp
  405fe4:	48 83 ec 20          	sub    $0x20,%rsp
  405fe8:	48 89 7d f8          	mov    %rdi,-0x8(%rbp)
  405fec:	48 89 75 f0          	mov    %rsi,-0x10(%rbp)
  405ff0:	48 89 55 e8          	mov    %rdx,-0x18(%rbp)
  405ff4:	48 8b 55 f8          	mov    -0x8(%rbp),%rdx
  405ff8:	48 8b 75 f0          	mov    -0x10(%rbp),%rsi
  405ffc:	48 8b 7d e8          	mov    -0x18(%rbp),%rdi
  406000:	48 89 7d e0          	mov    %rdi,-0x20(%rbp)
  406004:	48 89 d7             	mov    %rdx,%rdi
  406007:	48 8b 55 e0          	mov    -0x20(%rbp),%rdx
  40600b:	e8 10 00 00 00       	callq  406020 <_ZN9__gnu_cxx13new_allocatorISt23_Sp_counted_ptr_inplaceINSt6thread5_ImplISt12_Bind_simpleIFZ10run_serveriSt8functionIFviEEE3$_0vEEEESaISB_ELNS_12_Lock_policyE2EEE10deallocateEPSE_m>
  406010:	48 83 c4 20          	add    $0x20,%rsp
  406014:	5d                   	pop    %rbp
  406015:	c3                   	retq   
  406016:	66 2e 0f 1f 84 00 00 	nopw   %cs:0x0(%rax,%rax,1)
  40601d:	00 00 00 

0000000000406020 <_ZN9__gnu_cxx13new_allocatorISt23_Sp_counted_ptr_inplaceINSt6thread5_ImplISt12_Bind_simpleIFZ10run_serveriSt8functionIFviEEE3$_0vEEEESaISB_ELNS_12_Lock_policyE2EEE10deallocateEPSE_m>:
  406020:	55                   	push   %rbp
  406021:	48 89 e5             	mov    %rsp,%rbp
  406024:	48 83 ec 20          	sub    $0x20,%rsp
  406028:	48 89 7d f8          	mov    %rdi,-0x8(%rbp)
  40602c:	48 89 75 f0          	mov    %rsi,-0x10(%rbp)
  406030:	48 89 55 e8          	mov    %rdx,-0x18(%rbp)
  406034:	48 8b 55 f0          	mov    -0x10(%rbp),%rdx
  406038:	48 89 d7             	mov    %rdx,%rdi
  40603b:	e8 50 cd ff ff       	callq  402d90 <_ZdlPv@plt>
  406040:	48 83 c4 20          	add    $0x20,%rsp
  406044:	5d                   	pop    %rbp
  406045:	c3                   	retq   
  406046:	66 2e 0f 1f 84 00 00 	nopw   %cs:0x0(%rax,%rax,1)
  40604d:	00 00 00 

0000000000406050 <_ZN9__gnu_cxx13new_allocatorISt23_Sp_counted_ptr_inplaceINSt6thread5_ImplISt12_Bind_simpleIFZ10run_serveriSt8functionIFviEEE3$_0vEEEESaISB_ELNS_12_Lock_policyE2EEED2Ev>:
  406050:	55                   	push   %rbp
  406051:	48 89 e5             	mov    %rsp,%rbp
  406054:	48 89 7d f8          	mov    %rdi,-0x8(%rbp)
  406058:	5d                   	pop    %rbp
  406059:	c3                   	retq   
  40605a:	66 0f 1f 44 00 00    	nopw   0x0(%rax,%rax,1)

0000000000406060 <_ZN9__gnu_cxx13new_allocatorINSt6thread5_ImplISt12_Bind_simpleIFZ10run_serveriSt8functionIFviEEE3$_0vEEEEEC2Ev>:
  406060:	55                   	push   %rbp
  406061:	48 89 e5             	mov    %rsp,%rbp
  406064:	48 89 7d f8          	mov    %rdi,-0x8(%rbp)
  406068:	5d                   	pop    %rbp
  406069:	c3                   	retq   
  40606a:	66 0f 1f 44 00 00    	nopw   0x0(%rax,%rax,1)

0000000000406070 <_ZNSt26_Maybe_wrap_member_pointerIZ10run_serveriSt8functionIFviEEE3$_0E9__do_wrapEOS3_>:
  406070:	55                   	push   %rbp
  406071:	48 89 e5             	mov    %rsp,%rbp
  406074:	48 89 7d f8          	mov    %rdi,-0x8(%rbp)
  406078:	48 8b 45 f8          	mov    -0x8(%rbp),%rax
  40607c:	5d                   	pop    %rbp
  40607d:	c3                   	retq   
  40607e:	66 90                	xchg   %ax,%ax

0000000000406080 <_ZNSt12_Bind_simpleIFZ10run_serveriSt8functionIFviEEE3$_0vEEC2IS3_JEEEOT_DpOT0_>:
  406080:	55                   	push   %rbp
  406081:	48 89 e5             	mov    %rsp,%rbp
  406084:	48 83 ec 20          	sub    $0x20,%rsp
  406088:	48 89 7d f8          	mov    %rdi,-0x8(%rbp)
  40608c:	48 89 75 f0          	mov    %rsi,-0x10(%rbp)
  406090:	48 8b 7d f8          	mov    -0x8(%rbp),%rdi
  406094:	48 8b 75 f0          	mov    -0x10(%rbp),%rsi
  406098:	48 89 7d e8          	mov    %rdi,-0x18(%rbp)
  40609c:	48 89 f7             	mov    %rsi,%rdi
  40609f:	e8 cc e8 ff ff       	callq  404970 <_ZSt7forwardIZ10run_serveriSt8functionIFviEEE3$_0EOT_RNSt16remove_referenceIS4_E4typeE>
  4060a4:	48 8b 7d e8          	mov    -0x18(%rbp),%rdi
  4060a8:	48 89 c6             	mov    %rax,%rsi
  4060ab:	e8 10 00 00 00       	callq  4060c0 <_ZNSt5tupleIJZ10run_serveriSt8functionIFviEEE3$_0EEC2IJS3_EvEEDpOT_>
  4060b0:	48 83 c4 20          	add    $0x20,%rsp
  4060b4:	5d                   	pop    %rbp
  4060b5:	c3                   	retq   
  4060b6:	66 2e 0f 1f 84 00 00 	nopw   %cs:0x0(%rax,%rax,1)
  4060bd:	00 00 00 

00000000004060c0 <_ZNSt5tupleIJZ10run_serveriSt8functionIFviEEE3$_0EEC2IJS3_EvEEDpOT_>:
  4060c0:	55                   	push   %rbp
  4060c1:	48 89 e5             	mov    %rsp,%rbp
  4060c4:	48 83 ec 20          	sub    $0x20,%rsp
  4060c8:	48 89 7d f8          	mov    %rdi,-0x8(%rbp)
  4060cc:	48 89 75 f0          	mov    %rsi,-0x10(%rbp)
  4060d0:	48 8b 75 f8          	mov    -0x8(%rbp),%rsi
  4060d4:	48 8b 7d f0          	mov    -0x10(%rbp),%rdi
  4060d8:	48 89 75 e8          	mov    %rsi,-0x18(%rbp)
  4060dc:	e8 8f e8 ff ff       	callq  404970 <_ZSt7forwardIZ10run_serveriSt8functionIFviEEE3$_0EOT_RNSt16remove_referenceIS4_E4typeE>
  4060e1:	48 8b 7d e8          	mov    -0x18(%rbp),%rdi
  4060e5:	48 89 c6             	mov    %rax,%rsi
  4060e8:	e8 13 00 00 00       	callq  406100 <_ZNSt11_Tuple_implILm0EJZ10run_serveriSt8functionIFviEEE3$_0EEC2IS3_EEOT_>
  4060ed:	48 83 c4 20          	add    $0x20,%rsp
  4060f1:	5d                   	pop    %rbp
  4060f2:	c3                   	retq   
  4060f3:	66 66 66 66 2e 0f 1f 	data16 data16 data16 nopw %cs:0x0(%rax,%rax,1)
  4060fa:	84 00 00 00 00 00 

0000000000406100 <_ZNSt11_Tuple_implILm0EJZ10run_serveriSt8functionIFviEEE3$_0EEC2IS3_EEOT_>:
  406100:	55                   	push   %rbp
  406101:	48 89 e5             	mov    %rsp,%rbp
  406104:	48 83 ec 20          	sub    $0x20,%rsp
  406108:	48 89 7d f8          	mov    %rdi,-0x8(%rbp)
  40610c:	48 89 75 f0          	mov    %rsi,-0x10(%rbp)
  406110:	48 8b 75 f8          	mov    -0x8(%rbp),%rsi
  406114:	48 8b 7d f0          	mov    -0x10(%rbp),%rdi
  406118:	48 89 75 e8          	mov    %rsi,-0x18(%rbp)
  40611c:	e8 4f e8 ff ff       	callq  404970 <_ZSt7forwardIZ10run_serveriSt8functionIFviEEE3$_0EOT_RNSt16remove_referenceIS4_E4typeE>
  406121:	48 8b 7d e8          	mov    -0x18(%rbp),%rdi
  406125:	48 89 c6             	mov    %rax,%rsi
  406128:	e8 33 fb ff ff       	callq  405c60 <_ZNSt10_Head_baseILm0EZ10run_serveriSt8functionIFviEEE3$_0Lb0EEC2IS3_EEOT_>
  40612d:	48 83 c4 20          	add    $0x20,%rsp
  406131:	5d                   	pop    %rbp
  406132:	c3                   	retq   
  406133:	66 66 66 66 2e 0f 1f 	data16 data16 data16 nopw %cs:0x0(%rax,%rax,1)
  40613a:	84 00 00 00 00 00 

0000000000406140 <_ZSt4moveIRSt10shared_ptrINSt6thread5_ImplISt12_Bind_simpleIFZ10run_serveriSt8functionIFviEEE3$_0vEEEEEEONSt16remove_referenceIT_E4typeEOSE_>:
  406140:	55                   	push   %rbp
  406141:	48 89 e5             	mov    %rsp,%rbp
  406144:	48 89 7d f8          	mov    %rdi,-0x8(%rbp)
  406148:	48 8b 45 f8          	mov    -0x8(%rbp),%rax
  40614c:	5d                   	pop    %rbp
  40614d:	c3                   	retq   
  40614e:	66 90                	xchg   %ax,%ax

0000000000406150 <_ZNSt12__shared_ptrINSt6thread10_Impl_baseELN9__gnu_cxx12_Lock_policyE2EEC2INS0_5_ImplISt12_Bind_simpleIFZ10run_serveriSt8functionIFviEEE3$_0vEEEEvEEOS_IT_LS3_2EE>:
  406150:	55                   	push   %rbp
  406151:	48 89 e5             	mov    %rsp,%rbp
  406154:	48 83 ec 20          	sub    $0x20,%rsp
  406158:	48 89 7d f8          	mov    %rdi,-0x8(%rbp)
  40615c:	48 89 75 f0          	mov    %rsi,-0x10(%rbp)
  406160:	48 8b 75 f8          	mov    -0x8(%rbp),%rsi
  406164:	48 8b 7d f0          	mov    -0x10(%rbp),%rdi
  406168:	48 8b 3f             	mov    (%rdi),%rdi
  40616b:	48 89 3e             	mov    %rdi,(%rsi)
  40616e:	48 89 f7             	mov    %rsi,%rdi
  406171:	48 83 c7 08          	add    $0x8,%rdi
  406175:	48 89 75 e8          	mov    %rsi,-0x18(%rbp)
  406179:	e8 22 57 00 00       	callq  40b8a0 <_ZNSt14__shared_countILN9__gnu_cxx12_Lock_policyE2EEC2Ev>
  40617e:	48 8b 75 e8          	mov    -0x18(%rbp),%rsi
  406182:	48 83 c6 08          	add    $0x8,%rsi
  406186:	48 8b 7d f0          	mov    -0x10(%rbp),%rdi
  40618a:	48 83 c7 08          	add    $0x8,%rdi
  40618e:	48 89 7d e0          	mov    %rdi,-0x20(%rbp)
  406192:	48 89 f7             	mov    %rsi,%rdi
  406195:	48 8b 75 e0          	mov    -0x20(%rbp),%rsi
  406199:	e8 b2 58 00 00       	callq  40ba50 <_ZNSt14__shared_countILN9__gnu_cxx12_Lock_policyE2EE7_M_swapERS2_>
  40619e:	48 8b 75 f0          	mov    -0x10(%rbp),%rsi
  4061a2:	48 c7 06 00 00 00 00 	movq   $0x0,(%rsi)
  4061a9:	48 83 c4 20          	add    $0x20,%rsp
  4061ad:	5d                   	pop    %rbp
  4061ae:	c3                   	retq   
  4061af:	90                   	nop

00000000004061b0 <_ZN9__gnu_cxxL27__exchange_and_add_dispatchEPii>:
  4061b0:	55                   	push   %rbp
  4061b1:	48 89 e5             	mov    %rsp,%rbp
  4061b4:	48 83 ec 20          	sub    $0x20,%rsp
  4061b8:	48 89 7d f0          	mov    %rdi,-0x10(%rbp)
  4061bc:	89 75 ec             	mov    %esi,-0x14(%rbp)
  4061bf:	e8 4c e7 ff ff       	callq  404910 <_ZL18__gthread_active_pv>
  4061c4:	83 f8 00             	cmp    $0x0,%eax
  4061c7:	0f 84 14 00 00 00    	je     4061e1 <_ZN9__gnu_cxxL27__exchange_and_add_dispatchEPii+0x31>
  4061cd:	48 8b 7d f0          	mov    -0x10(%rbp),%rdi
  4061d1:	8b 75 ec             	mov    -0x14(%rbp),%esi
  4061d4:	e8 27 00 00 00       	callq  406200 <_ZN9__gnu_cxxL18__exchange_and_addEPVii>
  4061d9:	89 45 fc             	mov    %eax,-0x4(%rbp)
  4061dc:	e9 0f 00 00 00       	jmpq   4061f0 <_ZN9__gnu_cxxL27__exchange_and_add_dispatchEPii+0x40>
  4061e1:	48 8b 7d f0          	mov    -0x10(%rbp),%rdi
  4061e5:	8b 75 ec             	mov    -0x14(%rbp),%esi
  4061e8:	e8 33 00 00 00       	callq  406220 <_ZN9__gnu_cxxL25__exchange_and_add_singleEPii>
  4061ed:	89 45 fc             	mov    %eax,-0x4(%rbp)
  4061f0:	8b 45 fc             	mov    -0x4(%rbp),%eax
  4061f3:	48 83 c4 20          	add    $0x20,%rsp
  4061f7:	5d                   	pop    %rbp
  4061f8:	c3                   	retq   
  4061f9:	0f 1f 80 00 00 00 00 	nopl   0x0(%rax)

0000000000406200 <_ZN9__gnu_cxxL18__exchange_and_addEPVii>:
  406200:	55                   	push   %rbp
  406201:	48 89 e5             	mov    %rsp,%rbp
  406204:	48 89 7d f8          	mov    %rdi,-0x8(%rbp)
  406208:	89 75 f4             	mov    %esi,-0xc(%rbp)
  40620b:	48 8b 7d f8          	mov    -0x8(%rbp),%rdi
  40620f:	89 75 f0             	mov    %esi,-0x10(%rbp)
  406212:	f0 0f c1 37          	lock xadd %esi,(%rdi)
  406216:	89 75 ec             	mov    %esi,-0x14(%rbp)
  406219:	8b 45 ec             	mov    -0x14(%rbp),%eax
  40621c:	5d                   	pop    %rbp
  40621d:	c3                   	retq   
  40621e:	66 90                	xchg   %ax,%ax

0000000000406220 <_ZN9__gnu_cxxL25__exchange_and_add_singleEPii>:
  406220:	55                   	push   %rbp
  406221:	48 89 e5             	mov    %rsp,%rbp
  406224:	48 89 7d f8          	mov    %rdi,-0x8(%rbp)
  406228:	89 75 f4             	mov    %esi,-0xc(%rbp)
  40622b:	48 8b 7d f8          	mov    -0x8(%rbp),%rdi
  40622f:	8b 37                	mov    (%rdi),%esi
  406231:	89 75 f0             	mov    %esi,-0x10(%rbp)
  406234:	8b 75 f4             	mov    -0xc(%rbp),%esi
  406237:	48 8b 7d f8          	mov    -0x8(%rbp),%rdi
  40623b:	03 37                	add    (%rdi),%esi
  40623d:	89 37                	mov    %esi,(%rdi)
  40623f:	8b 45 f0             	mov    -0x10(%rbp),%eax
  406242:	5d                   	pop    %rbp
  406243:	c3                   	retq   
  406244:	66 66 66 2e 0f 1f 84 	data16 data16 nopw %cs:0x0(%rax,%rax,1)
  40624b:	00 00 00 00 00 

0000000000406250 <_ZNSt12__shared_ptrINSt6thread5_ImplISt12_Bind_simpleIFZ10run_serveriSt8functionIFviEEE3$_0vEEEELN9__gnu_cxx12_Lock_policyE2EED2Ev>:
  406250:	55                   	push   %rbp
  406251:	48 89 e5             	mov    %rsp,%rbp
  406254:	48 83 ec 10          	sub    $0x10,%rsp
  406258:	48 89 7d f8          	mov    %rdi,-0x8(%rbp)
  40625c:	48 8b 7d f8          	mov    -0x8(%rbp),%rdi
  406260:	48 83 c7 08          	add    $0x8,%rdi
  406264:	e8 37 58 00 00       	callq  40baa0 <_ZNSt14__shared_countILN9__gnu_cxx12_Lock_policyE2EED2Ev>
  406269:	48 83 c4 10          	add    $0x10,%rsp
  40626d:	5d                   	pop    %rbp
  40626e:	c3                   	retq   
  40626f:	90                   	nop

0000000000406270 <_ZSt11__remove_ifIN9__gnu_cxx17__normal_iteratorIPSt4pairISt6threadbESt6vectorIS4_SaIS4_EEEENS0_5__ops10_Iter_predIZ10run_serveriSt8functionIFviEEE3$_1EEET_SH_SH_T0_>:
  406270:	55                   	push   %rbp
  406271:	48 89 e5             	mov    %rsp,%rbp
  406274:	48 81 ec 80 00 00 00 	sub    $0x80,%rsp
  40627b:	48 89 7d f0          	mov    %rdi,-0x10(%rbp)
  40627f:	48 89 75 e8          	mov    %rsi,-0x18(%rbp)
  406283:	48 8b 75 f0          	mov    -0x10(%rbp),%rsi
  406287:	48 89 75 d0          	mov    %rsi,-0x30(%rbp)
  40628b:	48 8b 75 e8          	mov    -0x18(%rbp),%rsi
  40628f:	48 89 75 c8          	mov    %rsi,-0x38(%rbp)
  406293:	8a 45 e0             	mov    -0x20(%rbp),%al
  406296:	88 45 c0             	mov    %al,-0x40(%rbp)
  406299:	48 8b 7d d0          	mov    -0x30(%rbp),%rdi
  40629d:	48 8b 75 c8          	mov    -0x38(%rbp),%rsi
  4062a1:	e8 0a 01 00 00       	callq  4063b0 <_ZSt9__find_ifIN9__gnu_cxx17__normal_iteratorIPSt4pairISt6threadbESt6vectorIS4_SaIS4_EEEENS0_5__ops10_Iter_predIZ10run_serveriSt8functionIFviEEE3$_1EEET_SH_SH_T0_>
  4062a6:	48 8d 7d f0          	lea    -0x10(%rbp),%rdi
  4062aa:	48 8d 75 e8          	lea    -0x18(%rbp),%rsi
  4062ae:	48 89 45 d8          	mov    %rax,-0x28(%rbp)
  4062b2:	48 8b 45 d8          	mov    -0x28(%rbp),%rax
  4062b6:	48 89 45 f0          	mov    %rax,-0x10(%rbp)
  4062ba:	e8 21 60 00 00       	callq  40c2e0 <_ZN9__gnu_cxxeqIPSt4pairISt6threadbESt6vectorIS3_SaIS3_EEEEbRKNS_17__normal_iteratorIT_T0_EESD_>
  4062bf:	a8 01                	test   $0x1,%al
  4062c1:	0f 85 05 00 00 00    	jne    4062cc <_ZSt11__remove_ifIN9__gnu_cxx17__normal_iteratorIPSt4pairISt6threadbESt6vectorIS4_SaIS4_EEEENS0_5__ops10_Iter_predIZ10run_serveriSt8functionIFviEEE3$_1EEET_SH_SH_T0_+0x5c>
  4062c7:	e9 0d 00 00 00       	jmpq   4062d9 <_ZSt11__remove_ifIN9__gnu_cxx17__normal_iteratorIPSt4pairISt6threadbESt6vectorIS4_SaIS4_EEEENS0_5__ops10_Iter_predIZ10run_serveriSt8functionIFviEEE3$_1EEET_SH_SH_T0_+0x69>
  4062cc:	48 8b 45 f0          	mov    -0x10(%rbp),%rax
  4062d0:	48 89 45 f8          	mov    %rax,-0x8(%rbp)
  4062d4:	e9 a6 00 00 00       	jmpq   40637f <_ZSt11__remove_ifIN9__gnu_cxx17__normal_iteratorIPSt4pairISt6threadbESt6vectorIS4_SaIS4_EEEENS0_5__ops10_Iter_predIZ10run_serveriSt8functionIFviEEE3$_1EEET_SH_SH_T0_+0x10f>
  4062d9:	48 8d 7d f0          	lea    -0x10(%rbp),%rdi
  4062dd:	48 8b 45 f0          	mov    -0x10(%rbp),%rax
  4062e1:	48 89 45 b8          	mov    %rax,-0x48(%rbp)
  4062e5:	e8 a6 0b 00 00       	callq  406e90 <_ZN9__gnu_cxx17__normal_iteratorIPSt4pairISt6threadbESt6vectorIS3_SaIS3_EEEppEv>
  4062ea:	48 89 45 a8          	mov    %rax,-0x58(%rbp)
  4062ee:	48 8d 7d f0          	lea    -0x10(%rbp),%rdi
  4062f2:	48 8d 75 e8          	lea    -0x18(%rbp),%rsi
  4062f6:	e8 35 0b 00 00       	callq  406e30 <_ZN9__gnu_cxxneIPSt4pairISt6threadbESt6vectorIS3_SaIS3_EEEEbRKNS_17__normal_iteratorIT_T0_EESD_>
  4062fb:	a8 01                	test   $0x1,%al
  4062fd:	0f 85 05 00 00 00    	jne    406308 <_ZSt11__remove_ifIN9__gnu_cxx17__normal_iteratorIPSt4pairISt6threadbESt6vectorIS4_SaIS4_EEEENS0_5__ops10_Iter_predIZ10run_serveriSt8functionIFviEEE3$_1EEET_SH_SH_T0_+0x98>
  406303:	e9 6f 00 00 00       	jmpq   406377 <_ZSt11__remove_ifIN9__gnu_cxx17__normal_iteratorIPSt4pairISt6threadbESt6vectorIS4_SaIS4_EEEENS0_5__ops10_Iter_predIZ10run_serveriSt8functionIFviEEE3$_1EEET_SH_SH_T0_+0x107>
  406308:	48 8d 7d e0          	lea    -0x20(%rbp),%rdi
  40630c:	48 8b 45 f0          	mov    -0x10(%rbp),%rax
  406310:	48 89 45 b0          	mov    %rax,-0x50(%rbp)
  406314:	48 8b 75 b0          	mov    -0x50(%rbp),%rsi
  406318:	e8 e3 00 00 00       	callq  406400 <_ZN9__gnu_cxx5__ops10_Iter_predIZ10run_serveriSt8functionIFviEEE3$_1EclINS_17__normal_iteratorIPSt4pairISt6threadbESt6vectorISB_SaISB_EEEEEEbT_>
  40631d:	a8 01                	test   $0x1,%al
  40631f:	0f 85 3b 00 00 00    	jne    406360 <_ZSt11__remove_ifIN9__gnu_cxx17__normal_iteratorIPSt4pairISt6threadbESt6vectorIS4_SaIS4_EEEENS0_5__ops10_Iter_predIZ10run_serveriSt8functionIFviEEE3$_1EEET_SH_SH_T0_+0xf0>
  406325:	48 8d 7d b8          	lea    -0x48(%rbp),%rdi
  406329:	e8 42 0b 00 00       	callq  406e70 <_ZNK9__gnu_cxx17__normal_iteratorIPSt4pairISt6threadbESt6vectorIS3_SaIS3_EEEdeEv>
  40632e:	48 8d 7d f0          	lea    -0x10(%rbp),%rdi
  406332:	48 89 45 a0          	mov    %rax,-0x60(%rbp)
  406336:	e8 35 0b 00 00       	callq  406e70 <_ZNK9__gnu_cxx17__normal_iteratorIPSt4pairISt6threadbESt6vectorIS3_SaIS3_EEEdeEv>
  40633b:	48 89 c7             	mov    %rax,%rdi
  40633e:	e8 3d 60 00 00       	callq  40c380 <_ZSt4moveIRSt4pairISt6threadbEEONSt16remove_referenceIT_E4typeEOS5_>
  406343:	48 8b 7d a0          	mov    -0x60(%rbp),%rdi
  406347:	48 89 c6             	mov    %rax,%rsi
  40634a:	e8 d1 5f 00 00       	callq  40c320 <_ZNSt4pairISt6threadbEaSEOS1_>
  40634f:	48 8d 7d b8          	lea    -0x48(%rbp),%rdi
  406353:	48 89 45 98          	mov    %rax,-0x68(%rbp)
  406357:	e8 34 0b 00 00       	callq  406e90 <_ZN9__gnu_cxx17__normal_iteratorIPSt4pairISt6threadbESt6vectorIS3_SaIS3_EEEppEv>
  40635c:	48 89 45 90          	mov    %rax,-0x70(%rbp)
  406360:	e9 00 00 00 00       	jmpq   406365 <_ZSt11__remove_ifIN9__gnu_cxx17__normal_iteratorIPSt4pairISt6threadbESt6vectorIS4_SaIS4_EEEENS0_5__ops10_Iter_predIZ10run_serveriSt8functionIFviEEE3$_1EEET_SH_SH_T0_+0xf5>
  406365:	48 8d 7d f0          	lea    -0x10(%rbp),%rdi
  406369:	e8 22 0b 00 00       	callq  406e90 <_ZN9__gnu_cxx17__normal_iteratorIPSt4pairISt6threadbESt6vectorIS3_SaIS3_EEEppEv>
  40636e:	48 89 45 88          	mov    %rax,-0x78(%rbp)
  406372:	e9 77 ff ff ff       	jmpq   4062ee <_ZSt11__remove_ifIN9__gnu_cxx17__normal_iteratorIPSt4pairISt6threadbESt6vectorIS4_SaIS4_EEEENS0_5__ops10_Iter_predIZ10run_serveriSt8functionIFviEEE3$_1EEET_SH_SH_T0_+0x7e>
  406377:	48 8b 45 b8          	mov    -0x48(%rbp),%rax
  40637b:	48 89 45 f8          	mov    %rax,-0x8(%rbp)
  40637f:	48 8b 45 f8          	mov    -0x8(%rbp),%rax
  406383:	48 81 c4 80 00 00 00 	add    $0x80,%rsp
  40638a:	5d                   	pop    %rbp
  40638b:	c3                   	retq   
  40638c:	0f 1f 40 00          	nopl   0x0(%rax)

0000000000406390 <_ZN9__gnu_cxx5__ops11__pred_iterIZ10run_serveriSt8functionIFviEEE3$_1EENS0_10_Iter_predIT_EES7_>:
  406390:	55                   	push   %rbp
  406391:	48 89 e5             	mov    %rsp,%rbp
  406394:	48 83 ec 20          	sub    $0x20,%rsp
  406398:	48 8d 7d f8          	lea    -0x8(%rbp),%rdi
  40639c:	e8 0f 03 00 00       	callq  4066b0 <_ZN9__gnu_cxx5__ops10_Iter_predIZ10run_serveriSt8functionIFviEEE3$_1EC2ES5_>
  4063a1:	48 83 c4 20          	add    $0x20,%rsp
  4063a5:	5d                   	pop    %rbp
  4063a6:	c3                   	retq   
  4063a7:	66 0f 1f 84 00 00 00 	nopw   0x0(%rax,%rax,1)
  4063ae:	00 00 

00000000004063b0 <_ZSt9__find_ifIN9__gnu_cxx17__normal_iteratorIPSt4pairISt6threadbESt6vectorIS4_SaIS4_EEEENS0_5__ops10_Iter_predIZ10run_serveriSt8functionIFviEEE3$_1EEET_SH_SH_T0_>:
  4063b0:	55                   	push   %rbp
  4063b1:	48 89 e5             	mov    %rsp,%rbp
  4063b4:	48 83 ec 50          	sub    $0x50,%rsp
  4063b8:	48 8d 45 f0          	lea    -0x10(%rbp),%rax
  4063bc:	48 89 7d f0          	mov    %rdi,-0x10(%rbp)
  4063c0:	48 89 75 e8          	mov    %rsi,-0x18(%rbp)
  4063c4:	48 8b 75 f0          	mov    -0x10(%rbp),%rsi
  4063c8:	48 89 75 d8          	mov    %rsi,-0x28(%rbp)
  4063cc:	48 8b 75 e8          	mov    -0x18(%rbp),%rsi
  4063d0:	48 89 75 d0          	mov    %rsi,-0x30(%rbp)
  4063d4:	8a 4d e0             	mov    -0x20(%rbp),%cl
  4063d7:	88 4d c8             	mov    %cl,-0x38(%rbp)
  4063da:	48 89 c7             	mov    %rax,%rdi
  4063dd:	e8 ae 5f 00 00       	callq  40c390 <_ZSt19__iterator_categoryIN9__gnu_cxx17__normal_iteratorIPSt4pairISt6threadbESt6vectorIS4_SaIS4_EEEEENSt15iterator_traitsIT_E17iterator_categoryERKSB_>
  4063e2:	48 8b 7d d8          	mov    -0x28(%rbp),%rdi
  4063e6:	48 8b 75 d0          	mov    -0x30(%rbp),%rsi
  4063ea:	e8 51 00 00 00       	callq  406440 <_ZSt9__find_ifIN9__gnu_cxx17__normal_iteratorIPSt4pairISt6threadbESt6vectorIS4_SaIS4_EEEENS0_5__ops10_Iter_predIZ10run_serveriSt8functionIFviEEE3$_1EEET_SH_SH_T0_St26random_access_iterator_tag>
  4063ef:	48 89 45 f8          	mov    %rax,-0x8(%rbp)
  4063f3:	48 8b 45 f8          	mov    -0x8(%rbp),%rax
  4063f7:	48 83 c4 50          	add    $0x50,%rsp
  4063fb:	5d                   	pop    %rbp
  4063fc:	c3                   	retq   
  4063fd:	0f 1f 00             	nopl   (%rax)

0000000000406400 <_ZN9__gnu_cxx5__ops10_Iter_predIZ10run_serveriSt8functionIFviEEE3$_1EclINS_17__normal_iteratorIPSt4pairISt6threadbESt6vectorISB_SaISB_EEEEEEbT_>:
  406400:	55                   	push   %rbp
  406401:	48 89 e5             	mov    %rsp,%rbp
  406404:	48 83 ec 20          	sub    $0x20,%rsp
  406408:	48 8d 45 f8          	lea    -0x8(%rbp),%rax
  40640c:	48 89 75 f8          	mov    %rsi,-0x8(%rbp)
  406410:	48 89 7d f0          	mov    %rdi,-0x10(%rbp)
  406414:	48 8b 7d f0          	mov    -0x10(%rbp),%rdi
  406418:	48 89 7d e8          	mov    %rdi,-0x18(%rbp)
  40641c:	48 89 c7             	mov    %rax,%rdi
  40641f:	e8 4c 0a 00 00       	callq  406e70 <_ZNK9__gnu_cxx17__normal_iteratorIPSt4pairISt6threadbESt6vectorIS3_SaIS3_EEEdeEv>
  406424:	48 8b 7d e8          	mov    -0x18(%rbp),%rdi
  406428:	48 89 c6             	mov    %rax,%rsi
  40642b:	e8 60 02 00 00       	callq  406690 <_ZZ10run_serveriSt8functionIFviEEENK3$_1clISt4pairISt6threadbEEEDaRKT_>
  406430:	24 01                	and    $0x1,%al
  406432:	0f b6 c0             	movzbl %al,%eax
  406435:	48 83 c4 20          	add    $0x20,%rsp
  406439:	5d                   	pop    %rbp
  40643a:	c3                   	retq   
  40643b:	0f 1f 44 00 00       	nopl   0x0(%rax,%rax,1)

0000000000406440 <_ZSt9__find_ifIN9__gnu_cxx17__normal_iteratorIPSt4pairISt6threadbESt6vectorIS4_SaIS4_EEEENS0_5__ops10_Iter_predIZ10run_serveriSt8functionIFviEEE3$_1EEET_SH_SH_T0_St26random_access_iterator_tag>:
  406440:	55                   	push   %rbp
  406441:	48 89 e5             	mov    %rsp,%rbp
  406444:	48 81 ec b0 00 00 00 	sub    $0xb0,%rsp
  40644b:	48 8d 45 e8          	lea    -0x18(%rbp),%rax
  40644f:	48 8d 4d f0          	lea    -0x10(%rbp),%rcx
  406453:	48 89 7d f0          	mov    %rdi,-0x10(%rbp)
  406457:	48 89 75 e8          	mov    %rsi,-0x18(%rbp)
  40645b:	48 89 c7             	mov    %rax,%rdi
  40645e:	48 89 ce             	mov    %rcx,%rsi
  406461:	e8 3a 5f 00 00       	callq  40c3a0 <_ZN9__gnu_cxxmiIPSt4pairISt6threadbESt6vectorIS3_SaIS3_EEEENS_17__normal_iteratorIT_T0_E15difference_typeERKSB_SE_>
  406466:	48 c1 f8 02          	sar    $0x2,%rax
  40646a:	48 89 45 d0          	mov    %rax,-0x30(%rbp)
  40646e:	48 83 7d d0 00       	cmpq   $0x0,-0x30(%rbp)
  406473:	0f 8e 04 01 00 00    	jle    40657d <_ZSt9__find_ifIN9__gnu_cxx17__normal_iteratorIPSt4pairISt6threadbESt6vectorIS4_SaIS4_EEEENS0_5__ops10_Iter_predIZ10run_serveriSt8functionIFviEEE3$_1EEET_SH_SH_T0_St26random_access_iterator_tag+0x13d>
  406479:	48 8d 7d e0          	lea    -0x20(%rbp),%rdi
  40647d:	48 8b 45 f0          	mov    -0x10(%rbp),%rax
  406481:	48 89 45 c8          	mov    %rax,-0x38(%rbp)
  406485:	48 8b 75 c8          	mov    -0x38(%rbp),%rsi
  406489:	e8 72 ff ff ff       	callq  406400 <_ZN9__gnu_cxx5__ops10_Iter_predIZ10run_serveriSt8functionIFviEEE3$_1EclINS_17__normal_iteratorIPSt4pairISt6threadbESt6vectorISB_SaISB_EEEEEEbT_>
  40648e:	a8 01                	test   $0x1,%al
  406490:	0f 85 05 00 00 00    	jne    40649b <_ZSt9__find_ifIN9__gnu_cxx17__normal_iteratorIPSt4pairISt6threadbESt6vectorIS4_SaIS4_EEEENS0_5__ops10_Iter_predIZ10run_serveriSt8functionIFviEEE3$_1EEET_SH_SH_T0_St26random_access_iterator_tag+0x5b>
  406496:	e9 0d 00 00 00       	jmpq   4064a8 <_ZSt9__find_ifIN9__gnu_cxx17__normal_iteratorIPSt4pairISt6threadbESt6vectorIS4_SaIS4_EEEENS0_5__ops10_Iter_predIZ10run_serveriSt8functionIFviEEE3$_1EEET_SH_SH_T0_St26random_access_iterator_tag+0x68>
  40649b:	48 8b 45 f0          	mov    -0x10(%rbp),%rax
  40649f:	48 89 45 f8          	mov    %rax,-0x8(%rbp)
  4064a3:	e9 d8 01 00 00       	jmpq   406680 <_ZSt9__find_ifIN9__gnu_cxx17__normal_iteratorIPSt4pairISt6threadbESt6vectorIS4_SaIS4_EEEENS0_5__ops10_Iter_predIZ10run_serveriSt8functionIFviEEE3$_1EEET_SH_SH_T0_St26random_access_iterator_tag+0x240>
  4064a8:	48 8d 7d f0          	lea    -0x10(%rbp),%rdi
  4064ac:	e8 df 09 00 00       	callq  406e90 <_ZN9__gnu_cxx17__normal_iteratorIPSt4pairISt6threadbESt6vectorIS3_SaIS3_EEEppEv>
  4064b1:	48 8d 7d e0          	lea    -0x20(%rbp),%rdi
  4064b5:	48 8b 4d f0          	mov    -0x10(%rbp),%rcx
  4064b9:	48 89 4d c0          	mov    %rcx,-0x40(%rbp)
  4064bd:	48 8b 75 c0          	mov    -0x40(%rbp),%rsi
  4064c1:	48 89 45 90          	mov    %rax,-0x70(%rbp)
  4064c5:	e8 36 ff ff ff       	callq  406400 <_ZN9__gnu_cxx5__ops10_Iter_predIZ10run_serveriSt8functionIFviEEE3$_1EclINS_17__normal_iteratorIPSt4pairISt6threadbESt6vectorISB_SaISB_EEEEEEbT_>
  4064ca:	a8 01                	test   $0x1,%al
  4064cc:	0f 85 05 00 00 00    	jne    4064d7 <_ZSt9__find_ifIN9__gnu_cxx17__normal_iteratorIPSt4pairISt6threadbESt6vectorIS4_SaIS4_EEEENS0_5__ops10_Iter_predIZ10run_serveriSt8functionIFviEEE3$_1EEET_SH_SH_T0_St26random_access_iterator_tag+0x97>
  4064d2:	e9 0d 00 00 00       	jmpq   4064e4 <_ZSt9__find_ifIN9__gnu_cxx17__normal_iteratorIPSt4pairISt6threadbESt6vectorIS4_SaIS4_EEEENS0_5__ops10_Iter_predIZ10run_serveriSt8functionIFviEEE3$_1EEET_SH_SH_T0_St26random_access_iterator_tag+0xa4>
  4064d7:	48 8b 45 f0          	mov    -0x10(%rbp),%rax
  4064db:	48 89 45 f8          	mov    %rax,-0x8(%rbp)
  4064df:	e9 9c 01 00 00       	jmpq   406680 <_ZSt9__find_ifIN9__gnu_cxx17__normal_iteratorIPSt4pairISt6threadbESt6vectorIS4_SaIS4_EEEENS0_5__ops10_Iter_predIZ10run_serveriSt8functionIFviEEE3$_1EEET_SH_SH_T0_St26random_access_iterator_tag+0x240>
  4064e4:	48 8d 7d f0          	lea    -0x10(%rbp),%rdi
  4064e8:	e8 a3 09 00 00       	callq  406e90 <_ZN9__gnu_cxx17__normal_iteratorIPSt4pairISt6threadbESt6vectorIS3_SaIS3_EEEppEv>
  4064ed:	48 8d 7d e0          	lea    -0x20(%rbp),%rdi
  4064f1:	48 8b 4d f0          	mov    -0x10(%rbp),%rcx
  4064f5:	48 89 4d b8          	mov    %rcx,-0x48(%rbp)
  4064f9:	48 8b 75 b8          	mov    -0x48(%rbp),%rsi
  4064fd:	48 89 45 88          	mov    %rax,-0x78(%rbp)
  406501:	e8 fa fe ff ff       	callq  406400 <_ZN9__gnu_cxx5__ops10_Iter_predIZ10run_serveriSt8functionIFviEEE3$_1EclINS_17__normal_iteratorIPSt4pairISt6threadbESt6vectorISB_SaISB_EEEEEEbT_>
  406506:	a8 01                	test   $0x1,%al
  406508:	0f 85 05 00 00 00    	jne    406513 <_ZSt9__find_ifIN9__gnu_cxx17__normal_iteratorIPSt4pairISt6threadbESt6vectorIS4_SaIS4_EEEENS0_5__ops10_Iter_predIZ10run_serveriSt8functionIFviEEE3$_1EEET_SH_SH_T0_St26random_access_iterator_tag+0xd3>
  40650e:	e9 0d 00 00 00       	jmpq   406520 <_ZSt9__find_ifIN9__gnu_cxx17__normal_iteratorIPSt4pairISt6threadbESt6vectorIS4_SaIS4_EEEENS0_5__ops10_Iter_predIZ10run_serveriSt8functionIFviEEE3$_1EEET_SH_SH_T0_St26random_access_iterator_tag+0xe0>
  406513:	48 8b 45 f0          	mov    -0x10(%rbp),%rax
  406517:	48 89 45 f8          	mov    %rax,-0x8(%rbp)
  40651b:	e9 60 01 00 00       	jmpq   406680 <_ZSt9__find_ifIN9__gnu_cxx17__normal_iteratorIPSt4pairISt6threadbESt6vectorIS4_SaIS4_EEEENS0_5__ops10_Iter_predIZ10run_serveriSt8functionIFviEEE3$_1EEET_SH_SH_T0_St26random_access_iterator_tag+0x240>
  406520:	48 8d 7d f0          	lea    -0x10(%rbp),%rdi
  406524:	e8 67 09 00 00       	callq  406e90 <_ZN9__gnu_cxx17__normal_iteratorIPSt4pairISt6threadbESt6vectorIS3_SaIS3_EEEppEv>
  406529:	48 8d 7d e0          	lea    -0x20(%rbp),%rdi
  40652d:	48 8b 4d f0          	mov    -0x10(%rbp),%rcx
  406531:	48 89 4d b0          	mov    %rcx,-0x50(%rbp)
  406535:	48 8b 75 b0          	mov    -0x50(%rbp),%rsi
  406539:	48 89 45 80          	mov    %rax,-0x80(%rbp)
  40653d:	e8 be fe ff ff       	callq  406400 <_ZN9__gnu_cxx5__ops10_Iter_predIZ10run_serveriSt8functionIFviEEE3$_1EclINS_17__normal_iteratorIPSt4pairISt6threadbESt6vectorISB_SaISB_EEEEEEbT_>
  406542:	a8 01                	test   $0x1,%al
  406544:	0f 85 05 00 00 00    	jne    40654f <_ZSt9__find_ifIN9__gnu_cxx17__normal_iteratorIPSt4pairISt6threadbESt6vectorIS4_SaIS4_EEEENS0_5__ops10_Iter_predIZ10run_serveriSt8functionIFviEEE3$_1EEET_SH_SH_T0_St26random_access_iterator_tag+0x10f>
  40654a:	e9 0d 00 00 00       	jmpq   40655c <_ZSt9__find_ifIN9__gnu_cxx17__normal_iteratorIPSt4pairISt6threadbESt6vectorIS4_SaIS4_EEEENS0_5__ops10_Iter_predIZ10run_serveriSt8functionIFviEEE3$_1EEET_SH_SH_T0_St26random_access_iterator_tag+0x11c>
  40654f:	48 8b 45 f0          	mov    -0x10(%rbp),%rax
  406553:	48 89 45 f8          	mov    %rax,-0x8(%rbp)
  406557:	e9 24 01 00 00       	jmpq   406680 <_ZSt9__find_ifIN9__gnu_cxx17__normal_iteratorIPSt4pairISt6threadbESt6vectorIS4_SaIS4_EEEENS0_5__ops10_Iter_predIZ10run_serveriSt8functionIFviEEE3$_1EEET_SH_SH_T0_St26random_access_iterator_tag+0x240>
  40655c:	48 8d 7d f0          	lea    -0x10(%rbp),%rdi
  406560:	e8 2b 09 00 00       	callq  406e90 <_ZN9__gnu_cxx17__normal_iteratorIPSt4pairISt6threadbESt6vectorIS3_SaIS3_EEEppEv>
  406565:	48 89 85 78 ff ff ff 	mov    %rax,-0x88(%rbp)
  40656c:	48 8b 45 d0          	mov    -0x30(%rbp),%rax
  406570:	48 83 c0 ff          	add    $0xffffffffffffffff,%rax
  406574:	48 89 45 d0          	mov    %rax,-0x30(%rbp)
  406578:	e9 f1 fe ff ff       	jmpq   40646e <_ZSt9__find_ifIN9__gnu_cxx17__normal_iteratorIPSt4pairISt6threadbESt6vectorIS4_SaIS4_EEEENS0_5__ops10_Iter_predIZ10run_serveriSt8functionIFviEEE3$_1EEET_SH_SH_T0_St26random_access_iterator_tag+0x2e>
  40657d:	48 8d 7d e8          	lea    -0x18(%rbp),%rdi
  406581:	48 8d 75 f0          	lea    -0x10(%rbp),%rsi
  406585:	e8 16 5e 00 00       	callq  40c3a0 <_ZN9__gnu_cxxmiIPSt4pairISt6threadbESt6vectorIS3_SaIS3_EEEENS_17__normal_iteratorIT_T0_E15difference_typeERKSB_SE_>
  40658a:	48 89 c6             	mov    %rax,%rsi
  40658d:	48 83 e8 03          	sub    $0x3,%rax
  406591:	48 89 b5 70 ff ff ff 	mov    %rsi,-0x90(%rbp)
  406598:	48 89 85 68 ff ff ff 	mov    %rax,-0x98(%rbp)
  40659f:	0f 87 d3 00 00 00    	ja     406678 <_ZSt9__find_ifIN9__gnu_cxx17__normal_iteratorIPSt4pairISt6threadbESt6vectorIS4_SaIS4_EEEENS0_5__ops10_Iter_predIZ10run_serveriSt8functionIFviEEE3$_1EEET_SH_SH_T0_St26random_access_iterator_tag+0x238>
  4065a5:	48 8b 85 70 ff ff ff 	mov    -0x90(%rbp),%rax
  4065ac:	48 8b 0c c5 e0 ec 40 	mov    0x40ece0(,%rax,8),%rcx
  4065b3:	00 
  4065b4:	ff e1                	jmpq   *%rcx
  4065b6:	48 8d 7d e0          	lea    -0x20(%rbp),%rdi
  4065ba:	48 8b 45 f0          	mov    -0x10(%rbp),%rax
  4065be:	48 89 45 a8          	mov    %rax,-0x58(%rbp)
  4065c2:	48 8b 75 a8          	mov    -0x58(%rbp),%rsi
  4065c6:	e8 35 fe ff ff       	callq  406400 <_ZN9__gnu_cxx5__ops10_Iter_predIZ10run_serveriSt8functionIFviEEE3$_1EclINS_17__normal_iteratorIPSt4pairISt6threadbESt6vectorISB_SaISB_EEEEEEbT_>
  4065cb:	a8 01                	test   $0x1,%al
  4065cd:	0f 85 05 00 00 00    	jne    4065d8 <_ZSt9__find_ifIN9__gnu_cxx17__normal_iteratorIPSt4pairISt6threadbESt6vectorIS4_SaIS4_EEEENS0_5__ops10_Iter_predIZ10run_serveriSt8functionIFviEEE3$_1EEET_SH_SH_T0_St26random_access_iterator_tag+0x198>
  4065d3:	e9 0d 00 00 00       	jmpq   4065e5 <_ZSt9__find_ifIN9__gnu_cxx17__normal_iteratorIPSt4pairISt6threadbESt6vectorIS4_SaIS4_EEEENS0_5__ops10_Iter_predIZ10run_serveriSt8functionIFviEEE3$_1EEET_SH_SH_T0_St26random_access_iterator_tag+0x1a5>
  4065d8:	48 8b 45 f0          	mov    -0x10(%rbp),%rax
  4065dc:	48 89 45 f8          	mov    %rax,-0x8(%rbp)
  4065e0:	e9 9b 00 00 00       	jmpq   406680 <_ZSt9__find_ifIN9__gnu_cxx17__normal_iteratorIPSt4pairISt6threadbESt6vectorIS4_SaIS4_EEEENS0_5__ops10_Iter_predIZ10run_serveriSt8functionIFviEEE3$_1EEET_SH_SH_T0_St26random_access_iterator_tag+0x240>
  4065e5:	48 8d 7d f0          	lea    -0x10(%rbp),%rdi
  4065e9:	e8 a2 08 00 00       	callq  406e90 <_ZN9__gnu_cxx17__normal_iteratorIPSt4pairISt6threadbESt6vectorIS3_SaIS3_EEEppEv>
  4065ee:	48 89 85 60 ff ff ff 	mov    %rax,-0xa0(%rbp)
  4065f5:	48 8d 7d e0          	lea    -0x20(%rbp),%rdi
  4065f9:	48 8b 45 f0          	mov    -0x10(%rbp),%rax
  4065fd:	48 89 45 a0          	mov    %rax,-0x60(%rbp)
  406601:	48 8b 75 a0          	mov    -0x60(%rbp),%rsi
  406605:	e8 f6 fd ff ff       	callq  406400 <_ZN9__gnu_cxx5__ops10_Iter_predIZ10run_serveriSt8functionIFviEEE3$_1EclINS_17__normal_iteratorIPSt4pairISt6threadbESt6vectorISB_SaISB_EEEEEEbT_>
  40660a:	a8 01                	test   $0x1,%al
  40660c:	0f 85 05 00 00 00    	jne    406617 <_ZSt9__find_ifIN9__gnu_cxx17__normal_iteratorIPSt4pairISt6threadbESt6vectorIS4_SaIS4_EEEENS0_5__ops10_Iter_predIZ10run_serveriSt8functionIFviEEE3$_1EEET_SH_SH_T0_St26random_access_iterator_tag+0x1d7>
  406612:	e9 0d 00 00 00       	jmpq   406624 <_ZSt9__find_ifIN9__gnu_cxx17__normal_iteratorIPSt4pairISt6threadbESt6vectorIS4_SaIS4_EEEENS0_5__ops10_Iter_predIZ10run_serveriSt8functionIFviEEE3$_1EEET_SH_SH_T0_St26random_access_iterator_tag+0x1e4>
  406617:	48 8b 45 f0          	mov    -0x10(%rbp),%rax
  40661b:	48 89 45 f8          	mov    %rax,-0x8(%rbp)
  40661f:	e9 5c 00 00 00       	jmpq   406680 <_ZSt9__find_ifIN9__gnu_cxx17__normal_iteratorIPSt4pairISt6threadbESt6vectorIS4_SaIS4_EEEENS0_5__ops10_Iter_predIZ10run_serveriSt8functionIFviEEE3$_1EEET_SH_SH_T0_St26random_access_iterator_tag+0x240>
  406624:	48 8d 7d f0          	lea    -0x10(%rbp),%rdi
  406628:	e8 63 08 00 00       	callq  406e90 <_ZN9__gnu_cxx17__normal_iteratorIPSt4pairISt6threadbESt6vectorIS3_SaIS3_EEEppEv>
  40662d:	48 89 85 58 ff ff ff 	mov    %rax,-0xa8(%rbp)
  406634:	48 8d 7d e0          	lea    -0x20(%rbp),%rdi
  406638:	48 8b 45 f0          	mov    -0x10(%rbp),%rax
  40663c:	48 89 45 98          	mov    %rax,-0x68(%rbp)
  406640:	48 8b 75 98          	mov    -0x68(%rbp),%rsi
  406644:	e8 b7 fd ff ff       	callq  406400 <_ZN9__gnu_cxx5__ops10_Iter_predIZ10run_serveriSt8functionIFviEEE3$_1EclINS_17__normal_iteratorIPSt4pairISt6threadbESt6vectorISB_SaISB_EEEEEEbT_>
  406649:	a8 01                	test   $0x1,%al
  40664b:	0f 85 05 00 00 00    	jne    406656 <_ZSt9__find_ifIN9__gnu_cxx17__normal_iteratorIPSt4pairISt6threadbESt6vectorIS4_SaIS4_EEEENS0_5__ops10_Iter_predIZ10run_serveriSt8functionIFviEEE3$_1EEET_SH_SH_T0_St26random_access_iterator_tag+0x216>
  406651:	e9 0d 00 00 00       	jmpq   406663 <_ZSt9__find_ifIN9__gnu_cxx17__normal_iteratorIPSt4pairISt6threadbESt6vectorIS4_SaIS4_EEEENS0_5__ops10_Iter_predIZ10run_serveriSt8functionIFviEEE3$_1EEET_SH_SH_T0_St26random_access_iterator_tag+0x223>
  406656:	48 8b 45 f0          	mov    -0x10(%rbp),%rax
  40665a:	48 89 45 f8          	mov    %rax,-0x8(%rbp)
  40665e:	e9 1d 00 00 00       	jmpq   406680 <_ZSt9__find_ifIN9__gnu_cxx17__normal_iteratorIPSt4pairISt6threadbESt6vectorIS4_SaIS4_EEEENS0_5__ops10_Iter_predIZ10run_serveriSt8functionIFviEEE3$_1EEET_SH_SH_T0_St26random_access_iterator_tag+0x240>
  406663:	48 8d 7d f0          	lea    -0x10(%rbp),%rdi
  406667:	e8 24 08 00 00       	callq  406e90 <_ZN9__gnu_cxx17__normal_iteratorIPSt4pairISt6threadbESt6vectorIS3_SaIS3_EEEppEv>
  40666c:	48 89 85 50 ff ff ff 	mov    %rax,-0xb0(%rbp)
  406673:	e9 00 00 00 00       	jmpq   406678 <_ZSt9__find_ifIN9__gnu_cxx17__normal_iteratorIPSt4pairISt6threadbESt6vectorIS4_SaIS4_EEEENS0_5__ops10_Iter_predIZ10run_serveriSt8functionIFviEEE3$_1EEET_SH_SH_T0_St26random_access_iterator_tag+0x238>
  406678:	48 8b 45 e8          	mov    -0x18(%rbp),%rax
  40667c:	48 89 45 f8          	mov    %rax,-0x8(%rbp)
  406680:	48 8b 45 f8          	mov    -0x8(%rbp),%rax
  406684:	48 81 c4 b0 00 00 00 	add    $0xb0,%rsp
  40668b:	5d                   	pop    %rbp
  40668c:	c3                   	retq   
  40668d:	0f 1f 00             	nopl   (%rax)

0000000000406690 <_ZZ10run_serveriSt8functionIFviEEENK3$_1clISt4pairISt6threadbEEEDaRKT_>:
  406690:	55                   	push   %rbp
  406691:	48 89 e5             	mov    %rsp,%rbp
  406694:	48 89 7d f8          	mov    %rdi,-0x8(%rbp)
  406698:	48 89 75 f0          	mov    %rsi,-0x10(%rbp)
  40669c:	48 8b 75 f0          	mov    -0x10(%rbp),%rsi
  4066a0:	8a 46 08             	mov    0x8(%rsi),%al
  4066a3:	24 01                	and    $0x1,%al
  4066a5:	0f b6 c0             	movzbl %al,%eax
  4066a8:	5d                   	pop    %rbp
  4066a9:	c3                   	retq   
  4066aa:	66 0f 1f 44 00 00    	nopw   0x0(%rax,%rax,1)

00000000004066b0 <_ZN9__gnu_cxx5__ops10_Iter_predIZ10run_serveriSt8functionIFviEEE3$_1EC2ES5_>:
  4066b0:	55                   	push   %rbp
  4066b1:	48 89 e5             	mov    %rsp,%rbp
  4066b4:	48 89 7d f0          	mov    %rdi,-0x10(%rbp)
  4066b8:	5d                   	pop    %rbp
  4066b9:	c3                   	retq   
  4066ba:	66 0f 1f 44 00 00    	nopw   0x0(%rax,%rax,1)

00000000004066c0 <_ZStplIcSt11char_traitsIcESaIcEENSt7__cxx1112basic_stringIT_T0_T1_EEOS8_PKS5_>:
  4066c0:	55                   	push   %rbp
  4066c1:	48 89 e5             	mov    %rsp,%rbp
  4066c4:	48 83 ec 20          	sub    $0x20,%rsp
  4066c8:	48 89 f8             	mov    %rdi,%rax
  4066cb:	48 89 75 f8          	mov    %rsi,-0x8(%rbp)
  4066cf:	48 89 55 f0          	mov    %rdx,-0x10(%rbp)
  4066d3:	48 8b 55 f8          	mov    -0x8(%rbp),%rdx
  4066d7:	48 8b 75 f0          	mov    -0x10(%rbp),%rsi
  4066db:	48 89 7d e8          	mov    %rdi,-0x18(%rbp)
  4066df:	48 89 d7             	mov    %rdx,%rdi
  4066e2:	48 89 45 e0          	mov    %rax,-0x20(%rbp)
  4066e6:	e8 c5 c9 ff ff       	callq  4030b0 <_ZNSt7__cxx1112basic_stringIcSt11char_traitsIcESaIcEE6appendEPKc@plt>
  4066eb:	48 89 c7             	mov    %rax,%rdi
  4066ee:	e8 5d 0e 00 00       	callq  407550 <_ZSt4moveIRNSt7__cxx1112basic_stringIcSt11char_traitsIcESaIcEEEEONSt16remove_referenceIT_E4typeEOS8_>
  4066f3:	48 8b 7d e8          	mov    -0x18(%rbp),%rdi
  4066f7:	48 89 c6             	mov    %rax,%rsi
  4066fa:	e8 51 c5 ff ff       	callq  402c50 <_ZNSt7__cxx1112basic_stringIcSt11char_traitsIcESaIcEEC1EOS4_@plt>
  4066ff:	48 8b 45 e0          	mov    -0x20(%rbp),%rax
  406703:	48 83 c4 20          	add    $0x20,%rsp
  406707:	5d                   	pop    %rbp
  406708:	c3                   	retq   
  406709:	0f 1f 80 00 00 00 00 	nopl   0x0(%rax)

0000000000406710 <_ZNSt3mapINSt7__cxx1112basic_stringIcSt11char_traitsIcESaIcEEES5_St4lessIS5_ESaISt4pairIKS5_S5_EEEixEOS5_>:
  406710:	55                   	push   %rbp
  406711:	48 89 e5             	mov    %rsp,%rbp
  406714:	48 83 ec 60          	sub    $0x60,%rsp
  406718:	48 89 7d f8          	mov    %rdi,-0x8(%rbp)
  40671c:	48 89 75 f0          	mov    %rsi,-0x10(%rbp)
  406720:	48 8b 75 f8          	mov    -0x8(%rbp),%rsi
  406724:	48 8b 7d f0          	mov    -0x10(%rbp),%rdi
  406728:	48 89 7d b0          	mov    %rdi,-0x50(%rbp)
  40672c:	48 89 f7             	mov    %rsi,%rdi
  40672f:	48 8b 45 b0          	mov    -0x50(%rbp),%rax
  406733:	48 89 75 a8          	mov    %rsi,-0x58(%rbp)
  406737:	48 89 c6             	mov    %rax,%rsi
  40673a:	e8 21 0e 00 00       	callq  407560 <_ZNSt3mapINSt7__cxx1112basic_stringIcSt11char_traitsIcESaIcEEES5_St4lessIS5_ESaISt4pairIKS5_S5_EEE11lower_boundERS9_>
  40673f:	48 89 45 e8          	mov    %rax,-0x18(%rbp)
  406743:	48 8b 7d a8          	mov    -0x58(%rbp),%rdi
  406747:	e8 34 01 00 00       	callq  406880 <_ZNSt3mapINSt7__cxx1112basic_stringIcSt11char_traitsIcESaIcEEES5_St4lessIS5_ESaISt4pairIKS5_S5_EEE3endEv>
  40674c:	48 8d 7d e8          	lea    -0x18(%rbp),%rdi
  406750:	48 8d 75 e0          	lea    -0x20(%rbp),%rsi
  406754:	48 89 45 e0          	mov    %rax,-0x20(%rbp)
  406758:	e8 33 0e 00 00       	callq  407590 <_ZNKSt17_Rb_tree_iteratorISt4pairIKNSt7__cxx1112basic_stringIcSt11char_traitsIcESaIcEEES6_EEeqERKS9_>
  40675d:	a8 01                	test   $0x1,%al
  40675f:	0f 85 37 00 00 00    	jne    40679c <_ZNSt3mapINSt7__cxx1112basic_stringIcSt11char_traitsIcESaIcEEES5_St4lessIS5_ESaISt4pairIKS5_S5_EEEixEOS5_+0x8c>
  406765:	48 8b 7d a8          	mov    -0x58(%rbp),%rdi
  406769:	e8 52 0e 00 00       	callq  4075c0 <_ZNKSt3mapINSt7__cxx1112basic_stringIcSt11char_traitsIcESaIcEEES5_St4lessIS5_ESaISt4pairIKS5_S5_EEE8key_compEv>
  40676e:	48 8d 7d e8          	lea    -0x18(%rbp),%rdi
  406772:	48 8b 75 f0          	mov    -0x10(%rbp),%rsi
  406776:	48 89 75 a0          	mov    %rsi,-0x60(%rbp)
  40677a:	e8 61 01 00 00       	callq  4068e0 <_ZNKSt17_Rb_tree_iteratorISt4pairIKNSt7__cxx1112basic_stringIcSt11char_traitsIcESaIcEEES6_EEdeEv>
  40677f:	48 8d 7d d8          	lea    -0x28(%rbp),%rdi
  406783:	48 8b 75 a0          	mov    -0x60(%rbp),%rsi
  406787:	48 89 c2             	mov    %rax,%rdx
  40678a:	e8 51 0e 00 00       	callq  4075e0 <_ZNKSt4lessINSt7__cxx1112basic_stringIcSt11char_traitsIcESaIcEEEEclERKS5_S8_>
  40678f:	a8 01                	test   $0x1,%al
  406791:	0f 85 05 00 00 00    	jne    40679c <_ZNSt3mapINSt7__cxx1112basic_stringIcSt11char_traitsIcESaIcEEES5_St4lessIS5_ESaISt4pairIKS5_S5_EEEixEOS5_+0x8c>
  406797:	e9 4d 00 00 00       	jmpq   4067e9 <_ZNSt3mapINSt7__cxx1112basic_stringIcSt11char_traitsIcESaIcEEES5_St4lessIS5_ESaISt4pairIKS5_S5_EEEixEOS5_+0xd9>
  40679c:	48 8d 7d c8          	lea    -0x38(%rbp),%rdi
  4067a0:	48 8d 75 e8          	lea    -0x18(%rbp),%rsi
  4067a4:	e8 e7 0f 00 00       	callq  407790 <_ZNSt23_Rb_tree_const_iteratorISt4pairIKNSt7__cxx1112basic_stringIcSt11char_traitsIcESaIcEEES6_EEC2ERKSt17_Rb_tree_iteratorIS8_E>
  4067a9:	48 8b 7d f0          	mov    -0x10(%rbp),%rdi
  4067ad:	e8 9e 0d 00 00       	callq  407550 <_ZSt4moveIRNSt7__cxx1112basic_stringIcSt11char_traitsIcESaIcEEEEONSt16remove_referenceIT_E4typeEOS8_>
  4067b2:	48 89 c7             	mov    %rax,%rdi
  4067b5:	e8 f6 0f 00 00       	callq  4077b0 <_ZSt16forward_as_tupleIJNSt7__cxx1112basic_stringIcSt11char_traitsIcESaIcEEEEESt5tupleIJDpOT_EES9_>
  4067ba:	48 ba 00 ed 40 00 00 	movabs $0x40ed00,%rdx
  4067c1:	00 00 00 
  4067c4:	48 8d 4d c0          	lea    -0x40(%rbp),%rcx
  4067c8:	4c 8d 45 b8          	lea    -0x48(%rbp),%r8
  4067cc:	48 89 45 c0          	mov    %rax,-0x40(%rbp)
  4067d0:	48 8b 75 c8          	mov    -0x38(%rbp),%rsi
  4067d4:	48 8b 7d a8          	mov    -0x58(%rbp),%rdi
  4067d8:	e8 33 0e 00 00       	callq  407610 <_ZNSt8_Rb_treeINSt7__cxx1112basic_stringIcSt11char_traitsIcESaIcEEESt4pairIKS5_S5_ESt10_Select1stIS8_ESt4lessIS5_ESaIS8_EE22_M_emplace_hint_uniqueIJRKSt21piecewise_construct_tSt5tupleIJOS5_EESJ_IJEEEEESt17_Rb_tree_iteratorIS8_ESt23_Rb_tree_const_iteratorIS8_EDpOT_>
  4067dd:	48 89 45 d0          	mov    %rax,-0x30(%rbp)
  4067e1:	48 8b 45 d0          	mov    -0x30(%rbp),%rax
  4067e5:	48 89 45 e8          	mov    %rax,-0x18(%rbp)
  4067e9:	48 8d 7d e8          	lea    -0x18(%rbp),%rdi
  4067ed:	e8 ee 00 00 00       	callq  4068e0 <_ZNKSt17_Rb_tree_iteratorISt4pairIKNSt7__cxx1112basic_stringIcSt11char_traitsIcESaIcEEES6_EEdeEv>
  4067f2:	48 83 c0 20          	add    $0x20,%rax
  4067f6:	48 83 c4 60          	add    $0x60,%rsp
  4067fa:	5d                   	pop    %rbp
  4067fb:	c3                   	retq   
  4067fc:	0f 1f 40 00          	nopl   0x0(%rax)

0000000000406800 <_ZNSt7__cxx119to_stringEi>:
  406800:	55                   	push   %rbp
  406801:	48 89 e5             	mov    %rsp,%rbp
  406804:	48 83 ec 10          	sub    $0x10,%rsp
  406808:	48 89 f8             	mov    %rdi,%rax
  40680b:	48 b9 70 2c 40 00 00 	movabs $0x402c70,%rcx
  406812:	00 00 00 
  406815:	ba 10 00 00 00       	mov    $0x10,%edx
  40681a:	49 b8 d3 ee 40 00 00 	movabs $0x40eed3,%r8
  406821:	00 00 00 
  406824:	89 75 fc             	mov    %esi,-0x4(%rbp)
  406827:	8b 75 fc             	mov    -0x4(%rbp),%esi
  40682a:	89 75 f8             	mov    %esi,-0x8(%rbp)
  40682d:	48 89 ce             	mov    %rcx,%rsi
  406830:	4c 89 c1             	mov    %r8,%rcx
  406833:	44 8b 45 f8          	mov    -0x8(%rbp),%r8d
  406837:	48 89 45 f0          	mov    %rax,-0x10(%rbp)
  40683b:	b0 00                	mov    $0x0,%al
  40683d:	e8 de 07 00 00       	callq  407020 <_ZN9__gnu_cxx12__to_xstringINSt7__cxx1112basic_stringIcSt11char_traitsIcESaIcEEEcEET_PFiPT0_mPKS8_P13__va_list_tagEmSB_z>
  406842:	48 8b 45 f0          	mov    -0x10(%rbp),%rax
  406846:	48 83 c4 10          	add    $0x10,%rsp
  40684a:	5d                   	pop    %rbp
  40684b:	c3                   	retq   
  40684c:	0f 1f 40 00          	nopl   0x0(%rax)

0000000000406850 <_ZNSt3mapINSt7__cxx1112basic_stringIcSt11char_traitsIcESaIcEEES5_St4lessIS5_ESaISt4pairIKS5_S5_EEE5beginEv>:
  406850:	55                   	push   %rbp
  406851:	48 89 e5             	mov    %rsp,%rbp
  406854:	48 83 ec 10          	sub    $0x10,%rsp
  406858:	48 89 7d f0          	mov    %rdi,-0x10(%rbp)
  40685c:	48 8b 7d f0          	mov    -0x10(%rbp),%rdi
  406860:	e8 6b 20 00 00       	callq  4088d0 <_ZNSt8_Rb_treeINSt7__cxx1112basic_stringIcSt11char_traitsIcESaIcEEESt4pairIKS5_S5_ESt10_Select1stIS8_ESt4lessIS5_ESaIS8_EE5beginEv>
  406865:	48 89 45 f8          	mov    %rax,-0x8(%rbp)
  406869:	48 8b 45 f8          	mov    -0x8(%rbp),%rax
  40686d:	48 83 c4 10          	add    $0x10,%rsp
  406871:	5d                   	pop    %rbp
  406872:	c3                   	retq   
  406873:	66 2e 0f 1f 84 00 00 	nopw   %cs:0x0(%rax,%rax,1)
  40687a:	00 00 00 
  40687d:	0f 1f 00             	nopl   (%rax)

0000000000406880 <_ZNSt3mapINSt7__cxx1112basic_stringIcSt11char_traitsIcESaIcEEES5_St4lessIS5_ESaISt4pairIKS5_S5_EEE3endEv>:
  406880:	55                   	push   %rbp
  406881:	48 89 e5             	mov    %rsp,%rbp
  406884:	48 83 ec 10          	sub    $0x10,%rsp
  406888:	48 89 7d f0          	mov    %rdi,-0x10(%rbp)
  40688c:	48 8b 7d f0          	mov    -0x10(%rbp),%rdi
  406890:	e8 3b 22 00 00       	callq  408ad0 <_ZNSt8_Rb_treeINSt7__cxx1112basic_stringIcSt11char_traitsIcESaIcEEESt4pairIKS5_S5_ESt10_Select1stIS8_ESt4lessIS5_ESaIS8_EE3endEv>
  406895:	48 89 45 f8          	mov    %rax,-0x8(%rbp)
  406899:	48 8b 45 f8          	mov    -0x8(%rbp),%rax
  40689d:	48 83 c4 10          	add    $0x10,%rsp
  4068a1:	5d                   	pop    %rbp
  4068a2:	c3                   	retq   
  4068a3:	66 2e 0f 1f 84 00 00 	nopw   %cs:0x0(%rax,%rax,1)
  4068aa:	00 00 00 
  4068ad:	0f 1f 00             	nopl   (%rax)

00000000004068b0 <_ZNKSt17_Rb_tree_iteratorISt4pairIKNSt7__cxx1112basic_stringIcSt11char_traitsIcESaIcEEES6_EEneERKS9_>:
  4068b0:	55                   	push   %rbp
  4068b1:	48 89 e5             	mov    %rsp,%rbp
  4068b4:	48 89 7d f8          	mov    %rdi,-0x8(%rbp)
  4068b8:	48 89 75 f0          	mov    %rsi,-0x10(%rbp)
  4068bc:	48 8b 75 f8          	mov    -0x8(%rbp),%rsi
  4068c0:	48 8b 36             	mov    (%rsi),%rsi
  4068c3:	48 8b 7d f0          	mov    -0x10(%rbp),%rdi
  4068c7:	48 3b 37             	cmp    (%rdi),%rsi
  4068ca:	0f 95 c0             	setne  %al
  4068cd:	24 01                	and    $0x1,%al
  4068cf:	0f b6 c0             	movzbl %al,%eax
  4068d2:	5d                   	pop    %rbp
  4068d3:	c3                   	retq   
  4068d4:	66 2e 0f 1f 84 00 00 	nopw   %cs:0x0(%rax,%rax,1)
  4068db:	00 00 00 
  4068de:	66 90                	xchg   %ax,%ax

00000000004068e0 <_ZNKSt17_Rb_tree_iteratorISt4pairIKNSt7__cxx1112basic_stringIcSt11char_traitsIcESaIcEEES6_EEdeEv>:
  4068e0:	55                   	push   %rbp
  4068e1:	48 89 e5             	mov    %rsp,%rbp
  4068e4:	48 83 ec 20          	sub    $0x20,%rsp
  4068e8:	48 89 7d f8          	mov    %rdi,-0x8(%rbp)
  4068ec:	48 8b 3f             	mov    (%rdi),%rdi
  4068ef:	e8 0c 19 00 00       	callq  408200 <_ZNSt13_Rb_tree_nodeISt4pairIKNSt7__cxx1112basic_stringIcSt11char_traitsIcESaIcEEES6_EE9_M_valptrEv>
  4068f4:	48 89 45 f0          	mov    %rax,-0x10(%rbp)
  4068f8:	e9 00 00 00 00       	jmpq   4068fd <_ZNKSt17_Rb_tree_iteratorISt4pairIKNSt7__cxx1112basic_stringIcSt11char_traitsIcESaIcEEES6_EEdeEv+0x1d>
  4068fd:	48 8b 45 f0          	mov    -0x10(%rbp),%rax
  406901:	48 83 c4 20          	add    $0x20,%rsp
  406905:	5d                   	pop    %rbp
  406906:	c3                   	retq   
  406907:	89 d1                	mov    %edx,%ecx
  406909:	48 89 c7             	mov    %rax,%rdi
  40690c:	89 4d ec             	mov    %ecx,-0x14(%rbp)
  40690f:	e8 ac 0b 00 00       	callq  4074c0 <__clang_call_terminate>
  406914:	66 2e 0f 1f 84 00 00 	nopw   %cs:0x0(%rax,%rax,1)
  40691b:	00 00 00 
  40691e:	66 90                	xchg   %ax,%ax

0000000000406920 <_ZNSt17_Rb_tree_iteratorISt4pairIKNSt7__cxx1112basic_stringIcSt11char_traitsIcESaIcEEES6_EEppEv>:
  406920:	55                   	push   %rbp
  406921:	48 89 e5             	mov    %rsp,%rbp
  406924:	48 83 ec 10          	sub    $0x10,%rsp
  406928:	48 89 7d f8          	mov    %rdi,-0x8(%rbp)
  40692c:	48 8b 7d f8          	mov    -0x8(%rbp),%rdi
  406930:	48 8b 07             	mov    (%rdi),%rax
  406933:	48 89 7d f0          	mov    %rdi,-0x10(%rbp)
  406937:	48 89 c7             	mov    %rax,%rdi
  40693a:	e8 61 c3 ff ff       	callq  402ca0 <_ZSt18_Rb_tree_incrementPSt18_Rb_tree_node_base@plt>
  40693f:	48 8b 7d f0          	mov    -0x10(%rbp),%rdi
  406943:	48 89 07             	mov    %rax,(%rdi)
  406946:	48 89 f8             	mov    %rdi,%rax
  406949:	48 83 c4 10          	add    $0x10,%rsp
  40694d:	5d                   	pop    %rbp
  40694e:	c3                   	retq   
  40694f:	90                   	nop

0000000000406950 <_ZNSt3mapINSt7__cxx1112basic_stringIcSt11char_traitsIcESaIcEEES5_St4lessIS5_ESaISt4pairIKS5_S5_EEE5clearEv>:
  406950:	55                   	push   %rbp
  406951:	48 89 e5             	mov    %rsp,%rbp
  406954:	48 83 ec 10          	sub    $0x10,%rsp
  406958:	48 89 7d f8          	mov    %rdi,-0x8(%rbp)
  40695c:	48 8b 7d f8          	mov    -0x8(%rbp),%rdi
  406960:	e8 ab 21 00 00       	callq  408b10 <_ZNSt8_Rb_treeINSt7__cxx1112basic_stringIcSt11char_traitsIcESaIcEEESt4pairIKS5_S5_ESt10_Select1stIS8_ESt4lessIS5_ESaIS8_EE5clearEv>
  406965:	48 83 c4 10          	add    $0x10,%rsp
  406969:	5d                   	pop    %rbp
  40696a:	c3                   	retq   
  40696b:	0f 1f 44 00 00       	nopl   0x0(%rax,%rax,1)

0000000000406970 <_ZNSt6vectorIhSaIhEE5clearEv>:
  406970:	55                   	push   %rbp
  406971:	48 89 e5             	mov    %rsp,%rbp
  406974:	48 83 ec 10          	sub    $0x10,%rsp
  406978:	48 89 7d f8          	mov    %rdi,-0x8(%rbp)
  40697c:	48 8b 7d f8          	mov    -0x8(%rbp),%rdi
  406980:	48 8b 37             	mov    (%rdi),%rsi
  406983:	e8 88 22 00 00       	callq  408c10 <_ZNSt6vectorIhSaIhEE15_M_erase_at_endEPh>
  406988:	48 83 c4 10          	add    $0x10,%rsp
  40698c:	5d                   	pop    %rbp
  40698d:	c3                   	retq   
  40698e:	66 90                	xchg   %ax,%ax

0000000000406990 <_ZStorSt13_Ios_OpenmodeS_>:
  406990:	55                   	push   %rbp
  406991:	48 89 e5             	mov    %rsp,%rbp
  406994:	89 7d fc             	mov    %edi,-0x4(%rbp)
  406997:	89 75 f8             	mov    %esi,-0x8(%rbp)
  40699a:	8b 75 fc             	mov    -0x4(%rbp),%esi
  40699d:	0b 75 f8             	or     -0x8(%rbp),%esi
  4069a0:	89 f0                	mov    %esi,%eax
  4069a2:	5d                   	pop    %rbp
  4069a3:	c3                   	retq   
  4069a4:	66 2e 0f 1f 84 00 00 	nopw   %cs:0x0(%rax,%rax,1)
  4069ab:	00 00 00 
  4069ae:	66 90                	xchg   %ax,%ax

00000000004069b0 <_ZSteqIcSt11char_traitsIcESaIcEEbRKNSt7__cxx1112basic_stringIT_T0_T1_EEPKS5_>:
  4069b0:	55                   	push   %rbp
  4069b1:	48 89 e5             	mov    %rsp,%rbp
  4069b4:	48 83 ec 10          	sub    $0x10,%rsp
  4069b8:	48 89 7d f8          	mov    %rdi,-0x8(%rbp)
  4069bc:	48 89 75 f0          	mov    %rsi,-0x10(%rbp)
  4069c0:	48 8b 7d f8          	mov    -0x8(%rbp),%rdi
  4069c4:	48 8b 75 f0          	mov    -0x10(%rbp),%rsi
  4069c8:	e8 73 c1 ff ff       	callq  402b40 <_ZNKSt7__cxx1112basic_stringIcSt11char_traitsIcESaIcEE7compareEPKc@plt>
  4069cd:	83 f8 00             	cmp    $0x0,%eax
  4069d0:	0f 94 c1             	sete   %cl
  4069d3:	80 e1 01             	and    $0x1,%cl
  4069d6:	0f b6 c1             	movzbl %cl,%eax
  4069d9:	48 83 c4 10          	add    $0x10,%rsp
  4069dd:	5d                   	pop    %rbp
  4069de:	c3                   	retq   
  4069df:	90                   	nop

00000000004069e0 <_ZNSt3mapINSt7__cxx1112basic_stringIcSt11char_traitsIcESaIcEEES5_St4lessIS5_ESaISt4pairIKS5_S5_EEEixERS9_>:
  4069e0:	55                   	push   %rbp
  4069e1:	48 89 e5             	mov    %rsp,%rbp
  4069e4:	48 83 ec 60          	sub    $0x60,%rsp
  4069e8:	48 89 7d f8          	mov    %rdi,-0x8(%rbp)
  4069ec:	48 89 75 f0          	mov    %rsi,-0x10(%rbp)
  4069f0:	48 8b 75 f8          	mov    -0x8(%rbp),%rsi
  4069f4:	48 8b 7d f0          	mov    -0x10(%rbp),%rdi
  4069f8:	48 89 7d b0          	mov    %rdi,-0x50(%rbp)
  4069fc:	48 89 f7             	mov    %rsi,%rdi
  4069ff:	48 8b 45 b0          	mov    -0x50(%rbp),%rax
  406a03:	48 89 75 a8          	mov    %rsi,-0x58(%rbp)
  406a07:	48 89 c6             	mov    %rax,%rsi
  406a0a:	e8 51 0b 00 00       	callq  407560 <_ZNSt3mapINSt7__cxx1112basic_stringIcSt11char_traitsIcESaIcEEES5_St4lessIS5_ESaISt4pairIKS5_S5_EEE11lower_boundERS9_>
  406a0f:	48 89 45 e8          	mov    %rax,-0x18(%rbp)
  406a13:	48 8b 7d a8          	mov    -0x58(%rbp),%rdi
  406a17:	e8 64 fe ff ff       	callq  406880 <_ZNSt3mapINSt7__cxx1112basic_stringIcSt11char_traitsIcESaIcEEES5_St4lessIS5_ESaISt4pairIKS5_S5_EEE3endEv>
  406a1c:	48 8d 7d e8          	lea    -0x18(%rbp),%rdi
  406a20:	48 8d 75 e0          	lea    -0x20(%rbp),%rsi
  406a24:	48 89 45 e0          	mov    %rax,-0x20(%rbp)
  406a28:	e8 63 0b 00 00       	callq  407590 <_ZNKSt17_Rb_tree_iteratorISt4pairIKNSt7__cxx1112basic_stringIcSt11char_traitsIcESaIcEEES6_EEeqERKS9_>
  406a2d:	a8 01                	test   $0x1,%al
  406a2f:	0f 85 37 00 00 00    	jne    406a6c <_ZNSt3mapINSt7__cxx1112basic_stringIcSt11char_traitsIcESaIcEEES5_St4lessIS5_ESaISt4pairIKS5_S5_EEEixERS9_+0x8c>
  406a35:	48 8b 7d a8          	mov    -0x58(%rbp),%rdi
  406a39:	e8 82 0b 00 00       	callq  4075c0 <_ZNKSt3mapINSt7__cxx1112basic_stringIcSt11char_traitsIcESaIcEEES5_St4lessIS5_ESaISt4pairIKS5_S5_EEE8key_compEv>
  406a3e:	48 8d 7d e8          	lea    -0x18(%rbp),%rdi
  406a42:	48 8b 75 f0          	mov    -0x10(%rbp),%rsi
  406a46:	48 89 75 a0          	mov    %rsi,-0x60(%rbp)
  406a4a:	e8 91 fe ff ff       	callq  4068e0 <_ZNKSt17_Rb_tree_iteratorISt4pairIKNSt7__cxx1112basic_stringIcSt11char_traitsIcESaIcEEES6_EEdeEv>
  406a4f:	48 8d 7d d8          	lea    -0x28(%rbp),%rdi
  406a53:	48 8b 75 a0          	mov    -0x60(%rbp),%rsi
  406a57:	48 89 c2             	mov    %rax,%rdx
  406a5a:	e8 81 0b 00 00       	callq  4075e0 <_ZNKSt4lessINSt7__cxx1112basic_stringIcSt11char_traitsIcESaIcEEEEclERKS5_S8_>
  406a5f:	a8 01                	test   $0x1,%al
  406a61:	0f 85 05 00 00 00    	jne    406a6c <_ZNSt3mapINSt7__cxx1112basic_stringIcSt11char_traitsIcESaIcEEES5_St4lessIS5_ESaISt4pairIKS5_S5_EEEixERS9_+0x8c>
  406a67:	e9 45 00 00 00       	jmpq   406ab1 <_ZNSt3mapINSt7__cxx1112basic_stringIcSt11char_traitsIcESaIcEEES5_St4lessIS5_ESaISt4pairIKS5_S5_EEEixERS9_+0xd1>
  406a6c:	48 8d 7d c8          	lea    -0x38(%rbp),%rdi
  406a70:	48 8d 75 e8          	lea    -0x18(%rbp),%rsi
  406a74:	e8 17 0d 00 00       	callq  407790 <_ZNSt23_Rb_tree_const_iteratorISt4pairIKNSt7__cxx1112basic_stringIcSt11char_traitsIcESaIcEEES6_EEC2ERKSt17_Rb_tree_iteratorIS8_E>
  406a79:	48 8d 7d c0          	lea    -0x40(%rbp),%rdi
  406a7d:	48 8b 75 f0          	mov    -0x10(%rbp),%rsi
  406a81:	e8 fa 23 00 00       	callq  408e80 <_ZNSt5tupleIJRKNSt7__cxx1112basic_stringIcSt11char_traitsIcESaIcEEEEEC2ES7_>
  406a86:	48 ba 00 ed 40 00 00 	movabs $0x40ed00,%rdx
  406a8d:	00 00 00 
  406a90:	48 8d 4d c0          	lea    -0x40(%rbp),%rcx
  406a94:	4c 8d 45 b8          	lea    -0x48(%rbp),%r8
  406a98:	48 8b 75 c8          	mov    -0x38(%rbp),%rsi
  406a9c:	48 8b 7d a8          	mov    -0x58(%rbp),%rdi
  406aa0:	e8 5b 22 00 00       	callq  408d00 <_ZNSt8_Rb_treeINSt7__cxx1112basic_stringIcSt11char_traitsIcESaIcEEESt4pairIKS5_S5_ESt10_Select1stIS8_ESt4lessIS5_ESaIS8_EE22_M_emplace_hint_uniqueIJRKSt21piecewise_construct_tSt5tupleIJRS7_EESJ_IJEEEEESt17_Rb_tree_iteratorIS8_ESt23_Rb_tree_const_iteratorIS8_EDpOT_>
  406aa5:	48 89 45 d0          	mov    %rax,-0x30(%rbp)
  406aa9:	48 8b 45 d0          	mov    -0x30(%rbp),%rax
  406aad:	48 89 45 e8          	mov    %rax,-0x18(%rbp)
  406ab1:	48 8d 7d e8          	lea    -0x18(%rbp),%rdi
  406ab5:	e8 26 fe ff ff       	callq  4068e0 <_ZNKSt17_Rb_tree_iteratorISt4pairIKNSt7__cxx1112basic_stringIcSt11char_traitsIcESaIcEEES6_EEdeEv>
  406aba:	48 83 c0 20          	add    $0x20,%rax
  406abe:	48 83 c4 60          	add    $0x60,%rsp
  406ac2:	5d                   	pop    %rbp
  406ac3:	c3                   	retq   
  406ac4:	66 2e 0f 1f 84 00 00 	nopw   %cs:0x0(%rax,%rax,1)
  406acb:	00 00 00 
  406ace:	66 90                	xchg   %ax,%ax

0000000000406ad0 <_ZNSt3mapINSt7__cxx1112basic_stringIcSt11char_traitsIcESaIcEEES5_St4lessIS5_ESaISt4pairIKS5_S5_EEE4findERS9_>:
  406ad0:	55                   	push   %rbp
  406ad1:	48 89 e5             	mov    %rsp,%rbp
  406ad4:	48 83 ec 20          	sub    $0x20,%rsp
  406ad8:	48 89 7d f0          	mov    %rdi,-0x10(%rbp)
  406adc:	48 89 75 e8          	mov    %rsi,-0x18(%rbp)
  406ae0:	48 8b 7d f0          	mov    -0x10(%rbp),%rdi
  406ae4:	48 8b 75 e8          	mov    -0x18(%rbp),%rsi
  406ae8:	e8 03 28 00 00       	callq  4092f0 <_ZNSt8_Rb_treeINSt7__cxx1112basic_stringIcSt11char_traitsIcESaIcEEESt4pairIKS5_S5_ESt10_Select1stIS8_ESt4lessIS5_ESaIS8_EE4findERS7_>
  406aed:	48 89 45 f8          	mov    %rax,-0x8(%rbp)
  406af1:	48 8b 45 f8          	mov    -0x8(%rbp),%rax
  406af5:	48 83 c4 20          	add    $0x20,%rsp
  406af9:	5d                   	pop    %rbp
  406afa:	c3                   	retq   
  406afb:	0f 1f 44 00 00       	nopl   0x0(%rax,%rax,1)

0000000000406b00 <_ZNKSt4fposI11__mbstate_tEcvlEv>:
  406b00:	55                   	push   %rbp
  406b01:	48 89 e5             	mov    %rsp,%rbp
  406b04:	48 89 7d f8          	mov    %rdi,-0x8(%rbp)
  406b08:	48 8b 7d f8          	mov    -0x8(%rbp),%rdi
  406b0c:	48 8b 07             	mov    (%rdi),%rax
  406b0f:	5d                   	pop    %rbp
  406b10:	c3                   	retq   
  406b11:	66 2e 0f 1f 84 00 00 	nopw   %cs:0x0(%rax,%rax,1)
  406b18:	00 00 00 
  406b1b:	0f 1f 44 00 00       	nopl   0x0(%rax,%rax,1)

0000000000406b20 <_ZNSt6vectorIhSaIhEE6insertIPKcvEEN9__gnu_cxx17__normal_iteratorIPhS1_EENS6_IPKhS1_EET_SC_>:
  406b20:	55                   	push   %rbp
  406b21:	48 89 e5             	mov    %rsp,%rbp
  406b24:	48 83 ec 60          	sub    $0x60,%rsp
  406b28:	48 89 75 f0          	mov    %rsi,-0x10(%rbp)
  406b2c:	48 89 7d e8          	mov    %rdi,-0x18(%rbp)
  406b30:	48 89 55 e0          	mov    %rdx,-0x20(%rbp)
  406b34:	48 89 4d d8          	mov    %rcx,-0x28(%rbp)
  406b38:	48 8b 4d e8          	mov    -0x18(%rbp),%rcx
  406b3c:	48 89 cf             	mov    %rcx,%rdi
  406b3f:	48 89 4d a0          	mov    %rcx,-0x60(%rbp)
  406b43:	e8 c8 28 00 00       	callq  409410 <_ZNKSt6vectorIhSaIhEE6cbeginEv>
  406b48:	48 8d 7d f0          	lea    -0x10(%rbp),%rdi
  406b4c:	48 8d 75 c8          	lea    -0x38(%rbp),%rsi
  406b50:	48 89 45 c8          	mov    %rax,-0x38(%rbp)
  406b54:	e8 77 28 00 00       	callq  4093d0 <_ZN9__gnu_cxxmiIPKhSt6vectorIhSaIhEEEENS_17__normal_iteratorIT_T0_E15difference_typeERKS9_SC_>
  406b59:	48 89 45 d0          	mov    %rax,-0x30(%rbp)
  406b5d:	48 8b 7d a0          	mov    -0x60(%rbp),%rdi
  406b61:	e8 2a 29 00 00       	callq  409490 <_ZNSt6vectorIhSaIhEE5beginEv>
  406b66:	48 8d 7d b8          	lea    -0x48(%rbp),%rdi
  406b6a:	48 89 45 b8          	mov    %rax,-0x48(%rbp)
  406b6e:	48 8b 75 d0          	mov    -0x30(%rbp),%rsi
  406b72:	e8 49 29 00 00       	callq  4094c0 <_ZNK9__gnu_cxx17__normal_iteratorIPhSt6vectorIhSaIhEEEplEl>
  406b77:	48 89 45 c0          	mov    %rax,-0x40(%rbp)
  406b7b:	48 8b 55 e0          	mov    -0x20(%rbp),%rdx
  406b7f:	48 8b 4d d8          	mov    -0x28(%rbp),%rcx
  406b83:	48 8b 75 c0          	mov    -0x40(%rbp),%rsi
  406b87:	48 8b 7d a0          	mov    -0x60(%rbp),%rdi
  406b8b:	e8 c0 28 00 00       	callq  409450 <_ZNSt6vectorIhSaIhEE18_M_insert_dispatchIPKcEEvN9__gnu_cxx17__normal_iteratorIPhS1_EET_S9_St12__false_type>
  406b90:	48 8b 7d a0          	mov    -0x60(%rbp),%rdi
  406b94:	e8 f7 28 00 00       	callq  409490 <_ZNSt6vectorIhSaIhEE5beginEv>
  406b99:	48 8d 7d a8          	lea    -0x58(%rbp),%rdi
  406b9d:	48 89 45 a8          	mov    %rax,-0x58(%rbp)
  406ba1:	48 8b 75 d0          	mov    -0x30(%rbp),%rsi
  406ba5:	e8 16 29 00 00       	callq  4094c0 <_ZNK9__gnu_cxx17__normal_iteratorIPhSt6vectorIhSaIhEEEplEl>
  406baa:	48 89 45 f8          	mov    %rax,-0x8(%rbp)
  406bae:	48 8b 45 f8          	mov    -0x8(%rbp),%rax
  406bb2:	48 83 c4 60          	add    $0x60,%rsp
  406bb6:	5d                   	pop    %rbp
  406bb7:	c3                   	retq   
  406bb8:	0f 1f 84 00 00 00 00 	nopl   0x0(%rax,%rax,1)
  406bbf:	00 

0000000000406bc0 <_ZNSt6vectorIhSaIhEE3endEv>:
  406bc0:	55                   	push   %rbp
  406bc1:	48 89 e5             	mov    %rsp,%rbp
  406bc4:	48 83 ec 20          	sub    $0x20,%rsp
  406bc8:	48 8d 45 f8          	lea    -0x8(%rbp),%rax
  406bcc:	48 89 7d f0          	mov    %rdi,-0x10(%rbp)
  406bd0:	48 8b 7d f0          	mov    -0x10(%rbp),%rdi
  406bd4:	48 83 c7 08          	add    $0x8,%rdi
  406bd8:	48 89 7d e8          	mov    %rdi,-0x18(%rbp)
  406bdc:	48 89 c7             	mov    %rax,%rdi
  406bdf:	48 8b 75 e8          	mov    -0x18(%rbp),%rsi
  406be3:	e8 c8 27 00 00       	callq  4093b0 <_ZN9__gnu_cxx17__normal_iteratorIPhSt6vectorIhSaIhEEEC2ERKS1_>
  406be8:	48 8b 45 f8          	mov    -0x8(%rbp),%rax
  406bec:	48 83 c4 20          	add    $0x20,%rsp
  406bf0:	5d                   	pop    %rbp
  406bf1:	c3                   	retq   
  406bf2:	66 2e 0f 1f 84 00 00 	nopw   %cs:0x0(%rax,%rax,1)
  406bf9:	00 00 00 
  406bfc:	0f 1f 40 00          	nopl   0x0(%rax)

0000000000406c00 <_ZN9__gnu_cxx17__normal_iteratorIPKhSt6vectorIhSaIhEEEC2IPhEERKNS0_IT_NS_11__enable_ifIXsr3std10__are_sameIS9_S8_EE7__valueES5_E6__typeEEE>:
  406c00:	55                   	push   %rbp
  406c01:	48 89 e5             	mov    %rsp,%rbp
  406c04:	48 83 ec 20          	sub    $0x20,%rsp
  406c08:	48 89 7d f8          	mov    %rdi,-0x8(%rbp)
  406c0c:	48 89 75 f0          	mov    %rsi,-0x10(%rbp)
  406c10:	48 8b 75 f8          	mov    -0x8(%rbp),%rsi
  406c14:	48 8b 7d f0          	mov    -0x10(%rbp),%rdi
  406c18:	48 89 75 e8          	mov    %rsi,-0x18(%rbp)
  406c1c:	e8 7f 2f 00 00       	callq  409ba0 <_ZNK9__gnu_cxx17__normal_iteratorIPhSt6vectorIhSaIhEEE4baseEv>
  406c21:	48 8b 00             	mov    (%rax),%rax
  406c24:	48 8b 75 e8          	mov    -0x18(%rbp),%rsi
  406c28:	48 89 06             	mov    %rax,(%rsi)
  406c2b:	48 83 c4 20          	add    $0x20,%rsp
  406c2f:	5d                   	pop    %rbp
  406c30:	c3                   	retq   
  406c31:	66 2e 0f 1f 84 00 00 	nopw   %cs:0x0(%rax,%rax,1)
  406c38:	00 00 00 
  406c3b:	0f 1f 44 00 00       	nopl   0x0(%rax,%rax,1)

0000000000406c40 <_ZNKSt6vectorIhSaIhEE4sizeEv>:
  406c40:	55                   	push   %rbp
  406c41:	48 89 e5             	mov    %rsp,%rbp
  406c44:	48 89 7d f8          	mov    %rdi,-0x8(%rbp)
  406c48:	48 8b 7d f8          	mov    -0x8(%rbp),%rdi
  406c4c:	48 8b 47 08          	mov    0x8(%rdi),%rax
  406c50:	48 8b 3f             	mov    (%rdi),%rdi
  406c53:	48 29 f8             	sub    %rdi,%rax
  406c56:	5d                   	pop    %rbp
  406c57:	c3                   	retq   
  406c58:	0f 1f 84 00 00 00 00 	nopl   0x0(%rax,%rax,1)
  406c5f:	00 

0000000000406c60 <_ZNSt6vectorIhSaIhEE6insertIPcvEEN9__gnu_cxx17__normal_iteratorIPhS1_EENS5_IPKhS1_EET_SB_>:
  406c60:	55                   	push   %rbp
  406c61:	48 89 e5             	mov    %rsp,%rbp
  406c64:	48 83 ec 60          	sub    $0x60,%rsp
  406c68:	48 89 75 f0          	mov    %rsi,-0x10(%rbp)
  406c6c:	48 89 7d e8          	mov    %rdi,-0x18(%rbp)
  406c70:	48 89 55 e0          	mov    %rdx,-0x20(%rbp)
  406c74:	48 89 4d d8          	mov    %rcx,-0x28(%rbp)
  406c78:	48 8b 4d e8          	mov    -0x18(%rbp),%rcx
  406c7c:	48 89 cf             	mov    %rcx,%rdi
  406c7f:	48 89 4d a0          	mov    %rcx,-0x60(%rbp)
  406c83:	e8 88 27 00 00       	callq  409410 <_ZNKSt6vectorIhSaIhEE6cbeginEv>
  406c88:	48 8d 7d f0          	lea    -0x10(%rbp),%rdi
  406c8c:	48 8d 75 c8          	lea    -0x38(%rbp),%rsi
  406c90:	48 89 45 c8          	mov    %rax,-0x38(%rbp)
  406c94:	e8 37 27 00 00       	callq  4093d0 <_ZN9__gnu_cxxmiIPKhSt6vectorIhSaIhEEEENS_17__normal_iteratorIT_T0_E15difference_typeERKS9_SC_>
  406c99:	48 89 45 d0          	mov    %rax,-0x30(%rbp)
  406c9d:	48 8b 7d a0          	mov    -0x60(%rbp),%rdi
  406ca1:	e8 ea 27 00 00       	callq  409490 <_ZNSt6vectorIhSaIhEE5beginEv>
  406ca6:	48 8d 7d b8          	lea    -0x48(%rbp),%rdi
  406caa:	48 89 45 b8          	mov    %rax,-0x48(%rbp)
  406cae:	48 8b 75 d0          	mov    -0x30(%rbp),%rsi
  406cb2:	e8 09 28 00 00       	callq  4094c0 <_ZNK9__gnu_cxx17__normal_iteratorIPhSt6vectorIhSaIhEEEplEl>
  406cb7:	48 89 45 c0          	mov    %rax,-0x40(%rbp)
  406cbb:	48 8b 55 e0          	mov    -0x20(%rbp),%rdx
  406cbf:	48 8b 4d d8          	mov    -0x28(%rbp),%rcx
  406cc3:	48 8b 75 c0          	mov    -0x40(%rbp),%rsi
  406cc7:	48 8b 7d a0          	mov    -0x60(%rbp),%rdi
  406ccb:	e8 80 3a 00 00       	callq  40a750 <_ZNSt6vectorIhSaIhEE18_M_insert_dispatchIPcEEvN9__gnu_cxx17__normal_iteratorIPhS1_EET_S8_St12__false_type>
  406cd0:	48 8b 7d a0          	mov    -0x60(%rbp),%rdi
  406cd4:	e8 b7 27 00 00       	callq  409490 <_ZNSt6vectorIhSaIhEE5beginEv>
  406cd9:	48 8d 7d a8          	lea    -0x58(%rbp),%rdi
  406cdd:	48 89 45 a8          	mov    %rax,-0x58(%rbp)
  406ce1:	48 8b 75 d0          	mov    -0x30(%rbp),%rsi
  406ce5:	e8 d6 27 00 00       	callq  4094c0 <_ZNK9__gnu_cxx17__normal_iteratorIPhSt6vectorIhSaIhEEEplEl>
  406cea:	48 89 45 f8          	mov    %rax,-0x8(%rbp)
  406cee:	48 8b 45 f8          	mov    -0x8(%rbp),%rax
  406cf2:	48 83 c4 60          	add    $0x60,%rsp
  406cf6:	5d                   	pop    %rbp
  406cf7:	c3                   	retq   
  406cf8:	0f 1f 84 00 00 00 00 	nopl   0x0(%rax,%rax,1)
  406cff:	00 

0000000000406d00 <_ZNSt6vectorISt4pairISt6threadbESaIS2_EEC2Ev>:
  406d00:	55                   	push   %rbp
  406d01:	48 89 e5             	mov    %rsp,%rbp
  406d04:	48 83 ec 10          	sub    $0x10,%rsp
  406d08:	48 89 7d f8          	mov    %rdi,-0x8(%rbp)
  406d0c:	e8 1f 43 00 00       	callq  40b030 <_ZNSt12_Vector_baseISt4pairISt6threadbESaIS2_EEC2Ev>
  406d11:	e9 00 00 00 00       	jmpq   406d16 <_ZNSt6vectorISt4pairISt6threadbESaIS2_EEC2Ev+0x16>
  406d16:	48 83 c4 10          	add    $0x10,%rsp
  406d1a:	5d                   	pop    %rbp
  406d1b:	c3                   	retq   
  406d1c:	89 d1                	mov    %edx,%ecx
  406d1e:	48 89 c7             	mov    %rax,%rdi
  406d21:	89 4d f4             	mov    %ecx,-0xc(%rbp)
  406d24:	e8 97 07 00 00       	callq  4074c0 <__clang_call_terminate>
  406d29:	0f 1f 80 00 00 00 00 	nopl   0x0(%rax)

0000000000406d30 <_ZNSt5mutexC2Ev>:
  406d30:	55                   	push   %rbp
  406d31:	48 89 e5             	mov    %rsp,%rbp
  406d34:	48 83 ec 10          	sub    $0x10,%rsp
  406d38:	48 89 7d f8          	mov    %rdi,-0x8(%rbp)
  406d3c:	48 8b 7d f8          	mov    -0x8(%rbp),%rdi
  406d40:	e8 bb 07 00 00       	callq  407500 <_ZNSt12__mutex_baseC2Ev>
  406d45:	48 83 c4 10          	add    $0x10,%rsp
  406d49:	5d                   	pop    %rbp
  406d4a:	c3                   	retq   
  406d4b:	0f 1f 44 00 00       	nopl   0x0(%rax,%rax,1)

0000000000406d50 <_ZNSt10lock_guardISt5mutexEC2ERS0_>:
  406d50:	55                   	push   %rbp
  406d51:	48 89 e5             	mov    %rsp,%rbp
  406d54:	48 83 ec 10          	sub    $0x10,%rsp
  406d58:	48 89 7d f8          	mov    %rdi,-0x8(%rbp)
  406d5c:	48 89 75 f0          	mov    %rsi,-0x10(%rbp)
  406d60:	48 8b 75 f8          	mov    -0x8(%rbp),%rsi
  406d64:	48 8b 7d f0          	mov    -0x10(%rbp),%rdi
  406d68:	48 89 3e             	mov    %rdi,(%rsi)
  406d6b:	48 8b 3e             	mov    (%rsi),%rdi
  406d6e:	e8 cd 46 00 00       	callq  40b440 <_ZNSt5mutex4lockEv>
  406d73:	48 83 c4 10          	add    $0x10,%rsp
  406d77:	5d                   	pop    %rbp
  406d78:	c3                   	retq   
  406d79:	0f 1f 80 00 00 00 00 	nopl   0x0(%rax)

0000000000406d80 <_ZSt16forward_as_tupleIJbEESt5tupleIJDpOT_EES3_>:
  406d80:	55                   	push   %rbp
  406d81:	48 89 e5             	mov    %rsp,%rbp
  406d84:	48 83 ec 20          	sub    $0x20,%rsp
  406d88:	48 89 7d f0          	mov    %rdi,-0x10(%rbp)
  406d8c:	e8 2f 47 00 00       	callq  40b4c0 <_ZSt7forwardIbEOT_RNSt16remove_referenceIS0_E4typeE>
  406d91:	48 8d 7d f8          	lea    -0x8(%rbp),%rdi
  406d95:	48 89 c6             	mov    %rax,%rsi
  406d98:	e8 33 47 00 00       	callq  40b4d0 <_ZNSt5tupleIJObEEC2IJbEvEEDpOT_>
  406d9d:	e9 00 00 00 00       	jmpq   406da2 <_ZSt16forward_as_tupleIJbEESt5tupleIJDpOT_EES3_+0x22>
  406da2:	48 8b 45 f8          	mov    -0x8(%rbp),%rax
  406da6:	48 83 c4 20          	add    $0x20,%rsp
  406daa:	5d                   	pop    %rbp
  406dab:	c3                   	retq   
  406dac:	89 d1                	mov    %edx,%ecx
  406dae:	48 89 c7             	mov    %rax,%rdi
  406db1:	89 4d ec             	mov    %ecx,-0x14(%rbp)
  406db4:	e8 07 07 00 00       	callq  4074c0 <__clang_call_terminate>
  406db9:	0f 1f 80 00 00 00 00 	nopl   0x0(%rax)

0000000000406dc0 <_ZNSt6vectorISt4pairISt6threadbESaIS2_EE5beginEv>:
  406dc0:	55                   	push   %rbp
  406dc1:	48 89 e5             	mov    %rsp,%rbp
  406dc4:	48 83 ec 20          	sub    $0x20,%rsp
  406dc8:	48 8d 45 f8          	lea    -0x8(%rbp),%rax
  406dcc:	48 89 7d f0          	mov    %rdi,-0x10(%rbp)
  406dd0:	48 8b 7d f0          	mov    -0x10(%rbp),%rdi
  406dd4:	48 89 7d e8          	mov    %rdi,-0x18(%rbp)
  406dd8:	48 89 c7             	mov    %rax,%rdi
  406ddb:	48 8b 75 e8          	mov    -0x18(%rbp),%rsi
  406ddf:	e8 ac 46 00 00       	callq  40b490 <_ZN9__gnu_cxx17__normal_iteratorIPSt4pairISt6threadbESt6vectorIS3_SaIS3_EEEC2ERKS4_>
  406de4:	48 8b 45 f8          	mov    -0x8(%rbp),%rax
  406de8:	48 83 c4 20          	add    $0x20,%rsp
  406dec:	5d                   	pop    %rbp
  406ded:	c3                   	retq   
  406dee:	66 90                	xchg   %ax,%ax

0000000000406df0 <_ZNSt6vectorISt4pairISt6threadbESaIS2_EE3endEv>:
  406df0:	55                   	push   %rbp
  406df1:	48 89 e5             	mov    %rsp,%rbp
  406df4:	48 83 ec 20          	sub    $0x20,%rsp
  406df8:	48 8d 45 f8          	lea    -0x8(%rbp),%rax
  406dfc:	48 89 7d f0          	mov    %rdi,-0x10(%rbp)
  406e00:	48 8b 7d f0          	mov    -0x10(%rbp),%rdi
  406e04:	48 83 c7 08          	add    $0x8,%rdi
  406e08:	48 89 7d e8          	mov    %rdi,-0x18(%rbp)
  406e0c:	48 89 c7             	mov    %rax,%rdi
  406e0f:	48 8b 75 e8          	mov    -0x18(%rbp),%rsi
  406e13:	e8 78 46 00 00       	callq  40b490 <_ZN9__gnu_cxx17__normal_iteratorIPSt4pairISt6threadbESt6vectorIS3_SaIS3_EEEC2ERKS4_>
  406e18:	48 8b 45 f8          	mov    -0x8(%rbp),%rax
  406e1c:	48 83 c4 20          	add    $0x20,%rsp
  406e20:	5d                   	pop    %rbp
  406e21:	c3                   	retq   
  406e22:	66 2e 0f 1f 84 00 00 	nopw   %cs:0x0(%rax,%rax,1)
  406e29:	00 00 00 
  406e2c:	0f 1f 40 00          	nopl   0x0(%rax)

0000000000406e30 <_ZN9__gnu_cxxneIPSt4pairISt6threadbESt6vectorIS3_SaIS3_EEEEbRKNS_17__normal_iteratorIT_T0_EESD_>:
  406e30:	55                   	push   %rbp
  406e31:	48 89 e5             	mov    %rsp,%rbp
  406e34:	48 83 ec 20          	sub    $0x20,%rsp
  406e38:	48 89 7d f8          	mov    %rdi,-0x8(%rbp)
  406e3c:	48 89 75 f0          	mov    %rsi,-0x10(%rbp)
  406e40:	48 8b 7d f8          	mov    -0x8(%rbp),%rdi
  406e44:	e8 67 46 00 00       	callq  40b4b0 <_ZNK9__gnu_cxx17__normal_iteratorIPSt4pairISt6threadbESt6vectorIS3_SaIS3_EEE4baseEv>
  406e49:	48 8b 00             	mov    (%rax),%rax
  406e4c:	48 8b 7d f0          	mov    -0x10(%rbp),%rdi
  406e50:	48 89 45 e8          	mov    %rax,-0x18(%rbp)
  406e54:	e8 57 46 00 00       	callq  40b4b0 <_ZNK9__gnu_cxx17__normal_iteratorIPSt4pairISt6threadbESt6vectorIS3_SaIS3_EEE4baseEv>
  406e59:	48 8b 75 e8          	mov    -0x18(%rbp),%rsi
  406e5d:	48 3b 30             	cmp    (%rax),%rsi
  406e60:	0f 95 c1             	setne  %cl
  406e63:	80 e1 01             	and    $0x1,%cl
  406e66:	0f b6 c1             	movzbl %cl,%eax
  406e69:	48 83 c4 20          	add    $0x20,%rsp
  406e6d:	5d                   	pop    %rbp
  406e6e:	c3                   	retq   
  406e6f:	90                   	nop

0000000000406e70 <_ZNK9__gnu_cxx17__normal_iteratorIPSt4pairISt6threadbESt6vectorIS3_SaIS3_EEEdeEv>:
  406e70:	55                   	push   %rbp
  406e71:	48 89 e5             	mov    %rsp,%rbp
  406e74:	48 89 7d f8          	mov    %rdi,-0x8(%rbp)
  406e78:	48 8b 7d f8          	mov    -0x8(%rbp),%rdi
  406e7c:	48 8b 07             	mov    (%rdi),%rax
  406e7f:	5d                   	pop    %rbp
  406e80:	c3                   	retq   
  406e81:	66 2e 0f 1f 84 00 00 	nopw   %cs:0x0(%rax,%rax,1)
  406e88:	00 00 00 
  406e8b:	0f 1f 44 00 00       	nopl   0x0(%rax,%rax,1)

0000000000406e90 <_ZN9__gnu_cxx17__normal_iteratorIPSt4pairISt6threadbESt6vectorIS3_SaIS3_EEEppEv>:
  406e90:	55                   	push   %rbp
  406e91:	48 89 e5             	mov    %rsp,%rbp
  406e94:	48 89 7d f8          	mov    %rdi,-0x8(%rbp)
  406e98:	48 8b 7d f8          	mov    -0x8(%rbp),%rdi
  406e9c:	48 8b 07             	mov    (%rdi),%rax
  406e9f:	48 83 c0 10          	add    $0x10,%rax
  406ea3:	48 89 07             	mov    %rax,(%rdi)
  406ea6:	48 89 f8             	mov    %rdi,%rax
  406ea9:	5d                   	pop    %rbp
  406eaa:	c3                   	retq   
  406eab:	0f 1f 44 00 00       	nopl   0x0(%rax,%rax,1)

0000000000406eb0 <_ZNSt6vectorISt4pairISt6threadbESaIS2_EE5eraseEN9__gnu_cxx17__normal_iteratorIPKS2_S4_EES9_>:
  406eb0:	55                   	push   %rbp
  406eb1:	48 89 e5             	mov    %rsp,%rbp
  406eb4:	48 83 ec 50          	sub    $0x50,%rsp
  406eb8:	48 89 75 f0          	mov    %rsi,-0x10(%rbp)
  406ebc:	48 89 55 e8          	mov    %rdx,-0x18(%rbp)
  406ec0:	48 89 7d e0          	mov    %rdi,-0x20(%rbp)
  406ec4:	48 8b 55 e0          	mov    -0x20(%rbp),%rdx
  406ec8:	48 89 d7             	mov    %rdx,%rdi
  406ecb:	48 89 55 b8          	mov    %rdx,-0x48(%rbp)
  406ecf:	e8 ec fe ff ff       	callq  406dc0 <_ZNSt6vectorISt4pairISt6threadbESaIS2_EE5beginEv>
  406ed4:	48 89 45 d8          	mov    %rax,-0x28(%rbp)
  406ed8:	48 8b 7d b8          	mov    -0x48(%rbp),%rdi
  406edc:	e8 5f 55 00 00       	callq  40c440 <_ZNKSt6vectorISt4pairISt6threadbESaIS2_EE6cbeginEv>
  406ee1:	48 8d 7d f0          	lea    -0x10(%rbp),%rdi
  406ee5:	48 8d 75 d0          	lea    -0x30(%rbp),%rsi
  406ee9:	48 89 45 d0          	mov    %rax,-0x30(%rbp)
  406eed:	e8 ce 56 00 00       	callq  40c5c0 <_ZN9__gnu_cxxmiIPKSt4pairISt6threadbESt6vectorIS3_SaIS3_EEEENS_17__normal_iteratorIT_T0_E15difference_typeERKSC_SF_>
  406ef2:	48 8d 7d d8          	lea    -0x28(%rbp),%rdi
  406ef6:	48 89 c6             	mov    %rax,%rsi
  406ef9:	e8 72 56 00 00       	callq  40c570 <_ZNK9__gnu_cxx17__normal_iteratorIPSt4pairISt6threadbESt6vectorIS3_SaIS3_EEEplEl>
  406efe:	48 8d 7d e8          	lea    -0x18(%rbp),%rdi
  406f02:	48 8d 75 d0          	lea    -0x30(%rbp),%rsi
  406f06:	48 89 45 c8          	mov    %rax,-0x38(%rbp)
  406f0a:	e8 b1 56 00 00       	callq  40c5c0 <_ZN9__gnu_cxxmiIPKSt4pairISt6threadbESt6vectorIS3_SaIS3_EEEENS_17__normal_iteratorIT_T0_E15difference_typeERKSC_SF_>
  406f0f:	48 8d 7d d8          	lea    -0x28(%rbp),%rdi
  406f13:	48 89 c6             	mov    %rax,%rsi
  406f16:	e8 55 56 00 00       	callq  40c570 <_ZNK9__gnu_cxx17__normal_iteratorIPSt4pairISt6threadbESt6vectorIS3_SaIS3_EEEplEl>
  406f1b:	48 89 45 c0          	mov    %rax,-0x40(%rbp)
  406f1f:	48 8b 75 c8          	mov    -0x38(%rbp),%rsi
  406f23:	48 8b 55 c0          	mov    -0x40(%rbp),%rdx
  406f27:	48 8b 7d b8          	mov    -0x48(%rbp),%rdi
  406f2b:	e8 50 55 00 00       	callq  40c480 <_ZNSt6vectorISt4pairISt6threadbESaIS2_EE8_M_eraseEN9__gnu_cxx17__normal_iteratorIPS2_S4_EES8_>
  406f30:	48 89 45 f8          	mov    %rax,-0x8(%rbp)
  406f34:	48 8b 45 f8          	mov    -0x8(%rbp),%rax
  406f38:	48 83 c4 50          	add    $0x50,%rsp
  406f3c:	5d                   	pop    %rbp
  406f3d:	c3                   	retq   
  406f3e:	66 90                	xchg   %ax,%ax

0000000000406f40 <_ZN9__gnu_cxx17__normal_iteratorIPKSt4pairISt6threadbESt6vectorIS3_SaIS3_EEEC2IPS3_EERKNS0_IT_NS_11__enable_ifIXsr3std10__are_sameISC_SB_EE7__valueES8_E6__typeEEE>:
  406f40:	55                   	push   %rbp
  406f41:	48 89 e5             	mov    %rsp,%rbp
  406f44:	48 83 ec 20          	sub    $0x20,%rsp
  406f48:	48 89 7d f8          	mov    %rdi,-0x8(%rbp)
  406f4c:	48 89 75 f0          	mov    %rsi,-0x10(%rbp)
  406f50:	48 8b 75 f8          	mov    -0x8(%rbp),%rsi
  406f54:	48 8b 7d f0          	mov    -0x10(%rbp),%rdi
  406f58:	48 89 75 e8          	mov    %rsi,-0x18(%rbp)
  406f5c:	e8 4f 45 00 00       	callq  40b4b0 <_ZNK9__gnu_cxx17__normal_iteratorIPSt4pairISt6threadbESt6vectorIS3_SaIS3_EEE4baseEv>
  406f61:	48 8b 00             	mov    (%rax),%rax
  406f64:	48 8b 75 e8          	mov    -0x18(%rbp),%rsi
  406f68:	48 89 06             	mov    %rax,(%rsi)
  406f6b:	48 83 c4 20          	add    $0x20,%rsp
  406f6f:	5d                   	pop    %rbp
  406f70:	c3                   	retq   
  406f71:	66 2e 0f 1f 84 00 00 	nopw   %cs:0x0(%rax,%rax,1)
  406f78:	00 00 00 
  406f7b:	0f 1f 44 00 00       	nopl   0x0(%rax,%rax,1)

0000000000406f80 <_ZNSt10lock_guardISt5mutexED2Ev>:
  406f80:	55                   	push   %rbp
  406f81:	48 89 e5             	mov    %rsp,%rbp
  406f84:	48 83 ec 10          	sub    $0x10,%rsp
  406f88:	48 89 7d f8          	mov    %rdi,-0x8(%rbp)
  406f8c:	48 8b 3f             	mov    (%rdi),%rdi
  406f8f:	e8 dc 44 00 00       	callq  40b470 <_ZNSt5mutex6unlockEv>
  406f94:	e9 00 00 00 00       	jmpq   406f99 <_ZNSt10lock_guardISt5mutexED2Ev+0x19>
  406f99:	48 83 c4 10          	add    $0x10,%rsp
  406f9d:	5d                   	pop    %rbp
  406f9e:	c3                   	retq   
  406f9f:	89 d1                	mov    %edx,%ecx
  406fa1:	48 89 c7             	mov    %rax,%rdi
  406fa4:	89 4d f4             	mov    %ecx,-0xc(%rbp)
  406fa7:	e8 14 05 00 00       	callq  4074c0 <__clang_call_terminate>
  406fac:	0f 1f 40 00          	nopl   0x0(%rax)

0000000000406fb0 <_ZNSt6vectorISt4pairISt6threadbESaIS2_EED2Ev>:
  406fb0:	55                   	push   %rbp
  406fb1:	48 89 e5             	mov    %rsp,%rbp
  406fb4:	48 83 ec 30          	sub    $0x30,%rsp
  406fb8:	48 89 7d f8          	mov    %rdi,-0x8(%rbp)
  406fbc:	48 89 f8             	mov    %rdi,%rax
  406fbf:	48 8b 0f             	mov    (%rdi),%rcx
  406fc2:	48 8b 77 08          	mov    0x8(%rdi),%rsi
  406fc6:	48 89 75 e0          	mov    %rsi,-0x20(%rbp)
  406fca:	48 89 45 d8          	mov    %rax,-0x28(%rbp)
  406fce:	48 89 4d d0          	mov    %rcx,-0x30(%rbp)
  406fd2:	e8 19 41 00 00       	callq  40b0f0 <_ZNSt12_Vector_baseISt4pairISt6threadbESaIS2_EE19_M_get_Tp_allocatorEv>
  406fd7:	48 8b 7d d0          	mov    -0x30(%rbp),%rdi
  406fdb:	48 8b 75 e0          	mov    -0x20(%rbp),%rsi
  406fdf:	48 89 c2             	mov    %rax,%rdx
  406fe2:	e8 d9 40 00 00       	callq  40b0c0 <_ZSt8_DestroyIPSt4pairISt6threadbES2_EvT_S4_RSaIT0_E>
  406fe7:	e9 00 00 00 00       	jmpq   406fec <_ZNSt6vectorISt4pairISt6threadbESaIS2_EED2Ev+0x3c>
  406fec:	48 8b 45 d8          	mov    -0x28(%rbp),%rax
  406ff0:	48 89 c7             	mov    %rax,%rdi
  406ff3:	e8 18 41 00 00       	callq  40b110 <_ZNSt12_Vector_baseISt4pairISt6threadbESaIS2_EED2Ev>
  406ff8:	48 83 c4 30          	add    $0x30,%rsp
  406ffc:	5d                   	pop    %rbp
  406ffd:	c3                   	retq   
  406ffe:	89 d1                	mov    %edx,%ecx
  407000:	48 89 45 f0          	mov    %rax,-0x10(%rbp)
  407004:	89 4d ec             	mov    %ecx,-0x14(%rbp)
  407007:	48 8b 45 d8          	mov    -0x28(%rbp),%rax
  40700b:	48 89 c7             	mov    %rax,%rdi
  40700e:	e8 fd 40 00 00       	callq  40b110 <_ZNSt12_Vector_baseISt4pairISt6threadbESaIS2_EED2Ev>
  407013:	48 8b 7d f0          	mov    -0x10(%rbp),%rdi
  407017:	e8 a4 04 00 00       	callq  4074c0 <__clang_call_terminate>
  40701c:	0f 1f 40 00          	nopl   0x0(%rax)

0000000000407020 <_ZN9__gnu_cxx12__to_xstringINSt7__cxx1112basic_stringIcSt11char_traitsIcESaIcEEEcEET_PFiPT0_mPKS8_P13__va_list_tagEmSB_z>:
  407020:	55                   	push   %rbp
  407021:	48 89 e5             	mov    %rsp,%rbp
  407024:	48 81 ec f0 01 00 00 	sub    $0x1f0,%rsp
  40702b:	49 89 fa             	mov    %rdi,%r10
  40702e:	84 c0                	test   %al,%al
  407030:	0f 29 bd e0 fe ff ff 	movaps %xmm7,-0x120(%rbp)
  407037:	0f 29 b5 d0 fe ff ff 	movaps %xmm6,-0x130(%rbp)
  40703e:	0f 29 ad c0 fe ff ff 	movaps %xmm5,-0x140(%rbp)
  407045:	0f 29 a5 b0 fe ff ff 	movaps %xmm4,-0x150(%rbp)
  40704c:	0f 29 9d a0 fe ff ff 	movaps %xmm3,-0x160(%rbp)
  407053:	0f 29 95 90 fe ff ff 	movaps %xmm2,-0x170(%rbp)
  40705a:	0f 29 8d 80 fe ff ff 	movaps %xmm1,-0x180(%rbp)
  407061:	0f 29 85 70 fe ff ff 	movaps %xmm0,-0x190(%rbp)
  407068:	4c 89 95 68 fe ff ff 	mov    %r10,-0x198(%rbp)
  40706f:	4c 89 8d 60 fe ff ff 	mov    %r9,-0x1a0(%rbp)
  407076:	4c 89 85 58 fe ff ff 	mov    %r8,-0x1a8(%rbp)
  40707d:	48 89 8d 50 fe ff ff 	mov    %rcx,-0x1b0(%rbp)
  407084:	48 89 95 48 fe ff ff 	mov    %rdx,-0x1b8(%rbp)
  40708b:	48 89 b5 40 fe ff ff 	mov    %rsi,-0x1c0(%rbp)
  407092:	48 89 bd 38 fe ff ff 	mov    %rdi,-0x1c8(%rbp)
  407099:	0f 84 6a 00 00 00    	je     407109 <_ZN9__gnu_cxx12__to_xstringINSt7__cxx1112basic_stringIcSt11char_traitsIcESaIcEEEcEET_PFiPT0_mPKS8_P13__va_list_tagEmSB_z+0xe9>
  40709f:	0f 28 85 70 fe ff ff 	movaps -0x190(%rbp),%xmm0
  4070a6:	0f 29 85 20 ff ff ff 	movaps %xmm0,-0xe0(%rbp)
  4070ad:	0f 28 8d 80 fe ff ff 	movaps -0x180(%rbp),%xmm1
  4070b4:	0f 29 8d 30 ff ff ff 	movaps %xmm1,-0xd0(%rbp)
  4070bb:	0f 28 95 90 fe ff ff 	movaps -0x170(%rbp),%xmm2
  4070c2:	0f 29 95 40 ff ff ff 	movaps %xmm2,-0xc0(%rbp)
  4070c9:	0f 28 9d a0 fe ff ff 	movaps -0x160(%rbp),%xmm3
  4070d0:	0f 29 9d 50 ff ff ff 	movaps %xmm3,-0xb0(%rbp)
  4070d7:	0f 28 a5 b0 fe ff ff 	movaps -0x150(%rbp),%xmm4
  4070de:	0f 29 a5 60 ff ff ff 	movaps %xmm4,-0xa0(%rbp)
  4070e5:	0f 28 ad c0 fe ff ff 	movaps -0x140(%rbp),%xmm5
  4070ec:	0f 29 ad 70 ff ff ff 	movaps %xmm5,-0x90(%rbp)
  4070f3:	0f 28 b5 d0 fe ff ff 	movaps -0x130(%rbp),%xmm6
  4070fa:	0f 29 75 80          	movaps %xmm6,-0x80(%rbp)
  4070fe:	0f 28 bd e0 fe ff ff 	movaps -0x120(%rbp),%xmm7
  407105:	0f 29 7d 90          	movaps %xmm7,-0x70(%rbp)
  407109:	48 8b 85 60 fe ff ff 	mov    -0x1a0(%rbp),%rax
  407110:	48 89 85 18 ff ff ff 	mov    %rax,-0xe8(%rbp)
  407117:	48 8b 8d 58 fe ff ff 	mov    -0x1a8(%rbp),%rcx
  40711e:	48 89 8d 10 ff ff ff 	mov    %rcx,-0xf0(%rbp)
  407125:	48 8b 95 50 fe ff ff 	mov    -0x1b0(%rbp),%rdx
  40712c:	48 8b b5 48 fe ff ff 	mov    -0x1b8(%rbp),%rsi
  407133:	48 8b bd 40 fe ff ff 	mov    -0x1c0(%rbp),%rdi
  40713a:	4c 8b 85 38 fe ff ff 	mov    -0x1c8(%rbp),%r8
  407141:	48 89 7d f8          	mov    %rdi,-0x8(%rbp)
  407145:	48 89 75 f0          	mov    %rsi,-0x10(%rbp)
  407149:	48 89 55 e8          	mov    %rdx,-0x18(%rbp)
  40714d:	48 8b 55 f0          	mov    -0x10(%rbp),%rdx
  407151:	48 83 c2 0f          	add    $0xf,%rdx
  407155:	48 83 e2 f0          	and    $0xfffffffffffffff0,%rdx
  407159:	48 89 e6             	mov    %rsp,%rsi
  40715c:	48 29 d6             	sub    %rdx,%rsi
  40715f:	48 89 f4             	mov    %rsi,%rsp
  407162:	48 89 75 e0          	mov    %rsi,-0x20(%rbp)
  407166:	48 8d 95 f0 fe ff ff 	lea    -0x110(%rbp),%rdx
  40716d:	48 89 55 d0          	mov    %rdx,-0x30(%rbp)
  407171:	48 8d 55 10          	lea    0x10(%rbp),%rdx
  407175:	48 89 55 c8          	mov    %rdx,-0x38(%rbp)
  407179:	c7 45 c4 30 00 00 00 	movl   $0x30,-0x3c(%rbp)
  407180:	c7 45 c0 20 00 00 00 	movl   $0x20,-0x40(%rbp)
  407187:	48 8b 55 f8          	mov    -0x8(%rbp),%rdx
  40718b:	48 8b 7d e0          	mov    -0x20(%rbp),%rdi
  40718f:	48 8b 75 f0          	mov    -0x10(%rbp),%rsi
  407193:	4c 8b 4d e8          	mov    -0x18(%rbp),%r9
  407197:	48 8d 4d c0          	lea    -0x40(%rbp),%rcx
  40719b:	48 89 95 30 fe ff ff 	mov    %rdx,-0x1d0(%rbp)
  4071a2:	4c 89 ca             	mov    %r9,%rdx
  4071a5:	4c 8b 8d 30 fe ff ff 	mov    -0x1d0(%rbp),%r9
  4071ac:	4c 89 85 28 fe ff ff 	mov    %r8,-0x1d8(%rbp)
  4071b3:	41 ff d1             	callq  *%r9
  4071b6:	89 45 bc             	mov    %eax,-0x44(%rbp)
  4071b9:	48 8b 4d e0          	mov    -0x20(%rbp),%rcx
  4071bd:	48 63 55 bc          	movslq -0x44(%rbp),%rdx
  4071c1:	48 89 ce             	mov    %rcx,%rsi
  4071c4:	48 01 d6             	add    %rdx,%rsi
  4071c7:	48 8d 55 b8          	lea    -0x48(%rbp),%rdx
  4071cb:	48 89 d7             	mov    %rdx,%rdi
  4071ce:	48 89 8d 20 fe ff ff 	mov    %rcx,-0x1e0(%rbp)
  4071d5:	48 89 b5 18 fe ff ff 	mov    %rsi,-0x1e8(%rbp)
  4071dc:	48 89 95 10 fe ff ff 	mov    %rdx,-0x1f0(%rbp)
  4071e3:	e8 48 be ff ff       	callq  403030 <_ZNSaIcEC1Ev@plt>
  4071e8:	48 8b bd 28 fe ff ff 	mov    -0x1d8(%rbp),%rdi
  4071ef:	48 8b b5 20 fe ff ff 	mov    -0x1e0(%rbp),%rsi
  4071f6:	48 8b 95 18 fe ff ff 	mov    -0x1e8(%rbp),%rdx
  4071fd:	48 8b 8d 10 fe ff ff 	mov    -0x1f0(%rbp),%rcx
  407204:	e8 37 00 00 00       	callq  407240 <_ZNSt7__cxx1112basic_stringIcSt11char_traitsIcESaIcEEC2IPcvEET_S7_RKS3_>
  407209:	e9 00 00 00 00       	jmpq   40720e <_ZN9__gnu_cxx12__to_xstringINSt7__cxx1112basic_stringIcSt11char_traitsIcESaIcEEEcEET_PFiPT0_mPKS8_P13__va_list_tagEmSB_z+0x1ee>
  40720e:	48 8d 7d b8          	lea    -0x48(%rbp),%rdi
  407212:	e8 f9 bb ff ff       	callq  402e10 <_ZNSaIcED1Ev@plt>
  407217:	48 8b 85 68 fe ff ff 	mov    -0x198(%rbp),%rax
  40721e:	48 89 ec             	mov    %rbp,%rsp
  407221:	5d                   	pop    %rbp
  407222:	c3                   	retq   
  407223:	48 8d 7d b8          	lea    -0x48(%rbp),%rdi
  407227:	89 d1                	mov    %edx,%ecx
  407229:	48 89 45 b0          	mov    %rax,-0x50(%rbp)
  40722d:	89 4d ac             	mov    %ecx,-0x54(%rbp)
  407230:	e8 db bb ff ff       	callq  402e10 <_ZNSaIcED1Ev@plt>
  407235:	48 8b 7d b0          	mov    -0x50(%rbp),%rdi
  407239:	e8 e2 bd ff ff       	callq  403020 <_Unwind_Resume@plt>
  40723e:	66 90                	xchg   %ax,%ax

0000000000407240 <_ZNSt7__cxx1112basic_stringIcSt11char_traitsIcESaIcEEC2IPcvEET_S7_RKS3_>:
  407240:	55                   	push   %rbp
  407241:	48 89 e5             	mov    %rsp,%rbp
  407244:	48 83 ec 40          	sub    $0x40,%rsp
  407248:	48 89 7d f8          	mov    %rdi,-0x8(%rbp)
  40724c:	48 89 75 f0          	mov    %rsi,-0x10(%rbp)
  407250:	48 89 55 e8          	mov    %rdx,-0x18(%rbp)
  407254:	48 89 4d e0          	mov    %rcx,-0x20(%rbp)
  407258:	48 8b 4d f8          	mov    -0x8(%rbp),%rcx
  40725c:	48 89 cf             	mov    %rcx,%rdi
  40725f:	48 89 4d c8          	mov    %rcx,-0x38(%rbp)
  407263:	e8 c8 ba ff ff       	callq  402d30 <_ZNSt7__cxx1112basic_stringIcSt11char_traitsIcESaIcEE13_M_local_dataEv@plt>
  407268:	48 8b 55 e0          	mov    -0x20(%rbp),%rdx
  40726c:	48 8b 7d c8          	mov    -0x38(%rbp),%rdi
  407270:	48 89 c6             	mov    %rax,%rsi
  407273:	e8 88 bb ff ff       	callq  402e00 <_ZNSt7__cxx1112basic_stringIcSt11char_traitsIcESaIcEE12_Alloc_hiderC1EPcRKS3_@plt>
  407278:	48 8b 75 f0          	mov    -0x10(%rbp),%rsi
  40727c:	48 8b 55 e8          	mov    -0x18(%rbp),%rdx
  407280:	48 8b 7d c8          	mov    -0x38(%rbp),%rdi
  407284:	e8 27 00 00 00       	callq  4072b0 <_ZNSt7__cxx1112basic_stringIcSt11char_traitsIcESaIcEE12_M_constructIPcEEvT_S7_>
  407289:	e9 00 00 00 00       	jmpq   40728e <_ZNSt7__cxx1112basic_stringIcSt11char_traitsIcESaIcEEC2IPcvEET_S7_RKS3_+0x4e>
  40728e:	48 83 c4 40          	add    $0x40,%rsp
  407292:	5d                   	pop    %rbp
  407293:	c3                   	retq   
  407294:	89 d1                	mov    %edx,%ecx
  407296:	48 89 45 d8          	mov    %rax,-0x28(%rbp)
  40729a:	89 4d d4             	mov    %ecx,-0x2c(%rbp)
  40729d:	48 8b 7d c8          	mov    -0x38(%rbp),%rdi
  4072a1:	e8 3a 00 00 00       	callq  4072e0 <_ZNSt7__cxx1112basic_stringIcSt11char_traitsIcESaIcEE12_Alloc_hiderD2Ev>
  4072a6:	48 8b 7d d8          	mov    -0x28(%rbp),%rdi
  4072aa:	e8 71 bd ff ff       	callq  403020 <_Unwind_Resume@plt>
  4072af:	90                   	nop

00000000004072b0 <_ZNSt7__cxx1112basic_stringIcSt11char_traitsIcESaIcEE12_M_constructIPcEEvT_S7_>:
  4072b0:	55                   	push   %rbp
  4072b1:	48 89 e5             	mov    %rsp,%rbp
  4072b4:	48 83 ec 20          	sub    $0x20,%rsp
  4072b8:	48 89 7d f8          	mov    %rdi,-0x8(%rbp)
  4072bc:	48 89 75 f0          	mov    %rsi,-0x10(%rbp)
  4072c0:	48 89 55 e8          	mov    %rdx,-0x18(%rbp)
  4072c4:	48 8b 7d f8          	mov    -0x8(%rbp),%rdi
  4072c8:	48 8b 75 f0          	mov    -0x10(%rbp),%rsi
  4072cc:	48 8b 55 e8          	mov    -0x18(%rbp),%rdx
  4072d0:	e8 2b 00 00 00       	callq  407300 <_ZNSt7__cxx1112basic_stringIcSt11char_traitsIcESaIcEE16_M_construct_auxIPcEEvT_S7_St12__false_type>
  4072d5:	48 83 c4 20          	add    $0x20,%rsp
  4072d9:	5d                   	pop    %rbp
  4072da:	c3                   	retq   
  4072db:	0f 1f 44 00 00       	nopl   0x0(%rax,%rax,1)

00000000004072e0 <_ZNSt7__cxx1112basic_stringIcSt11char_traitsIcESaIcEE12_Alloc_hiderD2Ev>:
  4072e0:	55                   	push   %rbp
  4072e1:	48 89 e5             	mov    %rsp,%rbp
  4072e4:	48 83 ec 10          	sub    $0x10,%rsp
  4072e8:	48 89 7d f8          	mov    %rdi,-0x8(%rbp)
  4072ec:	48 8b 7d f8          	mov    -0x8(%rbp),%rdi
  4072f0:	e8 eb b7 ff ff       	callq  402ae0 <_ZNSaIcED2Ev@plt>
  4072f5:	48 83 c4 10          	add    $0x10,%rsp
  4072f9:	5d                   	pop    %rbp
  4072fa:	c3                   	retq   
  4072fb:	0f 1f 44 00 00       	nopl   0x0(%rax,%rax,1)

0000000000407300 <_ZNSt7__cxx1112basic_stringIcSt11char_traitsIcESaIcEE16_M_construct_auxIPcEEvT_S7_St12__false_type>:
  407300:	55                   	push   %rbp
  407301:	48 89 e5             	mov    %rsp,%rbp
  407304:	48 83 ec 30          	sub    $0x30,%rsp
  407308:	48 89 7d f0          	mov    %rdi,-0x10(%rbp)
  40730c:	48 89 75 e8          	mov    %rsi,-0x18(%rbp)
  407310:	48 89 55 e0          	mov    %rdx,-0x20(%rbp)
  407314:	48 8b 7d f0          	mov    -0x10(%rbp),%rdi
  407318:	48 8b 75 e8          	mov    -0x18(%rbp),%rsi
  40731c:	48 8b 55 e0          	mov    -0x20(%rbp),%rdx
  407320:	e8 0b 00 00 00       	callq  407330 <_ZNSt7__cxx1112basic_stringIcSt11char_traitsIcESaIcEE12_M_constructIPcEEvT_S7_St20forward_iterator_tag>
  407325:	48 83 c4 30          	add    $0x30,%rsp
  407329:	5d                   	pop    %rbp
  40732a:	c3                   	retq   
  40732b:	0f 1f 44 00 00       	nopl   0x0(%rax,%rax,1)

0000000000407330 <_ZNSt7__cxx1112basic_stringIcSt11char_traitsIcESaIcEE12_M_constructIPcEEvT_S7_St20forward_iterator_tag>:
  407330:	55                   	push   %rbp
  407331:	48 89 e5             	mov    %rsp,%rbp
  407334:	48 83 ec 60          	sub    $0x60,%rsp
  407338:	48 89 7d f0          	mov    %rdi,-0x10(%rbp)
  40733c:	48 89 75 e8          	mov    %rsi,-0x18(%rbp)
  407340:	48 89 55 e0          	mov    %rdx,-0x20(%rbp)
  407344:	48 8b 55 f0          	mov    -0x10(%rbp),%rdx
  407348:	48 8b 7d e8          	mov    -0x18(%rbp),%rdi
  40734c:	48 89 55 c0          	mov    %rdx,-0x40(%rbp)
  407350:	e8 0b 01 00 00       	callq  407460 <_ZN9__gnu_cxx17__is_null_pointerIcEEbPT_>
  407355:	a8 01                	test   $0x1,%al
  407357:	0f 85 05 00 00 00    	jne    407362 <_ZNSt7__cxx1112basic_stringIcSt11char_traitsIcESaIcEE12_M_constructIPcEEvT_S7_St20forward_iterator_tag+0x32>
  40735d:	e9 1d 00 00 00       	jmpq   40737f <_ZNSt7__cxx1112basic_stringIcSt11char_traitsIcESaIcEE12_M_constructIPcEEvT_S7_St20forward_iterator_tag+0x4f>
  407362:	48 8b 45 e8          	mov    -0x18(%rbp),%rax
  407366:	48 3b 45 e0          	cmp    -0x20(%rbp),%rax
  40736a:	0f 84 0f 00 00 00    	je     40737f <_ZNSt7__cxx1112basic_stringIcSt11char_traitsIcESaIcEE12_M_constructIPcEEvT_S7_St20forward_iterator_tag+0x4f>
  407370:	48 bf de ee 40 00 00 	movabs $0x40eede,%rdi
  407377:	00 00 00 
  40737a:	e8 41 b9 ff ff       	callq  402cc0 <_ZSt19__throw_logic_errorPKc@plt>
  40737f:	48 8b 7d e8          	mov    -0x18(%rbp),%rdi
  407383:	48 8b 75 e0          	mov    -0x20(%rbp),%rsi
  407387:	e8 f4 00 00 00       	callq  407480 <_ZSt8distanceIPcENSt15iterator_traitsIT_E15difference_typeES2_S2_>
  40738c:	48 89 45 d8          	mov    %rax,-0x28(%rbp)
  407390:	48 83 7d d8 0f       	cmpq   $0xf,-0x28(%rbp)
  407395:	0f 86 2a 00 00 00    	jbe    4073c5 <_ZNSt7__cxx1112basic_stringIcSt11char_traitsIcESaIcEE12_M_constructIPcEEvT_S7_St20forward_iterator_tag+0x95>
  40739b:	48 8d 75 d8          	lea    -0x28(%rbp),%rsi
  40739f:	31 c0                	xor    %eax,%eax
  4073a1:	89 c2                	mov    %eax,%edx
  4073a3:	48 8b 7d c0          	mov    -0x40(%rbp),%rdi
  4073a7:	e8 a4 bc ff ff       	callq  403050 <_ZNSt7__cxx1112basic_stringIcSt11char_traitsIcESaIcEE9_M_createERmm@plt>
  4073ac:	48 8b 7d c0          	mov    -0x40(%rbp),%rdi
  4073b0:	48 89 c6             	mov    %rax,%rsi
  4073b3:	e8 98 b9 ff ff       	callq  402d50 <_ZNSt7__cxx1112basic_stringIcSt11char_traitsIcESaIcEE7_M_dataEPc@plt>
  4073b8:	48 8b 75 d8          	mov    -0x28(%rbp),%rsi
  4073bc:	48 8b 7d c0          	mov    -0x40(%rbp),%rdi
  4073c0:	e8 1b bd ff ff       	callq  4030e0 <_ZNSt7__cxx1112basic_stringIcSt11char_traitsIcESaIcEE11_M_capacityEm@plt>
  4073c5:	48 8b 7d c0          	mov    -0x40(%rbp),%rdi
  4073c9:	e8 62 ba ff ff       	callq  402e30 <_ZNKSt7__cxx1112basic_stringIcSt11char_traitsIcESaIcEE7_M_dataEv@plt>
  4073ce:	48 89 45 b8          	mov    %rax,-0x48(%rbp)
  4073d2:	e9 00 00 00 00       	jmpq   4073d7 <_ZNSt7__cxx1112basic_stringIcSt11char_traitsIcESaIcEE12_M_constructIPcEEvT_S7_St20forward_iterator_tag+0xa7>
  4073d7:	48 8b 75 e8          	mov    -0x18(%rbp),%rsi
  4073db:	48 8b 55 e0          	mov    -0x20(%rbp),%rdx
  4073df:	48 8b 7d b8          	mov    -0x48(%rbp),%rdi
  4073e3:	e8 68 b7 ff ff       	callq  402b50 <_ZNSt7__cxx1112basic_stringIcSt11char_traitsIcESaIcEE13_S_copy_charsEPcS5_S5_@plt>
  4073e8:	e9 46 00 00 00       	jmpq   407433 <_ZNSt7__cxx1112basic_stringIcSt11char_traitsIcESaIcEE12_M_constructIPcEEvT_S7_St20forward_iterator_tag+0x103>
  4073ed:	89 d1                	mov    %edx,%ecx
  4073ef:	48 89 45 d0          	mov    %rax,-0x30(%rbp)
  4073f3:	89 4d cc             	mov    %ecx,-0x34(%rbp)
  4073f6:	48 8b 7d d0          	mov    -0x30(%rbp),%rdi
  4073fa:	e8 c1 b7 ff ff       	callq  402bc0 <__cxa_begin_catch@plt>
  4073ff:	48 8b 7d c0          	mov    -0x40(%rbp),%rdi
  407403:	48 89 45 b0          	mov    %rax,-0x50(%rbp)
  407407:	e8 54 ba ff ff       	callq  402e60 <_ZNSt7__cxx1112basic_stringIcSt11char_traitsIcESaIcEE10_M_disposeEv@plt>
  40740c:	e9 00 00 00 00       	jmpq   407411 <_ZNSt7__cxx1112basic_stringIcSt11char_traitsIcESaIcEE12_M_constructIPcEEvT_S7_St20forward_iterator_tag+0xe1>
  407411:	e8 fa ba ff ff       	callq  402f10 <__cxa_rethrow@plt>
  407416:	e9 41 00 00 00       	jmpq   40745c <_ZNSt7__cxx1112basic_stringIcSt11char_traitsIcESaIcEE12_M_constructIPcEEvT_S7_St20forward_iterator_tag+0x12c>
  40741b:	89 d1                	mov    %edx,%ecx
  40741d:	48 89 45 d0          	mov    %rax,-0x30(%rbp)
  407421:	89 4d cc             	mov    %ecx,-0x34(%rbp)
  407424:	e8 67 bb ff ff       	callq  402f90 <__cxa_end_catch@plt>
  407429:	e9 00 00 00 00       	jmpq   40742e <_ZNSt7__cxx1112basic_stringIcSt11char_traitsIcESaIcEE12_M_constructIPcEEvT_S7_St20forward_iterator_tag+0xfe>
  40742e:	e9 13 00 00 00       	jmpq   407446 <_ZNSt7__cxx1112basic_stringIcSt11char_traitsIcESaIcEE12_M_constructIPcEEvT_S7_St20forward_iterator_tag+0x116>
  407433:	48 8b 75 d8          	mov    -0x28(%rbp),%rsi
  407437:	48 8b 7d c0          	mov    -0x40(%rbp),%rdi
  40743b:	e8 50 b8 ff ff       	callq  402c90 <_ZNSt7__cxx1112basic_stringIcSt11char_traitsIcESaIcEE13_M_set_lengthEm@plt>
  407440:	48 83 c4 60          	add    $0x60,%rsp
  407444:	5d                   	pop    %rbp
  407445:	c3                   	retq   
  407446:	48 8b 7d d0          	mov    -0x30(%rbp),%rdi
  40744a:	e8 d1 bb ff ff       	callq  403020 <_Unwind_Resume@plt>
  40744f:	89 d1                	mov    %edx,%ecx
  407451:	48 89 c7             	mov    %rax,%rdi
  407454:	89 4d ac             	mov    %ecx,-0x54(%rbp)
  407457:	e8 64 00 00 00       	callq  4074c0 <__clang_call_terminate>
  40745c:	0f 1f 40 00          	nopl   0x0(%rax)

0000000000407460 <_ZN9__gnu_cxx17__is_null_pointerIcEEbPT_>:
  407460:	55                   	push   %rbp
  407461:	48 89 e5             	mov    %rsp,%rbp
  407464:	48 89 7d f8          	mov    %rdi,-0x8(%rbp)
  407468:	48 83 7d f8 00       	cmpq   $0x0,-0x8(%rbp)
  40746d:	0f 94 c0             	sete   %al
  407470:	24 01                	and    $0x1,%al
  407472:	0f b6 c0             	movzbl %al,%eax
  407475:	5d                   	pop    %rbp
  407476:	c3                   	retq   
  407477:	66 0f 1f 84 00 00 00 	nopw   0x0(%rax,%rax,1)
  40747e:	00 00 

0000000000407480 <_ZSt8distanceIPcENSt15iterator_traitsIT_E15difference_typeES2_S2_>:
  407480:	55                   	push   %rbp
  407481:	48 89 e5             	mov    %rsp,%rbp
  407484:	48 83 ec 30          	sub    $0x30,%rsp
  407488:	48 8d 45 f8          	lea    -0x8(%rbp),%rax
  40748c:	48 89 7d f8          	mov    %rdi,-0x8(%rbp)
  407490:	48 89 75 f0          	mov    %rsi,-0x10(%rbp)
  407494:	48 8b 7d f8          	mov    -0x8(%rbp),%rdi
  407498:	48 8b 75 f0          	mov    -0x10(%rbp),%rsi
  40749c:	48 89 7d d8          	mov    %rdi,-0x28(%rbp)
  4074a0:	48 89 c7             	mov    %rax,%rdi
  4074a3:	48 89 75 d0          	mov    %rsi,-0x30(%rbp)
  4074a7:	e8 44 00 00 00       	callq  4074f0 <_ZSt19__iterator_categoryIPcENSt15iterator_traitsIT_E17iterator_categoryERKS2_>
  4074ac:	48 8b 7d d8          	mov    -0x28(%rbp),%rdi
  4074b0:	48 8b 75 d0          	mov    -0x30(%rbp),%rsi
  4074b4:	e8 17 00 00 00       	callq  4074d0 <_ZSt10__distanceIPcENSt15iterator_traitsIT_E15difference_typeES2_S2_St26random_access_iterator_tag>
  4074b9:	48 83 c4 30          	add    $0x30,%rsp
  4074bd:	5d                   	pop    %rbp
  4074be:	c3                   	retq   
  4074bf:	90                   	nop

00000000004074c0 <__clang_call_terminate>:
  4074c0:	50                   	push   %rax
  4074c1:	e8 fa b6 ff ff       	callq  402bc0 <__cxa_begin_catch@plt>
  4074c6:	48 89 04 24          	mov    %rax,(%rsp)
  4074ca:	e8 61 b6 ff ff       	callq  402b30 <_ZSt9terminatev@plt>
  4074cf:	90                   	nop

00000000004074d0 <_ZSt10__distanceIPcENSt15iterator_traitsIT_E15difference_typeES2_S2_St26random_access_iterator_tag>:
  4074d0:	55                   	push   %rbp
  4074d1:	48 89 e5             	mov    %rsp,%rbp
  4074d4:	48 89 7d f0          	mov    %rdi,-0x10(%rbp)
  4074d8:	48 89 75 e8          	mov    %rsi,-0x18(%rbp)
  4074dc:	48 8b 75 e8          	mov    -0x18(%rbp),%rsi
  4074e0:	48 8b 7d f0          	mov    -0x10(%rbp),%rdi
  4074e4:	48 29 fe             	sub    %rdi,%rsi
  4074e7:	48 89 f0             	mov    %rsi,%rax
  4074ea:	5d                   	pop    %rbp
  4074eb:	c3                   	retq   
  4074ec:	0f 1f 40 00          	nopl   0x0(%rax)

00000000004074f0 <_ZSt19__iterator_categoryIPcENSt15iterator_traitsIT_E17iterator_categoryERKS2_>:
  4074f0:	55                   	push   %rbp
  4074f1:	48 89 e5             	mov    %rsp,%rbp
  4074f4:	48 89 7d f0          	mov    %rdi,-0x10(%rbp)
  4074f8:	5d                   	pop    %rbp
  4074f9:	c3                   	retq   
  4074fa:	66 0f 1f 44 00 00    	nopw   0x0(%rax,%rax,1)

0000000000407500 <_ZNSt12__mutex_baseC2Ev>:
  407500:	55                   	push   %rbp
  407501:	48 89 e5             	mov    %rsp,%rbp
  407504:	48 89 7d f8          	mov    %rdi,-0x8(%rbp)
  407508:	48 8b 7d f8          	mov    -0x8(%rbp),%rdi
  40750c:	c7 07 00 00 00 00    	movl   $0x0,(%rdi)
  407512:	c7 47 04 00 00 00 00 	movl   $0x0,0x4(%rdi)
  407519:	c7 47 08 00 00 00 00 	movl   $0x0,0x8(%rdi)
  407520:	c7 47 0c 00 00 00 00 	movl   $0x0,0xc(%rdi)
  407527:	c7 47 10 00 00 00 00 	movl   $0x0,0x10(%rdi)
  40752e:	66 c7 47 14 00 00    	movw   $0x0,0x14(%rdi)
  407534:	66 c7 47 16 00 00    	movw   $0x0,0x16(%rdi)
  40753a:	48 c7 47 18 00 00 00 	movq   $0x0,0x18(%rdi)
  407541:	00 
  407542:	48 c7 47 20 00 00 00 	movq   $0x0,0x20(%rdi)
  407549:	00 
  40754a:	5d                   	pop    %rbp
  40754b:	c3                   	retq   
  40754c:	0f 1f 40 00          	nopl   0x0(%rax)

0000000000407550 <_ZSt4moveIRNSt7__cxx1112basic_stringIcSt11char_traitsIcESaIcEEEEONSt16remove_referenceIT_E4typeEOS8_>:
  407550:	55                   	push   %rbp
  407551:	48 89 e5             	mov    %rsp,%rbp
  407554:	48 89 7d f8          	mov    %rdi,-0x8(%rbp)
  407558:	48 8b 45 f8          	mov    -0x8(%rbp),%rax
  40755c:	5d                   	pop    %rbp
  40755d:	c3                   	retq   
  40755e:	66 90                	xchg   %ax,%ax

0000000000407560 <_ZNSt3mapINSt7__cxx1112basic_stringIcSt11char_traitsIcESaIcEEES5_St4lessIS5_ESaISt4pairIKS5_S5_EEE11lower_boundERS9_>:
  407560:	55                   	push   %rbp
  407561:	48 89 e5             	mov    %rsp,%rbp
  407564:	48 83 ec 20          	sub    $0x20,%rsp
  407568:	48 89 7d f0          	mov    %rdi,-0x10(%rbp)
  40756c:	48 89 75 e8          	mov    %rsi,-0x18(%rbp)
  407570:	48 8b 7d f0          	mov    -0x10(%rbp),%rdi
  407574:	48 8b 75 e8          	mov    -0x18(%rbp),%rsi
  407578:	e8 73 02 00 00       	callq  4077f0 <_ZNSt8_Rb_treeINSt7__cxx1112basic_stringIcSt11char_traitsIcESaIcEEESt4pairIKS5_S5_ESt10_Select1stIS8_ESt4lessIS5_ESaIS8_EE11lower_boundERS7_>
  40757d:	48 89 45 f8          	mov    %rax,-0x8(%rbp)
  407581:	48 8b 45 f8          	mov    -0x8(%rbp),%rax
  407585:	48 83 c4 20          	add    $0x20,%rsp
  407589:	5d                   	pop    %rbp
  40758a:	c3                   	retq   
  40758b:	0f 1f 44 00 00       	nopl   0x0(%rax,%rax,1)

0000000000407590 <_ZNKSt17_Rb_tree_iteratorISt4pairIKNSt7__cxx1112basic_stringIcSt11char_traitsIcESaIcEEES6_EEeqERKS9_>:
  407590:	55                   	push   %rbp
  407591:	48 89 e5             	mov    %rsp,%rbp
  407594:	48 89 7d f8          	mov    %rdi,-0x8(%rbp)
  407598:	48 89 75 f0          	mov    %rsi,-0x10(%rbp)
  40759c:	48 8b 75 f8          	mov    -0x8(%rbp),%rsi
  4075a0:	48 8b 36             	mov    (%rsi),%rsi
  4075a3:	48 8b 7d f0          	mov    -0x10(%rbp),%rdi
  4075a7:	48 3b 37             	cmp    (%rdi),%rsi
  4075aa:	0f 94 c0             	sete   %al
  4075ad:	24 01                	and    $0x1,%al
  4075af:	0f b6 c0             	movzbl %al,%eax
  4075b2:	5d                   	pop    %rbp
  4075b3:	c3                   	retq   
  4075b4:	66 2e 0f 1f 84 00 00 	nopw   %cs:0x0(%rax,%rax,1)
  4075bb:	00 00 00 
  4075be:	66 90                	xchg   %ax,%ax

00000000004075c0 <_ZNKSt3mapINSt7__cxx1112basic_stringIcSt11char_traitsIcESaIcEEES5_St4lessIS5_ESaISt4pairIKS5_S5_EEE8key_compEv>:
  4075c0:	55                   	push   %rbp
  4075c1:	48 89 e5             	mov    %rsp,%rbp
  4075c4:	48 83 ec 20          	sub    $0x20,%rsp
  4075c8:	48 89 7d f0          	mov    %rdi,-0x10(%rbp)
  4075cc:	48 8b 7d f0          	mov    -0x10(%rbp),%rdi
  4075d0:	e8 7b 04 00 00       	callq  407a50 <_ZNKSt8_Rb_treeINSt7__cxx1112basic_stringIcSt11char_traitsIcESaIcEEESt4pairIKS5_S5_ESt10_Select1stIS8_ESt4lessIS5_ESaIS8_EE8key_compEv>
  4075d5:	48 83 c4 20          	add    $0x20,%rsp
  4075d9:	5d                   	pop    %rbp
  4075da:	c3                   	retq   
  4075db:	0f 1f 44 00 00       	nopl   0x0(%rax,%rax,1)

00000000004075e0 <_ZNKSt4lessINSt7__cxx1112basic_stringIcSt11char_traitsIcESaIcEEEEclERKS5_S8_>:
  4075e0:	55                   	push   %rbp
  4075e1:	48 89 e5             	mov    %rsp,%rbp
  4075e4:	48 83 ec 20          	sub    $0x20,%rsp
  4075e8:	48 89 7d f8          	mov    %rdi,-0x8(%rbp)
  4075ec:	48 89 75 f0          	mov    %rsi,-0x10(%rbp)
  4075f0:	48 89 55 e8          	mov    %rdx,-0x18(%rbp)
  4075f4:	48 8b 7d f0          	mov    -0x10(%rbp),%rdi
  4075f8:	48 8b 75 e8          	mov    -0x18(%rbp),%rsi
  4075fc:	e8 5f 04 00 00       	callq  407a60 <_ZStltIcSt11char_traitsIcESaIcEEbRKNSt7__cxx1112basic_stringIT_T0_T1_EESA_>
  407601:	24 01                	and    $0x1,%al
  407603:	0f b6 c0             	movzbl %al,%eax
  407606:	48 83 c4 20          	add    $0x20,%rsp
  40760a:	5d                   	pop    %rbp
  40760b:	c3                   	retq   
  40760c:	0f 1f 40 00          	nopl   0x0(%rax)

0000000000407610 <_ZNSt8_Rb_treeINSt7__cxx1112basic_stringIcSt11char_traitsIcESaIcEEESt4pairIKS5_S5_ESt10_Select1stIS8_ESt4lessIS5_ESaIS8_EE22_M_emplace_hint_uniqueIJRKSt21piecewise_construct_tSt5tupleIJOS5_EESJ_IJEEEEESt17_Rb_tree_iteratorIS8_ESt23_Rb_tree_const_iteratorIS8_EDpOT_>:
  407610:	55                   	push   %rbp
  407611:	48 89 e5             	mov    %rsp,%rbp
  407614:	48 81 ec b0 00 00 00 	sub    $0xb0,%rsp
  40761b:	48 89 75 f0          	mov    %rsi,-0x10(%rbp)
  40761f:	48 89 7d e8          	mov    %rdi,-0x18(%rbp)
  407623:	48 89 55 e0          	mov    %rdx,-0x20(%rbp)
  407627:	48 89 4d d8          	mov    %rcx,-0x28(%rbp)
  40762b:	4c 89 45 d0          	mov    %r8,-0x30(%rbp)
  40762f:	48 8b 4d e8          	mov    -0x18(%rbp),%rcx
  407633:	48 8b 7d e0          	mov    -0x20(%rbp),%rdi
  407637:	48 89 4d 98          	mov    %rcx,-0x68(%rbp)
  40763b:	e8 d0 04 00 00       	callq  407b10 <_ZSt7forwardIRKSt21piecewise_construct_tEOT_RNSt16remove_referenceIS3_E4typeE>
  407640:	48 8b 7d d8          	mov    -0x28(%rbp),%rdi
  407644:	48 89 45 90          	mov    %rax,-0x70(%rbp)
  407648:	e8 d3 04 00 00       	callq  407b20 <_ZSt7forwardISt5tupleIJONSt7__cxx1112basic_stringIcSt11char_traitsIcESaIcEEEEEEOT_RNSt16remove_referenceIS9_E4typeE>
  40764d:	48 8b 7d d0          	mov    -0x30(%rbp),%rdi
  407651:	48 89 45 88          	mov    %rax,-0x78(%rbp)
  407655:	e8 d6 04 00 00       	callq  407b30 <_ZSt7forwardISt5tupleIJEEEOT_RNSt16remove_referenceIS2_E4typeE>
  40765a:	48 8b 7d 98          	mov    -0x68(%rbp),%rdi
  40765e:	48 8b 75 90          	mov    -0x70(%rbp),%rsi
  407662:	48 8b 55 88          	mov    -0x78(%rbp),%rdx
  407666:	48 89 c1             	mov    %rax,%rcx
  407669:	e8 22 04 00 00       	callq  407a90 <_ZNSt8_Rb_treeINSt7__cxx1112basic_stringIcSt11char_traitsIcESaIcEEESt4pairIKS5_S5_ESt10_Select1stIS8_ESt4lessIS5_ESaIS8_EE14_M_create_nodeIJRKSt21piecewise_construct_tSt5tupleIJOS5_EESJ_IJEEEEEPSt13_Rb_tree_nodeIS8_EDpOT_>
  40766e:	48 89 45 c8          	mov    %rax,-0x38(%rbp)
  407672:	48 8b 45 f0          	mov    -0x10(%rbp),%rax
  407676:	48 89 45 b0          	mov    %rax,-0x50(%rbp)
  40767a:	48 8b 7d c8          	mov    -0x38(%rbp),%rdi
  40767e:	e8 9d 02 00 00       	callq  407920 <_ZNSt8_Rb_treeINSt7__cxx1112basic_stringIcSt11char_traitsIcESaIcEEESt4pairIKS5_S5_ESt10_Select1stIS8_ESt4lessIS5_ESaIS8_EE6_S_keyEPKSt13_Rb_tree_nodeIS8_E>
  407683:	48 89 45 80          	mov    %rax,-0x80(%rbp)
  407687:	e9 00 00 00 00       	jmpq   40768c <_ZNSt8_Rb_treeINSt7__cxx1112basic_stringIcSt11char_traitsIcESaIcEEESt4pairIKS5_S5_ESt10_Select1stIS8_ESt4lessIS5_ESaIS8_EE22_M_emplace_hint_uniqueIJRKSt21piecewise_construct_tSt5tupleIJOS5_EESJ_IJEEEEESt17_Rb_tree_iteratorIS8_ESt23_Rb_tree_const_iteratorIS8_EDpOT_+0x7c>
  40768c:	48 8b 75 b0          	mov    -0x50(%rbp),%rsi
  407690:	48 8b 7d 98          	mov    -0x68(%rbp),%rdi
  407694:	48 8b 55 80          	mov    -0x80(%rbp),%rdx
  407698:	e8 a3 04 00 00       	callq  407b40 <_ZNSt8_Rb_treeINSt7__cxx1112basic_stringIcSt11char_traitsIcESaIcEEESt4pairIKS5_S5_ESt10_Select1stIS8_ESt4lessIS5_ESaIS8_EE29_M_get_insert_hint_unique_posESt23_Rb_tree_const_iteratorIS8_ERS7_>
  40769d:	48 89 95 78 ff ff ff 	mov    %rdx,-0x88(%rbp)
  4076a4:	48 89 85 70 ff ff ff 	mov    %rax,-0x90(%rbp)
  4076ab:	e9 00 00 00 00       	jmpq   4076b0 <_ZNSt8_Rb_treeINSt7__cxx1112basic_stringIcSt11char_traitsIcESaIcEEESt4pairIKS5_S5_ESt10_Select1stIS8_ESt4lessIS5_ESaIS8_EE22_M_emplace_hint_uniqueIJRKSt21piecewise_construct_tSt5tupleIJOS5_EESJ_IJEEEEESt17_Rb_tree_iteratorIS8_ESt23_Rb_tree_const_iteratorIS8_EDpOT_+0xa0>
  4076b0:	48 8b 85 70 ff ff ff 	mov    -0x90(%rbp),%rax
  4076b7:	48 89 45 b8          	mov    %rax,-0x48(%rbp)
  4076bb:	48 8b 85 78 ff ff ff 	mov    -0x88(%rbp),%rax
  4076c2:	48 89 45 c0          	mov    %rax,-0x40(%rbp)
  4076c6:	48 83 7d c0 00       	cmpq   $0x0,-0x40(%rbp)
  4076cb:	0f 84 61 00 00 00    	je     407732 <_ZNSt8_Rb_treeINSt7__cxx1112basic_stringIcSt11char_traitsIcESaIcEEESt4pairIKS5_S5_ESt10_Select1stIS8_ESt4lessIS5_ESaIS8_EE22_M_emplace_hint_uniqueIJRKSt21piecewise_construct_tSt5tupleIJOS5_EESJ_IJEEEEESt17_Rb_tree_iteratorIS8_ESt23_Rb_tree_const_iteratorIS8_EDpOT_+0x122>
  4076d1:	48 8b 75 b8          	mov    -0x48(%rbp),%rsi
  4076d5:	48 8b 55 c0          	mov    -0x40(%rbp),%rdx
  4076d9:	48 8b 4d c8          	mov    -0x38(%rbp),%rcx
  4076dd:	48 8b 7d 98          	mov    -0x68(%rbp),%rdi
  4076e1:	e8 8a 07 00 00       	callq  407e70 <_ZNSt8_Rb_treeINSt7__cxx1112basic_stringIcSt11char_traitsIcESaIcEEESt4pairIKS5_S5_ESt10_Select1stIS8_ESt4lessIS5_ESaIS8_EE14_M_insert_nodeEPSt18_Rb_tree_node_baseSG_PSt13_Rb_tree_nodeIS8_E>
  4076e6:	48 89 85 68 ff ff ff 	mov    %rax,-0x98(%rbp)
  4076ed:	e9 00 00 00 00       	jmpq   4076f2 <_ZNSt8_Rb_treeINSt7__cxx1112basic_stringIcSt11char_traitsIcESaIcEEESt4pairIKS5_S5_ESt10_Select1stIS8_ESt4lessIS5_ESaIS8_EE22_M_emplace_hint_uniqueIJRKSt21piecewise_construct_tSt5tupleIJOS5_EESJ_IJEEEEESt17_Rb_tree_iteratorIS8_ESt23_Rb_tree_const_iteratorIS8_EDpOT_+0xe2>
  4076f2:	48 8b 85 68 ff ff ff 	mov    -0x98(%rbp),%rax
  4076f9:	48 89 45 f8          	mov    %rax,-0x8(%rbp)
  4076fd:	e9 67 00 00 00       	jmpq   407769 <_ZNSt8_Rb_treeINSt7__cxx1112basic_stringIcSt11char_traitsIcESaIcEEESt4pairIKS5_S5_ESt10_Select1stIS8_ESt4lessIS5_ESaIS8_EE22_M_emplace_hint_uniqueIJRKSt21piecewise_construct_tSt5tupleIJOS5_EESJ_IJEEEEESt17_Rb_tree_iteratorIS8_ESt23_Rb_tree_const_iteratorIS8_EDpOT_+0x159>
  407702:	89 d1                	mov    %edx,%ecx
  407704:	48 89 45 a8          	mov    %rax,-0x58(%rbp)
  407708:	89 4d a4             	mov    %ecx,-0x5c(%rbp)
  40770b:	48 8b 7d a8          	mov    -0x58(%rbp),%rdi
  40770f:	e8 ac b4 ff ff       	callq  402bc0 <__cxa_begin_catch@plt>
  407714:	48 8b 75 c8          	mov    -0x38(%rbp),%rsi
  407718:	48 8b 7d 98          	mov    -0x68(%rbp),%rdi
  40771c:	48 89 85 60 ff ff ff 	mov    %rax,-0xa0(%rbp)
  407723:	e8 28 08 00 00       	callq  407f50 <_ZNSt8_Rb_treeINSt7__cxx1112basic_stringIcSt11char_traitsIcESaIcEEESt4pairIKS5_S5_ESt10_Select1stIS8_ESt4lessIS5_ESaIS8_EE12_M_drop_nodeEPSt13_Rb_tree_nodeIS8_E>
  407728:	e8 e3 b7 ff ff       	callq  402f10 <__cxa_rethrow@plt>
  40772d:	e9 5d 00 00 00       	jmpq   40778f <_ZNSt8_Rb_treeINSt7__cxx1112basic_stringIcSt11char_traitsIcESaIcEEESt4pairIKS5_S5_ESt10_Select1stIS8_ESt4lessIS5_ESaIS8_EE22_M_emplace_hint_uniqueIJRKSt21piecewise_construct_tSt5tupleIJOS5_EESJ_IJEEEEESt17_Rb_tree_iteratorIS8_ESt23_Rb_tree_const_iteratorIS8_EDpOT_+0x17f>
  407732:	48 8b 75 c8          	mov    -0x38(%rbp),%rsi
  407736:	48 8b 7d 98          	mov    -0x68(%rbp),%rdi
  40773a:	e8 11 08 00 00       	callq  407f50 <_ZNSt8_Rb_treeINSt7__cxx1112basic_stringIcSt11char_traitsIcESaIcEEESt4pairIKS5_S5_ESt10_Select1stIS8_ESt4lessIS5_ESaIS8_EE12_M_drop_nodeEPSt13_Rb_tree_nodeIS8_E>
  40773f:	48 8d 7d f8          	lea    -0x8(%rbp),%rdi
  407743:	48 8b 75 b8          	mov    -0x48(%rbp),%rsi
  407747:	e8 44 02 00 00       	callq  407990 <_ZNSt17_Rb_tree_iteratorISt4pairIKNSt7__cxx1112basic_stringIcSt11char_traitsIcESaIcEEES6_EEC2EPSt18_Rb_tree_node_base>
  40774c:	e9 18 00 00 00       	jmpq   407769 <_ZNSt8_Rb_treeINSt7__cxx1112basic_stringIcSt11char_traitsIcESaIcEEESt4pairIKS5_S5_ESt10_Select1stIS8_ESt4lessIS5_ESaIS8_EE22_M_emplace_hint_uniqueIJRKSt21piecewise_construct_tSt5tupleIJOS5_EESJ_IJEEEEESt17_Rb_tree_iteratorIS8_ESt23_Rb_tree_const_iteratorIS8_EDpOT_+0x159>
  407751:	89 d1                	mov    %edx,%ecx
  407753:	48 89 45 a8          	mov    %rax,-0x58(%rbp)
  407757:	89 4d a4             	mov    %ecx,-0x5c(%rbp)
  40775a:	e8 31 b8 ff ff       	callq  402f90 <__cxa_end_catch@plt>
  40775f:	e9 00 00 00 00       	jmpq   407764 <_ZNSt8_Rb_treeINSt7__cxx1112basic_stringIcSt11char_traitsIcESaIcEEESt4pairIKS5_S5_ESt10_Select1stIS8_ESt4lessIS5_ESaIS8_EE22_M_emplace_hint_uniqueIJRKSt21piecewise_construct_tSt5tupleIJOS5_EESJ_IJEEEEESt17_Rb_tree_iteratorIS8_ESt23_Rb_tree_const_iteratorIS8_EDpOT_+0x154>
  407764:	e9 0d 00 00 00       	jmpq   407776 <_ZNSt8_Rb_treeINSt7__cxx1112basic_stringIcSt11char_traitsIcESaIcEEESt4pairIKS5_S5_ESt10_Select1stIS8_ESt4lessIS5_ESaIS8_EE22_M_emplace_hint_uniqueIJRKSt21piecewise_construct_tSt5tupleIJOS5_EESJ_IJEEEEESt17_Rb_tree_iteratorIS8_ESt23_Rb_tree_const_iteratorIS8_EDpOT_+0x166>
  407769:	48 8b 45 f8          	mov    -0x8(%rbp),%rax
  40776d:	48 81 c4 b0 00 00 00 	add    $0xb0,%rsp
  407774:	5d                   	pop    %rbp
  407775:	c3                   	retq   
  407776:	48 8b 7d a8          	mov    -0x58(%rbp),%rdi
  40777a:	e8 a1 b8 ff ff       	callq  403020 <_Unwind_Resume@plt>
  40777f:	89 d1                	mov    %edx,%ecx
  407781:	48 89 c7             	mov    %rax,%rdi
  407784:	89 8d 5c ff ff ff    	mov    %ecx,-0xa4(%rbp)
  40778a:	e8 31 fd ff ff       	callq  4074c0 <__clang_call_terminate>
  40778f:	90                   	nop

0000000000407790 <_ZNSt23_Rb_tree_const_iteratorISt4pairIKNSt7__cxx1112basic_stringIcSt11char_traitsIcESaIcEEES6_EEC2ERKSt17_Rb_tree_iteratorIS8_E>:
  407790:	55                   	push   %rbp
  407791:	48 89 e5             	mov    %rsp,%rbp
  407794:	48 89 7d f8          	mov    %rdi,-0x8(%rbp)
  407798:	48 89 75 f0          	mov    %rsi,-0x10(%rbp)
  40779c:	48 8b 75 f8          	mov    -0x8(%rbp),%rsi
  4077a0:	48 8b 7d f0          	mov    -0x10(%rbp),%rdi
  4077a4:	48 8b 3f             	mov    (%rdi),%rdi
  4077a7:	48 89 3e             	mov    %rdi,(%rsi)
  4077aa:	5d                   	pop    %rbp
  4077ab:	c3                   	retq   
  4077ac:	0f 1f 40 00          	nopl   0x0(%rax)

00000000004077b0 <_ZSt16forward_as_tupleIJNSt7__cxx1112basic_stringIcSt11char_traitsIcESaIcEEEEESt5tupleIJDpOT_EES9_>:
  4077b0:	55                   	push   %rbp
  4077b1:	48 89 e5             	mov    %rsp,%rbp
  4077b4:	48 83 ec 20          	sub    $0x20,%rsp
  4077b8:	48 89 7d f0          	mov    %rdi,-0x10(%rbp)
  4077bc:	e8 4f 0c 00 00       	callq  408410 <_ZSt7forwardINSt7__cxx1112basic_stringIcSt11char_traitsIcESaIcEEEEOT_RNSt16remove_referenceIS6_E4typeE>
  4077c1:	48 8d 7d f8          	lea    -0x8(%rbp),%rdi
  4077c5:	48 89 c6             	mov    %rax,%rsi
  4077c8:	e8 83 12 00 00       	callq  408a50 <_ZNSt5tupleIJONSt7__cxx1112basic_stringIcSt11char_traitsIcESaIcEEEEEC2IJS5_EvEEDpOT_>
  4077cd:	e9 00 00 00 00       	jmpq   4077d2 <_ZSt16forward_as_tupleIJNSt7__cxx1112basic_stringIcSt11char_traitsIcESaIcEEEEESt5tupleIJDpOT_EES9_+0x22>
  4077d2:	48 8b 45 f8          	mov    -0x8(%rbp),%rax
  4077d6:	48 83 c4 20          	add    $0x20,%rsp
  4077da:	5d                   	pop    %rbp
  4077db:	c3                   	retq   
  4077dc:	89 d1                	mov    %edx,%ecx
  4077de:	48 89 c7             	mov    %rax,%rdi
  4077e1:	89 4d ec             	mov    %ecx,-0x14(%rbp)
  4077e4:	e8 d7 fc ff ff       	callq  4074c0 <__clang_call_terminate>
  4077e9:	0f 1f 80 00 00 00 00 	nopl   0x0(%rax)

00000000004077f0 <_ZNSt8_Rb_treeINSt7__cxx1112basic_stringIcSt11char_traitsIcESaIcEEESt4pairIKS5_S5_ESt10_Select1stIS8_ESt4lessIS5_ESaIS8_EE11lower_boundERS7_>:
  4077f0:	55                   	push   %rbp
  4077f1:	48 89 e5             	mov    %rsp,%rbp
  4077f4:	48 83 ec 30          	sub    $0x30,%rsp
  4077f8:	48 89 7d f0          	mov    %rdi,-0x10(%rbp)
  4077fc:	48 89 75 e8          	mov    %rsi,-0x18(%rbp)
  407800:	48 8b 75 f0          	mov    -0x10(%rbp),%rsi
  407804:	48 89 f7             	mov    %rsi,%rdi
  407807:	48 89 75 e0          	mov    %rsi,-0x20(%rbp)
  40780b:	e8 d0 00 00 00       	callq  4078e0 <_ZNSt8_Rb_treeINSt7__cxx1112basic_stringIcSt11char_traitsIcESaIcEEESt4pairIKS5_S5_ESt10_Select1stIS8_ESt4lessIS5_ESaIS8_EE8_M_beginEv>
  407810:	48 8b 7d e0          	mov    -0x20(%rbp),%rdi
  407814:	48 89 45 d8          	mov    %rax,-0x28(%rbp)
  407818:	e8 e3 00 00 00       	callq  407900 <_ZNSt8_Rb_treeINSt7__cxx1112basic_stringIcSt11char_traitsIcESaIcEEESt4pairIKS5_S5_ESt10_Select1stIS8_ESt4lessIS5_ESaIS8_EE6_M_endEv>
  40781d:	48 8b 4d e8          	mov    -0x18(%rbp),%rcx
  407821:	48 8b 7d e0          	mov    -0x20(%rbp),%rdi
  407825:	48 8b 75 d8          	mov    -0x28(%rbp),%rsi
  407829:	48 89 c2             	mov    %rax,%rdx
  40782c:	e8 0f 00 00 00       	callq  407840 <_ZNSt8_Rb_treeINSt7__cxx1112basic_stringIcSt11char_traitsIcESaIcEEESt4pairIKS5_S5_ESt10_Select1stIS8_ESt4lessIS5_ESaIS8_EE14_M_lower_boundEPSt13_Rb_tree_nodeIS8_ESH_RS7_>
  407831:	48 89 45 f8          	mov    %rax,-0x8(%rbp)
  407835:	48 8b 45 f8          	mov    -0x8(%rbp),%rax
  407839:	48 83 c4 30          	add    $0x30,%rsp
  40783d:	5d                   	pop    %rbp
  40783e:	c3                   	retq   
  40783f:	90                   	nop

0000000000407840 <_ZNSt8_Rb_treeINSt7__cxx1112basic_stringIcSt11char_traitsIcESaIcEEESt4pairIKS5_S5_ESt10_Select1stIS8_ESt4lessIS5_ESaIS8_EE14_M_lower_boundEPSt13_Rb_tree_nodeIS8_ESH_RS7_>:
  407840:	55                   	push   %rbp
  407841:	48 89 e5             	mov    %rsp,%rbp
  407844:	48 83 ec 30          	sub    $0x30,%rsp
  407848:	48 89 7d f0          	mov    %rdi,-0x10(%rbp)
  40784c:	48 89 75 e8          	mov    %rsi,-0x18(%rbp)
  407850:	48 89 55 e0          	mov    %rdx,-0x20(%rbp)
  407854:	48 89 4d d8          	mov    %rcx,-0x28(%rbp)
  407858:	48 8b 7d f0          	mov    -0x10(%rbp),%rdi
  40785c:	48 89 7d d0          	mov    %rdi,-0x30(%rbp)
  407860:	48 83 7d e8 00       	cmpq   $0x0,-0x18(%rbp)
  407865:	0f 84 53 00 00 00    	je     4078be <_ZNSt8_Rb_treeINSt7__cxx1112basic_stringIcSt11char_traitsIcESaIcEEESt4pairIKS5_S5_ESt10_Select1stIS8_ESt4lessIS5_ESaIS8_EE14_M_lower_boundEPSt13_Rb_tree_nodeIS8_ESH_RS7_+0x7e>
  40786b:	48 8b 7d e8          	mov    -0x18(%rbp),%rdi
  40786f:	e8 ac 00 00 00       	callq  407920 <_ZNSt8_Rb_treeINSt7__cxx1112basic_stringIcSt11char_traitsIcESaIcEEESt4pairIKS5_S5_ESt10_Select1stIS8_ESt4lessIS5_ESaIS8_EE6_S_keyEPKSt13_Rb_tree_nodeIS8_E>
  407874:	48 8b 55 d8          	mov    -0x28(%rbp),%rdx
  407878:	48 8b 7d d0          	mov    -0x30(%rbp),%rdi
  40787c:	48 89 c6             	mov    %rax,%rsi
  40787f:	e8 5c fd ff ff       	callq  4075e0 <_ZNKSt4lessINSt7__cxx1112basic_stringIcSt11char_traitsIcESaIcEEEEclERKS5_S8_>
  407884:	a8 01                	test   $0x1,%al
  407886:	0f 85 1d 00 00 00    	jne    4078a9 <_ZNSt8_Rb_treeINSt7__cxx1112basic_stringIcSt11char_traitsIcESaIcEEESt4pairIKS5_S5_ESt10_Select1stIS8_ESt4lessIS5_ESaIS8_EE14_M_lower_boundEPSt13_Rb_tree_nodeIS8_ESH_RS7_+0x69>
  40788c:	48 8b 45 e8          	mov    -0x18(%rbp),%rax
  407890:	48 89 45 e0          	mov    %rax,-0x20(%rbp)
  407894:	48 8b 45 e8          	mov    -0x18(%rbp),%rax
  407898:	48 89 c7             	mov    %rax,%rdi
  40789b:	e8 b0 00 00 00       	callq  407950 <_ZNSt8_Rb_treeINSt7__cxx1112basic_stringIcSt11char_traitsIcESaIcEEESt4pairIKS5_S5_ESt10_Select1stIS8_ESt4lessIS5_ESaIS8_EE7_S_leftEPSt18_Rb_tree_node_base>
  4078a0:	48 89 45 e8          	mov    %rax,-0x18(%rbp)
  4078a4:	e9 10 00 00 00       	jmpq   4078b9 <_ZNSt8_Rb_treeINSt7__cxx1112basic_stringIcSt11char_traitsIcESaIcEEESt4pairIKS5_S5_ESt10_Select1stIS8_ESt4lessIS5_ESaIS8_EE14_M_lower_boundEPSt13_Rb_tree_nodeIS8_ESH_RS7_+0x79>
  4078a9:	48 8b 45 e8          	mov    -0x18(%rbp),%rax
  4078ad:	48 89 c7             	mov    %rax,%rdi
  4078b0:	e8 bb 00 00 00       	callq  407970 <_ZNSt8_Rb_treeINSt7__cxx1112basic_stringIcSt11char_traitsIcESaIcEEESt4pairIKS5_S5_ESt10_Select1stIS8_ESt4lessIS5_ESaIS8_EE8_S_rightEPSt18_Rb_tree_node_base>
  4078b5:	48 89 45 e8          	mov    %rax,-0x18(%rbp)
  4078b9:	e9 a2 ff ff ff       	jmpq   407860 <_ZNSt8_Rb_treeINSt7__cxx1112basic_stringIcSt11char_traitsIcESaIcEEESt4pairIKS5_S5_ESt10_Select1stIS8_ESt4lessIS5_ESaIS8_EE14_M_lower_boundEPSt13_Rb_tree_nodeIS8_ESH_RS7_+0x20>
  4078be:	48 8d 7d f8          	lea    -0x8(%rbp),%rdi
  4078c2:	48 8b 45 e0          	mov    -0x20(%rbp),%rax
  4078c6:	48 89 c6             	mov    %rax,%rsi
  4078c9:	e8 c2 00 00 00       	callq  407990 <_ZNSt17_Rb_tree_iteratorISt4pairIKNSt7__cxx1112basic_stringIcSt11char_traitsIcESaIcEEES6_EEC2EPSt18_Rb_tree_node_base>
  4078ce:	48 8b 45 f8          	mov    -0x8(%rbp),%rax
  4078d2:	48 83 c4 30          	add    $0x30,%rsp
  4078d6:	5d                   	pop    %rbp
  4078d7:	c3                   	retq   
  4078d8:	0f 1f 84 00 00 00 00 	nopl   0x0(%rax,%rax,1)
  4078df:	00 

00000000004078e0 <_ZNSt8_Rb_treeINSt7__cxx1112basic_stringIcSt11char_traitsIcESaIcEEESt4pairIKS5_S5_ESt10_Select1stIS8_ESt4lessIS5_ESaIS8_EE8_M_beginEv>:
  4078e0:	55                   	push   %rbp
  4078e1:	48 89 e5             	mov    %rsp,%rbp
  4078e4:	48 89 7d f8          	mov    %rdi,-0x8(%rbp)
  4078e8:	48 8b 7d f8          	mov    -0x8(%rbp),%rdi
  4078ec:	48 8b 7f 10          	mov    0x10(%rdi),%rdi
  4078f0:	48 89 f8             	mov    %rdi,%rax
  4078f3:	5d                   	pop    %rbp
  4078f4:	c3                   	retq   
  4078f5:	66 2e 0f 1f 84 00 00 	nopw   %cs:0x0(%rax,%rax,1)
  4078fc:	00 00 00 
  4078ff:	90                   	nop

0000000000407900 <_ZNSt8_Rb_treeINSt7__cxx1112basic_stringIcSt11char_traitsIcESaIcEEESt4pairIKS5_S5_ESt10_Select1stIS8_ESt4lessIS5_ESaIS8_EE6_M_endEv>:
  407900:	55                   	push   %rbp
  407901:	48 89 e5             	mov    %rsp,%rbp
  407904:	48 89 7d f8          	mov    %rdi,-0x8(%rbp)
  407908:	48 8b 7d f8          	mov    -0x8(%rbp),%rdi
  40790c:	48 83 c7 08          	add    $0x8,%rdi
  407910:	48 89 f8             	mov    %rdi,%rax
  407913:	5d                   	pop    %rbp
  407914:	c3                   	retq   
  407915:	66 2e 0f 1f 84 00 00 	nopw   %cs:0x0(%rax,%rax,1)
  40791c:	00 00 00 
  40791f:	90                   	nop

0000000000407920 <_ZNSt8_Rb_treeINSt7__cxx1112basic_stringIcSt11char_traitsIcESaIcEEESt4pairIKS5_S5_ESt10_Select1stIS8_ESt4lessIS5_ESaIS8_EE6_S_keyEPKSt13_Rb_tree_nodeIS8_E>:
  407920:	55                   	push   %rbp
  407921:	48 89 e5             	mov    %rsp,%rbp
  407924:	48 83 ec 10          	sub    $0x10,%rsp
  407928:	48 89 7d f8          	mov    %rdi,-0x8(%rbp)
  40792c:	48 8b 7d f8          	mov    -0x8(%rbp),%rdi
  407930:	e8 9b 00 00 00       	callq  4079d0 <_ZNSt8_Rb_treeINSt7__cxx1112basic_stringIcSt11char_traitsIcESaIcEEESt4pairIKS5_S5_ESt10_Select1stIS8_ESt4lessIS5_ESaIS8_EE8_S_valueEPKSt13_Rb_tree_nodeIS8_E>
  407935:	48 8d 7d f0          	lea    -0x10(%rbp),%rdi
  407939:	48 89 c6             	mov    %rax,%rsi
  40793c:	e8 6f 00 00 00       	callq  4079b0 <_ZNKSt10_Select1stISt4pairIKNSt7__cxx1112basic_stringIcSt11char_traitsIcESaIcEEES6_EEclERKS8_>
  407941:	48 83 c4 10          	add    $0x10,%rsp
  407945:	5d                   	pop    %rbp
  407946:	c3                   	retq   
  407947:	66 0f 1f 84 00 00 00 	nopw   0x0(%rax,%rax,1)
  40794e:	00 00 

0000000000407950 <_ZNSt8_Rb_treeINSt7__cxx1112basic_stringIcSt11char_traitsIcESaIcEEESt4pairIKS5_S5_ESt10_Select1stIS8_ESt4lessIS5_ESaIS8_EE7_S_leftEPSt18_Rb_tree_node_base>:
  407950:	55                   	push   %rbp
  407951:	48 89 e5             	mov    %rsp,%rbp
  407954:	48 89 7d f8          	mov    %rdi,-0x8(%rbp)
  407958:	48 8b 7d f8          	mov    -0x8(%rbp),%rdi
  40795c:	48 8b 7f 10          	mov    0x10(%rdi),%rdi
  407960:	48 89 f8             	mov    %rdi,%rax
  407963:	5d                   	pop    %rbp
  407964:	c3                   	retq   
  407965:	66 2e 0f 1f 84 00 00 	nopw   %cs:0x0(%rax,%rax,1)
  40796c:	00 00 00 
  40796f:	90                   	nop

0000000000407970 <_ZNSt8_Rb_treeINSt7__cxx1112basic_stringIcSt11char_traitsIcESaIcEEESt4pairIKS5_S5_ESt10_Select1stIS8_ESt4lessIS5_ESaIS8_EE8_S_rightEPSt18_Rb_tree_node_base>:
  407970:	55                   	push   %rbp
  407971:	48 89 e5             	mov    %rsp,%rbp
  407974:	48 89 7d f8          	mov    %rdi,-0x8(%rbp)
  407978:	48 8b 7d f8          	mov    -0x8(%rbp),%rdi
  40797c:	48 8b 7f 18          	mov    0x18(%rdi),%rdi
  407980:	48 89 f8             	mov    %rdi,%rax
  407983:	5d                   	pop    %rbp
  407984:	c3                   	retq   
  407985:	66 2e 0f 1f 84 00 00 	nopw   %cs:0x0(%rax,%rax,1)
  40798c:	00 00 00 
  40798f:	90                   	nop

0000000000407990 <_ZNSt17_Rb_tree_iteratorISt4pairIKNSt7__cxx1112basic_stringIcSt11char_traitsIcESaIcEEES6_EEC2EPSt18_Rb_tree_node_base>:
  407990:	55                   	push   %rbp
  407991:	48 89 e5             	mov    %rsp,%rbp
  407994:	48 89 7d f8          	mov    %rdi,-0x8(%rbp)
  407998:	48 89 75 f0          	mov    %rsi,-0x10(%rbp)
  40799c:	48 8b 75 f8          	mov    -0x8(%rbp),%rsi
  4079a0:	48 8b 7d f0          	mov    -0x10(%rbp),%rdi
  4079a4:	48 89 3e             	mov    %rdi,(%rsi)
  4079a7:	5d                   	pop    %rbp
  4079a8:	c3                   	retq   
  4079a9:	0f 1f 80 00 00 00 00 	nopl   0x0(%rax)

00000000004079b0 <_ZNKSt10_Select1stISt4pairIKNSt7__cxx1112basic_stringIcSt11char_traitsIcESaIcEEES6_EEclERKS8_>:
  4079b0:	55                   	push   %rbp
  4079b1:	48 89 e5             	mov    %rsp,%rbp
  4079b4:	48 89 7d f8          	mov    %rdi,-0x8(%rbp)
  4079b8:	48 89 75 f0          	mov    %rsi,-0x10(%rbp)
  4079bc:	48 8b 45 f0          	mov    -0x10(%rbp),%rax
  4079c0:	5d                   	pop    %rbp
  4079c1:	c3                   	retq   
  4079c2:	66 2e 0f 1f 84 00 00 	nopw   %cs:0x0(%rax,%rax,1)
  4079c9:	00 00 00 
  4079cc:	0f 1f 40 00          	nopl   0x0(%rax)

00000000004079d0 <_ZNSt8_Rb_treeINSt7__cxx1112basic_stringIcSt11char_traitsIcESaIcEEESt4pairIKS5_S5_ESt10_Select1stIS8_ESt4lessIS5_ESaIS8_EE8_S_valueEPKSt13_Rb_tree_nodeIS8_E>:
  4079d0:	55                   	push   %rbp
  4079d1:	48 89 e5             	mov    %rsp,%rbp
  4079d4:	48 83 ec 10          	sub    $0x10,%rsp
  4079d8:	48 89 7d f8          	mov    %rdi,-0x8(%rbp)
  4079dc:	48 8b 7d f8          	mov    -0x8(%rbp),%rdi
  4079e0:	e8 0b 00 00 00       	callq  4079f0 <_ZNKSt13_Rb_tree_nodeISt4pairIKNSt7__cxx1112basic_stringIcSt11char_traitsIcESaIcEEES6_EE9_M_valptrEv>
  4079e5:	48 83 c4 10          	add    $0x10,%rsp
  4079e9:	5d                   	pop    %rbp
  4079ea:	c3                   	retq   
  4079eb:	0f 1f 44 00 00       	nopl   0x0(%rax,%rax,1)

00000000004079f0 <_ZNKSt13_Rb_tree_nodeISt4pairIKNSt7__cxx1112basic_stringIcSt11char_traitsIcESaIcEEES6_EE9_M_valptrEv>:
  4079f0:	55                   	push   %rbp
  4079f1:	48 89 e5             	mov    %rsp,%rbp
  4079f4:	48 83 ec 10          	sub    $0x10,%rsp
  4079f8:	48 89 7d f8          	mov    %rdi,-0x8(%rbp)
  4079fc:	48 8b 7d f8          	mov    -0x8(%rbp),%rdi
  407a00:	48 83 c7 20          	add    $0x20,%rdi
  407a04:	e8 07 00 00 00       	callq  407a10 <_ZNK9__gnu_cxx16__aligned_membufISt4pairIKNSt7__cxx1112basic_stringIcSt11char_traitsIcESaIcEEES7_EE6_M_ptrEv>
  407a09:	48 83 c4 10          	add    $0x10,%rsp
  407a0d:	5d                   	pop    %rbp
  407a0e:	c3                   	retq   
  407a0f:	90                   	nop

0000000000407a10 <_ZNK9__gnu_cxx16__aligned_membufISt4pairIKNSt7__cxx1112basic_stringIcSt11char_traitsIcESaIcEEES7_EE6_M_ptrEv>:
  407a10:	55                   	push   %rbp
  407a11:	48 89 e5             	mov    %rsp,%rbp
  407a14:	48 83 ec 10          	sub    $0x10,%rsp
  407a18:	48 89 7d f8          	mov    %rdi,-0x8(%rbp)
  407a1c:	48 8b 7d f8          	mov    -0x8(%rbp),%rdi
  407a20:	e8 0b 00 00 00       	callq  407a30 <_ZNK9__gnu_cxx16__aligned_membufISt4pairIKNSt7__cxx1112basic_stringIcSt11char_traitsIcESaIcEEES7_EE7_M_addrEv>
  407a25:	48 83 c4 10          	add    $0x10,%rsp
  407a29:	5d                   	pop    %rbp
  407a2a:	c3                   	retq   
  407a2b:	0f 1f 44 00 00       	nopl   0x0(%rax,%rax,1)

0000000000407a30 <_ZNK9__gnu_cxx16__aligned_membufISt4pairIKNSt7__cxx1112basic_stringIcSt11char_traitsIcESaIcEEES7_EE7_M_addrEv>:
  407a30:	55                   	push   %rbp
  407a31:	48 89 e5             	mov    %rsp,%rbp
  407a34:	48 89 7d f8          	mov    %rdi,-0x8(%rbp)
  407a38:	48 8b 7d f8          	mov    -0x8(%rbp),%rdi
  407a3c:	48 89 f8             	mov    %rdi,%rax
  407a3f:	5d                   	pop    %rbp
  407a40:	c3                   	retq   
  407a41:	66 2e 0f 1f 84 00 00 	nopw   %cs:0x0(%rax,%rax,1)
  407a48:	00 00 00 
  407a4b:	0f 1f 44 00 00       	nopl   0x0(%rax,%rax,1)

0000000000407a50 <_ZNKSt8_Rb_treeINSt7__cxx1112basic_stringIcSt11char_traitsIcESaIcEEESt4pairIKS5_S5_ESt10_Select1stIS8_ESt4lessIS5_ESaIS8_EE8key_compEv>:
  407a50:	55                   	push   %rbp
  407a51:	48 89 e5             	mov    %rsp,%rbp
  407a54:	48 89 7d f0          	mov    %rdi,-0x10(%rbp)
  407a58:	5d                   	pop    %rbp
  407a59:	c3                   	retq   
  407a5a:	66 0f 1f 44 00 00    	nopw   0x0(%rax,%rax,1)

0000000000407a60 <_ZStltIcSt11char_traitsIcESaIcEEbRKNSt7__cxx1112basic_stringIT_T0_T1_EESA_>:
  407a60:	55                   	push   %rbp
  407a61:	48 89 e5             	mov    %rsp,%rbp
  407a64:	48 83 ec 10          	sub    $0x10,%rsp
  407a68:	48 89 7d f8          	mov    %rdi,-0x8(%rbp)
  407a6c:	48 89 75 f0          	mov    %rsi,-0x10(%rbp)
  407a70:	48 8b 7d f8          	mov    -0x8(%rbp),%rdi
  407a74:	48 8b 75 f0          	mov    -0x10(%rbp),%rsi
  407a78:	e8 f3 af ff ff       	callq  402a70 <_ZNKSt7__cxx1112basic_stringIcSt11char_traitsIcESaIcEE7compareERKS4_@plt>
  407a7d:	83 f8 00             	cmp    $0x0,%eax
  407a80:	0f 9c c1             	setl   %cl
  407a83:	80 e1 01             	and    $0x1,%cl
  407a86:	0f b6 c1             	movzbl %cl,%eax
  407a89:	48 83 c4 10          	add    $0x10,%rsp
  407a8d:	5d                   	pop    %rbp
  407a8e:	c3                   	retq   
  407a8f:	90                   	nop

0000000000407a90 <_ZNSt8_Rb_treeINSt7__cxx1112basic_stringIcSt11char_traitsIcESaIcEEESt4pairIKS5_S5_ESt10_Select1stIS8_ESt4lessIS5_ESaIS8_EE14_M_create_nodeIJRKSt21piecewise_construct_tSt5tupleIJOS5_EESJ_IJEEEEEPSt13_Rb_tree_nodeIS8_EDpOT_>:
  407a90:	55                   	push   %rbp
  407a91:	48 89 e5             	mov    %rsp,%rbp
  407a94:	48 83 ec 50          	sub    $0x50,%rsp
  407a98:	48 89 7d f8          	mov    %rdi,-0x8(%rbp)
  407a9c:	48 89 75 f0          	mov    %rsi,-0x10(%rbp)
  407aa0:	48 89 55 e8          	mov    %rdx,-0x18(%rbp)
  407aa4:	48 89 4d e0          	mov    %rcx,-0x20(%rbp)
  407aa8:	48 8b 4d f8          	mov    -0x8(%rbp),%rcx
  407aac:	48 89 cf             	mov    %rcx,%rdi
  407aaf:	48 89 4d d0          	mov    %rcx,-0x30(%rbp)
  407ab3:	e8 e8 04 00 00       	callq  407fa0 <_ZNSt8_Rb_treeINSt7__cxx1112basic_stringIcSt11char_traitsIcESaIcEEESt4pairIKS5_S5_ESt10_Select1stIS8_ESt4lessIS5_ESaIS8_EE11_M_get_nodeEv>
  407ab8:	48 89 45 d8          	mov    %rax,-0x28(%rbp)
  407abc:	48 8b 75 d8          	mov    -0x28(%rbp),%rsi
  407ac0:	48 8b 7d f0          	mov    -0x10(%rbp),%rdi
  407ac4:	48 89 75 c8          	mov    %rsi,-0x38(%rbp)
  407ac8:	e8 43 00 00 00       	callq  407b10 <_ZSt7forwardIRKSt21piecewise_construct_tEOT_RNSt16remove_referenceIS3_E4typeE>
  407acd:	48 8b 7d e8          	mov    -0x18(%rbp),%rdi
  407ad1:	48 89 45 c0          	mov    %rax,-0x40(%rbp)
  407ad5:	e8 46 00 00 00       	callq  407b20 <_ZSt7forwardISt5tupleIJONSt7__cxx1112basic_stringIcSt11char_traitsIcESaIcEEEEEEOT_RNSt16remove_referenceIS9_E4typeE>
  407ada:	48 8b 7d e0          	mov    -0x20(%rbp),%rdi
  407ade:	48 89 45 b8          	mov    %rax,-0x48(%rbp)
  407ae2:	e8 49 00 00 00       	callq  407b30 <_ZSt7forwardISt5tupleIJEEEOT_RNSt16remove_referenceIS2_E4typeE>
  407ae7:	48 8b 7d d0          	mov    -0x30(%rbp),%rdi
  407aeb:	48 8b 75 c8          	mov    -0x38(%rbp),%rsi
  407aef:	48 8b 55 c0          	mov    -0x40(%rbp),%rdx
  407af3:	48 8b 4d b8          	mov    -0x48(%rbp),%rcx
  407af7:	49 89 c0             	mov    %rax,%r8
  407afa:	e8 d1 04 00 00       	callq  407fd0 <_ZNSt8_Rb_treeINSt7__cxx1112basic_stringIcSt11char_traitsIcESaIcEEESt4pairIKS5_S5_ESt10_Select1stIS8_ESt4lessIS5_ESaIS8_EE17_M_construct_nodeIJRKSt21piecewise_construct_tSt5tupleIJOS5_EESJ_IJEEEEEvPSt13_Rb_tree_nodeIS8_EDpOT_>
  407aff:	48 8b 45 d8          	mov    -0x28(%rbp),%rax
  407b03:	48 83 c4 50          	add    $0x50,%rsp
  407b07:	5d                   	pop    %rbp
  407b08:	c3                   	retq   
  407b09:	0f 1f 80 00 00 00 00 	nopl   0x0(%rax)

0000000000407b10 <_ZSt7forwardIRKSt21piecewise_construct_tEOT_RNSt16remove_referenceIS3_E4typeE>:
  407b10:	55                   	push   %rbp
  407b11:	48 89 e5             	mov    %rsp,%rbp
  407b14:	48 89 7d f8          	mov    %rdi,-0x8(%rbp)
  407b18:	48 8b 45 f8          	mov    -0x8(%rbp),%rax
  407b1c:	5d                   	pop    %rbp
  407b1d:	c3                   	retq   
  407b1e:	66 90                	xchg   %ax,%ax

0000000000407b20 <_ZSt7forwardISt5tupleIJONSt7__cxx1112basic_stringIcSt11char_traitsIcESaIcEEEEEEOT_RNSt16remove_referenceIS9_E4typeE>:
  407b20:	55                   	push   %rbp
  407b21:	48 89 e5             	mov    %rsp,%rbp
  407b24:	48 89 7d f8          	mov    %rdi,-0x8(%rbp)
  407b28:	48 8b 45 f8          	mov    -0x8(%rbp),%rax
  407b2c:	5d                   	pop    %rbp
  407b2d:	c3                   	retq   
  407b2e:	66 90                	xchg   %ax,%ax

0000000000407b30 <_ZSt7forwardISt5tupleIJEEEOT_RNSt16remove_referenceIS2_E4typeE>:
  407b30:	55                   	push   %rbp
  407b31:	48 89 e5             	mov    %rsp,%rbp
  407b34:	48 89 7d f8          	mov    %rdi,-0x8(%rbp)
  407b38:	48 8b 45 f8          	mov    -0x8(%rbp),%rax
  407b3c:	5d                   	pop    %rbp
  407b3d:	c3                   	retq   
  407b3e:	66 90                	xchg   %ax,%ax

0000000000407b40 <_ZNSt8_Rb_treeINSt7__cxx1112basic_stringIcSt11char_traitsIcESaIcEEESt4pairIKS5_S5_ESt10_Select1stIS8_ESt4lessIS5_ESaIS8_EE29_M_get_insert_hint_unique_posESt23_Rb_tree_const_iteratorIS8_ERS7_>:
  407b40:	55                   	push   %rbp
  407b41:	48 89 e5             	mov    %rsp,%rbp
  407b44:	48 81 ec a0 00 00 00 	sub    $0xa0,%rsp
  407b4b:	48 8d 45 e8          	lea    -0x18(%rbp),%rax
  407b4f:	48 89 75 e8          	mov    %rsi,-0x18(%rbp)
  407b53:	48 89 7d e0          	mov    %rdi,-0x20(%rbp)
  407b57:	48 89 55 d8          	mov    %rdx,-0x28(%rbp)
  407b5b:	48 8b 55 e0          	mov    -0x20(%rbp),%rdx
  407b5f:	48 89 c7             	mov    %rax,%rdi
  407b62:	48 89 55 90          	mov    %rdx,-0x70(%rbp)
  407b66:	e8 f5 09 00 00       	callq  408560 <_ZNKSt23_Rb_tree_const_iteratorISt4pairIKNSt7__cxx1112basic_stringIcSt11char_traitsIcESaIcEEES6_EE13_M_const_castEv>
  407b6b:	48 89 45 d0          	mov    %rax,-0x30(%rbp)
  407b6f:	48 8b 45 d0          	mov    -0x30(%rbp),%rax
  407b73:	48 8b 7d 90          	mov    -0x70(%rbp),%rdi
  407b77:	48 89 45 88          	mov    %rax,-0x78(%rbp)
  407b7b:	e8 80 fd ff ff       	callq  407900 <_ZNSt8_Rb_treeINSt7__cxx1112basic_stringIcSt11char_traitsIcESaIcEEESt4pairIKS5_S5_ESt10_Select1stIS8_ESt4lessIS5_ESaIS8_EE6_M_endEv>
  407b80:	48 8b 55 88          	mov    -0x78(%rbp),%rdx
  407b84:	48 39 c2             	cmp    %rax,%rdx
  407b87:	0f 85 81 00 00 00    	jne    407c0e <_ZNSt8_Rb_treeINSt7__cxx1112basic_stringIcSt11char_traitsIcESaIcEEESt4pairIKS5_S5_ESt10_Select1stIS8_ESt4lessIS5_ESaIS8_EE29_M_get_insert_hint_unique_posESt23_Rb_tree_const_iteratorIS8_ERS7_+0xce>
  407b8d:	48 8b 7d 90          	mov    -0x70(%rbp),%rdi
  407b91:	e8 fa 09 00 00       	callq  408590 <_ZNKSt8_Rb_treeINSt7__cxx1112basic_stringIcSt11char_traitsIcESaIcEEESt4pairIKS5_S5_ESt10_Select1stIS8_ESt4lessIS5_ESaIS8_EE4sizeEv>
  407b96:	48 83 f8 00          	cmp    $0x0,%rax
  407b9a:	0f 86 54 00 00 00    	jbe    407bf4 <_ZNSt8_Rb_treeINSt7__cxx1112basic_stringIcSt11char_traitsIcESaIcEEESt4pairIKS5_S5_ESt10_Select1stIS8_ESt4lessIS5_ESaIS8_EE29_M_get_insert_hint_unique_posESt23_Rb_tree_const_iteratorIS8_ERS7_+0xb4>
  407ba0:	48 8b 7d 90          	mov    -0x70(%rbp),%rdi
  407ba4:	e8 37 0a 00 00       	callq  4085e0 <_ZNSt8_Rb_treeINSt7__cxx1112basic_stringIcSt11char_traitsIcESaIcEEESt4pairIKS5_S5_ESt10_Select1stIS8_ESt4lessIS5_ESaIS8_EE12_M_rightmostEv>
  407ba9:	48 8b 38             	mov    (%rax),%rdi
  407bac:	e8 ff 09 00 00       	callq  4085b0 <_ZNSt8_Rb_treeINSt7__cxx1112basic_stringIcSt11char_traitsIcESaIcEEESt4pairIKS5_S5_ESt10_Select1stIS8_ESt4lessIS5_ESaIS8_EE6_S_keyEPKSt18_Rb_tree_node_base>
  407bb1:	48 8b 55 d8          	mov    -0x28(%rbp),%rdx
  407bb5:	48 8b 7d 90          	mov    -0x70(%rbp),%rdi
  407bb9:	48 89 c6             	mov    %rax,%rsi
  407bbc:	e8 1f fa ff ff       	callq  4075e0 <_ZNKSt4lessINSt7__cxx1112basic_stringIcSt11char_traitsIcESaIcEEEEclERKS5_S8_>
  407bc1:	a8 01                	test   $0x1,%al
  407bc3:	0f 85 05 00 00 00    	jne    407bce <_ZNSt8_Rb_treeINSt7__cxx1112basic_stringIcSt11char_traitsIcESaIcEEESt4pairIKS5_S5_ESt10_Select1stIS8_ESt4lessIS5_ESaIS8_EE29_M_get_insert_hint_unique_posESt23_Rb_tree_const_iteratorIS8_ERS7_+0x8e>
  407bc9:	e9 26 00 00 00       	jmpq   407bf4 <_ZNSt8_Rb_treeINSt7__cxx1112basic_stringIcSt11char_traitsIcESaIcEEESt4pairIKS5_S5_ESt10_Select1stIS8_ESt4lessIS5_ESaIS8_EE29_M_get_insert_hint_unique_posESt23_Rb_tree_const_iteratorIS8_ERS7_+0xb4>
  407bce:	48 c7 45 c8 00 00 00 	movq   $0x0,-0x38(%rbp)
  407bd5:	00 
  407bd6:	48 8b 7d 90          	mov    -0x70(%rbp),%rdi
  407bda:	e8 01 0a 00 00       	callq  4085e0 <_ZNSt8_Rb_treeINSt7__cxx1112basic_stringIcSt11char_traitsIcESaIcEEESt4pairIKS5_S5_ESt10_Select1stIS8_ESt4lessIS5_ESaIS8_EE12_M_rightmostEv>
  407bdf:	48 8d 7d f0          	lea    -0x10(%rbp),%rdi
  407be3:	48 8d 75 c8          	lea    -0x38(%rbp),%rsi
  407be7:	48 89 c2             	mov    %rax,%rdx
  407bea:	e8 11 0a 00 00       	callq  408600 <_ZNSt4pairIPSt18_Rb_tree_node_baseS1_EC2IRS1_vEERKS1_OT_>
  407bef:	e9 66 02 00 00       	jmpq   407e5a <_ZNSt8_Rb_treeINSt7__cxx1112basic_stringIcSt11char_traitsIcESaIcEEESt4pairIKS5_S5_ESt10_Select1stIS8_ESt4lessIS5_ESaIS8_EE29_M_get_insert_hint_unique_posESt23_Rb_tree_const_iteratorIS8_ERS7_+0x31a>
  407bf4:	48 8b 75 d8          	mov    -0x28(%rbp),%rsi
  407bf8:	48 8b 7d 90          	mov    -0x70(%rbp),%rdi
  407bfc:	e8 3f 0a 00 00       	callq  408640 <_ZNSt8_Rb_treeINSt7__cxx1112basic_stringIcSt11char_traitsIcESaIcEEESt4pairIKS5_S5_ESt10_Select1stIS8_ESt4lessIS5_ESaIS8_EE24_M_get_insert_unique_posERS7_>
  407c01:	48 89 45 f0          	mov    %rax,-0x10(%rbp)
  407c05:	48 89 55 f8          	mov    %rdx,-0x8(%rbp)
  407c09:	e9 4c 02 00 00       	jmpq   407e5a <_ZNSt8_Rb_treeINSt7__cxx1112basic_stringIcSt11char_traitsIcESaIcEEESt4pairIKS5_S5_ESt10_Select1stIS8_ESt4lessIS5_ESaIS8_EE29_M_get_insert_hint_unique_posESt23_Rb_tree_const_iteratorIS8_ERS7_+0x31a>
  407c0e:	48 8b 75 d8          	mov    -0x28(%rbp),%rsi
  407c12:	48 8b 7d d0          	mov    -0x30(%rbp),%rdi
  407c16:	48 89 75 80          	mov    %rsi,-0x80(%rbp)
  407c1a:	e8 91 09 00 00       	callq  4085b0 <_ZNSt8_Rb_treeINSt7__cxx1112basic_stringIcSt11char_traitsIcESaIcEEESt4pairIKS5_S5_ESt10_Select1stIS8_ESt4lessIS5_ESaIS8_EE6_S_keyEPKSt18_Rb_tree_node_base>
  407c1f:	48 8b 7d 90          	mov    -0x70(%rbp),%rdi
  407c23:	48 8b 75 80          	mov    -0x80(%rbp),%rsi
  407c27:	48 89 c2             	mov    %rax,%rdx
  407c2a:	e8 b1 f9 ff ff       	callq  4075e0 <_ZNKSt4lessINSt7__cxx1112basic_stringIcSt11char_traitsIcESaIcEEEEclERKS5_S8_>
  407c2f:	a8 01                	test   $0x1,%al
  407c31:	0f 85 05 00 00 00    	jne    407c3c <_ZNSt8_Rb_treeINSt7__cxx1112basic_stringIcSt11char_traitsIcESaIcEEESt4pairIKS5_S5_ESt10_Select1stIS8_ESt4lessIS5_ESaIS8_EE29_M_get_insert_hint_unique_posESt23_Rb_tree_const_iteratorIS8_ERS7_+0xfc>
  407c37:	e9 ee 00 00 00       	jmpq   407d2a <_ZNSt8_Rb_treeINSt7__cxx1112basic_stringIcSt11char_traitsIcESaIcEEESt4pairIKS5_S5_ESt10_Select1stIS8_ESt4lessIS5_ESaIS8_EE29_M_get_insert_hint_unique_posESt23_Rb_tree_const_iteratorIS8_ERS7_+0x1ea>
  407c3c:	48 8b 45 d0          	mov    -0x30(%rbp),%rax
  407c40:	48 89 45 c0          	mov    %rax,-0x40(%rbp)
  407c44:	48 8b 45 d0          	mov    -0x30(%rbp),%rax
  407c48:	48 8b 7d 90          	mov    -0x70(%rbp),%rdi
  407c4c:	48 89 85 78 ff ff ff 	mov    %rax,-0x88(%rbp)
  407c53:	e8 68 0b 00 00       	callq  4087c0 <_ZNSt8_Rb_treeINSt7__cxx1112basic_stringIcSt11char_traitsIcESaIcEEESt4pairIKS5_S5_ESt10_Select1stIS8_ESt4lessIS5_ESaIS8_EE11_M_leftmostEv>
  407c58:	48 8b bd 78 ff ff ff 	mov    -0x88(%rbp),%rdi
  407c5f:	48 3b 38             	cmp    (%rax),%rdi
  407c62:	0f 85 31 00 00 00    	jne    407c99 <_ZNSt8_Rb_treeINSt7__cxx1112basic_stringIcSt11char_traitsIcESaIcEEESt4pairIKS5_S5_ESt10_Select1stIS8_ESt4lessIS5_ESaIS8_EE29_M_get_insert_hint_unique_posESt23_Rb_tree_const_iteratorIS8_ERS7_+0x159>
  407c68:	48 8b 7d 90          	mov    -0x70(%rbp),%rdi
  407c6c:	e8 4f 0b 00 00       	callq  4087c0 <_ZNSt8_Rb_treeINSt7__cxx1112basic_stringIcSt11char_traitsIcESaIcEEESt4pairIKS5_S5_ESt10_Select1stIS8_ESt4lessIS5_ESaIS8_EE11_M_leftmostEv>
  407c71:	48 8b 7d 90          	mov    -0x70(%rbp),%rdi
  407c75:	48 89 85 70 ff ff ff 	mov    %rax,-0x90(%rbp)
  407c7c:	e8 3f 0b 00 00       	callq  4087c0 <_ZNSt8_Rb_treeINSt7__cxx1112basic_stringIcSt11char_traitsIcESaIcEEESt4pairIKS5_S5_ESt10_Select1stIS8_ESt4lessIS5_ESaIS8_EE11_M_leftmostEv>
  407c81:	48 8d 7d f0          	lea    -0x10(%rbp),%rdi
  407c85:	48 8b b5 70 ff ff ff 	mov    -0x90(%rbp),%rsi
  407c8c:	48 89 c2             	mov    %rax,%rdx
  407c8f:	e8 4c 0b 00 00       	callq  4087e0 <_ZNSt4pairIPSt18_Rb_tree_node_baseS1_EC2IRS1_S4_vEEOT_OT0_>
  407c94:	e9 c1 01 00 00       	jmpq   407e5a <_ZNSt8_Rb_treeINSt7__cxx1112basic_stringIcSt11char_traitsIcESaIcEEESt4pairIKS5_S5_ESt10_Select1stIS8_ESt4lessIS5_ESaIS8_EE29_M_get_insert_hint_unique_posESt23_Rb_tree_const_iteratorIS8_ERS7_+0x31a>
  407c99:	48 8d 7d c0          	lea    -0x40(%rbp),%rdi
  407c9d:	e8 8e 0b 00 00       	callq  408830 <_ZNSt17_Rb_tree_iteratorISt4pairIKNSt7__cxx1112basic_stringIcSt11char_traitsIcESaIcEEES6_EEmmEv>
  407ca2:	48 8b 38             	mov    (%rax),%rdi
  407ca5:	e8 06 09 00 00       	callq  4085b0 <_ZNSt8_Rb_treeINSt7__cxx1112basic_stringIcSt11char_traitsIcESaIcEEESt4pairIKS5_S5_ESt10_Select1stIS8_ESt4lessIS5_ESaIS8_EE6_S_keyEPKSt18_Rb_tree_node_base>
  407caa:	48 8b 55 d8          	mov    -0x28(%rbp),%rdx
  407cae:	48 8b 7d 90          	mov    -0x70(%rbp),%rdi
  407cb2:	48 89 c6             	mov    %rax,%rsi
  407cb5:	e8 26 f9 ff ff       	callq  4075e0 <_ZNKSt4lessINSt7__cxx1112basic_stringIcSt11char_traitsIcESaIcEEEEclERKS5_S8_>
  407cba:	a8 01                	test   $0x1,%al
  407cbc:	0f 85 05 00 00 00    	jne    407cc7 <_ZNSt8_Rb_treeINSt7__cxx1112basic_stringIcSt11char_traitsIcESaIcEEESt4pairIKS5_S5_ESt10_Select1stIS8_ESt4lessIS5_ESaIS8_EE29_M_get_insert_hint_unique_posESt23_Rb_tree_const_iteratorIS8_ERS7_+0x187>
  407cc2:	e9 49 00 00 00       	jmpq   407d10 <_ZNSt8_Rb_treeINSt7__cxx1112basic_stringIcSt11char_traitsIcESaIcEEESt4pairIKS5_S5_ESt10_Select1stIS8_ESt4lessIS5_ESaIS8_EE29_M_get_insert_hint_unique_posESt23_Rb_tree_const_iteratorIS8_ERS7_+0x1d0>
  407cc7:	48 8b 7d c0          	mov    -0x40(%rbp),%rdi
  407ccb:	e8 a0 fc ff ff       	callq  407970 <_ZNSt8_Rb_treeINSt7__cxx1112basic_stringIcSt11char_traitsIcESaIcEEESt4pairIKS5_S5_ESt10_Select1stIS8_ESt4lessIS5_ESaIS8_EE8_S_rightEPSt18_Rb_tree_node_base>
  407cd0:	48 83 f8 00          	cmp    $0x0,%rax
  407cd4:	0f 85 1e 00 00 00    	jne    407cf8 <_ZNSt8_Rb_treeINSt7__cxx1112basic_stringIcSt11char_traitsIcESaIcEEESt4pairIKS5_S5_ESt10_Select1stIS8_ESt4lessIS5_ESaIS8_EE29_M_get_insert_hint_unique_posESt23_Rb_tree_const_iteratorIS8_ERS7_+0x1b8>
  407cda:	48 8d 7d f0          	lea    -0x10(%rbp),%rdi
  407cde:	48 8d 75 b8          	lea    -0x48(%rbp),%rsi
  407ce2:	48 8d 55 c0          	lea    -0x40(%rbp),%rdx
  407ce6:	48 c7 45 b8 00 00 00 	movq   $0x0,-0x48(%rbp)
  407ced:	00 
  407cee:	e8 0d 09 00 00       	callq  408600 <_ZNSt4pairIPSt18_Rb_tree_node_baseS1_EC2IRS1_vEERKS1_OT_>
  407cf3:	e9 62 01 00 00       	jmpq   407e5a <_ZNSt8_Rb_treeINSt7__cxx1112basic_stringIcSt11char_traitsIcESaIcEEESt4pairIKS5_S5_ESt10_Select1stIS8_ESt4lessIS5_ESaIS8_EE29_M_get_insert_hint_unique_posESt23_Rb_tree_const_iteratorIS8_ERS7_+0x31a>
  407cf8:	48 8d 7d f0          	lea    -0x10(%rbp),%rdi
  407cfc:	48 8d 45 d0          	lea    -0x30(%rbp),%rax
  407d00:	48 89 c6             	mov    %rax,%rsi
  407d03:	48 89 c2             	mov    %rax,%rdx
  407d06:	e8 d5 0a 00 00       	callq  4087e0 <_ZNSt4pairIPSt18_Rb_tree_node_baseS1_EC2IRS1_S4_vEEOT_OT0_>
  407d0b:	e9 4a 01 00 00       	jmpq   407e5a <_ZNSt8_Rb_treeINSt7__cxx1112basic_stringIcSt11char_traitsIcESaIcEEESt4pairIKS5_S5_ESt10_Select1stIS8_ESt4lessIS5_ESaIS8_EE29_M_get_insert_hint_unique_posESt23_Rb_tree_const_iteratorIS8_ERS7_+0x31a>
  407d10:	48 8b 75 d8          	mov    -0x28(%rbp),%rsi
  407d14:	48 8b 7d 90          	mov    -0x70(%rbp),%rdi
  407d18:	e8 23 09 00 00       	callq  408640 <_ZNSt8_Rb_treeINSt7__cxx1112basic_stringIcSt11char_traitsIcESaIcEEESt4pairIKS5_S5_ESt10_Select1stIS8_ESt4lessIS5_ESaIS8_EE24_M_get_insert_unique_posERS7_>
  407d1d:	48 89 45 f0          	mov    %rax,-0x10(%rbp)
  407d21:	48 89 55 f8          	mov    %rdx,-0x8(%rbp)
  407d25:	e9 30 01 00 00       	jmpq   407e5a <_ZNSt8_Rb_treeINSt7__cxx1112basic_stringIcSt11char_traitsIcESaIcEEESt4pairIKS5_S5_ESt10_Select1stIS8_ESt4lessIS5_ESaIS8_EE29_M_get_insert_hint_unique_posESt23_Rb_tree_const_iteratorIS8_ERS7_+0x31a>
  407d2a:	48 8b 7d d0          	mov    -0x30(%rbp),%rdi
  407d2e:	e8 7d 08 00 00       	callq  4085b0 <_ZNSt8_Rb_treeINSt7__cxx1112basic_stringIcSt11char_traitsIcESaIcEEESt4pairIKS5_S5_ESt10_Select1stIS8_ESt4lessIS5_ESaIS8_EE6_S_keyEPKSt18_Rb_tree_node_base>
  407d33:	48 8b 55 d8          	mov    -0x28(%rbp),%rdx
  407d37:	48 8b 7d 90          	mov    -0x70(%rbp),%rdi
  407d3b:	48 89 c6             	mov    %rax,%rsi
  407d3e:	e8 9d f8 ff ff       	callq  4075e0 <_ZNKSt4lessINSt7__cxx1112basic_stringIcSt11char_traitsIcESaIcEEEEclERKS5_S8_>
  407d43:	a8 01                	test   $0x1,%al
  407d45:	0f 85 05 00 00 00    	jne    407d50 <_ZNSt8_Rb_treeINSt7__cxx1112basic_stringIcSt11char_traitsIcESaIcEEESt4pairIKS5_S5_ESt10_Select1stIS8_ESt4lessIS5_ESaIS8_EE29_M_get_insert_hint_unique_posESt23_Rb_tree_const_iteratorIS8_ERS7_+0x210>
  407d4b:	e9 f1 00 00 00       	jmpq   407e41 <_ZNSt8_Rb_treeINSt7__cxx1112basic_stringIcSt11char_traitsIcESaIcEEESt4pairIKS5_S5_ESt10_Select1stIS8_ESt4lessIS5_ESaIS8_EE29_M_get_insert_hint_unique_posESt23_Rb_tree_const_iteratorIS8_ERS7_+0x301>
  407d50:	48 8b 45 d0          	mov    -0x30(%rbp),%rax
  407d54:	48 89 45 b0          	mov    %rax,-0x50(%rbp)
  407d58:	48 8b 45 d0          	mov    -0x30(%rbp),%rax
  407d5c:	48 8b 7d 90          	mov    -0x70(%rbp),%rdi
  407d60:	48 89 85 68 ff ff ff 	mov    %rax,-0x98(%rbp)
  407d67:	e8 74 08 00 00       	callq  4085e0 <_ZNSt8_Rb_treeINSt7__cxx1112basic_stringIcSt11char_traitsIcESaIcEEESt4pairIKS5_S5_ESt10_Select1stIS8_ESt4lessIS5_ESaIS8_EE12_M_rightmostEv>
  407d6c:	48 8b bd 68 ff ff ff 	mov    -0x98(%rbp),%rdi
  407d73:	48 3b 38             	cmp    (%rax),%rdi
  407d76:	0f 85 26 00 00 00    	jne    407da2 <_ZNSt8_Rb_treeINSt7__cxx1112basic_stringIcSt11char_traitsIcESaIcEEESt4pairIKS5_S5_ESt10_Select1stIS8_ESt4lessIS5_ESaIS8_EE29_M_get_insert_hint_unique_posESt23_Rb_tree_const_iteratorIS8_ERS7_+0x262>
  407d7c:	48 c7 45 a8 00 00 00 	movq   $0x0,-0x58(%rbp)
  407d83:	00 
  407d84:	48 8b 7d 90          	mov    -0x70(%rbp),%rdi
  407d88:	e8 53 08 00 00       	callq  4085e0 <_ZNSt8_Rb_treeINSt7__cxx1112basic_stringIcSt11char_traitsIcESaIcEEESt4pairIKS5_S5_ESt10_Select1stIS8_ESt4lessIS5_ESaIS8_EE12_M_rightmostEv>
  407d8d:	48 8d 7d f0          	lea    -0x10(%rbp),%rdi
  407d91:	48 8d 75 a8          	lea    -0x58(%rbp),%rsi
  407d95:	48 89 c2             	mov    %rax,%rdx
  407d98:	e8 63 08 00 00       	callq  408600 <_ZNSt4pairIPSt18_Rb_tree_node_baseS1_EC2IRS1_vEERKS1_OT_>
  407d9d:	e9 b8 00 00 00       	jmpq   407e5a <_ZNSt8_Rb_treeINSt7__cxx1112basic_stringIcSt11char_traitsIcESaIcEEESt4pairIKS5_S5_ESt10_Select1stIS8_ESt4lessIS5_ESaIS8_EE29_M_get_insert_hint_unique_posESt23_Rb_tree_const_iteratorIS8_ERS7_+0x31a>
  407da2:	48 8d 7d b0          	lea    -0x50(%rbp),%rdi
  407da6:	48 8b 75 d8          	mov    -0x28(%rbp),%rsi
  407daa:	48 89 b5 60 ff ff ff 	mov    %rsi,-0xa0(%rbp)
  407db1:	e8 6a eb ff ff       	callq  406920 <_ZNSt17_Rb_tree_iteratorISt4pairIKNSt7__cxx1112basic_stringIcSt11char_traitsIcESaIcEEES6_EEppEv>
  407db6:	48 8b 38             	mov    (%rax),%rdi
  407db9:	e8 f2 07 00 00       	callq  4085b0 <_ZNSt8_Rb_treeINSt7__cxx1112basic_stringIcSt11char_traitsIcESaIcEEESt4pairIKS5_S5_ESt10_Select1stIS8_ESt4lessIS5_ESaIS8_EE6_S_keyEPKSt18_Rb_tree_node_base>
  407dbe:	48 8b 7d 90          	mov    -0x70(%rbp),%rdi
  407dc2:	48 8b b5 60 ff ff ff 	mov    -0xa0(%rbp),%rsi
  407dc9:	48 89 c2             	mov    %rax,%rdx
  407dcc:	e8 0f f8 ff ff       	callq  4075e0 <_ZNKSt4lessINSt7__cxx1112basic_stringIcSt11char_traitsIcESaIcEEEEclERKS5_S8_>
  407dd1:	a8 01                	test   $0x1,%al
  407dd3:	0f 85 05 00 00 00    	jne    407dde <_ZNSt8_Rb_treeINSt7__cxx1112basic_stringIcSt11char_traitsIcESaIcEEESt4pairIKS5_S5_ESt10_Select1stIS8_ESt4lessIS5_ESaIS8_EE29_M_get_insert_hint_unique_posESt23_Rb_tree_const_iteratorIS8_ERS7_+0x29e>
  407dd9:	e9 49 00 00 00       	jmpq   407e27 <_ZNSt8_Rb_treeINSt7__cxx1112basic_stringIcSt11char_traitsIcESaIcEEESt4pairIKS5_S5_ESt10_Select1stIS8_ESt4lessIS5_ESaIS8_EE29_M_get_insert_hint_unique_posESt23_Rb_tree_const_iteratorIS8_ERS7_+0x2e7>
  407dde:	48 8b 7d d0          	mov    -0x30(%rbp),%rdi
  407de2:	e8 89 fb ff ff       	callq  407970 <_ZNSt8_Rb_treeINSt7__cxx1112basic_stringIcSt11char_traitsIcESaIcEEESt4pairIKS5_S5_ESt10_Select1stIS8_ESt4lessIS5_ESaIS8_EE8_S_rightEPSt18_Rb_tree_node_base>
  407de7:	48 83 f8 00          	cmp    $0x0,%rax
  407deb:	0f 85 1e 00 00 00    	jne    407e0f <_ZNSt8_Rb_treeINSt7__cxx1112basic_stringIcSt11char_traitsIcESaIcEEESt4pairIKS5_S5_ESt10_Select1stIS8_ESt4lessIS5_ESaIS8_EE29_M_get_insert_hint_unique_posESt23_Rb_tree_const_iteratorIS8_ERS7_+0x2cf>
  407df1:	48 8d 7d f0          	lea    -0x10(%rbp),%rdi
  407df5:	48 8d 75 a0          	lea    -0x60(%rbp),%rsi
  407df9:	48 8d 55 d0          	lea    -0x30(%rbp),%rdx
  407dfd:	48 c7 45 a0 00 00 00 	movq   $0x0,-0x60(%rbp)
  407e04:	00 
  407e05:	e8 f6 07 00 00       	callq  408600 <_ZNSt4pairIPSt18_Rb_tree_node_baseS1_EC2IRS1_vEERKS1_OT_>
  407e0a:	e9 4b 00 00 00       	jmpq   407e5a <_ZNSt8_Rb_treeINSt7__cxx1112basic_stringIcSt11char_traitsIcESaIcEEESt4pairIKS5_S5_ESt10_Select1stIS8_ESt4lessIS5_ESaIS8_EE29_M_get_insert_hint_unique_posESt23_Rb_tree_const_iteratorIS8_ERS7_+0x31a>
  407e0f:	48 8d 7d f0          	lea    -0x10(%rbp),%rdi
  407e13:	48 8d 45 b0          	lea    -0x50(%rbp),%rax
  407e17:	48 89 c6             	mov    %rax,%rsi
  407e1a:	48 89 c2             	mov    %rax,%rdx
  407e1d:	e8 be 09 00 00       	callq  4087e0 <_ZNSt4pairIPSt18_Rb_tree_node_baseS1_EC2IRS1_S4_vEEOT_OT0_>
  407e22:	e9 33 00 00 00       	jmpq   407e5a <_ZNSt8_Rb_treeINSt7__cxx1112basic_stringIcSt11char_traitsIcESaIcEEESt4pairIKS5_S5_ESt10_Select1stIS8_ESt4lessIS5_ESaIS8_EE29_M_get_insert_hint_unique_posESt23_Rb_tree_const_iteratorIS8_ERS7_+0x31a>
  407e27:	48 8b 75 d8          	mov    -0x28(%rbp),%rsi
  407e2b:	48 8b 7d 90          	mov    -0x70(%rbp),%rdi
  407e2f:	e8 0c 08 00 00       	callq  408640 <_ZNSt8_Rb_treeINSt7__cxx1112basic_stringIcSt11char_traitsIcESaIcEEESt4pairIKS5_S5_ESt10_Select1stIS8_ESt4lessIS5_ESaIS8_EE24_M_get_insert_unique_posERS7_>
  407e34:	48 89 45 f0          	mov    %rax,-0x10(%rbp)
  407e38:	48 89 55 f8          	mov    %rdx,-0x8(%rbp)
  407e3c:	e9 19 00 00 00       	jmpq   407e5a <_ZNSt8_Rb_treeINSt7__cxx1112basic_stringIcSt11char_traitsIcESaIcEEESt4pairIKS5_S5_ESt10_Select1stIS8_ESt4lessIS5_ESaIS8_EE29_M_get_insert_hint_unique_posESt23_Rb_tree_const_iteratorIS8_ERS7_+0x31a>
  407e41:	48 8d 7d f0          	lea    -0x10(%rbp),%rdi
  407e45:	48 8d 55 98          	lea    -0x68(%rbp),%rdx
  407e49:	48 8d 75 d0          	lea    -0x30(%rbp),%rsi
  407e4d:	48 c7 45 98 00 00 00 	movq   $0x0,-0x68(%rbp)
  407e54:	00 
  407e55:	e8 06 0a 00 00       	callq  408860 <_ZNSt4pairIPSt18_Rb_tree_node_baseS1_EC2IRS1_vEEOT_RKS1_>
  407e5a:	48 8b 45 f0          	mov    -0x10(%rbp),%rax
  407e5e:	48 8b 55 f8          	mov    -0x8(%rbp),%rdx
  407e62:	48 81 c4 a0 00 00 00 	add    $0xa0,%rsp
  407e69:	5d                   	pop    %rbp
  407e6a:	c3                   	retq   
  407e6b:	0f 1f 44 00 00       	nopl   0x0(%rax,%rax,1)

0000000000407e70 <_ZNSt8_Rb_treeINSt7__cxx1112basic_stringIcSt11char_traitsIcESaIcEEESt4pairIKS5_S5_ESt10_Select1stIS8_ESt4lessIS5_ESaIS8_EE14_M_insert_nodeEPSt18_Rb_tree_node_baseSG_PSt13_Rb_tree_nodeIS8_E>:
  407e70:	55                   	push   %rbp
  407e71:	48 89 e5             	mov    %rsp,%rbp
  407e74:	48 83 ec 60          	sub    $0x60,%rsp
  407e78:	b0 01                	mov    $0x1,%al
  407e7a:	48 89 7d f0          	mov    %rdi,-0x10(%rbp)
  407e7e:	48 89 75 e8          	mov    %rsi,-0x18(%rbp)
  407e82:	48 89 55 e0          	mov    %rdx,-0x20(%rbp)
  407e86:	48 89 4d d8          	mov    %rcx,-0x28(%rbp)
  407e8a:	48 8b 4d f0          	mov    -0x10(%rbp),%rcx
  407e8e:	48 83 7d e8 00       	cmpq   $0x0,-0x18(%rbp)
  407e93:	48 89 4d c8          	mov    %rcx,-0x38(%rbp)
  407e97:	88 45 c7             	mov    %al,-0x39(%rbp)
  407e9a:	0f 85 4c 00 00 00    	jne    407eec <_ZNSt8_Rb_treeINSt7__cxx1112basic_stringIcSt11char_traitsIcESaIcEEESt4pairIKS5_S5_ESt10_Select1stIS8_ESt4lessIS5_ESaIS8_EE14_M_insert_nodeEPSt18_Rb_tree_node_baseSG_PSt13_Rb_tree_nodeIS8_E+0x7c>
  407ea0:	48 8b 45 e0          	mov    -0x20(%rbp),%rax
  407ea4:	48 8b 7d c8          	mov    -0x38(%rbp),%rdi
  407ea8:	48 89 45 b8          	mov    %rax,-0x48(%rbp)
  407eac:	e8 4f fa ff ff       	callq  407900 <_ZNSt8_Rb_treeINSt7__cxx1112basic_stringIcSt11char_traitsIcESaIcEEESt4pairIKS5_S5_ESt10_Select1stIS8_ESt4lessIS5_ESaIS8_EE6_M_endEv>
  407eb1:	b1 01                	mov    $0x1,%cl
  407eb3:	48 8b 7d b8          	mov    -0x48(%rbp),%rdi
  407eb7:	48 39 c7             	cmp    %rax,%rdi
  407eba:	88 4d c7             	mov    %cl,-0x39(%rbp)
  407ebd:	0f 84 29 00 00 00    	je     407eec <_ZNSt8_Rb_treeINSt7__cxx1112basic_stringIcSt11char_traitsIcESaIcEEESt4pairIKS5_S5_ESt10_Select1stIS8_ESt4lessIS5_ESaIS8_EE14_M_insert_nodeEPSt18_Rb_tree_node_baseSG_PSt13_Rb_tree_nodeIS8_E+0x7c>
  407ec3:	48 8b 7d d8          	mov    -0x28(%rbp),%rdi
  407ec7:	e8 54 fa ff ff       	callq  407920 <_ZNSt8_Rb_treeINSt7__cxx1112basic_stringIcSt11char_traitsIcESaIcEEESt4pairIKS5_S5_ESt10_Select1stIS8_ESt4lessIS5_ESaIS8_EE6_S_keyEPKSt13_Rb_tree_nodeIS8_E>
  407ecc:	48 8b 7d e0          	mov    -0x20(%rbp),%rdi
  407ed0:	48 89 45 b0          	mov    %rax,-0x50(%rbp)
  407ed4:	e8 d7 06 00 00       	callq  4085b0 <_ZNSt8_Rb_treeINSt7__cxx1112basic_stringIcSt11char_traitsIcESaIcEEESt4pairIKS5_S5_ESt10_Select1stIS8_ESt4lessIS5_ESaIS8_EE6_S_keyEPKSt18_Rb_tree_node_base>
  407ed9:	48 8b 7d c8          	mov    -0x38(%rbp),%rdi
  407edd:	48 8b 75 b0          	mov    -0x50(%rbp),%rsi
  407ee1:	48 89 c2             	mov    %rax,%rdx
  407ee4:	e8 f7 f6 ff ff       	callq  4075e0 <_ZNKSt4lessINSt7__cxx1112basic_stringIcSt11char_traitsIcESaIcEEEEclERKS5_S8_>
  407ee9:	88 45 c7             	mov    %al,-0x39(%rbp)
  407eec:	8a 45 c7             	mov    -0x39(%rbp),%al
  407eef:	24 01                	and    $0x1,%al
  407ef1:	88 45 d7             	mov    %al,-0x29(%rbp)
  407ef4:	8a 45 d7             	mov    -0x29(%rbp),%al
  407ef7:	48 8b 4d d8          	mov    -0x28(%rbp),%rcx
  407efb:	48 8b 55 e0          	mov    -0x20(%rbp),%rdx
  407eff:	48 8b 75 c8          	mov    -0x38(%rbp),%rsi
  407f03:	48 83 c6 08          	add    $0x8,%rsi
  407f07:	24 01                	and    $0x1,%al
  407f09:	0f b6 f8             	movzbl %al,%edi
  407f0c:	48 89 75 a8          	mov    %rsi,-0x58(%rbp)
  407f10:	48 89 ce             	mov    %rcx,%rsi
  407f13:	48 8b 4d a8          	mov    -0x58(%rbp),%rcx
  407f17:	e8 b4 ab ff ff       	callq  402ad0 <_ZSt29_Rb_tree_insert_and_rebalancebPSt18_Rb_tree_node_baseS0_RS_@plt>
  407f1c:	48 8d 7d f8          	lea    -0x8(%rbp),%rdi
  407f20:	48 8b 4d c8          	mov    -0x38(%rbp),%rcx
  407f24:	48 8b 51 28          	mov    0x28(%rcx),%rdx
  407f28:	48 83 c2 01          	add    $0x1,%rdx
  407f2c:	48 89 51 28          	mov    %rdx,0x28(%rcx)
  407f30:	48 8b 55 d8          	mov    -0x28(%rbp),%rdx
  407f34:	48 89 d6             	mov    %rdx,%rsi
  407f37:	e8 54 fa ff ff       	callq  407990 <_ZNSt17_Rb_tree_iteratorISt4pairIKNSt7__cxx1112basic_stringIcSt11char_traitsIcESaIcEEES6_EEC2EPSt18_Rb_tree_node_base>
  407f3c:	48 8b 45 f8          	mov    -0x8(%rbp),%rax
  407f40:	48 83 c4 60          	add    $0x60,%rsp
  407f44:	5d                   	pop    %rbp
  407f45:	c3                   	retq   
  407f46:	66 2e 0f 1f 84 00 00 	nopw   %cs:0x0(%rax,%rax,1)
  407f4d:	00 00 00 

0000000000407f50 <_ZNSt8_Rb_treeINSt7__cxx1112basic_stringIcSt11char_traitsIcESaIcEEESt4pairIKS5_S5_ESt10_Select1stIS8_ESt4lessIS5_ESaIS8_EE12_M_drop_nodeEPSt13_Rb_tree_nodeIS8_E>:
  407f50:	55                   	push   %rbp
  407f51:	48 89 e5             	mov    %rsp,%rbp
  407f54:	48 83 ec 20          	sub    $0x20,%rsp
  407f58:	48 89 7d f8          	mov    %rdi,-0x8(%rbp)
  407f5c:	48 89 75 f0          	mov    %rsi,-0x10(%rbp)
  407f60:	48 8b 75 f8          	mov    -0x8(%rbp),%rsi
  407f64:	48 8b 7d f0          	mov    -0x10(%rbp),%rdi
  407f68:	48 89 7d e8          	mov    %rdi,-0x18(%rbp)
  407f6c:	48 89 f7             	mov    %rsi,%rdi
  407f6f:	48 8b 45 e8          	mov    -0x18(%rbp),%rax
  407f73:	48 89 75 e0          	mov    %rsi,-0x20(%rbp)
  407f77:	48 89 c6             	mov    %rax,%rsi
  407f7a:	e8 e1 09 00 00       	callq  408960 <_ZNSt8_Rb_treeINSt7__cxx1112basic_stringIcSt11char_traitsIcESaIcEEESt4pairIKS5_S5_ESt10_Select1stIS8_ESt4lessIS5_ESaIS8_EE15_M_destroy_nodeEPSt13_Rb_tree_nodeIS8_E>
  407f7f:	48 8b 75 f0          	mov    -0x10(%rbp),%rsi
  407f83:	48 8b 7d e0          	mov    -0x20(%rbp),%rdi
  407f87:	e8 94 02 00 00       	callq  408220 <_ZNSt8_Rb_treeINSt7__cxx1112basic_stringIcSt11char_traitsIcESaIcEEESt4pairIKS5_S5_ESt10_Select1stIS8_ESt4lessIS5_ESaIS8_EE11_M_put_nodeEPSt13_Rb_tree_nodeIS8_E>
  407f8c:	48 83 c4 20          	add    $0x20,%rsp
  407f90:	5d                   	pop    %rbp
  407f91:	c3                   	retq   
  407f92:	66 2e 0f 1f 84 00 00 	nopw   %cs:0x0(%rax,%rax,1)
  407f99:	00 00 00 
  407f9c:	0f 1f 40 00          	nopl   0x0(%rax)

0000000000407fa0 <_ZNSt8_Rb_treeINSt7__cxx1112basic_stringIcSt11char_traitsIcESaIcEEESt4pairIKS5_S5_ESt10_Select1stIS8_ESt4lessIS5_ESaIS8_EE11_M_get_nodeEv>:
  407fa0:	55                   	push   %rbp
  407fa1:	48 89 e5             	mov    %rsp,%rbp
  407fa4:	48 83 ec 10          	sub    $0x10,%rsp
  407fa8:	48 89 7d f8          	mov    %rdi,-0x8(%rbp)
  407fac:	48 8b 7d f8          	mov    -0x8(%rbp),%rdi
  407fb0:	e8 4b 01 00 00       	callq  408100 <_ZNSt8_Rb_treeINSt7__cxx1112basic_stringIcSt11char_traitsIcESaIcEEESt4pairIKS5_S5_ESt10_Select1stIS8_ESt4lessIS5_ESaIS8_EE21_M_get_Node_allocatorEv>
  407fb5:	b9 01 00 00 00       	mov    $0x1,%ecx
  407fba:	89 ce                	mov    %ecx,%esi
  407fbc:	48 89 c7             	mov    %rax,%rdi
  407fbf:	e8 fc 00 00 00       	callq  4080c0 <_ZNSt16allocator_traitsISaISt13_Rb_tree_nodeISt4pairIKNSt7__cxx1112basic_stringIcSt11char_traitsIcESaIcEEES7_EEEE8allocateERSB_m>
  407fc4:	48 83 c4 10          	add    $0x10,%rsp
  407fc8:	5d                   	pop    %rbp
  407fc9:	c3                   	retq   
  407fca:	66 0f 1f 44 00 00    	nopw   0x0(%rax,%rax,1)

0000000000407fd0 <_ZNSt8_Rb_treeINSt7__cxx1112basic_stringIcSt11char_traitsIcESaIcEEESt4pairIKS5_S5_ESt10_Select1stIS8_ESt4lessIS5_ESaIS8_EE17_M_construct_nodeIJRKSt21piecewise_construct_tSt5tupleIJOS5_EESJ_IJEEEEEvPSt13_Rb_tree_nodeIS8_EDpOT_>:
  407fd0:	55                   	push   %rbp
  407fd1:	48 89 e5             	mov    %rsp,%rbp
  407fd4:	48 83 ec 70          	sub    $0x70,%rsp
  407fd8:	48 89 7d f8          	mov    %rdi,-0x8(%rbp)
  407fdc:	48 89 75 f0          	mov    %rsi,-0x10(%rbp)
  407fe0:	48 89 55 e8          	mov    %rdx,-0x18(%rbp)
  407fe4:	48 89 4d e0          	mov    %rcx,-0x20(%rbp)
  407fe8:	4c 89 45 d8          	mov    %r8,-0x28(%rbp)
  407fec:	48 8b 4d f8          	mov    -0x8(%rbp),%rcx
  407ff0:	48 89 cf             	mov    %rcx,%rdi
  407ff3:	48 89 4d c0          	mov    %rcx,-0x40(%rbp)
  407ff7:	e8 04 01 00 00       	callq  408100 <_ZNSt8_Rb_treeINSt7__cxx1112basic_stringIcSt11char_traitsIcESaIcEEESt4pairIKS5_S5_ESt10_Select1stIS8_ESt4lessIS5_ESaIS8_EE21_M_get_Node_allocatorEv>
  407ffc:	48 8b 7d f0          	mov    -0x10(%rbp),%rdi
  408000:	48 89 45 b8          	mov    %rax,-0x48(%rbp)
  408004:	e8 f7 01 00 00       	callq  408200 <_ZNSt13_Rb_tree_nodeISt4pairIKNSt7__cxx1112basic_stringIcSt11char_traitsIcESaIcEEES6_EE9_M_valptrEv>
  408009:	48 89 45 b0          	mov    %rax,-0x50(%rbp)
  40800d:	e9 00 00 00 00       	jmpq   408012 <_ZNSt8_Rb_treeINSt7__cxx1112basic_stringIcSt11char_traitsIcESaIcEEESt4pairIKS5_S5_ESt10_Select1stIS8_ESt4lessIS5_ESaIS8_EE17_M_construct_nodeIJRKSt21piecewise_construct_tSt5tupleIJOS5_EESJ_IJEEEEEvPSt13_Rb_tree_nodeIS8_EDpOT_+0x42>
  408012:	48 8b 7d e8          	mov    -0x18(%rbp),%rdi
  408016:	e8 f5 fa ff ff       	callq  407b10 <_ZSt7forwardIRKSt21piecewise_construct_tEOT_RNSt16remove_referenceIS3_E4typeE>
  40801b:	48 8b 7d e0          	mov    -0x20(%rbp),%rdi
  40801f:	48 89 45 a8          	mov    %rax,-0x58(%rbp)
  408023:	e8 f8 fa ff ff       	callq  407b20 <_ZSt7forwardISt5tupleIJONSt7__cxx1112basic_stringIcSt11char_traitsIcESaIcEEEEEEOT_RNSt16remove_referenceIS9_E4typeE>
  408028:	48 8b 7d d8          	mov    -0x28(%rbp),%rdi
  40802c:	48 89 45 a0          	mov    %rax,-0x60(%rbp)
  408030:	e8 fb fa ff ff       	callq  407b30 <_ZSt7forwardISt5tupleIJEEEOT_RNSt16remove_referenceIS2_E4typeE>
  408035:	48 8b 7d b8          	mov    -0x48(%rbp),%rdi
  408039:	48 8b 75 b0          	mov    -0x50(%rbp),%rsi
  40803d:	48 8b 55 a8          	mov    -0x58(%rbp),%rdx
  408041:	48 8b 4d a0          	mov    -0x60(%rbp),%rcx
  408045:	49 89 c0             	mov    %rax,%r8
  408048:	e8 43 01 00 00       	callq  408190 <_ZNSt16allocator_traitsISaISt13_Rb_tree_nodeISt4pairIKNSt7__cxx1112basic_stringIcSt11char_traitsIcESaIcEEES7_EEEE9constructIS9_JRKSt21piecewise_construct_tSt5tupleIJOS7_EESH_IJEEEEEvRSB_PT_DpOT0_>
  40804d:	e9 00 00 00 00       	jmpq   408052 <_ZNSt8_Rb_treeINSt7__cxx1112basic_stringIcSt11char_traitsIcESaIcEEESt4pairIKS5_S5_ESt10_Select1stIS8_ESt4lessIS5_ESaIS8_EE17_M_construct_nodeIJRKSt21piecewise_construct_tSt5tupleIJOS5_EESJ_IJEEEEEvPSt13_Rb_tree_nodeIS8_EDpOT_+0x82>
  408052:	e9 45 00 00 00       	jmpq   40809c <_ZNSt8_Rb_treeINSt7__cxx1112basic_stringIcSt11char_traitsIcESaIcEEESt4pairIKS5_S5_ESt10_Select1stIS8_ESt4lessIS5_ESaIS8_EE17_M_construct_nodeIJRKSt21piecewise_construct_tSt5tupleIJOS5_EESJ_IJEEEEEvPSt13_Rb_tree_nodeIS8_EDpOT_+0xcc>
  408057:	89 d1                	mov    %edx,%ecx
  408059:	48 89 45 d0          	mov    %rax,-0x30(%rbp)
  40805d:	89 4d cc             	mov    %ecx,-0x34(%rbp)
  408060:	48 8b 7d d0          	mov    -0x30(%rbp),%rdi
  408064:	e8 57 ab ff ff       	callq  402bc0 <__cxa_begin_catch@plt>
  408069:	48 8b 75 f0          	mov    -0x10(%rbp),%rsi
  40806d:	48 8b 7d c0          	mov    -0x40(%rbp),%rdi
  408071:	48 89 45 98          	mov    %rax,-0x68(%rbp)
  408075:	e8 a6 01 00 00       	callq  408220 <_ZNSt8_Rb_treeINSt7__cxx1112basic_stringIcSt11char_traitsIcESaIcEEESt4pairIKS5_S5_ESt10_Select1stIS8_ESt4lessIS5_ESaIS8_EE11_M_put_nodeEPSt13_Rb_tree_nodeIS8_E>
  40807a:	e8 91 ae ff ff       	callq  402f10 <__cxa_rethrow@plt>
  40807f:	e9 34 00 00 00       	jmpq   4080b8 <_ZNSt8_Rb_treeINSt7__cxx1112basic_stringIcSt11char_traitsIcESaIcEEESt4pairIKS5_S5_ESt10_Select1stIS8_ESt4lessIS5_ESaIS8_EE17_M_construct_nodeIJRKSt21piecewise_construct_tSt5tupleIJOS5_EESJ_IJEEEEEvPSt13_Rb_tree_nodeIS8_EDpOT_+0xe8>
  408084:	89 d1                	mov    %edx,%ecx
  408086:	48 89 45 d0          	mov    %rax,-0x30(%rbp)
  40808a:	89 4d cc             	mov    %ecx,-0x34(%rbp)
  40808d:	e8 fe ae ff ff       	callq  402f90 <__cxa_end_catch@plt>
  408092:	e9 00 00 00 00       	jmpq   408097 <_ZNSt8_Rb_treeINSt7__cxx1112basic_stringIcSt11char_traitsIcESaIcEEESt4pairIKS5_S5_ESt10_Select1stIS8_ESt4lessIS5_ESaIS8_EE17_M_construct_nodeIJRKSt21piecewise_construct_tSt5tupleIJOS5_EESJ_IJEEEEEvPSt13_Rb_tree_nodeIS8_EDpOT_+0xc7>
  408097:	e9 06 00 00 00       	jmpq   4080a2 <_ZNSt8_Rb_treeINSt7__cxx1112basic_stringIcSt11char_traitsIcESaIcEEESt4pairIKS5_S5_ESt10_Select1stIS8_ESt4lessIS5_ESaIS8_EE17_M_construct_nodeIJRKSt21piecewise_construct_tSt5tupleIJOS5_EESJ_IJEEEEEvPSt13_Rb_tree_nodeIS8_EDpOT_+0xd2>
  40809c:	48 83 c4 70          	add    $0x70,%rsp
  4080a0:	5d                   	pop    %rbp
  4080a1:	c3                   	retq   
  4080a2:	48 8b 7d d0          	mov    -0x30(%rbp),%rdi
  4080a6:	e8 75 af ff ff       	callq  403020 <_Unwind_Resume@plt>
  4080ab:	89 d1                	mov    %edx,%ecx
  4080ad:	48 89 c7             	mov    %rax,%rdi
  4080b0:	89 4d 94             	mov    %ecx,-0x6c(%rbp)
  4080b3:	e8 08 f4 ff ff       	callq  4074c0 <__clang_call_terminate>
  4080b8:	0f 1f 84 00 00 00 00 	nopl   0x0(%rax,%rax,1)
  4080bf:	00 

00000000004080c0 <_ZNSt16allocator_traitsISaISt13_Rb_tree_nodeISt4pairIKNSt7__cxx1112basic_stringIcSt11char_traitsIcESaIcEEES7_EEEE8allocateERSB_m>:
  4080c0:	55                   	push   %rbp
  4080c1:	48 89 e5             	mov    %rsp,%rbp
  4080c4:	48 83 ec 20          	sub    $0x20,%rsp
  4080c8:	31 c0                	xor    %eax,%eax
  4080ca:	89 c2                	mov    %eax,%edx
  4080cc:	48 89 7d f8          	mov    %rdi,-0x8(%rbp)
  4080d0:	48 89 75 f0          	mov    %rsi,-0x10(%rbp)
  4080d4:	48 8b 75 f8          	mov    -0x8(%rbp),%rsi
  4080d8:	48 8b 7d f0          	mov    -0x10(%rbp),%rdi
  4080dc:	48 89 7d e8          	mov    %rdi,-0x18(%rbp)
  4080e0:	48 89 f7             	mov    %rsi,%rdi
  4080e3:	48 8b 75 e8          	mov    -0x18(%rbp),%rsi
  4080e7:	e8 34 00 00 00       	callq  408120 <_ZN9__gnu_cxx13new_allocatorISt13_Rb_tree_nodeISt4pairIKNSt7__cxx1112basic_stringIcSt11char_traitsIcESaIcEEES8_EEE8allocateEmPKv>
  4080ec:	48 83 c4 20          	add    $0x20,%rsp
  4080f0:	5d                   	pop    %rbp
  4080f1:	c3                   	retq   
  4080f2:	66 2e 0f 1f 84 00 00 	nopw   %cs:0x0(%rax,%rax,1)
  4080f9:	00 00 00 
  4080fc:	0f 1f 40 00          	nopl   0x0(%rax)

0000000000408100 <_ZNSt8_Rb_treeINSt7__cxx1112basic_stringIcSt11char_traitsIcESaIcEEESt4pairIKS5_S5_ESt10_Select1stIS8_ESt4lessIS5_ESaIS8_EE21_M_get_Node_allocatorEv>:
  408100:	55                   	push   %rbp
  408101:	48 89 e5             	mov    %rsp,%rbp
  408104:	48 89 7d f8          	mov    %rdi,-0x8(%rbp)
  408108:	48 8b 7d f8          	mov    -0x8(%rbp),%rdi
  40810c:	48 89 f8             	mov    %rdi,%rax
  40810f:	5d                   	pop    %rbp
  408110:	c3                   	retq   
  408111:	66 2e 0f 1f 84 00 00 	nopw   %cs:0x0(%rax,%rax,1)
  408118:	00 00 00 
  40811b:	0f 1f 44 00 00       	nopl   0x0(%rax,%rax,1)

0000000000408120 <_ZN9__gnu_cxx13new_allocatorISt13_Rb_tree_nodeISt4pairIKNSt7__cxx1112basic_stringIcSt11char_traitsIcESaIcEEES8_EEE8allocateEmPKv>:
  408120:	55                   	push   %rbp
  408121:	48 89 e5             	mov    %rsp,%rbp
  408124:	48 83 ec 20          	sub    $0x20,%rsp
  408128:	48 89 7d f8          	mov    %rdi,-0x8(%rbp)
  40812c:	48 89 75 f0          	mov    %rsi,-0x10(%rbp)
  408130:	48 89 55 e8          	mov    %rdx,-0x18(%rbp)
  408134:	48 8b 7d f8          	mov    -0x8(%rbp),%rdi
  408138:	48 8b 55 f0          	mov    -0x10(%rbp),%rdx
  40813c:	48 89 55 e0          	mov    %rdx,-0x20(%rbp)
  408140:	e8 2b 00 00 00       	callq  408170 <_ZNK9__gnu_cxx13new_allocatorISt13_Rb_tree_nodeISt4pairIKNSt7__cxx1112basic_stringIcSt11char_traitsIcESaIcEEES8_EEE8max_sizeEv>
  408145:	48 8b 55 e0          	mov    -0x20(%rbp),%rdx
  408149:	48 39 c2             	cmp    %rax,%rdx
  40814c:	0f 86 05 00 00 00    	jbe    408157 <_ZN9__gnu_cxx13new_allocatorISt13_Rb_tree_nodeISt4pairIKNSt7__cxx1112basic_stringIcSt11char_traitsIcESaIcEEES8_EEE8allocateEmPKv+0x37>
  408152:	e8 49 aa ff ff       	callq  402ba0 <_ZSt17__throw_bad_allocv@plt>
  408157:	48 6b 7d f0 60       	imul   $0x60,-0x10(%rbp),%rdi
  40815c:	e8 4f ac ff ff       	callq  402db0 <_Znwm@plt>
  408161:	48 83 c4 20          	add    $0x20,%rsp
  408165:	5d                   	pop    %rbp
  408166:	c3                   	retq   
  408167:	66 0f 1f 84 00 00 00 	nopw   0x0(%rax,%rax,1)
  40816e:	00 00 

0000000000408170 <_ZNK9__gnu_cxx13new_allocatorISt13_Rb_tree_nodeISt4pairIKNSt7__cxx1112basic_stringIcSt11char_traitsIcESaIcEEES8_EEE8max_sizeEv>:
  408170:	55                   	push   %rbp
  408171:	48 89 e5             	mov    %rsp,%rbp
  408174:	48 b8 aa aa aa aa aa 	movabs $0x2aaaaaaaaaaaaaa,%rax
  40817b:	aa aa 02 
  40817e:	48 89 7d f8          	mov    %rdi,-0x8(%rbp)
  408182:	5d                   	pop    %rbp
  408183:	c3                   	retq   
  408184:	66 2e 0f 1f 84 00 00 	nopw   %cs:0x0(%rax,%rax,1)
  40818b:	00 00 00 
  40818e:	66 90                	xchg   %ax,%ax

0000000000408190 <_ZNSt16allocator_traitsISaISt13_Rb_tree_nodeISt4pairIKNSt7__cxx1112basic_stringIcSt11char_traitsIcESaIcEEES7_EEEE9constructIS9_JRKSt21piecewise_construct_tSt5tupleIJOS7_EESH_IJEEEEEvRSB_PT_DpOT0_>:
  408190:	55                   	push   %rbp
  408191:	48 89 e5             	mov    %rsp,%rbp
  408194:	48 83 ec 50          	sub    $0x50,%rsp
  408198:	48 89 7d f8          	mov    %rdi,-0x8(%rbp)
  40819c:	48 89 75 f0          	mov    %rsi,-0x10(%rbp)
  4081a0:	48 89 55 e8          	mov    %rdx,-0x18(%rbp)
  4081a4:	48 89 4d e0          	mov    %rcx,-0x20(%rbp)
  4081a8:	4c 89 45 d8          	mov    %r8,-0x28(%rbp)
  4081ac:	48 8b 4d f8          	mov    -0x8(%rbp),%rcx
  4081b0:	48 8b 75 f0          	mov    -0x10(%rbp),%rsi
  4081b4:	48 8b 7d e8          	mov    -0x18(%rbp),%rdi
  4081b8:	48 89 4d d0          	mov    %rcx,-0x30(%rbp)
  4081bc:	48 89 75 c8          	mov    %rsi,-0x38(%rbp)
  4081c0:	e8 4b f9 ff ff       	callq  407b10 <_ZSt7forwardIRKSt21piecewise_construct_tEOT_RNSt16remove_referenceIS3_E4typeE>
  4081c5:	48 8b 7d e0          	mov    -0x20(%rbp),%rdi
  4081c9:	48 89 45 c0          	mov    %rax,-0x40(%rbp)
  4081cd:	e8 4e f9 ff ff       	callq  407b20 <_ZSt7forwardISt5tupleIJONSt7__cxx1112basic_stringIcSt11char_traitsIcESaIcEEEEEEOT_RNSt16remove_referenceIS9_E4typeE>
  4081d2:	48 8b 7d d8          	mov    -0x28(%rbp),%rdi
  4081d6:	48 89 45 b8          	mov    %rax,-0x48(%rbp)
  4081da:	e8 51 f9 ff ff       	callq  407b30 <_ZSt7forwardISt5tupleIJEEEOT_RNSt16remove_referenceIS2_E4typeE>
  4081df:	48 8b 7d d0          	mov    -0x30(%rbp),%rdi
  4081e3:	48 8b 75 c8          	mov    -0x38(%rbp),%rsi
  4081e7:	48 8b 55 c0          	mov    -0x40(%rbp),%rdx
  4081eb:	48 8b 4d b8          	mov    -0x48(%rbp),%rcx
  4081ef:	49 89 c0             	mov    %rax,%r8
  4081f2:	e8 79 00 00 00       	callq  408270 <_ZN9__gnu_cxx13new_allocatorISt13_Rb_tree_nodeISt4pairIKNSt7__cxx1112basic_stringIcSt11char_traitsIcESaIcEEES8_EEE9constructISA_JRKSt21piecewise_construct_tSt5tupleIJOS8_EESH_IJEEEEEvPT_DpOT0_>
  4081f7:	48 83 c4 50          	add    $0x50,%rsp
  4081fb:	5d                   	pop    %rbp
  4081fc:	c3                   	retq   
  4081fd:	0f 1f 00             	nopl   (%rax)

0000000000408200 <_ZNSt13_Rb_tree_nodeISt4pairIKNSt7__cxx1112basic_stringIcSt11char_traitsIcESaIcEEES6_EE9_M_valptrEv>:
  408200:	55                   	push   %rbp
  408201:	48 89 e5             	mov    %rsp,%rbp
  408204:	48 83 ec 10          	sub    $0x10,%rsp
  408208:	48 89 7d f8          	mov    %rdi,-0x8(%rbp)
  40820c:	48 8b 7d f8          	mov    -0x8(%rbp),%rdi
  408210:	48 83 c7 20          	add    $0x20,%rdi
  408214:	e8 97 02 00 00       	callq  4084b0 <_ZN9__gnu_cxx16__aligned_membufISt4pairIKNSt7__cxx1112basic_stringIcSt11char_traitsIcESaIcEEES7_EE6_M_ptrEv>
  408219:	48 83 c4 10          	add    $0x10,%rsp
  40821d:	5d                   	pop    %rbp
  40821e:	c3                   	retq   
  40821f:	90                   	nop

0000000000408220 <_ZNSt8_Rb_treeINSt7__cxx1112basic_stringIcSt11char_traitsIcESaIcEEESt4pairIKS5_S5_ESt10_Select1stIS8_ESt4lessIS5_ESaIS8_EE11_M_put_nodeEPSt13_Rb_tree_nodeIS8_E>:
  408220:	55                   	push   %rbp
  408221:	48 89 e5             	mov    %rsp,%rbp
  408224:	48 83 ec 20          	sub    $0x20,%rsp
  408228:	48 89 7d f8          	mov    %rdi,-0x8(%rbp)
  40822c:	48 89 75 f0          	mov    %rsi,-0x10(%rbp)
  408230:	48 8b 7d f8          	mov    -0x8(%rbp),%rdi
  408234:	e8 c7 fe ff ff       	callq  408100 <_ZNSt8_Rb_treeINSt7__cxx1112basic_stringIcSt11char_traitsIcESaIcEEESt4pairIKS5_S5_ESt10_Select1stIS8_ESt4lessIS5_ESaIS8_EE21_M_get_Node_allocatorEv>
  408239:	48 8b 75 f0          	mov    -0x10(%rbp),%rsi
  40823d:	b9 01 00 00 00       	mov    $0x1,%ecx
  408242:	89 ca                	mov    %ecx,%edx
  408244:	48 89 c7             	mov    %rax,%rdi
  408247:	e8 a4 02 00 00       	callq  4084f0 <_ZNSt16allocator_traitsISaISt13_Rb_tree_nodeISt4pairIKNSt7__cxx1112basic_stringIcSt11char_traitsIcESaIcEEES7_EEEE10deallocateERSB_PSA_m>
  40824c:	e9 00 00 00 00       	jmpq   408251 <_ZNSt8_Rb_treeINSt7__cxx1112basic_stringIcSt11char_traitsIcESaIcEEESt4pairIKS5_S5_ESt10_Select1stIS8_ESt4lessIS5_ESaIS8_EE11_M_put_nodeEPSt13_Rb_tree_nodeIS8_E+0x31>
  408251:	48 83 c4 20          	add    $0x20,%rsp
  408255:	5d                   	pop    %rbp
  408256:	c3                   	retq   
  408257:	89 d1                	mov    %edx,%ecx
  408259:	48 89 c7             	mov    %rax,%rdi
  40825c:	89 4d ec             	mov    %ecx,-0x14(%rbp)
  40825f:	e8 5c f2 ff ff       	callq  4074c0 <__clang_call_terminate>
  408264:	66 2e 0f 1f 84 00 00 	nopw   %cs:0x0(%rax,%rax,1)
  40826b:	00 00 00 
  40826e:	66 90                	xchg   %ax,%ax

0000000000408270 <_ZN9__gnu_cxx13new_allocatorISt13_Rb_tree_nodeISt4pairIKNSt7__cxx1112basic_stringIcSt11char_traitsIcESaIcEEES8_EEE9constructISA_JRKSt21piecewise_construct_tSt5tupleIJOS8_EESH_IJEEEEEvPT_DpOT0_>:
  408270:	55                   	push   %rbp
  408271:	48 89 e5             	mov    %rsp,%rbp
  408274:	48 83 ec 60          	sub    $0x60,%rsp
  408278:	48 89 7d f8          	mov    %rdi,-0x8(%rbp)
  40827c:	48 89 75 f0          	mov    %rsi,-0x10(%rbp)
  408280:	48 89 55 e8          	mov    %rdx,-0x18(%rbp)
  408284:	48 89 4d e0          	mov    %rcx,-0x20(%rbp)
  408288:	4c 89 45 d8          	mov    %r8,-0x28(%rbp)
  40828c:	48 8b 4d f0          	mov    -0x10(%rbp),%rcx
  408290:	48 8b 7d e8          	mov    -0x18(%rbp),%rdi
  408294:	48 89 4d b8          	mov    %rcx,-0x48(%rbp)
  408298:	e8 73 f8 ff ff       	callq  407b10 <_ZSt7forwardIRKSt21piecewise_construct_tEOT_RNSt16remove_referenceIS3_E4typeE>
  40829d:	48 8b 7d e0          	mov    -0x20(%rbp),%rdi
  4082a1:	48 89 45 b0          	mov    %rax,-0x50(%rbp)
  4082a5:	e8 76 f8 ff ff       	callq  407b20 <_ZSt7forwardISt5tupleIJONSt7__cxx1112basic_stringIcSt11char_traitsIcESaIcEEEEEEOT_RNSt16remove_referenceIS9_E4typeE>
  4082aa:	48 8d 7d c8          	lea    -0x38(%rbp),%rdi
  4082ae:	48 89 c6             	mov    %rax,%rsi
  4082b1:	e8 2a 00 00 00       	callq  4082e0 <_ZNSt5tupleIJONSt7__cxx1112basic_stringIcSt11char_traitsIcESaIcEEEEEC2EOS7_>
  4082b6:	48 8b 7d d8          	mov    -0x28(%rbp),%rdi
  4082ba:	e8 71 f8 ff ff       	callq  407b30 <_ZSt7forwardISt5tupleIJEEEOT_RNSt16remove_referenceIS2_E4typeE>
  4082bf:	48 8b 75 c8          	mov    -0x38(%rbp),%rsi
  4082c3:	48 8b 7d b8          	mov    -0x48(%rbp),%rdi
  4082c7:	48 89 45 a8          	mov    %rax,-0x58(%rbp)
  4082cb:	e8 40 00 00 00       	callq  408310 <_ZNSt4pairIKNSt7__cxx1112basic_stringIcSt11char_traitsIcESaIcEEES5_EC2IJOS5_EJEEESt21piecewise_construct_tSt5tupleIJDpT_EESB_IJDpT0_EE>
  4082d0:	48 83 c4 60          	add    $0x60,%rsp
  4082d4:	5d                   	pop    %rbp
  4082d5:	c3                   	retq   
  4082d6:	66 2e 0f 1f 84 00 00 	nopw   %cs:0x0(%rax,%rax,1)
  4082dd:	00 00 00 

00000000004082e0 <_ZNSt5tupleIJONSt7__cxx1112basic_stringIcSt11char_traitsIcESaIcEEEEEC2EOS7_>:
  4082e0:	55                   	push   %rbp
  4082e1:	48 89 e5             	mov    %rsp,%rbp
  4082e4:	48 83 ec 20          	sub    $0x20,%rsp
  4082e8:	48 89 7d f8          	mov    %rdi,-0x8(%rbp)
  4082ec:	48 89 75 f0          	mov    %rsi,-0x10(%rbp)
  4082f0:	48 8b 75 f8          	mov    -0x8(%rbp),%rsi
  4082f4:	48 8b 7d f0          	mov    -0x10(%rbp),%rdi
  4082f8:	48 89 7d e8          	mov    %rdi,-0x18(%rbp)
  4082fc:	48 89 f7             	mov    %rsi,%rdi
  4082ff:	48 8b 75 e8          	mov    -0x18(%rbp),%rsi
  408303:	e8 38 00 00 00       	callq  408340 <_ZNSt11_Tuple_implILm0EJONSt7__cxx1112basic_stringIcSt11char_traitsIcESaIcEEEEEC2EOS7_>
  408308:	48 83 c4 20          	add    $0x20,%rsp
  40830c:	5d                   	pop    %rbp
  40830d:	c3                   	retq   
  40830e:	66 90                	xchg   %ax,%ax

0000000000408310 <_ZNSt4pairIKNSt7__cxx1112basic_stringIcSt11char_traitsIcESaIcEEES5_EC2IJOS5_EJEEESt21piecewise_construct_tSt5tupleIJDpT_EESB_IJDpT0_EE>:
  408310:	55                   	push   %rbp
  408311:	48 89 e5             	mov    %rsp,%rbp
  408314:	48 83 ec 30          	sub    $0x30,%rsp
  408318:	48 8d 45 f0          	lea    -0x10(%rbp),%rax
  40831c:	48 8d 55 e8          	lea    -0x18(%rbp),%rdx
  408320:	48 89 75 f0          	mov    %rsi,-0x10(%rbp)
  408324:	48 89 7d e0          	mov    %rdi,-0x20(%rbp)
  408328:	48 8b 7d e0          	mov    -0x20(%rbp),%rdi
  40832c:	48 89 c6             	mov    %rax,%rsi
  40832f:	e8 ec 00 00 00       	callq  408420 <_ZNSt4pairIKNSt7__cxx1112basic_stringIcSt11char_traitsIcESaIcEEES5_EC2IJOS5_EJLm0EEJEJEEERSt5tupleIJDpT_EERSA_IJDpT1_EESt12_Index_tupleIJXspT0_EEESJ_IJXspT2_EEE>
  408334:	48 83 c4 30          	add    $0x30,%rsp
  408338:	5d                   	pop    %rbp
  408339:	c3                   	retq   
  40833a:	66 0f 1f 44 00 00    	nopw   0x0(%rax,%rax,1)

0000000000408340 <_ZNSt11_Tuple_implILm0EJONSt7__cxx1112basic_stringIcSt11char_traitsIcESaIcEEEEEC2EOS7_>:
  408340:	55                   	push   %rbp
  408341:	48 89 e5             	mov    %rsp,%rbp
  408344:	48 83 ec 20          	sub    $0x20,%rsp
  408348:	48 89 7d f8          	mov    %rdi,-0x8(%rbp)
  40834c:	48 89 75 f0          	mov    %rsi,-0x10(%rbp)
  408350:	48 8b 7d f8          	mov    -0x8(%rbp),%rdi
  408354:	48 89 7d e8          	mov    %rdi,-0x18(%rbp)
  408358:	48 89 f7             	mov    %rsi,%rdi
  40835b:	e8 40 00 00 00       	callq  4083a0 <_ZNSt11_Tuple_implILm0EJONSt7__cxx1112basic_stringIcSt11char_traitsIcESaIcEEEEE7_M_headERS7_>
  408360:	48 89 c7             	mov    %rax,%rdi
  408363:	e8 28 00 00 00       	callq  408390 <_ZSt7forwardIONSt7__cxx1112basic_stringIcSt11char_traitsIcESaIcEEEEOT_RNSt16remove_referenceIS7_E4typeE>
  408368:	48 8b 7d e8          	mov    -0x18(%rbp),%rdi
  40836c:	48 89 c6             	mov    %rax,%rsi
  40836f:	e8 4c 00 00 00       	callq  4083c0 <_ZNSt10_Head_baseILm0EONSt7__cxx1112basic_stringIcSt11char_traitsIcESaIcEEELb0EEC2IS5_EEOT_>
  408374:	e9 00 00 00 00       	jmpq   408379 <_ZNSt11_Tuple_implILm0EJONSt7__cxx1112basic_stringIcSt11char_traitsIcESaIcEEEEEC2EOS7_+0x39>
  408379:	48 83 c4 20          	add    $0x20,%rsp
  40837d:	5d                   	pop    %rbp
  40837e:	c3                   	retq   
  40837f:	89 d1                	mov    %edx,%ecx
  408381:	48 89 c7             	mov    %rax,%rdi
  408384:	89 4d e4             	mov    %ecx,-0x1c(%rbp)
  408387:	e8 34 f1 ff ff       	callq  4074c0 <__clang_call_terminate>
  40838c:	0f 1f 40 00          	nopl   0x0(%rax)

0000000000408390 <_ZSt7forwardIONSt7__cxx1112basic_stringIcSt11char_traitsIcESaIcEEEEOT_RNSt16remove_referenceIS7_E4typeE>:
  408390:	55                   	push   %rbp
  408391:	48 89 e5             	mov    %rsp,%rbp
  408394:	48 89 7d f8          	mov    %rdi,-0x8(%rbp)
  408398:	48 8b 45 f8          	mov    -0x8(%rbp),%rax
  40839c:	5d                   	pop    %rbp
  40839d:	c3                   	retq   
  40839e:	66 90                	xchg   %ax,%ax

00000000004083a0 <_ZNSt11_Tuple_implILm0EJONSt7__cxx1112basic_stringIcSt11char_traitsIcESaIcEEEEE7_M_headERS7_>:
  4083a0:	55                   	push   %rbp
  4083a1:	48 89 e5             	mov    %rsp,%rbp
  4083a4:	48 83 ec 10          	sub    $0x10,%rsp
  4083a8:	48 89 7d f8          	mov    %rdi,-0x8(%rbp)
  4083ac:	48 8b 7d f8          	mov    -0x8(%rbp),%rdi
  4083b0:	e8 3b 00 00 00       	callq  4083f0 <_ZNSt10_Head_baseILm0EONSt7__cxx1112basic_stringIcSt11char_traitsIcESaIcEEELb0EE7_M_headERS7_>
  4083b5:	48 83 c4 10          	add    $0x10,%rsp
  4083b9:	5d                   	pop    %rbp
  4083ba:	c3                   	retq   
  4083bb:	0f 1f 44 00 00       	nopl   0x0(%rax,%rax,1)

00000000004083c0 <_ZNSt10_Head_baseILm0EONSt7__cxx1112basic_stringIcSt11char_traitsIcESaIcEEELb0EEC2IS5_EEOT_>:
  4083c0:	55                   	push   %rbp
  4083c1:	48 89 e5             	mov    %rsp,%rbp
  4083c4:	48 83 ec 20          	sub    $0x20,%rsp
  4083c8:	48 89 7d f8          	mov    %rdi,-0x8(%rbp)
  4083cc:	48 89 75 f0          	mov    %rsi,-0x10(%rbp)
  4083d0:	48 8b 75 f8          	mov    -0x8(%rbp),%rsi
  4083d4:	48 8b 7d f0          	mov    -0x10(%rbp),%rdi
  4083d8:	48 89 75 e8          	mov    %rsi,-0x18(%rbp)
  4083dc:	e8 2f 00 00 00       	callq  408410 <_ZSt7forwardINSt7__cxx1112basic_stringIcSt11char_traitsIcESaIcEEEEOT_RNSt16remove_referenceIS6_E4typeE>
  4083e1:	48 8b 75 e8          	mov    -0x18(%rbp),%rsi
  4083e5:	48 89 06             	mov    %rax,(%rsi)
  4083e8:	48 83 c4 20          	add    $0x20,%rsp
  4083ec:	5d                   	pop    %rbp
  4083ed:	c3                   	retq   
  4083ee:	66 90                	xchg   %ax,%ax

00000000004083f0 <_ZNSt10_Head_baseILm0EONSt7__cxx1112basic_stringIcSt11char_traitsIcESaIcEEELb0EE7_M_headERS7_>:
  4083f0:	55                   	push   %rbp
  4083f1:	48 89 e5             	mov    %rsp,%rbp
  4083f4:	48 89 7d f8          	mov    %rdi,-0x8(%rbp)
  4083f8:	48 8b 7d f8          	mov    -0x8(%rbp),%rdi
  4083fc:	48 8b 07             	mov    (%rdi),%rax
  4083ff:	5d                   	pop    %rbp
  408400:	c3                   	retq   
  408401:	66 2e 0f 1f 84 00 00 	nopw   %cs:0x0(%rax,%rax,1)
  408408:	00 00 00 
  40840b:	0f 1f 44 00 00       	nopl   0x0(%rax,%rax,1)

0000000000408410 <_ZSt7forwardINSt7__cxx1112basic_stringIcSt11char_traitsIcESaIcEEEEOT_RNSt16remove_referenceIS6_E4typeE>:
  408410:	55                   	push   %rbp
  408411:	48 89 e5             	mov    %rsp,%rbp
  408414:	48 89 7d f8          	mov    %rdi,-0x8(%rbp)
  408418:	48 8b 45 f8          	mov    -0x8(%rbp),%rax
  40841c:	5d                   	pop    %rbp
  40841d:	c3                   	retq   
  40841e:	66 90                	xchg   %ax,%ax

0000000000408420 <_ZNSt4pairIKNSt7__cxx1112basic_stringIcSt11char_traitsIcESaIcEEES5_EC2IJOS5_EJLm0EEJEJEEERSt5tupleIJDpT_EERSA_IJDpT1_EESt12_Index_tupleIJXspT0_EEESJ_IJXspT2_EEE>:
  408420:	55                   	push   %rbp
  408421:	48 89 e5             	mov    %rsp,%rbp
  408424:	48 83 ec 30          	sub    $0x30,%rsp
  408428:	48 89 7d e8          	mov    %rdi,-0x18(%rbp)
  40842c:	48 89 75 e0          	mov    %rsi,-0x20(%rbp)
  408430:	48 89 55 d8          	mov    %rdx,-0x28(%rbp)
  408434:	48 8b 55 e8          	mov    -0x18(%rbp),%rdx
  408438:	48 8b 7d e0          	mov    -0x20(%rbp),%rdi
  40843c:	48 89 55 d0          	mov    %rdx,-0x30(%rbp)
  408440:	e8 2b 00 00 00       	callq  408470 <_ZSt3getILm0EJONSt7__cxx1112basic_stringIcSt11char_traitsIcESaIcEEEEERNSt13tuple_elementIXT_ESt5tupleIJDpT0_EEE4typeERSB_>
  408445:	48 89 c7             	mov    %rax,%rdi
  408448:	e8 43 ff ff ff       	callq  408390 <_ZSt7forwardIONSt7__cxx1112basic_stringIcSt11char_traitsIcESaIcEEEEOT_RNSt16remove_referenceIS7_E4typeE>
  40844d:	48 8b 7d d0          	mov    -0x30(%rbp),%rdi
  408451:	48 89 c6             	mov    %rax,%rsi
  408454:	e8 f7 a7 ff ff       	callq  402c50 <_ZNSt7__cxx1112basic_stringIcSt11char_traitsIcESaIcEEC1EOS4_@plt>
  408459:	48 8b 45 d0          	mov    -0x30(%rbp),%rax
  40845d:	48 83 c0 20          	add    $0x20,%rax
  408461:	48 89 c7             	mov    %rax,%rdi
  408464:	e8 77 aa ff ff       	callq  402ee0 <_ZNSt7__cxx1112basic_stringIcSt11char_traitsIcESaIcEEC1Ev@plt>
  408469:	48 83 c4 30          	add    $0x30,%rsp
  40846d:	5d                   	pop    %rbp
  40846e:	c3                   	retq   
  40846f:	90                   	nop

0000000000408470 <_ZSt3getILm0EJONSt7__cxx1112basic_stringIcSt11char_traitsIcESaIcEEEEERNSt13tuple_elementIXT_ESt5tupleIJDpT0_EEE4typeERSB_>:
  408470:	55                   	push   %rbp
  408471:	48 89 e5             	mov    %rsp,%rbp
  408474:	48 83 ec 10          	sub    $0x10,%rsp
  408478:	48 89 7d f8          	mov    %rdi,-0x8(%rbp)
  40847c:	48 8b 7d f8          	mov    -0x8(%rbp),%rdi
  408480:	e8 0b 00 00 00       	callq  408490 <_ZSt12__get_helperILm0EONSt7__cxx1112basic_stringIcSt11char_traitsIcESaIcEEEJEERT0_RSt11_Tuple_implIXT_EJS7_DpT1_EE>
  408485:	48 83 c4 10          	add    $0x10,%rsp
  408489:	5d                   	pop    %rbp
  40848a:	c3                   	retq   
  40848b:	0f 1f 44 00 00       	nopl   0x0(%rax,%rax,1)

0000000000408490 <_ZSt12__get_helperILm0EONSt7__cxx1112basic_stringIcSt11char_traitsIcESaIcEEEJEERT0_RSt11_Tuple_implIXT_EJS7_DpT1_EE>:
  408490:	55                   	push   %rbp
  408491:	48 89 e5             	mov    %rsp,%rbp
  408494:	48 83 ec 10          	sub    $0x10,%rsp
  408498:	48 89 7d f8          	mov    %rdi,-0x8(%rbp)
  40849c:	48 8b 7d f8          	mov    -0x8(%rbp),%rdi
  4084a0:	e8 fb fe ff ff       	callq  4083a0 <_ZNSt11_Tuple_implILm0EJONSt7__cxx1112basic_stringIcSt11char_traitsIcESaIcEEEEE7_M_headERS7_>
  4084a5:	48 83 c4 10          	add    $0x10,%rsp
  4084a9:	5d                   	pop    %rbp
  4084aa:	c3                   	retq   
  4084ab:	0f 1f 44 00 00       	nopl   0x0(%rax,%rax,1)

00000000004084b0 <_ZN9__gnu_cxx16__aligned_membufISt4pairIKNSt7__cxx1112basic_stringIcSt11char_traitsIcESaIcEEES7_EE6_M_ptrEv>:
  4084b0:	55                   	push   %rbp
  4084b1:	48 89 e5             	mov    %rsp,%rbp
  4084b4:	48 83 ec 10          	sub    $0x10,%rsp
  4084b8:	48 89 7d f8          	mov    %rdi,-0x8(%rbp)
  4084bc:	48 8b 7d f8          	mov    -0x8(%rbp),%rdi
  4084c0:	e8 0b 00 00 00       	callq  4084d0 <_ZN9__gnu_cxx16__aligned_membufISt4pairIKNSt7__cxx1112basic_stringIcSt11char_traitsIcESaIcEEES7_EE7_M_addrEv>
  4084c5:	48 83 c4 10          	add    $0x10,%rsp
  4084c9:	5d                   	pop    %rbp
  4084ca:	c3                   	retq   
  4084cb:	0f 1f 44 00 00       	nopl   0x0(%rax,%rax,1)

00000000004084d0 <_ZN9__gnu_cxx16__aligned_membufISt4pairIKNSt7__cxx1112basic_stringIcSt11char_traitsIcESaIcEEES7_EE7_M_addrEv>:
  4084d0:	55                   	push   %rbp
  4084d1:	48 89 e5             	mov    %rsp,%rbp
  4084d4:	48 89 7d f8          	mov    %rdi,-0x8(%rbp)
  4084d8:	48 8b 7d f8          	mov    -0x8(%rbp),%rdi
  4084dc:	48 89 f8             	mov    %rdi,%rax
  4084df:	5d                   	pop    %rbp
  4084e0:	c3                   	retq   
  4084e1:	66 2e 0f 1f 84 00 00 	nopw   %cs:0x0(%rax,%rax,1)
  4084e8:	00 00 00 
  4084eb:	0f 1f 44 00 00       	nopl   0x0(%rax,%rax,1)

00000000004084f0 <_ZNSt16allocator_traitsISaISt13_Rb_tree_nodeISt4pairIKNSt7__cxx1112basic_stringIcSt11char_traitsIcESaIcEEES7_EEEE10deallocateERSB_PSA_m>:
  4084f0:	55                   	push   %rbp
  4084f1:	48 89 e5             	mov    %rsp,%rbp
  4084f4:	48 83 ec 20          	sub    $0x20,%rsp
  4084f8:	48 89 7d f8          	mov    %rdi,-0x8(%rbp)
  4084fc:	48 89 75 f0          	mov    %rsi,-0x10(%rbp)
  408500:	48 89 55 e8          	mov    %rdx,-0x18(%rbp)
  408504:	48 8b 55 f8          	mov    -0x8(%rbp),%rdx
  408508:	48 8b 75 f0          	mov    -0x10(%rbp),%rsi
  40850c:	48 8b 7d e8          	mov    -0x18(%rbp),%rdi
  408510:	48 89 7d e0          	mov    %rdi,-0x20(%rbp)
  408514:	48 89 d7             	mov    %rdx,%rdi
  408517:	48 8b 55 e0          	mov    -0x20(%rbp),%rdx
  40851b:	e8 10 00 00 00       	callq  408530 <_ZN9__gnu_cxx13new_allocatorISt13_Rb_tree_nodeISt4pairIKNSt7__cxx1112basic_stringIcSt11char_traitsIcESaIcEEES8_EEE10deallocateEPSB_m>
  408520:	48 83 c4 20          	add    $0x20,%rsp
  408524:	5d                   	pop    %rbp
  408525:	c3                   	retq   
  408526:	66 2e 0f 1f 84 00 00 	nopw   %cs:0x0(%rax,%rax,1)
  40852d:	00 00 00 

0000000000408530 <_ZN9__gnu_cxx13new_allocatorISt13_Rb_tree_nodeISt4pairIKNSt7__cxx1112basic_stringIcSt11char_traitsIcESaIcEEES8_EEE10deallocateEPSB_m>:
  408530:	55                   	push   %rbp
  408531:	48 89 e5             	mov    %rsp,%rbp
  408534:	48 83 ec 20          	sub    $0x20,%rsp
  408538:	48 89 7d f8          	mov    %rdi,-0x8(%rbp)
  40853c:	48 89 75 f0          	mov    %rsi,-0x10(%rbp)
  408540:	48 89 55 e8          	mov    %rdx,-0x18(%rbp)
  408544:	48 8b 55 f0          	mov    -0x10(%rbp),%rdx
  408548:	48 89 d7             	mov    %rdx,%rdi
  40854b:	e8 40 a8 ff ff       	callq  402d90 <_ZdlPv@plt>
  408550:	48 83 c4 20          	add    $0x20,%rsp
  408554:	5d                   	pop    %rbp
  408555:	c3                   	retq   
  408556:	66 2e 0f 1f 84 00 00 	nopw   %cs:0x0(%rax,%rax,1)
  40855d:	00 00 00 

0000000000408560 <_ZNKSt23_Rb_tree_const_iteratorISt4pairIKNSt7__cxx1112basic_stringIcSt11char_traitsIcESaIcEEES6_EE13_M_const_castEv>:
  408560:	55                   	push   %rbp
  408561:	48 89 e5             	mov    %rsp,%rbp
  408564:	48 83 ec 10          	sub    $0x10,%rsp
  408568:	48 8d 45 f8          	lea    -0x8(%rbp),%rax
  40856c:	48 89 7d f0          	mov    %rdi,-0x10(%rbp)
  408570:	48 8b 7d f0          	mov    -0x10(%rbp),%rdi
  408574:	48 8b 37             	mov    (%rdi),%rsi
  408577:	48 89 c7             	mov    %rax,%rdi
  40857a:	e8 11 f4 ff ff       	callq  407990 <_ZNSt17_Rb_tree_iteratorISt4pairIKNSt7__cxx1112basic_stringIcSt11char_traitsIcESaIcEEES6_EEC2EPSt18_Rb_tree_node_base>
  40857f:	48 8b 45 f8          	mov    -0x8(%rbp),%rax
  408583:	48 83 c4 10          	add    $0x10,%rsp
  408587:	5d                   	pop    %rbp
  408588:	c3                   	retq   
  408589:	0f 1f 80 00 00 00 00 	nopl   0x0(%rax)

0000000000408590 <_ZNKSt8_Rb_treeINSt7__cxx1112basic_stringIcSt11char_traitsIcESaIcEEESt4pairIKS5_S5_ESt10_Select1stIS8_ESt4lessIS5_ESaIS8_EE4sizeEv>:
  408590:	55                   	push   %rbp
  408591:	48 89 e5             	mov    %rsp,%rbp
  408594:	48 89 7d f8          	mov    %rdi,-0x8(%rbp)
  408598:	48 8b 7d f8          	mov    -0x8(%rbp),%rdi
  40859c:	48 8b 47 28          	mov    0x28(%rdi),%rax
  4085a0:	5d                   	pop    %rbp
  4085a1:	c3                   	retq   
  4085a2:	66 2e 0f 1f 84 00 00 	nopw   %cs:0x0(%rax,%rax,1)
  4085a9:	00 00 00 
  4085ac:	0f 1f 40 00          	nopl   0x0(%rax)

00000000004085b0 <_ZNSt8_Rb_treeINSt7__cxx1112basic_stringIcSt11char_traitsIcESaIcEEESt4pairIKS5_S5_ESt10_Select1stIS8_ESt4lessIS5_ESaIS8_EE6_S_keyEPKSt18_Rb_tree_node_base>:
  4085b0:	55                   	push   %rbp
  4085b1:	48 89 e5             	mov    %rsp,%rbp
  4085b4:	48 83 ec 10          	sub    $0x10,%rsp
  4085b8:	48 89 7d f8          	mov    %rdi,-0x8(%rbp)
  4085bc:	48 8b 7d f8          	mov    -0x8(%rbp),%rdi
  4085c0:	e8 db 02 00 00       	callq  4088a0 <_ZNSt8_Rb_treeINSt7__cxx1112basic_stringIcSt11char_traitsIcESaIcEEESt4pairIKS5_S5_ESt10_Select1stIS8_ESt4lessIS5_ESaIS8_EE8_S_valueEPKSt18_Rb_tree_node_base>
  4085c5:	48 8d 7d f0          	lea    -0x10(%rbp),%rdi
  4085c9:	48 89 c6             	mov    %rax,%rsi
  4085cc:	e8 df f3 ff ff       	callq  4079b0 <_ZNKSt10_Select1stISt4pairIKNSt7__cxx1112basic_stringIcSt11char_traitsIcESaIcEEES6_EEclERKS8_>
  4085d1:	48 83 c4 10          	add    $0x10,%rsp
  4085d5:	5d                   	pop    %rbp
  4085d6:	c3                   	retq   
  4085d7:	66 0f 1f 84 00 00 00 	nopw   0x0(%rax,%rax,1)
  4085de:	00 00 

00000000004085e0 <_ZNSt8_Rb_treeINSt7__cxx1112basic_stringIcSt11char_traitsIcESaIcEEESt4pairIKS5_S5_ESt10_Select1stIS8_ESt4lessIS5_ESaIS8_EE12_M_rightmostEv>:
  4085e0:	55                   	push   %rbp
  4085e1:	48 89 e5             	mov    %rsp,%rbp
  4085e4:	48 89 7d f8          	mov    %rdi,-0x8(%rbp)
  4085e8:	48 8b 7d f8          	mov    -0x8(%rbp),%rdi
  4085ec:	48 83 c7 08          	add    $0x8,%rdi
  4085f0:	48 83 c7 18          	add    $0x18,%rdi
  4085f4:	48 89 f8             	mov    %rdi,%rax
  4085f7:	5d                   	pop    %rbp
  4085f8:	c3                   	retq   
  4085f9:	0f 1f 80 00 00 00 00 	nopl   0x0(%rax)

0000000000408600 <_ZNSt4pairIPSt18_Rb_tree_node_baseS1_EC2IRS1_vEERKS1_OT_>:
  408600:	55                   	push   %rbp
  408601:	48 89 e5             	mov    %rsp,%rbp
  408604:	48 83 ec 20          	sub    $0x20,%rsp
  408608:	48 89 7d f8          	mov    %rdi,-0x8(%rbp)
  40860c:	48 89 75 f0          	mov    %rsi,-0x10(%rbp)
  408610:	48 89 55 e8          	mov    %rdx,-0x18(%rbp)
  408614:	48 8b 55 f8          	mov    -0x8(%rbp),%rdx
  408618:	48 8b 75 f0          	mov    -0x10(%rbp),%rsi
  40861c:	48 8b 36             	mov    (%rsi),%rsi
  40861f:	48 89 32             	mov    %rsi,(%rdx)
  408622:	48 8b 7d e8          	mov    -0x18(%rbp),%rdi
  408626:	48 89 55 e0          	mov    %rdx,-0x20(%rbp)
  40862a:	e8 91 02 00 00       	callq  4088c0 <_ZSt7forwardIRPSt18_Rb_tree_node_baseEOT_RNSt16remove_referenceIS3_E4typeE>
  40862f:	48 8b 00             	mov    (%rax),%rax
  408632:	48 8b 55 e0          	mov    -0x20(%rbp),%rdx
  408636:	48 89 42 08          	mov    %rax,0x8(%rdx)
  40863a:	48 83 c4 20          	add    $0x20,%rsp
  40863e:	5d                   	pop    %rbp
  40863f:	c3                   	retq   

0000000000408640 <_ZNSt8_Rb_treeINSt7__cxx1112basic_stringIcSt11char_traitsIcESaIcEEESt4pairIKS5_S5_ESt10_Select1stIS8_ESt4lessIS5_ESaIS8_EE24_M_get_insert_unique_posERS7_>:
  408640:	55                   	push   %rbp
  408641:	48 89 e5             	mov    %rsp,%rbp
  408644:	48 83 ec 70          	sub    $0x70,%rsp
  408648:	48 89 7d e8          	mov    %rdi,-0x18(%rbp)
  40864c:	48 89 75 e0          	mov    %rsi,-0x20(%rbp)
  408650:	48 8b 75 e8          	mov    -0x18(%rbp),%rsi
  408654:	48 89 f7             	mov    %rsi,%rdi
  408657:	48 89 75 a8          	mov    %rsi,-0x58(%rbp)
  40865b:	e8 80 f2 ff ff       	callq  4078e0 <_ZNSt8_Rb_treeINSt7__cxx1112basic_stringIcSt11char_traitsIcESaIcEEESt4pairIKS5_S5_ESt10_Select1stIS8_ESt4lessIS5_ESaIS8_EE8_M_beginEv>
  408660:	48 89 45 d8          	mov    %rax,-0x28(%rbp)
  408664:	48 8b 7d a8          	mov    -0x58(%rbp),%rdi
  408668:	e8 93 f2 ff ff       	callq  407900 <_ZNSt8_Rb_treeINSt7__cxx1112basic_stringIcSt11char_traitsIcESaIcEEESt4pairIKS5_S5_ESt10_Select1stIS8_ESt4lessIS5_ESaIS8_EE6_M_endEv>
  40866d:	48 89 45 d0          	mov    %rax,-0x30(%rbp)
  408671:	c6 45 cf 01          	movb   $0x1,-0x31(%rbp)
  408675:	48 83 7d d8 00       	cmpq   $0x0,-0x28(%rbp)
  40867a:	0f 84 6a 00 00 00    	je     4086ea <_ZNSt8_Rb_treeINSt7__cxx1112basic_stringIcSt11char_traitsIcESaIcEEESt4pairIKS5_S5_ESt10_Select1stIS8_ESt4lessIS5_ESaIS8_EE24_M_get_insert_unique_posERS7_+0xaa>
  408680:	48 8b 45 d8          	mov    -0x28(%rbp),%rax
  408684:	48 89 45 d0          	mov    %rax,-0x30(%rbp)
  408688:	48 8b 75 e0          	mov    -0x20(%rbp),%rsi
  40868c:	48 8b 7d d8          	mov    -0x28(%rbp),%rdi
  408690:	48 89 75 a0          	mov    %rsi,-0x60(%rbp)
  408694:	e8 87 f2 ff ff       	callq  407920 <_ZNSt8_Rb_treeINSt7__cxx1112basic_stringIcSt11char_traitsIcESaIcEEESt4pairIKS5_S5_ESt10_Select1stIS8_ESt4lessIS5_ESaIS8_EE6_S_keyEPKSt13_Rb_tree_nodeIS8_E>
  408699:	48 8b 7d a8          	mov    -0x58(%rbp),%rdi
  40869d:	48 8b 75 a0          	mov    -0x60(%rbp),%rsi
  4086a1:	48 89 c2             	mov    %rax,%rdx
  4086a4:	e8 37 ef ff ff       	callq  4075e0 <_ZNKSt4lessINSt7__cxx1112basic_stringIcSt11char_traitsIcESaIcEEEEclERKS5_S8_>
  4086a9:	24 01                	and    $0x1,%al
  4086ab:	88 45 cf             	mov    %al,-0x31(%rbp)
  4086ae:	f6 45 cf 01          	testb  $0x1,-0x31(%rbp)
  4086b2:	0f 84 15 00 00 00    	je     4086cd <_ZNSt8_Rb_treeINSt7__cxx1112basic_stringIcSt11char_traitsIcESaIcEEESt4pairIKS5_S5_ESt10_Select1stIS8_ESt4lessIS5_ESaIS8_EE24_M_get_insert_unique_posERS7_+0x8d>
  4086b8:	48 8b 45 d8          	mov    -0x28(%rbp),%rax
  4086bc:	48 89 c7             	mov    %rax,%rdi
  4086bf:	e8 8c f2 ff ff       	callq  407950 <_ZNSt8_Rb_treeINSt7__cxx1112basic_stringIcSt11char_traitsIcESaIcEEESt4pairIKS5_S5_ESt10_Select1stIS8_ESt4lessIS5_ESaIS8_EE7_S_leftEPSt18_Rb_tree_node_base>
  4086c4:	48 89 45 98          	mov    %rax,-0x68(%rbp)
  4086c8:	e9 10 00 00 00       	jmpq   4086dd <_ZNSt8_Rb_treeINSt7__cxx1112basic_stringIcSt11char_traitsIcESaIcEEESt4pairIKS5_S5_ESt10_Select1stIS8_ESt4lessIS5_ESaIS8_EE24_M_get_insert_unique_posERS7_+0x9d>
  4086cd:	48 8b 45 d8          	mov    -0x28(%rbp),%rax
  4086d1:	48 89 c7             	mov    %rax,%rdi
  4086d4:	e8 97 f2 ff ff       	callq  407970 <_ZNSt8_Rb_treeINSt7__cxx1112basic_stringIcSt11char_traitsIcESaIcEEESt4pairIKS5_S5_ESt10_Select1stIS8_ESt4lessIS5_ESaIS8_EE8_S_rightEPSt18_Rb_tree_node_base>
  4086d9:	48 89 45 98          	mov    %rax,-0x68(%rbp)
  4086dd:	48 8b 45 98          	mov    -0x68(%rbp),%rax
  4086e1:	48 89 45 d8          	mov    %rax,-0x28(%rbp)
  4086e5:	e9 8b ff ff ff       	jmpq   408675 <_ZNSt8_Rb_treeINSt7__cxx1112basic_stringIcSt11char_traitsIcESaIcEEESt4pairIKS5_S5_ESt10_Select1stIS8_ESt4lessIS5_ESaIS8_EE24_M_get_insert_unique_posERS7_+0x35>
  4086ea:	48 8d 7d c0          	lea    -0x40(%rbp),%rdi
  4086ee:	48 8b 45 d0          	mov    -0x30(%rbp),%rax
  4086f2:	48 89 c6             	mov    %rax,%rsi
  4086f5:	e8 96 f2 ff ff       	callq  407990 <_ZNSt17_Rb_tree_iteratorISt4pairIKNSt7__cxx1112basic_stringIcSt11char_traitsIcESaIcEEES6_EEC2EPSt18_Rb_tree_node_base>
  4086fa:	f6 45 cf 01          	testb  $0x1,-0x31(%rbp)
  4086fe:	0f 84 4f 00 00 00    	je     408753 <_ZNSt8_Rb_treeINSt7__cxx1112basic_stringIcSt11char_traitsIcESaIcEEESt4pairIKS5_S5_ESt10_Select1stIS8_ESt4lessIS5_ESaIS8_EE24_M_get_insert_unique_posERS7_+0x113>
  408704:	48 8b 7d a8          	mov    -0x58(%rbp),%rdi
  408708:	e8 c3 01 00 00       	callq  4088d0 <_ZNSt8_Rb_treeINSt7__cxx1112basic_stringIcSt11char_traitsIcESaIcEEESt4pairIKS5_S5_ESt10_Select1stIS8_ESt4lessIS5_ESaIS8_EE5beginEv>
  40870d:	48 8d 7d c0          	lea    -0x40(%rbp),%rdi
  408711:	48 8d 75 b8          	lea    -0x48(%rbp),%rsi
  408715:	48 89 45 b8          	mov    %rax,-0x48(%rbp)
  408719:	e8 72 ee ff ff       	callq  407590 <_ZNKSt17_Rb_tree_iteratorISt4pairIKNSt7__cxx1112basic_stringIcSt11char_traitsIcESaIcEEES6_EEeqERKS9_>
  40871e:	a8 01                	test   $0x1,%al
  408720:	0f 85 05 00 00 00    	jne    40872b <_ZNSt8_Rb_treeINSt7__cxx1112basic_stringIcSt11char_traitsIcESaIcEEESt4pairIKS5_S5_ESt10_Select1stIS8_ESt4lessIS5_ESaIS8_EE24_M_get_insert_unique_posERS7_+0xeb>
  408726:	e9 16 00 00 00       	jmpq   408741 <_ZNSt8_Rb_treeINSt7__cxx1112basic_stringIcSt11char_traitsIcESaIcEEESt4pairIKS5_S5_ESt10_Select1stIS8_ESt4lessIS5_ESaIS8_EE24_M_get_insert_unique_posERS7_+0x101>
  40872b:	48 8d 7d f0          	lea    -0x10(%rbp),%rdi
  40872f:	48 8d 75 d8          	lea    -0x28(%rbp),%rsi
  408733:	48 8d 55 d0          	lea    -0x30(%rbp),%rdx
  408737:	e8 c4 01 00 00       	callq  408900 <_ZNSt4pairIPSt18_Rb_tree_node_baseS1_EC2IRPSt13_Rb_tree_nodeIS_IKNSt7__cxx1112basic_stringIcSt11char_traitsIcESaIcEEESA_EESF_vEEOT_OT0_>
  40873c:	e9 67 00 00 00       	jmpq   4087a8 <_ZNSt8_Rb_treeINSt7__cxx1112basic_stringIcSt11char_traitsIcESaIcEEESt4pairIKS5_S5_ESt10_Select1stIS8_ESt4lessIS5_ESaIS8_EE24_M_get_insert_unique_posERS7_+0x168>
  408741:	48 8d 7d c0          	lea    -0x40(%rbp),%rdi
  408745:	e8 e6 00 00 00       	callq  408830 <_ZNSt17_Rb_tree_iteratorISt4pairIKNSt7__cxx1112basic_stringIcSt11char_traitsIcESaIcEEES6_EEmmEv>
  40874a:	48 89 45 90          	mov    %rax,-0x70(%rbp)
  40874e:	e9 00 00 00 00       	jmpq   408753 <_ZNSt8_Rb_treeINSt7__cxx1112basic_stringIcSt11char_traitsIcESaIcEEESt4pairIKS5_S5_ESt10_Select1stIS8_ESt4lessIS5_ESaIS8_EE24_M_get_insert_unique_posERS7_+0x113>
  408753:	48 8b 7d c0          	mov    -0x40(%rbp),%rdi
  408757:	e8 54 fe ff ff       	callq  4085b0 <_ZNSt8_Rb_treeINSt7__cxx1112basic_stringIcSt11char_traitsIcESaIcEEESt4pairIKS5_S5_ESt10_Select1stIS8_ESt4lessIS5_ESaIS8_EE6_S_keyEPKSt18_Rb_tree_node_base>
  40875c:	48 8b 55 e0          	mov    -0x20(%rbp),%rdx
  408760:	48 8b 7d a8          	mov    -0x58(%rbp),%rdi
  408764:	48 89 c6             	mov    %rax,%rsi
  408767:	e8 74 ee ff ff       	callq  4075e0 <_ZNKSt4lessINSt7__cxx1112basic_stringIcSt11char_traitsIcESaIcEEEEclERKS5_S8_>
  40876c:	a8 01                	test   $0x1,%al
  40876e:	0f 85 05 00 00 00    	jne    408779 <_ZNSt8_Rb_treeINSt7__cxx1112basic_stringIcSt11char_traitsIcESaIcEEESt4pairIKS5_S5_ESt10_Select1stIS8_ESt4lessIS5_ESaIS8_EE24_M_get_insert_unique_posERS7_+0x139>
  408774:	e9 16 00 00 00       	jmpq   40878f <_ZNSt8_Rb_treeINSt7__cxx1112basic_stringIcSt11char_traitsIcESaIcEEESt4pairIKS5_S5_ESt10_Select1stIS8_ESt4lessIS5_ESaIS8_EE24_M_get_insert_unique_posERS7_+0x14f>
  408779:	48 8d 7d f0          	lea    -0x10(%rbp),%rdi
  40877d:	48 8d 75 d8          	lea    -0x28(%rbp),%rsi
  408781:	48 8d 55 d0          	lea    -0x30(%rbp),%rdx
  408785:	e8 76 01 00 00       	callq  408900 <_ZNSt4pairIPSt18_Rb_tree_node_baseS1_EC2IRPSt13_Rb_tree_nodeIS_IKNSt7__cxx1112basic_stringIcSt11char_traitsIcESaIcEEESA_EESF_vEEOT_OT0_>
  40878a:	e9 19 00 00 00       	jmpq   4087a8 <_ZNSt8_Rb_treeINSt7__cxx1112basic_stringIcSt11char_traitsIcESaIcEEESt4pairIKS5_S5_ESt10_Select1stIS8_ESt4lessIS5_ESaIS8_EE24_M_get_insert_unique_posERS7_+0x168>
  40878f:	48 8d 7d f0          	lea    -0x10(%rbp),%rdi
  408793:	48 8d 55 b0          	lea    -0x50(%rbp),%rdx
  408797:	48 8d 75 c0          	lea    -0x40(%rbp),%rsi
  40879b:	48 c7 45 b0 00 00 00 	movq   $0x0,-0x50(%rbp)
  4087a2:	00 
  4087a3:	e8 b8 00 00 00       	callq  408860 <_ZNSt4pairIPSt18_Rb_tree_node_baseS1_EC2IRS1_vEEOT_RKS1_>
  4087a8:	48 8b 45 f0          	mov    -0x10(%rbp),%rax
  4087ac:	48 8b 55 f8          	mov    -0x8(%rbp),%rdx
  4087b0:	48 83 c4 70          	add    $0x70,%rsp
  4087b4:	5d                   	pop    %rbp
  4087b5:	c3                   	retq   
  4087b6:	66 2e 0f 1f 84 00 00 	nopw   %cs:0x0(%rax,%rax,1)
  4087bd:	00 00 00 

00000000004087c0 <_ZNSt8_Rb_treeINSt7__cxx1112basic_stringIcSt11char_traitsIcESaIcEEESt4pairIKS5_S5_ESt10_Select1stIS8_ESt4lessIS5_ESaIS8_EE11_M_leftmostEv>:
  4087c0:	55                   	push   %rbp
  4087c1:	48 89 e5             	mov    %rsp,%rbp
  4087c4:	48 89 7d f8          	mov    %rdi,-0x8(%rbp)
  4087c8:	48 8b 7d f8          	mov    -0x8(%rbp),%rdi
  4087cc:	48 83 c7 08          	add    $0x8,%rdi
  4087d0:	48 83 c7 10          	add    $0x10,%rdi
  4087d4:	48 89 f8             	mov    %rdi,%rax
  4087d7:	5d                   	pop    %rbp
  4087d8:	c3                   	retq   
  4087d9:	0f 1f 80 00 00 00 00 	nopl   0x0(%rax)

00000000004087e0 <_ZNSt4pairIPSt18_Rb_tree_node_baseS1_EC2IRS1_S4_vEEOT_OT0_>:
  4087e0:	55                   	push   %rbp
  4087e1:	48 89 e5             	mov    %rsp,%rbp
  4087e4:	48 83 ec 20          	sub    $0x20,%rsp
  4087e8:	48 89 7d f8          	mov    %rdi,-0x8(%rbp)
  4087ec:	48 89 75 f0          	mov    %rsi,-0x10(%rbp)
  4087f0:	48 89 55 e8          	mov    %rdx,-0x18(%rbp)
  4087f4:	48 8b 55 f8          	mov    -0x8(%rbp),%rdx
  4087f8:	48 8b 7d f0          	mov    -0x10(%rbp),%rdi
  4087fc:	48 89 55 e0          	mov    %rdx,-0x20(%rbp)
  408800:	e8 bb 00 00 00       	callq  4088c0 <_ZSt7forwardIRPSt18_Rb_tree_node_baseEOT_RNSt16remove_referenceIS3_E4typeE>
  408805:	48 8b 00             	mov    (%rax),%rax
  408808:	48 8b 55 e0          	mov    -0x20(%rbp),%rdx
  40880c:	48 89 02             	mov    %rax,(%rdx)
  40880f:	48 8b 7d e8          	mov    -0x18(%rbp),%rdi
  408813:	e8 a8 00 00 00       	callq  4088c0 <_ZSt7forwardIRPSt18_Rb_tree_node_baseEOT_RNSt16remove_referenceIS3_E4typeE>
  408818:	48 8b 00             	mov    (%rax),%rax
  40881b:	48 8b 55 e0          	mov    -0x20(%rbp),%rdx
  40881f:	48 89 42 08          	mov    %rax,0x8(%rdx)
  408823:	48 83 c4 20          	add    $0x20,%rsp
  408827:	5d                   	pop    %rbp
  408828:	c3                   	retq   
  408829:	0f 1f 80 00 00 00 00 	nopl   0x0(%rax)

0000000000408830 <_ZNSt17_Rb_tree_iteratorISt4pairIKNSt7__cxx1112basic_stringIcSt11char_traitsIcESaIcEEES6_EEmmEv>:
  408830:	55                   	push   %rbp
  408831:	48 89 e5             	mov    %rsp,%rbp
  408834:	48 83 ec 10          	sub    $0x10,%rsp
  408838:	48 89 7d f8          	mov    %rdi,-0x8(%rbp)
  40883c:	48 8b 7d f8          	mov    -0x8(%rbp),%rdi
  408840:	48 8b 07             	mov    (%rdi),%rax
  408843:	48 89 7d f0          	mov    %rdi,-0x10(%rbp)
  408847:	48 89 c7             	mov    %rax,%rdi
  40884a:	e8 a1 a5 ff ff       	callq  402df0 <_ZSt18_Rb_tree_decrementPSt18_Rb_tree_node_base@plt>
  40884f:	48 8b 7d f0          	mov    -0x10(%rbp),%rdi
  408853:	48 89 07             	mov    %rax,(%rdi)
  408856:	48 89 f8             	mov    %rdi,%rax
  408859:	48 83 c4 10          	add    $0x10,%rsp
  40885d:	5d                   	pop    %rbp
  40885e:	c3                   	retq   
  40885f:	90                   	nop

0000000000408860 <_ZNSt4pairIPSt18_Rb_tree_node_baseS1_EC2IRS1_vEEOT_RKS1_>:
  408860:	55                   	push   %rbp
  408861:	48 89 e5             	mov    %rsp,%rbp
  408864:	48 83 ec 20          	sub    $0x20,%rsp
  408868:	48 89 7d f8          	mov    %rdi,-0x8(%rbp)
  40886c:	48 89 75 f0          	mov    %rsi,-0x10(%rbp)
  408870:	48 89 55 e8          	mov    %rdx,-0x18(%rbp)
  408874:	48 8b 55 f8          	mov    -0x8(%rbp),%rdx
  408878:	48 8b 7d f0          	mov    -0x10(%rbp),%rdi
  40887c:	48 89 55 e0          	mov    %rdx,-0x20(%rbp)
  408880:	e8 3b 00 00 00       	callq  4088c0 <_ZSt7forwardIRPSt18_Rb_tree_node_baseEOT_RNSt16remove_referenceIS3_E4typeE>
  408885:	48 8b 00             	mov    (%rax),%rax
  408888:	48 8b 55 e0          	mov    -0x20(%rbp),%rdx
  40888c:	48 89 02             	mov    %rax,(%rdx)
  40888f:	48 8b 45 e8          	mov    -0x18(%rbp),%rax
  408893:	48 8b 00             	mov    (%rax),%rax
  408896:	48 89 42 08          	mov    %rax,0x8(%rdx)
  40889a:	48 83 c4 20          	add    $0x20,%rsp
  40889e:	5d                   	pop    %rbp
  40889f:	c3                   	retq   

00000000004088a0 <_ZNSt8_Rb_treeINSt7__cxx1112basic_stringIcSt11char_traitsIcESaIcEEESt4pairIKS5_S5_ESt10_Select1stIS8_ESt4lessIS5_ESaIS8_EE8_S_valueEPKSt18_Rb_tree_node_base>:
  4088a0:	55                   	push   %rbp
  4088a1:	48 89 e5             	mov    %rsp,%rbp
  4088a4:	48 83 ec 10          	sub    $0x10,%rsp
  4088a8:	48 89 7d f8          	mov    %rdi,-0x8(%rbp)
  4088ac:	48 8b 7d f8          	mov    -0x8(%rbp),%rdi
  4088b0:	e8 3b f1 ff ff       	callq  4079f0 <_ZNKSt13_Rb_tree_nodeISt4pairIKNSt7__cxx1112basic_stringIcSt11char_traitsIcESaIcEEES6_EE9_M_valptrEv>
  4088b5:	48 83 c4 10          	add    $0x10,%rsp
  4088b9:	5d                   	pop    %rbp
  4088ba:	c3                   	retq   
  4088bb:	0f 1f 44 00 00       	nopl   0x0(%rax,%rax,1)

00000000004088c0 <_ZSt7forwardIRPSt18_Rb_tree_node_baseEOT_RNSt16remove_referenceIS3_E4typeE>:
  4088c0:	55                   	push   %rbp
  4088c1:	48 89 e5             	mov    %rsp,%rbp
  4088c4:	48 89 7d f8          	mov    %rdi,-0x8(%rbp)
  4088c8:	48 8b 45 f8          	mov    -0x8(%rbp),%rax
  4088cc:	5d                   	pop    %rbp
  4088cd:	c3                   	retq   
  4088ce:	66 90                	xchg   %ax,%ax

00000000004088d0 <_ZNSt8_Rb_treeINSt7__cxx1112basic_stringIcSt11char_traitsIcESaIcEEESt4pairIKS5_S5_ESt10_Select1stIS8_ESt4lessIS5_ESaIS8_EE5beginEv>:
  4088d0:	55                   	push   %rbp
  4088d1:	48 89 e5             	mov    %rsp,%rbp
  4088d4:	48 83 ec 10          	sub    $0x10,%rsp
  4088d8:	48 8d 45 f8          	lea    -0x8(%rbp),%rax
  4088dc:	48 89 7d f0          	mov    %rdi,-0x10(%rbp)
  4088e0:	48 8b 7d f0          	mov    -0x10(%rbp),%rdi
  4088e4:	48 8b 77 18          	mov    0x18(%rdi),%rsi
  4088e8:	48 89 c7             	mov    %rax,%rdi
  4088eb:	e8 a0 f0 ff ff       	callq  407990 <_ZNSt17_Rb_tree_iteratorISt4pairIKNSt7__cxx1112basic_stringIcSt11char_traitsIcESaIcEEES6_EEC2EPSt18_Rb_tree_node_base>
  4088f0:	48 8b 45 f8          	mov    -0x8(%rbp),%rax
  4088f4:	48 83 c4 10          	add    $0x10,%rsp
  4088f8:	5d                   	pop    %rbp
  4088f9:	c3                   	retq   
  4088fa:	66 0f 1f 44 00 00    	nopw   0x0(%rax,%rax,1)

0000000000408900 <_ZNSt4pairIPSt18_Rb_tree_node_baseS1_EC2IRPSt13_Rb_tree_nodeIS_IKNSt7__cxx1112basic_stringIcSt11char_traitsIcESaIcEEESA_EESF_vEEOT_OT0_>:
  408900:	55                   	push   %rbp
  408901:	48 89 e5             	mov    %rsp,%rbp
  408904:	48 83 ec 20          	sub    $0x20,%rsp
  408908:	48 89 7d f8          	mov    %rdi,-0x8(%rbp)
  40890c:	48 89 75 f0          	mov    %rsi,-0x10(%rbp)
  408910:	48 89 55 e8          	mov    %rdx,-0x18(%rbp)
  408914:	48 8b 55 f8          	mov    -0x8(%rbp),%rdx
  408918:	48 8b 7d f0          	mov    -0x10(%rbp),%rdi
  40891c:	48 89 55 e0          	mov    %rdx,-0x20(%rbp)
  408920:	e8 2b 00 00 00       	callq  408950 <_ZSt7forwardIRPSt13_Rb_tree_nodeISt4pairIKNSt7__cxx1112basic_stringIcSt11char_traitsIcESaIcEEES7_EEEOT_RNSt16remove_referenceISD_E4typeE>
  408925:	48 8b 00             	mov    (%rax),%rax
  408928:	48 8b 55 e0          	mov    -0x20(%rbp),%rdx
  40892c:	48 89 02             	mov    %rax,(%rdx)
  40892f:	48 8b 7d e8          	mov    -0x18(%rbp),%rdi
  408933:	e8 18 00 00 00       	callq  408950 <_ZSt7forwardIRPSt13_Rb_tree_nodeISt4pairIKNSt7__cxx1112basic_stringIcSt11char_traitsIcESaIcEEES7_EEEOT_RNSt16remove_referenceISD_E4typeE>
  408938:	48 8b 00             	mov    (%rax),%rax
  40893b:	48 8b 55 e0          	mov    -0x20(%rbp),%rdx
  40893f:	48 89 42 08          	mov    %rax,0x8(%rdx)
  408943:	48 83 c4 20          	add    $0x20,%rsp
  408947:	5d                   	pop    %rbp
  408948:	c3                   	retq   
  408949:	0f 1f 80 00 00 00 00 	nopl   0x0(%rax)

0000000000408950 <_ZSt7forwardIRPSt13_Rb_tree_nodeISt4pairIKNSt7__cxx1112basic_stringIcSt11char_traitsIcESaIcEEES7_EEEOT_RNSt16remove_referenceISD_E4typeE>:
  408950:	55                   	push   %rbp
  408951:	48 89 e5             	mov    %rsp,%rbp
  408954:	48 89 7d f8          	mov    %rdi,-0x8(%rbp)
  408958:	48 8b 45 f8          	mov    -0x8(%rbp),%rax
  40895c:	5d                   	pop    %rbp
  40895d:	c3                   	retq   
  40895e:	66 90                	xchg   %ax,%ax

0000000000408960 <_ZNSt8_Rb_treeINSt7__cxx1112basic_stringIcSt11char_traitsIcESaIcEEESt4pairIKS5_S5_ESt10_Select1stIS8_ESt4lessIS5_ESaIS8_EE15_M_destroy_nodeEPSt13_Rb_tree_nodeIS8_E>:
  408960:	55                   	push   %rbp
  408961:	48 89 e5             	mov    %rsp,%rbp
  408964:	48 83 ec 30          	sub    $0x30,%rsp
  408968:	48 89 7d f8          	mov    %rdi,-0x8(%rbp)
  40896c:	48 89 75 f0          	mov    %rsi,-0x10(%rbp)
  408970:	48 8b 7d f8          	mov    -0x8(%rbp),%rdi
  408974:	e8 87 f7 ff ff       	callq  408100 <_ZNSt8_Rb_treeINSt7__cxx1112basic_stringIcSt11char_traitsIcESaIcEEESt4pairIKS5_S5_ESt10_Select1stIS8_ESt4lessIS5_ESaIS8_EE21_M_get_Node_allocatorEv>
  408979:	48 8b 7d f0          	mov    -0x10(%rbp),%rdi
  40897d:	48 89 45 e8          	mov    %rax,-0x18(%rbp)
  408981:	e8 7a f8 ff ff       	callq  408200 <_ZNSt13_Rb_tree_nodeISt4pairIKNSt7__cxx1112basic_stringIcSt11char_traitsIcESaIcEEES6_EE9_M_valptrEv>
  408986:	48 89 45 e0          	mov    %rax,-0x20(%rbp)
  40898a:	e9 00 00 00 00       	jmpq   40898f <_ZNSt8_Rb_treeINSt7__cxx1112basic_stringIcSt11char_traitsIcESaIcEEESt4pairIKS5_S5_ESt10_Select1stIS8_ESt4lessIS5_ESaIS8_EE15_M_destroy_nodeEPSt13_Rb_tree_nodeIS8_E+0x2f>
  40898f:	48 8b 7d e8          	mov    -0x18(%rbp),%rdi
  408993:	48 8b 75 e0          	mov    -0x20(%rbp),%rsi
  408997:	e8 24 00 00 00       	callq  4089c0 <_ZNSt16allocator_traitsISaISt13_Rb_tree_nodeISt4pairIKNSt7__cxx1112basic_stringIcSt11char_traitsIcESaIcEEES7_EEEE7destroyIS9_EEvRSB_PT_>
  40899c:	e9 00 00 00 00       	jmpq   4089a1 <_ZNSt8_Rb_treeINSt7__cxx1112basic_stringIcSt11char_traitsIcESaIcEEESt4pairIKS5_S5_ESt10_Select1stIS8_ESt4lessIS5_ESaIS8_EE15_M_destroy_nodeEPSt13_Rb_tree_nodeIS8_E+0x41>
  4089a1:	48 83 c4 30          	add    $0x30,%rsp
  4089a5:	5d                   	pop    %rbp
  4089a6:	c3                   	retq   
  4089a7:	89 d1                	mov    %edx,%ecx
  4089a9:	48 89 c7             	mov    %rax,%rdi
  4089ac:	89 4d dc             	mov    %ecx,-0x24(%rbp)
  4089af:	e8 0c eb ff ff       	callq  4074c0 <__clang_call_terminate>
  4089b4:	66 2e 0f 1f 84 00 00 	nopw   %cs:0x0(%rax,%rax,1)
  4089bb:	00 00 00 
  4089be:	66 90                	xchg   %ax,%ax

00000000004089c0 <_ZNSt16allocator_traitsISaISt13_Rb_tree_nodeISt4pairIKNSt7__cxx1112basic_stringIcSt11char_traitsIcESaIcEEES7_EEEE7destroyIS9_EEvRSB_PT_>:
  4089c0:	55                   	push   %rbp
  4089c1:	48 89 e5             	mov    %rsp,%rbp
  4089c4:	48 83 ec 20          	sub    $0x20,%rsp
  4089c8:	48 89 7d f8          	mov    %rdi,-0x8(%rbp)
  4089cc:	48 89 75 f0          	mov    %rsi,-0x10(%rbp)
  4089d0:	48 8b 75 f8          	mov    -0x8(%rbp),%rsi
  4089d4:	48 8b 7d f0          	mov    -0x10(%rbp),%rdi
  4089d8:	48 89 7d e8          	mov    %rdi,-0x18(%rbp)
  4089dc:	48 89 f7             	mov    %rsi,%rdi
  4089df:	48 8b 75 e8          	mov    -0x18(%rbp),%rsi
  4089e3:	e8 08 00 00 00       	callq  4089f0 <_ZN9__gnu_cxx13new_allocatorISt13_Rb_tree_nodeISt4pairIKNSt7__cxx1112basic_stringIcSt11char_traitsIcESaIcEEES8_EEE7destroyISA_EEvPT_>
  4089e8:	48 83 c4 20          	add    $0x20,%rsp
  4089ec:	5d                   	pop    %rbp
  4089ed:	c3                   	retq   
  4089ee:	66 90                	xchg   %ax,%ax

00000000004089f0 <_ZN9__gnu_cxx13new_allocatorISt13_Rb_tree_nodeISt4pairIKNSt7__cxx1112basic_stringIcSt11char_traitsIcESaIcEEES8_EEE7destroyISA_EEvPT_>:
  4089f0:	55                   	push   %rbp
  4089f1:	48 89 e5             	mov    %rsp,%rbp
  4089f4:	48 83 ec 10          	sub    $0x10,%rsp
  4089f8:	48 89 7d f8          	mov    %rdi,-0x8(%rbp)
  4089fc:	48 89 75 f0          	mov    %rsi,-0x10(%rbp)
  408a00:	48 8b 7d f0          	mov    -0x10(%rbp),%rdi
  408a04:	e8 07 00 00 00       	callq  408a10 <_ZNSt4pairIKNSt7__cxx1112basic_stringIcSt11char_traitsIcESaIcEEES5_ED2Ev>
  408a09:	48 83 c4 10          	add    $0x10,%rsp
  408a0d:	5d                   	pop    %rbp
  408a0e:	c3                   	retq   
  408a0f:	90                   	nop

0000000000408a10 <_ZNSt4pairIKNSt7__cxx1112basic_stringIcSt11char_traitsIcESaIcEEES5_ED2Ev>:
  408a10:	55                   	push   %rbp
  408a11:	48 89 e5             	mov    %rsp,%rbp
  408a14:	48 83 ec 10          	sub    $0x10,%rsp
  408a18:	48 89 7d f8          	mov    %rdi,-0x8(%rbp)
  408a1c:	48 8b 7d f8          	mov    -0x8(%rbp),%rdi
  408a20:	48 89 f8             	mov    %rdi,%rax
  408a23:	48 83 c0 20          	add    $0x20,%rax
  408a27:	48 89 7d f0          	mov    %rdi,-0x10(%rbp)
  408a2b:	48 89 c7             	mov    %rax,%rdi
  408a2e:	e8 2d a2 ff ff       	callq  402c60 <_ZNSt7__cxx1112basic_stringIcSt11char_traitsIcESaIcEED1Ev@plt>
  408a33:	48 8b 7d f0          	mov    -0x10(%rbp),%rdi
  408a37:	e8 24 a2 ff ff       	callq  402c60 <_ZNSt7__cxx1112basic_stringIcSt11char_traitsIcESaIcEED1Ev@plt>
  408a3c:	48 83 c4 10          	add    $0x10,%rsp
  408a40:	5d                   	pop    %rbp
  408a41:	c3                   	retq   
  408a42:	66 2e 0f 1f 84 00 00 	nopw   %cs:0x0(%rax,%rax,1)
  408a49:	00 00 00 
  408a4c:	0f 1f 40 00          	nopl   0x0(%rax)

0000000000408a50 <_ZNSt5tupleIJONSt7__cxx1112basic_stringIcSt11char_traitsIcESaIcEEEEEC2IJS5_EvEEDpOT_>:
  408a50:	55                   	push   %rbp
  408a51:	48 89 e5             	mov    %rsp,%rbp
  408a54:	48 83 ec 20          	sub    $0x20,%rsp
  408a58:	48 89 7d f8          	mov    %rdi,-0x8(%rbp)
  408a5c:	48 89 75 f0          	mov    %rsi,-0x10(%rbp)
  408a60:	48 8b 75 f8          	mov    -0x8(%rbp),%rsi
  408a64:	48 8b 7d f0          	mov    -0x10(%rbp),%rdi
  408a68:	48 89 75 e8          	mov    %rsi,-0x18(%rbp)
  408a6c:	e8 9f f9 ff ff       	callq  408410 <_ZSt7forwardINSt7__cxx1112basic_stringIcSt11char_traitsIcESaIcEEEEOT_RNSt16remove_referenceIS6_E4typeE>
  408a71:	48 8b 7d e8          	mov    -0x18(%rbp),%rdi
  408a75:	48 89 c6             	mov    %rax,%rsi
  408a78:	e8 13 00 00 00       	callq  408a90 <_ZNSt11_Tuple_implILm0EJONSt7__cxx1112basic_stringIcSt11char_traitsIcESaIcEEEEEC2IS5_EEOT_>
  408a7d:	48 83 c4 20          	add    $0x20,%rsp
  408a81:	5d                   	pop    %rbp
  408a82:	c3                   	retq   
  408a83:	66 2e 0f 1f 84 00 00 	nopw   %cs:0x0(%rax,%rax,1)
  408a8a:	00 00 00 
  408a8d:	0f 1f 00             	nopl   (%rax)

0000000000408a90 <_ZNSt11_Tuple_implILm0EJONSt7__cxx1112basic_stringIcSt11char_traitsIcESaIcEEEEEC2IS5_EEOT_>:
  408a90:	55                   	push   %rbp
  408a91:	48 89 e5             	mov    %rsp,%rbp
  408a94:	48 83 ec 20          	sub    $0x20,%rsp
  408a98:	48 89 7d f8          	mov    %rdi,-0x8(%rbp)
  408a9c:	48 89 75 f0          	mov    %rsi,-0x10(%rbp)
  408aa0:	48 8b 75 f8          	mov    -0x8(%rbp),%rsi
  408aa4:	48 8b 7d f0          	mov    -0x10(%rbp),%rdi
  408aa8:	48 89 75 e8          	mov    %rsi,-0x18(%rbp)
  408aac:	e8 5f f9 ff ff       	callq  408410 <_ZSt7forwardINSt7__cxx1112basic_stringIcSt11char_traitsIcESaIcEEEEOT_RNSt16remove_referenceIS6_E4typeE>
  408ab1:	48 8b 7d e8          	mov    -0x18(%rbp),%rdi
  408ab5:	48 89 c6             	mov    %rax,%rsi
  408ab8:	e8 03 f9 ff ff       	callq  4083c0 <_ZNSt10_Head_baseILm0EONSt7__cxx1112basic_stringIcSt11char_traitsIcESaIcEEELb0EEC2IS5_EEOT_>
  408abd:	48 83 c4 20          	add    $0x20,%rsp
  408ac1:	5d                   	pop    %rbp
  408ac2:	c3                   	retq   
  408ac3:	66 2e 0f 1f 84 00 00 	nopw   %cs:0x0(%rax,%rax,1)
  408aca:	00 00 00 
  408acd:	0f 1f 00             	nopl   (%rax)

0000000000408ad0 <_ZNSt8_Rb_treeINSt7__cxx1112basic_stringIcSt11char_traitsIcESaIcEEESt4pairIKS5_S5_ESt10_Select1stIS8_ESt4lessIS5_ESaIS8_EE3endEv>:
  408ad0:	55                   	push   %rbp
  408ad1:	48 89 e5             	mov    %rsp,%rbp
  408ad4:	48 83 ec 20          	sub    $0x20,%rsp
  408ad8:	48 8d 45 f8          	lea    -0x8(%rbp),%rax
  408adc:	48 89 7d f0          	mov    %rdi,-0x10(%rbp)
  408ae0:	48 8b 7d f0          	mov    -0x10(%rbp),%rdi
  408ae4:	48 83 c7 08          	add    $0x8,%rdi
  408ae8:	48 89 7d e8          	mov    %rdi,-0x18(%rbp)
  408aec:	48 89 c7             	mov    %rax,%rdi
  408aef:	48 8b 75 e8          	mov    -0x18(%rbp),%rsi
  408af3:	e8 98 ee ff ff       	callq  407990 <_ZNSt17_Rb_tree_iteratorISt4pairIKNSt7__cxx1112basic_stringIcSt11char_traitsIcESaIcEEES6_EEC2EPSt18_Rb_tree_node_base>
  408af8:	48 8b 45 f8          	mov    -0x8(%rbp),%rax
  408afc:	48 83 c4 20          	add    $0x20,%rsp
  408b00:	5d                   	pop    %rbp
  408b01:	c3                   	retq   
  408b02:	66 2e 0f 1f 84 00 00 	nopw   %cs:0x0(%rax,%rax,1)
  408b09:	00 00 00 
  408b0c:	0f 1f 40 00          	nopl   0x0(%rax)

0000000000408b10 <_ZNSt8_Rb_treeINSt7__cxx1112basic_stringIcSt11char_traitsIcESaIcEEESt4pairIKS5_S5_ESt10_Select1stIS8_ESt4lessIS5_ESaIS8_EE5clearEv>:
  408b10:	55                   	push   %rbp
  408b11:	48 89 e5             	mov    %rsp,%rbp
  408b14:	48 83 ec 20          	sub    $0x20,%rsp
  408b18:	48 89 7d f8          	mov    %rdi,-0x8(%rbp)
  408b1c:	48 89 f8             	mov    %rdi,%rax
  408b1f:	48 89 7d f0          	mov    %rdi,-0x10(%rbp)
  408b23:	48 89 45 e8          	mov    %rax,-0x18(%rbp)
  408b27:	e8 b4 ed ff ff       	callq  4078e0 <_ZNSt8_Rb_treeINSt7__cxx1112basic_stringIcSt11char_traitsIcESaIcEEESt4pairIKS5_S5_ESt10_Select1stIS8_ESt4lessIS5_ESaIS8_EE8_M_beginEv>
  408b2c:	48 8b 7d f0          	mov    -0x10(%rbp),%rdi
  408b30:	48 89 c6             	mov    %rax,%rsi
  408b33:	e8 28 00 00 00       	callq  408b60 <_ZNSt8_Rb_treeINSt7__cxx1112basic_stringIcSt11char_traitsIcESaIcEEESt4pairIKS5_S5_ESt10_Select1stIS8_ESt4lessIS5_ESaIS8_EE8_M_eraseEPSt13_Rb_tree_nodeIS8_E>
  408b38:	e9 00 00 00 00       	jmpq   408b3d <_ZNSt8_Rb_treeINSt7__cxx1112basic_stringIcSt11char_traitsIcESaIcEEESt4pairIKS5_S5_ESt10_Select1stIS8_ESt4lessIS5_ESaIS8_EE5clearEv+0x2d>
  408b3d:	48 8b 7d e8          	mov    -0x18(%rbp),%rdi
  408b41:	e8 8a 00 00 00       	callq  408bd0 <_ZNSt8_Rb_treeINSt7__cxx1112basic_stringIcSt11char_traitsIcESaIcEEESt4pairIKS5_S5_ESt10_Select1stIS8_ESt4lessIS5_ESaIS8_EE13_Rb_tree_implISC_Lb1EE8_M_resetEv>
  408b46:	e9 00 00 00 00       	jmpq   408b4b <_ZNSt8_Rb_treeINSt7__cxx1112basic_stringIcSt11char_traitsIcESaIcEEESt4pairIKS5_S5_ESt10_Select1stIS8_ESt4lessIS5_ESaIS8_EE5clearEv+0x3b>
  408b4b:	48 83 c4 20          	add    $0x20,%rsp
  408b4f:	5d                   	pop    %rbp
  408b50:	c3                   	retq   
  408b51:	89 d1                	mov    %edx,%ecx
  408b53:	48 89 c7             	mov    %rax,%rdi
  408b56:	89 4d e4             	mov    %ecx,-0x1c(%rbp)
  408b59:	e8 62 e9 ff ff       	callq  4074c0 <__clang_call_terminate>
  408b5e:	66 90                	xchg   %ax,%ax

0000000000408b60 <_ZNSt8_Rb_treeINSt7__cxx1112basic_stringIcSt11char_traitsIcESaIcEEESt4pairIKS5_S5_ESt10_Select1stIS8_ESt4lessIS5_ESaIS8_EE8_M_eraseEPSt13_Rb_tree_nodeIS8_E>:
  408b60:	55                   	push   %rbp
  408b61:	48 89 e5             	mov    %rsp,%rbp
  408b64:	48 83 ec 20          	sub    $0x20,%rsp
  408b68:	48 89 7d f8          	mov    %rdi,-0x8(%rbp)
  408b6c:	48 89 75 f0          	mov    %rsi,-0x10(%rbp)
  408b70:	48 8b 75 f8          	mov    -0x8(%rbp),%rsi
  408b74:	48 89 75 e0          	mov    %rsi,-0x20(%rbp)
  408b78:	48 83 7d f0 00       	cmpq   $0x0,-0x10(%rbp)
  408b7d:	0f 84 42 00 00 00    	je     408bc5 <_ZNSt8_Rb_treeINSt7__cxx1112basic_stringIcSt11char_traitsIcESaIcEEESt4pairIKS5_S5_ESt10_Select1stIS8_ESt4lessIS5_ESaIS8_EE8_M_eraseEPSt13_Rb_tree_nodeIS8_E+0x65>
  408b83:	48 8b 45 f0          	mov    -0x10(%rbp),%rax
  408b87:	48 89 c7             	mov    %rax,%rdi
  408b8a:	e8 e1 ed ff ff       	callq  407970 <_ZNSt8_Rb_treeINSt7__cxx1112basic_stringIcSt11char_traitsIcESaIcEEESt4pairIKS5_S5_ESt10_Select1stIS8_ESt4lessIS5_ESaIS8_EE8_S_rightEPSt18_Rb_tree_node_base>
  408b8f:	48 8b 7d e0          	mov    -0x20(%rbp),%rdi
  408b93:	48 89 c6             	mov    %rax,%rsi
  408b96:	e8 c5 ff ff ff       	callq  408b60 <_ZNSt8_Rb_treeINSt7__cxx1112basic_stringIcSt11char_traitsIcESaIcEEESt4pairIKS5_S5_ESt10_Select1stIS8_ESt4lessIS5_ESaIS8_EE8_M_eraseEPSt13_Rb_tree_nodeIS8_E>
  408b9b:	48 8b 45 f0          	mov    -0x10(%rbp),%rax
  408b9f:	48 89 c7             	mov    %rax,%rdi
  408ba2:	e8 a9 ed ff ff       	callq  407950 <_ZNSt8_Rb_treeINSt7__cxx1112basic_stringIcSt11char_traitsIcESaIcEEESt4pairIKS5_S5_ESt10_Select1stIS8_ESt4lessIS5_ESaIS8_EE7_S_leftEPSt18_Rb_tree_node_base>
  408ba7:	48 89 45 e8          	mov    %rax,-0x18(%rbp)
  408bab:	48 8b 75 f0          	mov    -0x10(%rbp),%rsi
  408baf:	48 8b 7d e0          	mov    -0x20(%rbp),%rdi
  408bb3:	e8 98 f3 ff ff       	callq  407f50 <_ZNSt8_Rb_treeINSt7__cxx1112basic_stringIcSt11char_traitsIcESaIcEEESt4pairIKS5_S5_ESt10_Select1stIS8_ESt4lessIS5_ESaIS8_EE12_M_drop_nodeEPSt13_Rb_tree_nodeIS8_E>
  408bb8:	48 8b 45 e8          	mov    -0x18(%rbp),%rax
  408bbc:	48 89 45 f0          	mov    %rax,-0x10(%rbp)
  408bc0:	e9 b3 ff ff ff       	jmpq   408b78 <_ZNSt8_Rb_treeINSt7__cxx1112basic_stringIcSt11char_traitsIcESaIcEEESt4pairIKS5_S5_ESt10_Select1stIS8_ESt4lessIS5_ESaIS8_EE8_M_eraseEPSt13_Rb_tree_nodeIS8_E+0x18>
  408bc5:	48 83 c4 20          	add    $0x20,%rsp
  408bc9:	5d                   	pop    %rbp
  408bca:	c3                   	retq   
  408bcb:	0f 1f 44 00 00       	nopl   0x0(%rax,%rax,1)

0000000000408bd0 <_ZNSt8_Rb_treeINSt7__cxx1112basic_stringIcSt11char_traitsIcESaIcEEESt4pairIKS5_S5_ESt10_Select1stIS8_ESt4lessIS5_ESaIS8_EE13_Rb_tree_implISC_Lb1EE8_M_resetEv>:
  408bd0:	55                   	push   %rbp
  408bd1:	48 89 e5             	mov    %rsp,%rbp
  408bd4:	48 89 7d f8          	mov    %rdi,-0x8(%rbp)
  408bd8:	48 8b 7d f8          	mov    -0x8(%rbp),%rdi
  408bdc:	48 c7 47 10 00 00 00 	movq   $0x0,0x10(%rdi)
  408be3:	00 
  408be4:	48 89 f8             	mov    %rdi,%rax
  408be7:	48 83 c0 08          	add    $0x8,%rax
  408beb:	48 89 47 18          	mov    %rax,0x18(%rdi)
  408bef:	48 89 f8             	mov    %rdi,%rax
  408bf2:	48 83 c0 08          	add    $0x8,%rax
  408bf6:	48 89 47 20          	mov    %rax,0x20(%rdi)
  408bfa:	48 c7 47 28 00 00 00 	movq   $0x0,0x28(%rdi)
  408c01:	00 
  408c02:	5d                   	pop    %rbp
  408c03:	c3                   	retq   
  408c04:	66 2e 0f 1f 84 00 00 	nopw   %cs:0x0(%rax,%rax,1)
  408c0b:	00 00 00 
  408c0e:	66 90                	xchg   %ax,%ax

0000000000408c10 <_ZNSt6vectorIhSaIhEE15_M_erase_at_endEPh>:
  408c10:	55                   	push   %rbp
  408c11:	48 89 e5             	mov    %rsp,%rbp
  408c14:	48 83 ec 30          	sub    $0x30,%rsp
  408c18:	48 89 7d f8          	mov    %rdi,-0x8(%rbp)
  408c1c:	48 89 75 f0          	mov    %rsi,-0x10(%rbp)
  408c20:	48 8b 7d f8          	mov    -0x8(%rbp),%rdi
  408c24:	48 8b 47 08          	mov    0x8(%rdi),%rax
  408c28:	48 89 7d e8          	mov    %rdi,-0x18(%rbp)
  408c2c:	48 89 75 e0          	mov    %rsi,-0x20(%rbp)
  408c30:	48 89 45 d8          	mov    %rax,-0x28(%rbp)
  408c34:	e8 67 00 00 00       	callq  408ca0 <_ZNSt12_Vector_baseIhSaIhEE19_M_get_Tp_allocatorEv>
  408c39:	48 8b 7d e0          	mov    -0x20(%rbp),%rdi
  408c3d:	48 8b 75 d8          	mov    -0x28(%rbp),%rsi
  408c41:	48 89 c2             	mov    %rax,%rdx
  408c44:	e8 27 00 00 00       	callq  408c70 <_ZSt8_DestroyIPhhEvT_S1_RSaIT0_E>
  408c49:	e9 00 00 00 00       	jmpq   408c4e <_ZNSt6vectorIhSaIhEE15_M_erase_at_endEPh+0x3e>
  408c4e:	48 8b 45 f0          	mov    -0x10(%rbp),%rax
  408c52:	48 8b 4d e8          	mov    -0x18(%rbp),%rcx
  408c56:	48 89 41 08          	mov    %rax,0x8(%rcx)
  408c5a:	48 83 c4 30          	add    $0x30,%rsp
  408c5e:	5d                   	pop    %rbp
  408c5f:	c3                   	retq   
  408c60:	89 d1                	mov    %edx,%ecx
  408c62:	48 89 c7             	mov    %rax,%rdi
  408c65:	89 4d d4             	mov    %ecx,-0x2c(%rbp)
  408c68:	e8 53 e8 ff ff       	callq  4074c0 <__clang_call_terminate>
  408c6d:	0f 1f 00             	nopl   (%rax)

0000000000408c70 <_ZSt8_DestroyIPhhEvT_S1_RSaIT0_E>:
  408c70:	55                   	push   %rbp
  408c71:	48 89 e5             	mov    %rsp,%rbp
  408c74:	48 83 ec 20          	sub    $0x20,%rsp
  408c78:	48 89 7d f8          	mov    %rdi,-0x8(%rbp)
  408c7c:	48 89 75 f0          	mov    %rsi,-0x10(%rbp)
  408c80:	48 89 55 e8          	mov    %rdx,-0x18(%rbp)
  408c84:	48 8b 7d f8          	mov    -0x8(%rbp),%rdi
  408c88:	48 8b 75 f0          	mov    -0x10(%rbp),%rsi
  408c8c:	e8 2f 00 00 00       	callq  408cc0 <_ZSt8_DestroyIPhEvT_S1_>
  408c91:	48 83 c4 20          	add    $0x20,%rsp
  408c95:	5d                   	pop    %rbp
  408c96:	c3                   	retq   
  408c97:	66 0f 1f 84 00 00 00 	nopw   0x0(%rax,%rax,1)
  408c9e:	00 00 

0000000000408ca0 <_ZNSt12_Vector_baseIhSaIhEE19_M_get_Tp_allocatorEv>:
  408ca0:	55                   	push   %rbp
  408ca1:	48 89 e5             	mov    %rsp,%rbp
  408ca4:	48 89 7d f8          	mov    %rdi,-0x8(%rbp)
  408ca8:	48 8b 7d f8          	mov    -0x8(%rbp),%rdi
  408cac:	48 89 f8             	mov    %rdi,%rax
  408caf:	5d                   	pop    %rbp
  408cb0:	c3                   	retq   
  408cb1:	66 2e 0f 1f 84 00 00 	nopw   %cs:0x0(%rax,%rax,1)
  408cb8:	00 00 00 
  408cbb:	0f 1f 44 00 00       	nopl   0x0(%rax,%rax,1)

0000000000408cc0 <_ZSt8_DestroyIPhEvT_S1_>:
  408cc0:	55                   	push   %rbp
  408cc1:	48 89 e5             	mov    %rsp,%rbp
  408cc4:	48 83 ec 10          	sub    $0x10,%rsp
  408cc8:	48 89 7d f8          	mov    %rdi,-0x8(%rbp)
  408ccc:	48 89 75 f0          	mov    %rsi,-0x10(%rbp)
  408cd0:	48 8b 7d f8          	mov    -0x8(%rbp),%rdi
  408cd4:	48 8b 75 f0          	mov    -0x10(%rbp),%rsi
  408cd8:	e8 13 00 00 00       	callq  408cf0 <_ZNSt12_Destroy_auxILb1EE9__destroyIPhEEvT_S3_>
  408cdd:	48 83 c4 10          	add    $0x10,%rsp
  408ce1:	5d                   	pop    %rbp
  408ce2:	c3                   	retq   
  408ce3:	66 2e 0f 1f 84 00 00 	nopw   %cs:0x0(%rax,%rax,1)
  408cea:	00 00 00 
  408ced:	0f 1f 00             	nopl   (%rax)

0000000000408cf0 <_ZNSt12_Destroy_auxILb1EE9__destroyIPhEEvT_S3_>:
  408cf0:	55                   	push   %rbp
  408cf1:	48 89 e5             	mov    %rsp,%rbp
  408cf4:	48 89 7d f8          	mov    %rdi,-0x8(%rbp)
  408cf8:	48 89 75 f0          	mov    %rsi,-0x10(%rbp)
  408cfc:	5d                   	pop    %rbp
  408cfd:	c3                   	retq   
  408cfe:	66 90                	xchg   %ax,%ax

0000000000408d00 <_ZNSt8_Rb_treeINSt7__cxx1112basic_stringIcSt11char_traitsIcESaIcEEESt4pairIKS5_S5_ESt10_Select1stIS8_ESt4lessIS5_ESaIS8_EE22_M_emplace_hint_uniqueIJRKSt21piecewise_construct_tSt5tupleIJRS7_EESJ_IJEEEEESt17_Rb_tree_iteratorIS8_ESt23_Rb_tree_const_iteratorIS8_EDpOT_>:
  408d00:	55                   	push   %rbp
  408d01:	48 89 e5             	mov    %rsp,%rbp
  408d04:	48 81 ec b0 00 00 00 	sub    $0xb0,%rsp
  408d0b:	48 89 75 f0          	mov    %rsi,-0x10(%rbp)
  408d0f:	48 89 7d e8          	mov    %rdi,-0x18(%rbp)
  408d13:	48 89 55 e0          	mov    %rdx,-0x20(%rbp)
  408d17:	48 89 4d d8          	mov    %rcx,-0x28(%rbp)
  408d1b:	4c 89 45 d0          	mov    %r8,-0x30(%rbp)
  408d1f:	48 8b 4d e8          	mov    -0x18(%rbp),%rcx
  408d23:	48 8b 7d e0          	mov    -0x20(%rbp),%rdi
  408d27:	48 89 4d 98          	mov    %rcx,-0x68(%rbp)
  408d2b:	e8 e0 ed ff ff       	callq  407b10 <_ZSt7forwardIRKSt21piecewise_construct_tEOT_RNSt16remove_referenceIS3_E4typeE>
  408d30:	48 8b 7d d8          	mov    -0x28(%rbp),%rdi
  408d34:	48 89 45 90          	mov    %rax,-0x70(%rbp)
  408d38:	e8 f3 01 00 00       	callq  408f30 <_ZSt7forwardISt5tupleIJRKNSt7__cxx1112basic_stringIcSt11char_traitsIcESaIcEEEEEEOT_RNSt16remove_referenceISA_E4typeE>
  408d3d:	48 8b 7d d0          	mov    -0x30(%rbp),%rdi
  408d41:	48 89 45 88          	mov    %rax,-0x78(%rbp)
  408d45:	e8 e6 ed ff ff       	callq  407b30 <_ZSt7forwardISt5tupleIJEEEOT_RNSt16remove_referenceIS2_E4typeE>
  408d4a:	48 8b 7d 98          	mov    -0x68(%rbp),%rdi
  408d4e:	48 8b 75 90          	mov    -0x70(%rbp),%rsi
  408d52:	48 8b 55 88          	mov    -0x78(%rbp),%rdx
  408d56:	48 89 c1             	mov    %rax,%rcx
  408d59:	e8 52 01 00 00       	callq  408eb0 <_ZNSt8_Rb_treeINSt7__cxx1112basic_stringIcSt11char_traitsIcESaIcEEESt4pairIKS5_S5_ESt10_Select1stIS8_ESt4lessIS5_ESaIS8_EE14_M_create_nodeIJRKSt21piecewise_construct_tSt5tupleIJRS7_EESJ_IJEEEEEPSt13_Rb_tree_nodeIS8_EDpOT_>
  408d5e:	48 89 45 c8          	mov    %rax,-0x38(%rbp)
  408d62:	48 8b 45 f0          	mov    -0x10(%rbp),%rax
  408d66:	48 89 45 b0          	mov    %rax,-0x50(%rbp)
  408d6a:	48 8b 7d c8          	mov    -0x38(%rbp),%rdi
  408d6e:	e8 ad eb ff ff       	callq  407920 <_ZNSt8_Rb_treeINSt7__cxx1112basic_stringIcSt11char_traitsIcESaIcEEESt4pairIKS5_S5_ESt10_Select1stIS8_ESt4lessIS5_ESaIS8_EE6_S_keyEPKSt13_Rb_tree_nodeIS8_E>
  408d73:	48 89 45 80          	mov    %rax,-0x80(%rbp)
  408d77:	e9 00 00 00 00       	jmpq   408d7c <_ZNSt8_Rb_treeINSt7__cxx1112basic_stringIcSt11char_traitsIcESaIcEEESt4pairIKS5_S5_ESt10_Select1stIS8_ESt4lessIS5_ESaIS8_EE22_M_emplace_hint_uniqueIJRKSt21piecewise_construct_tSt5tupleIJRS7_EESJ_IJEEEEESt17_Rb_tree_iteratorIS8_ESt23_Rb_tree_const_iteratorIS8_EDpOT_+0x7c>
  408d7c:	48 8b 75 b0          	mov    -0x50(%rbp),%rsi
  408d80:	48 8b 7d 98          	mov    -0x68(%rbp),%rdi
  408d84:	48 8b 55 80          	mov    -0x80(%rbp),%rdx
  408d88:	e8 b3 ed ff ff       	callq  407b40 <_ZNSt8_Rb_treeINSt7__cxx1112basic_stringIcSt11char_traitsIcESaIcEEESt4pairIKS5_S5_ESt10_Select1stIS8_ESt4lessIS5_ESaIS8_EE29_M_get_insert_hint_unique_posESt23_Rb_tree_const_iteratorIS8_ERS7_>
  408d8d:	48 89 95 78 ff ff ff 	mov    %rdx,-0x88(%rbp)
  408d94:	48 89 85 70 ff ff ff 	mov    %rax,-0x90(%rbp)
  408d9b:	e9 00 00 00 00       	jmpq   408da0 <_ZNSt8_Rb_treeINSt7__cxx1112basic_stringIcSt11char_traitsIcESaIcEEESt4pairIKS5_S5_ESt10_Select1stIS8_ESt4lessIS5_ESaIS8_EE22_M_emplace_hint_uniqueIJRKSt21piecewise_construct_tSt5tupleIJRS7_EESJ_IJEEEEESt17_Rb_tree_iteratorIS8_ESt23_Rb_tree_const_iteratorIS8_EDpOT_+0xa0>
  408da0:	48 8b 85 70 ff ff ff 	mov    -0x90(%rbp),%rax
  408da7:	48 89 45 b8          	mov    %rax,-0x48(%rbp)
  408dab:	48 8b 85 78 ff ff ff 	mov    -0x88(%rbp),%rax
  408db2:	48 89 45 c0          	mov    %rax,-0x40(%rbp)
  408db6:	48 83 7d c0 00       	cmpq   $0x0,-0x40(%rbp)
  408dbb:	0f 84 61 00 00 00    	je     408e22 <_ZNSt8_Rb_treeINSt7__cxx1112basic_stringIcSt11char_traitsIcESaIcEEESt4pairIKS5_S5_ESt10_Select1stIS8_ESt4lessIS5_ESaIS8_EE22_M_emplace_hint_uniqueIJRKSt21piecewise_construct_tSt5tupleIJRS7_EESJ_IJEEEEESt17_Rb_tree_iteratorIS8_ESt23_Rb_tree_const_iteratorIS8_EDpOT_+0x122>
  408dc1:	48 8b 75 b8          	mov    -0x48(%rbp),%rsi
  408dc5:	48 8b 55 c0          	mov    -0x40(%rbp),%rdx
  408dc9:	48 8b 4d c8          	mov    -0x38(%rbp),%rcx
  408dcd:	48 8b 7d 98          	mov    -0x68(%rbp),%rdi
  408dd1:	e8 9a f0 ff ff       	callq  407e70 <_ZNSt8_Rb_treeINSt7__cxx1112basic_stringIcSt11char_traitsIcESaIcEEESt4pairIKS5_S5_ESt10_Select1stIS8_ESt4lessIS5_ESaIS8_EE14_M_insert_nodeEPSt18_Rb_tree_node_baseSG_PSt13_Rb_tree_nodeIS8_E>
  408dd6:	48 89 85 68 ff ff ff 	mov    %rax,-0x98(%rbp)
  408ddd:	e9 00 00 00 00       	jmpq   408de2 <_ZNSt8_Rb_treeINSt7__cxx1112basic_stringIcSt11char_traitsIcESaIcEEESt4pairIKS5_S5_ESt10_Select1stIS8_ESt4lessIS5_ESaIS8_EE22_M_emplace_hint_uniqueIJRKSt21piecewise_construct_tSt5tupleIJRS7_EESJ_IJEEEEESt17_Rb_tree_iteratorIS8_ESt23_Rb_tree_const_iteratorIS8_EDpOT_+0xe2>
  408de2:	48 8b 85 68 ff ff ff 	mov    -0x98(%rbp),%rax
  408de9:	48 89 45 f8          	mov    %rax,-0x8(%rbp)
  408ded:	e9 67 00 00 00       	jmpq   408e59 <_ZNSt8_Rb_treeINSt7__cxx1112basic_stringIcSt11char_traitsIcESaIcEEESt4pairIKS5_S5_ESt10_Select1stIS8_ESt4lessIS5_ESaIS8_EE22_M_emplace_hint_uniqueIJRKSt21piecewise_construct_tSt5tupleIJRS7_EESJ_IJEEEEESt17_Rb_tree_iteratorIS8_ESt23_Rb_tree_const_iteratorIS8_EDpOT_+0x159>
  408df2:	89 d1                	mov    %edx,%ecx
  408df4:	48 89 45 a8          	mov    %rax,-0x58(%rbp)
  408df8:	89 4d a4             	mov    %ecx,-0x5c(%rbp)
  408dfb:	48 8b 7d a8          	mov    -0x58(%rbp),%rdi
  408dff:	e8 bc 9d ff ff       	callq  402bc0 <__cxa_begin_catch@plt>
  408e04:	48 8b 75 c8          	mov    -0x38(%rbp),%rsi
  408e08:	48 8b 7d 98          	mov    -0x68(%rbp),%rdi
  408e0c:	48 89 85 60 ff ff ff 	mov    %rax,-0xa0(%rbp)
  408e13:	e8 38 f1 ff ff       	callq  407f50 <_ZNSt8_Rb_treeINSt7__cxx1112basic_stringIcSt11char_traitsIcESaIcEEESt4pairIKS5_S5_ESt10_Select1stIS8_ESt4lessIS5_ESaIS8_EE12_M_drop_nodeEPSt13_Rb_tree_nodeIS8_E>
  408e18:	e8 f3 a0 ff ff       	callq  402f10 <__cxa_rethrow@plt>
  408e1d:	e9 5d 00 00 00       	jmpq   408e7f <_ZNSt8_Rb_treeINSt7__cxx1112basic_stringIcSt11char_traitsIcESaIcEEESt4pairIKS5_S5_ESt10_Select1stIS8_ESt4lessIS5_ESaIS8_EE22_M_emplace_hint_uniqueIJRKSt21piecewise_construct_tSt5tupleIJRS7_EESJ_IJEEEEESt17_Rb_tree_iteratorIS8_ESt23_Rb_tree_const_iteratorIS8_EDpOT_+0x17f>
  408e22:	48 8b 75 c8          	mov    -0x38(%rbp),%rsi
  408e26:	48 8b 7d 98          	mov    -0x68(%rbp),%rdi
  408e2a:	e8 21 f1 ff ff       	callq  407f50 <_ZNSt8_Rb_treeINSt7__cxx1112basic_stringIcSt11char_traitsIcESaIcEEESt4pairIKS5_S5_ESt10_Select1stIS8_ESt4lessIS5_ESaIS8_EE12_M_drop_nodeEPSt13_Rb_tree_nodeIS8_E>
  408e2f:	48 8d 7d f8          	lea    -0x8(%rbp),%rdi
  408e33:	48 8b 75 b8          	mov    -0x48(%rbp),%rsi
  408e37:	e8 54 eb ff ff       	callq  407990 <_ZNSt17_Rb_tree_iteratorISt4pairIKNSt7__cxx1112basic_stringIcSt11char_traitsIcESaIcEEES6_EEC2EPSt18_Rb_tree_node_base>
  408e3c:	e9 18 00 00 00       	jmpq   408e59 <_ZNSt8_Rb_treeINSt7__cxx1112basic_stringIcSt11char_traitsIcESaIcEEESt4pairIKS5_S5_ESt10_Select1stIS8_ESt4lessIS5_ESaIS8_EE22_M_emplace_hint_uniqueIJRKSt21piecewise_construct_tSt5tupleIJRS7_EESJ_IJEEEEESt17_Rb_tree_iteratorIS8_ESt23_Rb_tree_const_iteratorIS8_EDpOT_+0x159>
  408e41:	89 d1                	mov    %edx,%ecx
  408e43:	48 89 45 a8          	mov    %rax,-0x58(%rbp)
  408e47:	89 4d a4             	mov    %ecx,-0x5c(%rbp)
  408e4a:	e8 41 a1 ff ff       	callq  402f90 <__cxa_end_catch@plt>
  408e4f:	e9 00 00 00 00       	jmpq   408e54 <_ZNSt8_Rb_treeINSt7__cxx1112basic_stringIcSt11char_traitsIcESaIcEEESt4pairIKS5_S5_ESt10_Select1stIS8_ESt4lessIS5_ESaIS8_EE22_M_emplace_hint_uniqueIJRKSt21piecewise_construct_tSt5tupleIJRS7_EESJ_IJEEEEESt17_Rb_tree_iteratorIS8_ESt23_Rb_tree_const_iteratorIS8_EDpOT_+0x154>
  408e54:	e9 0d 00 00 00       	jmpq   408e66 <_ZNSt8_Rb_treeINSt7__cxx1112basic_stringIcSt11char_traitsIcESaIcEEESt4pairIKS5_S5_ESt10_Select1stIS8_ESt4lessIS5_ESaIS8_EE22_M_emplace_hint_uniqueIJRKSt21piecewise_construct_tSt5tupleIJRS7_EESJ_IJEEEEESt17_Rb_tree_iteratorIS8_ESt23_Rb_tree_const_iteratorIS8_EDpOT_+0x166>
  408e59:	48 8b 45 f8          	mov    -0x8(%rbp),%rax
  408e5d:	48 81 c4 b0 00 00 00 	add    $0xb0,%rsp
  408e64:	5d                   	pop    %rbp
  408e65:	c3                   	retq   
  408e66:	48 8b 7d a8          	mov    -0x58(%rbp),%rdi
  408e6a:	e8 b1 a1 ff ff       	callq  403020 <_Unwind_Resume@plt>
  408e6f:	89 d1                	mov    %edx,%ecx
  408e71:	48 89 c7             	mov    %rax,%rdi
  408e74:	89 8d 5c ff ff ff    	mov    %ecx,-0xa4(%rbp)
  408e7a:	e8 41 e6 ff ff       	callq  4074c0 <__clang_call_terminate>
  408e7f:	90                   	nop

0000000000408e80 <_ZNSt5tupleIJRKNSt7__cxx1112basic_stringIcSt11char_traitsIcESaIcEEEEEC2ES7_>:
  408e80:	55                   	push   %rbp
  408e81:	48 89 e5             	mov    %rsp,%rbp
  408e84:	48 83 ec 20          	sub    $0x20,%rsp
  408e88:	48 89 7d f8          	mov    %rdi,-0x8(%rbp)
  408e8c:	48 89 75 f0          	mov    %rsi,-0x10(%rbp)
  408e90:	48 8b 75 f8          	mov    -0x8(%rbp),%rsi
  408e94:	48 8b 7d f0          	mov    -0x10(%rbp),%rdi
  408e98:	48 89 7d e8          	mov    %rdi,-0x18(%rbp)
  408e9c:	48 89 f7             	mov    %rsi,%rdi
  408e9f:	48 8b 75 e8          	mov    -0x18(%rbp),%rsi
  408ea3:	e8 18 04 00 00       	callq  4092c0 <_ZNSt11_Tuple_implILm0EJRKNSt7__cxx1112basic_stringIcSt11char_traitsIcESaIcEEEEEC2ES7_>
  408ea8:	48 83 c4 20          	add    $0x20,%rsp
  408eac:	5d                   	pop    %rbp
  408ead:	c3                   	retq   
  408eae:	66 90                	xchg   %ax,%ax

0000000000408eb0 <_ZNSt8_Rb_treeINSt7__cxx1112basic_stringIcSt11char_traitsIcESaIcEEESt4pairIKS5_S5_ESt10_Select1stIS8_ESt4lessIS5_ESaIS8_EE14_M_create_nodeIJRKSt21piecewise_construct_tSt5tupleIJRS7_EESJ_IJEEEEEPSt13_Rb_tree_nodeIS8_EDpOT_>:
  408eb0:	55                   	push   %rbp
  408eb1:	48 89 e5             	mov    %rsp,%rbp
  408eb4:	48 83 ec 50          	sub    $0x50,%rsp
  408eb8:	48 89 7d f8          	mov    %rdi,-0x8(%rbp)
  408ebc:	48 89 75 f0          	mov    %rsi,-0x10(%rbp)
  408ec0:	48 89 55 e8          	mov    %rdx,-0x18(%rbp)
  408ec4:	48 89 4d e0          	mov    %rcx,-0x20(%rbp)
  408ec8:	48 8b 4d f8          	mov    -0x8(%rbp),%rcx
  408ecc:	48 89 cf             	mov    %rcx,%rdi
  408ecf:	48 89 4d d0          	mov    %rcx,-0x30(%rbp)
  408ed3:	e8 c8 f0 ff ff       	callq  407fa0 <_ZNSt8_Rb_treeINSt7__cxx1112basic_stringIcSt11char_traitsIcESaIcEEESt4pairIKS5_S5_ESt10_Select1stIS8_ESt4lessIS5_ESaIS8_EE11_M_get_nodeEv>
  408ed8:	48 89 45 d8          	mov    %rax,-0x28(%rbp)
  408edc:	48 8b 75 d8          	mov    -0x28(%rbp),%rsi
  408ee0:	48 8b 7d f0          	mov    -0x10(%rbp),%rdi
  408ee4:	48 89 75 c8          	mov    %rsi,-0x38(%rbp)
  408ee8:	e8 23 ec ff ff       	callq  407b10 <_ZSt7forwardIRKSt21piecewise_construct_tEOT_RNSt16remove_referenceIS3_E4typeE>
  408eed:	48 8b 7d e8          	mov    -0x18(%rbp),%rdi
  408ef1:	48 89 45 c0          	mov    %rax,-0x40(%rbp)
  408ef5:	e8 36 00 00 00       	callq  408f30 <_ZSt7forwardISt5tupleIJRKNSt7__cxx1112basic_stringIcSt11char_traitsIcESaIcEEEEEEOT_RNSt16remove_referenceISA_E4typeE>
  408efa:	48 8b 7d e0          	mov    -0x20(%rbp),%rdi
  408efe:	48 89 45 b8          	mov    %rax,-0x48(%rbp)
  408f02:	e8 29 ec ff ff       	callq  407b30 <_ZSt7forwardISt5tupleIJEEEOT_RNSt16remove_referenceIS2_E4typeE>
  408f07:	48 8b 7d d0          	mov    -0x30(%rbp),%rdi
  408f0b:	48 8b 75 c8          	mov    -0x38(%rbp),%rsi
  408f0f:	48 8b 55 c0          	mov    -0x40(%rbp),%rdx
  408f13:	48 8b 4d b8          	mov    -0x48(%rbp),%rcx
  408f17:	49 89 c0             	mov    %rax,%r8
  408f1a:	e8 21 00 00 00       	callq  408f40 <_ZNSt8_Rb_treeINSt7__cxx1112basic_stringIcSt11char_traitsIcESaIcEEESt4pairIKS5_S5_ESt10_Select1stIS8_ESt4lessIS5_ESaIS8_EE17_M_construct_nodeIJRKSt21piecewise_construct_tSt5tupleIJRS7_EESJ_IJEEEEEvPSt13_Rb_tree_nodeIS8_EDpOT_>
  408f1f:	48 8b 45 d8          	mov    -0x28(%rbp),%rax
  408f23:	48 83 c4 50          	add    $0x50,%rsp
  408f27:	5d                   	pop    %rbp
  408f28:	c3                   	retq   
  408f29:	0f 1f 80 00 00 00 00 	nopl   0x0(%rax)

0000000000408f30 <_ZSt7forwardISt5tupleIJRKNSt7__cxx1112basic_stringIcSt11char_traitsIcESaIcEEEEEEOT_RNSt16remove_referenceISA_E4typeE>:
  408f30:	55                   	push   %rbp
  408f31:	48 89 e5             	mov    %rsp,%rbp
  408f34:	48 89 7d f8          	mov    %rdi,-0x8(%rbp)
  408f38:	48 8b 45 f8          	mov    -0x8(%rbp),%rax
  408f3c:	5d                   	pop    %rbp
  408f3d:	c3                   	retq   
  408f3e:	66 90                	xchg   %ax,%ax

0000000000408f40 <_ZNSt8_Rb_treeINSt7__cxx1112basic_stringIcSt11char_traitsIcESaIcEEESt4pairIKS5_S5_ESt10_Select1stIS8_ESt4lessIS5_ESaIS8_EE17_M_construct_nodeIJRKSt21piecewise_construct_tSt5tupleIJRS7_EESJ_IJEEEEEvPSt13_Rb_tree_nodeIS8_EDpOT_>:
  408f40:	55                   	push   %rbp
  408f41:	48 89 e5             	mov    %rsp,%rbp
  408f44:	48 83 ec 70          	sub    $0x70,%rsp
  408f48:	48 89 7d f8          	mov    %rdi,-0x8(%rbp)
  408f4c:	48 89 75 f0          	mov    %rsi,-0x10(%rbp)
  408f50:	48 89 55 e8          	mov    %rdx,-0x18(%rbp)
  408f54:	48 89 4d e0          	mov    %rcx,-0x20(%rbp)
  408f58:	4c 89 45 d8          	mov    %r8,-0x28(%rbp)
  408f5c:	48 8b 4d f8          	mov    -0x8(%rbp),%rcx
  408f60:	48 89 cf             	mov    %rcx,%rdi
  408f63:	48 89 4d c0          	mov    %rcx,-0x40(%rbp)
  408f67:	e8 94 f1 ff ff       	callq  408100 <_ZNSt8_Rb_treeINSt7__cxx1112basic_stringIcSt11char_traitsIcESaIcEEESt4pairIKS5_S5_ESt10_Select1stIS8_ESt4lessIS5_ESaIS8_EE21_M_get_Node_allocatorEv>
  408f6c:	48 8b 7d f0          	mov    -0x10(%rbp),%rdi
  408f70:	48 89 45 b8          	mov    %rax,-0x48(%rbp)
  408f74:	e8 87 f2 ff ff       	callq  408200 <_ZNSt13_Rb_tree_nodeISt4pairIKNSt7__cxx1112basic_stringIcSt11char_traitsIcESaIcEEES6_EE9_M_valptrEv>
  408f79:	48 89 45 b0          	mov    %rax,-0x50(%rbp)
  408f7d:	e9 00 00 00 00       	jmpq   408f82 <_ZNSt8_Rb_treeINSt7__cxx1112basic_stringIcSt11char_traitsIcESaIcEEESt4pairIKS5_S5_ESt10_Select1stIS8_ESt4lessIS5_ESaIS8_EE17_M_construct_nodeIJRKSt21piecewise_construct_tSt5tupleIJRS7_EESJ_IJEEEEEvPSt13_Rb_tree_nodeIS8_EDpOT_+0x42>
  408f82:	48 8b 7d e8          	mov    -0x18(%rbp),%rdi
  408f86:	e8 85 eb ff ff       	callq  407b10 <_ZSt7forwardIRKSt21piecewise_construct_tEOT_RNSt16remove_referenceIS3_E4typeE>
  408f8b:	48 8b 7d e0          	mov    -0x20(%rbp),%rdi
  408f8f:	48 89 45 a8          	mov    %rax,-0x58(%rbp)
  408f93:	e8 98 ff ff ff       	callq  408f30 <_ZSt7forwardISt5tupleIJRKNSt7__cxx1112basic_stringIcSt11char_traitsIcESaIcEEEEEEOT_RNSt16remove_referenceISA_E4typeE>
  408f98:	48 8b 7d d8          	mov    -0x28(%rbp),%rdi
  408f9c:	48 89 45 a0          	mov    %rax,-0x60(%rbp)
  408fa0:	e8 8b eb ff ff       	callq  407b30 <_ZSt7forwardISt5tupleIJEEEOT_RNSt16remove_referenceIS2_E4typeE>
  408fa5:	48 8b 7d b8          	mov    -0x48(%rbp),%rdi
  408fa9:	48 8b 75 b0          	mov    -0x50(%rbp),%rsi
  408fad:	48 8b 55 a8          	mov    -0x58(%rbp),%rdx
  408fb1:	48 8b 4d a0          	mov    -0x60(%rbp),%rcx
  408fb5:	49 89 c0             	mov    %rax,%r8
  408fb8:	e8 73 00 00 00       	callq  409030 <_ZNSt16allocator_traitsISaISt13_Rb_tree_nodeISt4pairIKNSt7__cxx1112basic_stringIcSt11char_traitsIcESaIcEEES7_EEEE9constructIS9_JRKSt21piecewise_construct_tSt5tupleIJRS8_EESH_IJEEEEEvRSB_PT_DpOT0_>
  408fbd:	e9 00 00 00 00       	jmpq   408fc2 <_ZNSt8_Rb_treeINSt7__cxx1112basic_stringIcSt11char_traitsIcESaIcEEESt4pairIKS5_S5_ESt10_Select1stIS8_ESt4lessIS5_ESaIS8_EE17_M_construct_nodeIJRKSt21piecewise_construct_tSt5tupleIJRS7_EESJ_IJEEEEEvPSt13_Rb_tree_nodeIS8_EDpOT_+0x82>
  408fc2:	e9 45 00 00 00       	jmpq   40900c <_ZNSt8_Rb_treeINSt7__cxx1112basic_stringIcSt11char_traitsIcESaIcEEESt4pairIKS5_S5_ESt10_Select1stIS8_ESt4lessIS5_ESaIS8_EE17_M_construct_nodeIJRKSt21piecewise_construct_tSt5tupleIJRS7_EESJ_IJEEEEEvPSt13_Rb_tree_nodeIS8_EDpOT_+0xcc>
  408fc7:	89 d1                	mov    %edx,%ecx
  408fc9:	48 89 45 d0          	mov    %rax,-0x30(%rbp)
  408fcd:	89 4d cc             	mov    %ecx,-0x34(%rbp)
  408fd0:	48 8b 7d d0          	mov    -0x30(%rbp),%rdi
  408fd4:	e8 e7 9b ff ff       	callq  402bc0 <__cxa_begin_catch@plt>
  408fd9:	48 8b 75 f0          	mov    -0x10(%rbp),%rsi
  408fdd:	48 8b 7d c0          	mov    -0x40(%rbp),%rdi
  408fe1:	48 89 45 98          	mov    %rax,-0x68(%rbp)
  408fe5:	e8 36 f2 ff ff       	callq  408220 <_ZNSt8_Rb_treeINSt7__cxx1112basic_stringIcSt11char_traitsIcESaIcEEESt4pairIKS5_S5_ESt10_Select1stIS8_ESt4lessIS5_ESaIS8_EE11_M_put_nodeEPSt13_Rb_tree_nodeIS8_E>
  408fea:	e8 21 9f ff ff       	callq  402f10 <__cxa_rethrow@plt>
  408fef:	e9 34 00 00 00       	jmpq   409028 <_ZNSt8_Rb_treeINSt7__cxx1112basic_stringIcSt11char_traitsIcESaIcEEESt4pairIKS5_S5_ESt10_Select1stIS8_ESt4lessIS5_ESaIS8_EE17_M_construct_nodeIJRKSt21piecewise_construct_tSt5tupleIJRS7_EESJ_IJEEEEEvPSt13_Rb_tree_nodeIS8_EDpOT_+0xe8>
  408ff4:	89 d1                	mov    %edx,%ecx
  408ff6:	48 89 45 d0          	mov    %rax,-0x30(%rbp)
  408ffa:	89 4d cc             	mov    %ecx,-0x34(%rbp)
  408ffd:	e8 8e 9f ff ff       	callq  402f90 <__cxa_end_catch@plt>
  409002:	e9 00 00 00 00       	jmpq   409007 <_ZNSt8_Rb_treeINSt7__cxx1112basic_stringIcSt11char_traitsIcESaIcEEESt4pairIKS5_S5_ESt10_Select1stIS8_ESt4lessIS5_ESaIS8_EE17_M_construct_nodeIJRKSt21piecewise_construct_tSt5tupleIJRS7_EESJ_IJEEEEEvPSt13_Rb_tree_nodeIS8_EDpOT_+0xc7>
  409007:	e9 06 00 00 00       	jmpq   409012 <_ZNSt8_Rb_treeINSt7__cxx1112basic_stringIcSt11char_traitsIcESaIcEEESt4pairIKS5_S5_ESt10_Select1stIS8_ESt4lessIS5_ESaIS8_EE17_M_construct_nodeIJRKSt21piecewise_construct_tSt5tupleIJRS7_EESJ_IJEEEEEvPSt13_Rb_tree_nodeIS8_EDpOT_+0xd2>
  40900c:	48 83 c4 70          	add    $0x70,%rsp
  409010:	5d                   	pop    %rbp
  409011:	c3                   	retq   
  409012:	48 8b 7d d0          	mov    -0x30(%rbp),%rdi
  409016:	e8 05 a0 ff ff       	callq  403020 <_Unwind_Resume@plt>
  40901b:	89 d1                	mov    %edx,%ecx
  40901d:	48 89 c7             	mov    %rax,%rdi
  409020:	89 4d 94             	mov    %ecx,-0x6c(%rbp)
  409023:	e8 98 e4 ff ff       	callq  4074c0 <__clang_call_terminate>
  409028:	0f 1f 84 00 00 00 00 	nopl   0x0(%rax,%rax,1)
  40902f:	00 

0000000000409030 <_ZNSt16allocator_traitsISaISt13_Rb_tree_nodeISt4pairIKNSt7__cxx1112basic_stringIcSt11char_traitsIcESaIcEEES7_EEEE9constructIS9_JRKSt21piecewise_construct_tSt5tupleIJRS8_EESH_IJEEEEEvRSB_PT_DpOT0_>:
  409030:	55                   	push   %rbp
  409031:	48 89 e5             	mov    %rsp,%rbp
  409034:	48 83 ec 50          	sub    $0x50,%rsp
  409038:	48 89 7d f8          	mov    %rdi,-0x8(%rbp)
  40903c:	48 89 75 f0          	mov    %rsi,-0x10(%rbp)
  409040:	48 89 55 e8          	mov    %rdx,-0x18(%rbp)
  409044:	48 89 4d e0          	mov    %rcx,-0x20(%rbp)
  409048:	4c 89 45 d8          	mov    %r8,-0x28(%rbp)
  40904c:	48 8b 4d f8          	mov    -0x8(%rbp),%rcx
  409050:	48 8b 75 f0          	mov    -0x10(%rbp),%rsi
  409054:	48 8b 7d e8          	mov    -0x18(%rbp),%rdi
  409058:	48 89 4d d0          	mov    %rcx,-0x30(%rbp)
  40905c:	48 89 75 c8          	mov    %rsi,-0x38(%rbp)
  409060:	e8 ab ea ff ff       	callq  407b10 <_ZSt7forwardIRKSt21piecewise_construct_tEOT_RNSt16remove_referenceIS3_E4typeE>
  409065:	48 8b 7d e0          	mov    -0x20(%rbp),%rdi
  409069:	48 89 45 c0          	mov    %rax,-0x40(%rbp)
  40906d:	e8 be fe ff ff       	callq  408f30 <_ZSt7forwardISt5tupleIJRKNSt7__cxx1112basic_stringIcSt11char_traitsIcESaIcEEEEEEOT_RNSt16remove_referenceISA_E4typeE>
  409072:	48 8b 7d d8          	mov    -0x28(%rbp),%rdi
  409076:	48 89 45 b8          	mov    %rax,-0x48(%rbp)
  40907a:	e8 b1 ea ff ff       	callq  407b30 <_ZSt7forwardISt5tupleIJEEEOT_RNSt16remove_referenceIS2_E4typeE>
  40907f:	48 8b 7d d0          	mov    -0x30(%rbp),%rdi
  409083:	48 8b 75 c8          	mov    -0x38(%rbp),%rsi
  409087:	48 8b 55 c0          	mov    -0x40(%rbp),%rdx
  40908b:	48 8b 4d b8          	mov    -0x48(%rbp),%rcx
  40908f:	49 89 c0             	mov    %rax,%r8
  409092:	e8 09 00 00 00       	callq  4090a0 <_ZN9__gnu_cxx13new_allocatorISt13_Rb_tree_nodeISt4pairIKNSt7__cxx1112basic_stringIcSt11char_traitsIcESaIcEEES8_EEE9constructISA_JRKSt21piecewise_construct_tSt5tupleIJRS9_EESH_IJEEEEEvPT_DpOT0_>
  409097:	48 83 c4 50          	add    $0x50,%rsp
  40909b:	5d                   	pop    %rbp
  40909c:	c3                   	retq   
  40909d:	0f 1f 00             	nopl   (%rax)

00000000004090a0 <_ZN9__gnu_cxx13new_allocatorISt13_Rb_tree_nodeISt4pairIKNSt7__cxx1112basic_stringIcSt11char_traitsIcESaIcEEES8_EEE9constructISA_JRKSt21piecewise_construct_tSt5tupleIJRS9_EESH_IJEEEEEvPT_DpOT0_>:
  4090a0:	55                   	push   %rbp
  4090a1:	48 89 e5             	mov    %rsp,%rbp
  4090a4:	48 83 ec 60          	sub    $0x60,%rsp
  4090a8:	48 89 7d f8          	mov    %rdi,-0x8(%rbp)
  4090ac:	48 89 75 f0          	mov    %rsi,-0x10(%rbp)
  4090b0:	48 89 55 e8          	mov    %rdx,-0x18(%rbp)
  4090b4:	48 89 4d e0          	mov    %rcx,-0x20(%rbp)
  4090b8:	4c 89 45 d8          	mov    %r8,-0x28(%rbp)
  4090bc:	48 8b 4d f0          	mov    -0x10(%rbp),%rcx
  4090c0:	48 8b 7d e8          	mov    -0x18(%rbp),%rdi
  4090c4:	48 89 4d b8          	mov    %rcx,-0x48(%rbp)
  4090c8:	e8 43 ea ff ff       	callq  407b10 <_ZSt7forwardIRKSt21piecewise_construct_tEOT_RNSt16remove_referenceIS3_E4typeE>
  4090cd:	48 8b 7d e0          	mov    -0x20(%rbp),%rdi
  4090d1:	48 89 45 b0          	mov    %rax,-0x50(%rbp)
  4090d5:	e8 56 fe ff ff       	callq  408f30 <_ZSt7forwardISt5tupleIJRKNSt7__cxx1112basic_stringIcSt11char_traitsIcESaIcEEEEEEOT_RNSt16remove_referenceISA_E4typeE>
  4090da:	48 8d 7d c8          	lea    -0x38(%rbp),%rdi
  4090de:	48 89 c6             	mov    %rax,%rsi
  4090e1:	e8 2a 00 00 00       	callq  409110 <_ZNSt5tupleIJRKNSt7__cxx1112basic_stringIcSt11char_traitsIcESaIcEEEEEC2EOS8_>
  4090e6:	48 8b 7d d8          	mov    -0x28(%rbp),%rdi
  4090ea:	e8 41 ea ff ff       	callq  407b30 <_ZSt7forwardISt5tupleIJEEEOT_RNSt16remove_referenceIS2_E4typeE>
  4090ef:	48 8b 75 c8          	mov    -0x38(%rbp),%rsi
  4090f3:	48 8b 7d b8          	mov    -0x48(%rbp),%rdi
  4090f7:	48 89 45 a8          	mov    %rax,-0x58(%rbp)
  4090fb:	e8 40 00 00 00       	callq  409140 <_ZNSt4pairIKNSt7__cxx1112basic_stringIcSt11char_traitsIcESaIcEEES5_EC2IJRS6_EJEEESt21piecewise_construct_tSt5tupleIJDpT_EESB_IJDpT0_EE>
  409100:	48 83 c4 60          	add    $0x60,%rsp
  409104:	5d                   	pop    %rbp
  409105:	c3                   	retq   
  409106:	66 2e 0f 1f 84 00 00 	nopw   %cs:0x0(%rax,%rax,1)
  40910d:	00 00 00 

0000000000409110 <_ZNSt5tupleIJRKNSt7__cxx1112basic_stringIcSt11char_traitsIcESaIcEEEEEC2EOS8_>:
  409110:	55                   	push   %rbp
  409111:	48 89 e5             	mov    %rsp,%rbp
  409114:	48 83 ec 20          	sub    $0x20,%rsp
  409118:	48 89 7d f8          	mov    %rdi,-0x8(%rbp)
  40911c:	48 89 75 f0          	mov    %rsi,-0x10(%rbp)
  409120:	48 8b 75 f8          	mov    -0x8(%rbp),%rsi
  409124:	48 8b 7d f0          	mov    -0x10(%rbp),%rdi
  409128:	48 89 7d e8          	mov    %rdi,-0x18(%rbp)
  40912c:	48 89 f7             	mov    %rsi,%rdi
  40912f:	48 8b 75 e8          	mov    -0x18(%rbp),%rsi
  409133:	e8 38 00 00 00       	callq  409170 <_ZNSt11_Tuple_implILm0EJRKNSt7__cxx1112basic_stringIcSt11char_traitsIcESaIcEEEEEC2EOS8_>
  409138:	48 83 c4 20          	add    $0x20,%rsp
  40913c:	5d                   	pop    %rbp
  40913d:	c3                   	retq   
  40913e:	66 90                	xchg   %ax,%ax

0000000000409140 <_ZNSt4pairIKNSt7__cxx1112basic_stringIcSt11char_traitsIcESaIcEEES5_EC2IJRS6_EJEEESt21piecewise_construct_tSt5tupleIJDpT_EESB_IJDpT0_EE>:
  409140:	55                   	push   %rbp
  409141:	48 89 e5             	mov    %rsp,%rbp
  409144:	48 83 ec 30          	sub    $0x30,%rsp
  409148:	48 8d 45 f0          	lea    -0x10(%rbp),%rax
  40914c:	48 8d 55 e8          	lea    -0x18(%rbp),%rdx
  409150:	48 89 75 f0          	mov    %rsi,-0x10(%rbp)
  409154:	48 89 7d e0          	mov    %rdi,-0x20(%rbp)
  409158:	48 8b 7d e0          	mov    -0x20(%rbp),%rdi
  40915c:	48 89 c6             	mov    %rax,%rsi
  40915f:	e8 cc 00 00 00       	callq  409230 <_ZNSt4pairIKNSt7__cxx1112basic_stringIcSt11char_traitsIcESaIcEEES5_EC2IJRS6_EJLm0EEJEJEEERSt5tupleIJDpT_EERSA_IJDpT1_EESt12_Index_tupleIJXspT0_EEESJ_IJXspT2_EEE>
  409164:	48 83 c4 30          	add    $0x30,%rsp
  409168:	5d                   	pop    %rbp
  409169:	c3                   	retq   
  40916a:	66 0f 1f 44 00 00    	nopw   0x0(%rax,%rax,1)

0000000000409170 <_ZNSt11_Tuple_implILm0EJRKNSt7__cxx1112basic_stringIcSt11char_traitsIcESaIcEEEEEC2EOS8_>:
  409170:	55                   	push   %rbp
  409171:	48 89 e5             	mov    %rsp,%rbp
  409174:	48 83 ec 20          	sub    $0x20,%rsp
  409178:	48 89 7d f8          	mov    %rdi,-0x8(%rbp)
  40917c:	48 89 75 f0          	mov    %rsi,-0x10(%rbp)
  409180:	48 8b 7d f8          	mov    -0x8(%rbp),%rdi
  409184:	48 89 7d e8          	mov    %rdi,-0x18(%rbp)
  409188:	48 89 f7             	mov    %rsi,%rdi
  40918b:	e8 40 00 00 00       	callq  4091d0 <_ZNSt11_Tuple_implILm0EJRKNSt7__cxx1112basic_stringIcSt11char_traitsIcESaIcEEEEE7_M_headERS8_>
  409190:	48 89 c7             	mov    %rax,%rdi
  409193:	e8 28 00 00 00       	callq  4091c0 <_ZSt7forwardIRKNSt7__cxx1112basic_stringIcSt11char_traitsIcESaIcEEEEOT_RNSt16remove_referenceIS8_E4typeE>
  409198:	48 8b 7d e8          	mov    -0x18(%rbp),%rdi
  40919c:	48 89 c6             	mov    %rax,%rsi
  40919f:	e8 4c 00 00 00       	callq  4091f0 <_ZNSt10_Head_baseILm0ERKNSt7__cxx1112basic_stringIcSt11char_traitsIcESaIcEEELb0EEC2ES7_>
  4091a4:	e9 00 00 00 00       	jmpq   4091a9 <_ZNSt11_Tuple_implILm0EJRKNSt7__cxx1112basic_stringIcSt11char_traitsIcESaIcEEEEEC2EOS8_+0x39>
  4091a9:	48 83 c4 20          	add    $0x20,%rsp
  4091ad:	5d                   	pop    %rbp
  4091ae:	c3                   	retq   
  4091af:	89 d1                	mov    %edx,%ecx
  4091b1:	48 89 c7             	mov    %rax,%rdi
  4091b4:	89 4d e4             	mov    %ecx,-0x1c(%rbp)
  4091b7:	e8 04 e3 ff ff       	callq  4074c0 <__clang_call_terminate>
  4091bc:	0f 1f 40 00          	nopl   0x0(%rax)

00000000004091c0 <_ZSt7forwardIRKNSt7__cxx1112basic_stringIcSt11char_traitsIcESaIcEEEEOT_RNSt16remove_referenceIS8_E4typeE>:
  4091c0:	55                   	push   %rbp
  4091c1:	48 89 e5             	mov    %rsp,%rbp
  4091c4:	48 89 7d f8          	mov    %rdi,-0x8(%rbp)
  4091c8:	48 8b 45 f8          	mov    -0x8(%rbp),%rax
  4091cc:	5d                   	pop    %rbp
  4091cd:	c3                   	retq   
  4091ce:	66 90                	xchg   %ax,%ax

00000000004091d0 <_ZNSt11_Tuple_implILm0EJRKNSt7__cxx1112basic_stringIcSt11char_traitsIcESaIcEEEEE7_M_headERS8_>:
  4091d0:	55                   	push   %rbp
  4091d1:	48 89 e5             	mov    %rsp,%rbp
  4091d4:	48 83 ec 10          	sub    $0x10,%rsp
  4091d8:	48 89 7d f8          	mov    %rdi,-0x8(%rbp)
  4091dc:	48 8b 7d f8          	mov    -0x8(%rbp),%rdi
  4091e0:	e8 2b 00 00 00       	callq  409210 <_ZNSt10_Head_baseILm0ERKNSt7__cxx1112basic_stringIcSt11char_traitsIcESaIcEEELb0EE7_M_headERS8_>
  4091e5:	48 83 c4 10          	add    $0x10,%rsp
  4091e9:	5d                   	pop    %rbp
  4091ea:	c3                   	retq   
  4091eb:	0f 1f 44 00 00       	nopl   0x0(%rax,%rax,1)

00000000004091f0 <_ZNSt10_Head_baseILm0ERKNSt7__cxx1112basic_stringIcSt11char_traitsIcESaIcEEELb0EEC2ES7_>:
  4091f0:	55                   	push   %rbp
  4091f1:	48 89 e5             	mov    %rsp,%rbp
  4091f4:	48 89 7d f8          	mov    %rdi,-0x8(%rbp)
  4091f8:	48 89 75 f0          	mov    %rsi,-0x10(%rbp)
  4091fc:	48 8b 75 f8          	mov    -0x8(%rbp),%rsi
  409200:	48 8b 7d f0          	mov    -0x10(%rbp),%rdi
  409204:	48 89 3e             	mov    %rdi,(%rsi)
  409207:	5d                   	pop    %rbp
  409208:	c3                   	retq   
  409209:	0f 1f 80 00 00 00 00 	nopl   0x0(%rax)

0000000000409210 <_ZNSt10_Head_baseILm0ERKNSt7__cxx1112basic_stringIcSt11char_traitsIcESaIcEEELb0EE7_M_headERS8_>:
  409210:	55                   	push   %rbp
  409211:	48 89 e5             	mov    %rsp,%rbp
  409214:	48 89 7d f8          	mov    %rdi,-0x8(%rbp)
  409218:	48 8b 7d f8          	mov    -0x8(%rbp),%rdi
  40921c:	48 8b 07             	mov    (%rdi),%rax
  40921f:	5d                   	pop    %rbp
  409220:	c3                   	retq   
  409221:	66 2e 0f 1f 84 00 00 	nopw   %cs:0x0(%rax,%rax,1)
  409228:	00 00 00 
  40922b:	0f 1f 44 00 00       	nopl   0x0(%rax,%rax,1)

0000000000409230 <_ZNSt4pairIKNSt7__cxx1112basic_stringIcSt11char_traitsIcESaIcEEES5_EC2IJRS6_EJLm0EEJEJEEERSt5tupleIJDpT_EERSA_IJDpT1_EESt12_Index_tupleIJXspT0_EEESJ_IJXspT2_EEE>:
  409230:	55                   	push   %rbp
  409231:	48 89 e5             	mov    %rsp,%rbp
  409234:	48 83 ec 30          	sub    $0x30,%rsp
  409238:	48 89 7d e8          	mov    %rdi,-0x18(%rbp)
  40923c:	48 89 75 e0          	mov    %rsi,-0x20(%rbp)
  409240:	48 89 55 d8          	mov    %rdx,-0x28(%rbp)
  409244:	48 8b 55 e8          	mov    -0x18(%rbp),%rdx
  409248:	48 8b 7d e0          	mov    -0x20(%rbp),%rdi
  40924c:	48 89 55 d0          	mov    %rdx,-0x30(%rbp)
  409250:	e8 2b 00 00 00       	callq  409280 <_ZSt3getILm0EJRKNSt7__cxx1112basic_stringIcSt11char_traitsIcESaIcEEEEERNSt13tuple_elementIXT_ESt5tupleIJDpT0_EEE4typeERSC_>
  409255:	48 89 c7             	mov    %rax,%rdi
  409258:	e8 63 ff ff ff       	callq  4091c0 <_ZSt7forwardIRKNSt7__cxx1112basic_stringIcSt11char_traitsIcESaIcEEEEOT_RNSt16remove_referenceIS8_E4typeE>
  40925d:	48 8b 7d d0          	mov    -0x30(%rbp),%rdi
  409261:	48 89 c6             	mov    %rax,%rsi
  409264:	e8 87 99 ff ff       	callq  402bf0 <_ZNSt7__cxx1112basic_stringIcSt11char_traitsIcESaIcEEC1ERKS4_@plt>
  409269:	48 8b 45 d0          	mov    -0x30(%rbp),%rax
  40926d:	48 83 c0 20          	add    $0x20,%rax
  409271:	48 89 c7             	mov    %rax,%rdi
  409274:	e8 67 9c ff ff       	callq  402ee0 <_ZNSt7__cxx1112basic_stringIcSt11char_traitsIcESaIcEEC1Ev@plt>
  409279:	48 83 c4 30          	add    $0x30,%rsp
  40927d:	5d                   	pop    %rbp
  40927e:	c3                   	retq   
  40927f:	90                   	nop

0000000000409280 <_ZSt3getILm0EJRKNSt7__cxx1112basic_stringIcSt11char_traitsIcESaIcEEEEERNSt13tuple_elementIXT_ESt5tupleIJDpT0_EEE4typeERSC_>:
  409280:	55                   	push   %rbp
  409281:	48 89 e5             	mov    %rsp,%rbp
  409284:	48 83 ec 10          	sub    $0x10,%rsp
  409288:	48 89 7d f8          	mov    %rdi,-0x8(%rbp)
  40928c:	48 8b 7d f8          	mov    -0x8(%rbp),%rdi
  409290:	e8 0b 00 00 00       	callq  4092a0 <_ZSt12__get_helperILm0ERKNSt7__cxx1112basic_stringIcSt11char_traitsIcESaIcEEEJEERT0_RSt11_Tuple_implIXT_EJS8_DpT1_EE>
  409295:	48 83 c4 10          	add    $0x10,%rsp
  409299:	5d                   	pop    %rbp
  40929a:	c3                   	retq   
  40929b:	0f 1f 44 00 00       	nopl   0x0(%rax,%rax,1)

00000000004092a0 <_ZSt12__get_helperILm0ERKNSt7__cxx1112basic_stringIcSt11char_traitsIcESaIcEEEJEERT0_RSt11_Tuple_implIXT_EJS8_DpT1_EE>:
  4092a0:	55                   	push   %rbp
  4092a1:	48 89 e5             	mov    %rsp,%rbp
  4092a4:	48 83 ec 10          	sub    $0x10,%rsp
  4092a8:	48 89 7d f8          	mov    %rdi,-0x8(%rbp)
  4092ac:	48 8b 7d f8          	mov    -0x8(%rbp),%rdi
  4092b0:	e8 1b ff ff ff       	callq  4091d0 <_ZNSt11_Tuple_implILm0EJRKNSt7__cxx1112basic_stringIcSt11char_traitsIcESaIcEEEEE7_M_headERS8_>
  4092b5:	48 83 c4 10          	add    $0x10,%rsp
  4092b9:	5d                   	pop    %rbp
  4092ba:	c3                   	retq   
  4092bb:	0f 1f 44 00 00       	nopl   0x0(%rax,%rax,1)

00000000004092c0 <_ZNSt11_Tuple_implILm0EJRKNSt7__cxx1112basic_stringIcSt11char_traitsIcESaIcEEEEEC2ES7_>:
  4092c0:	55                   	push   %rbp
  4092c1:	48 89 e5             	mov    %rsp,%rbp
  4092c4:	48 83 ec 20          	sub    $0x20,%rsp
  4092c8:	48 89 7d f8          	mov    %rdi,-0x8(%rbp)
  4092cc:	48 89 75 f0          	mov    %rsi,-0x10(%rbp)
  4092d0:	48 8b 75 f8          	mov    -0x8(%rbp),%rsi
  4092d4:	48 8b 7d f0          	mov    -0x10(%rbp),%rdi
  4092d8:	48 89 7d e8          	mov    %rdi,-0x18(%rbp)
  4092dc:	48 89 f7             	mov    %rsi,%rdi
  4092df:	48 8b 75 e8          	mov    -0x18(%rbp),%rsi
  4092e3:	e8 08 ff ff ff       	callq  4091f0 <_ZNSt10_Head_baseILm0ERKNSt7__cxx1112basic_stringIcSt11char_traitsIcESaIcEEELb0EEC2ES7_>
  4092e8:	48 83 c4 20          	add    $0x20,%rsp
  4092ec:	5d                   	pop    %rbp
  4092ed:	c3                   	retq   
  4092ee:	66 90                	xchg   %ax,%ax

00000000004092f0 <_ZNSt8_Rb_treeINSt7__cxx1112basic_stringIcSt11char_traitsIcESaIcEEESt4pairIKS5_S5_ESt10_Select1stIS8_ESt4lessIS5_ESaIS8_EE4findERS7_>:
  4092f0:	55                   	push   %rbp
  4092f1:	48 89 e5             	mov    %rsp,%rbp
  4092f4:	48 83 ec 40          	sub    $0x40,%rsp
  4092f8:	48 89 7d f0          	mov    %rdi,-0x10(%rbp)
  4092fc:	48 89 75 e8          	mov    %rsi,-0x18(%rbp)
  409300:	48 8b 75 f0          	mov    -0x10(%rbp),%rsi
  409304:	48 89 f7             	mov    %rsi,%rdi
  409307:	48 89 75 d0          	mov    %rsi,-0x30(%rbp)
  40930b:	e8 d0 e5 ff ff       	callq  4078e0 <_ZNSt8_Rb_treeINSt7__cxx1112basic_stringIcSt11char_traitsIcESaIcEEESt4pairIKS5_S5_ESt10_Select1stIS8_ESt4lessIS5_ESaIS8_EE8_M_beginEv>
  409310:	48 8b 7d d0          	mov    -0x30(%rbp),%rdi
  409314:	48 89 45 c8          	mov    %rax,-0x38(%rbp)
  409318:	e8 e3 e5 ff ff       	callq  407900 <_ZNSt8_Rb_treeINSt7__cxx1112basic_stringIcSt11char_traitsIcESaIcEEESt4pairIKS5_S5_ESt10_Select1stIS8_ESt4lessIS5_ESaIS8_EE6_M_endEv>
  40931d:	48 8b 4d e8          	mov    -0x18(%rbp),%rcx
  409321:	48 8b 7d d0          	mov    -0x30(%rbp),%rdi
  409325:	48 8b 75 c8          	mov    -0x38(%rbp),%rsi
  409329:	48 89 c2             	mov    %rax,%rdx
  40932c:	e8 0f e5 ff ff       	callq  407840 <_ZNSt8_Rb_treeINSt7__cxx1112basic_stringIcSt11char_traitsIcESaIcEEESt4pairIKS5_S5_ESt10_Select1stIS8_ESt4lessIS5_ESaIS8_EE14_M_lower_boundEPSt13_Rb_tree_nodeIS8_ESH_RS7_>
  409331:	48 89 45 e0          	mov    %rax,-0x20(%rbp)
  409335:	48 8b 7d d0          	mov    -0x30(%rbp),%rdi
  409339:	e8 92 f7 ff ff       	callq  408ad0 <_ZNSt8_Rb_treeINSt7__cxx1112basic_stringIcSt11char_traitsIcESaIcEEESt4pairIKS5_S5_ESt10_Select1stIS8_ESt4lessIS5_ESaIS8_EE3endEv>
  40933e:	48 8d 7d e0          	lea    -0x20(%rbp),%rdi
  409342:	48 8d 75 d8          	lea    -0x28(%rbp),%rsi
  409346:	48 89 45 d8          	mov    %rax,-0x28(%rbp)
  40934a:	e8 41 e2 ff ff       	callq  407590 <_ZNKSt17_Rb_tree_iteratorISt4pairIKNSt7__cxx1112basic_stringIcSt11char_traitsIcESaIcEEES6_EEeqERKS9_>
  40934f:	a8 01                	test   $0x1,%al
  409351:	0f 85 2e 00 00 00    	jne    409385 <_ZNSt8_Rb_treeINSt7__cxx1112basic_stringIcSt11char_traitsIcESaIcEEESt4pairIKS5_S5_ESt10_Select1stIS8_ESt4lessIS5_ESaIS8_EE4findERS7_+0x95>
  409357:	48 8b 75 e8          	mov    -0x18(%rbp),%rsi
  40935b:	48 8b 7d e0          	mov    -0x20(%rbp),%rdi
  40935f:	48 89 75 c0          	mov    %rsi,-0x40(%rbp)
  409363:	e8 48 f2 ff ff       	callq  4085b0 <_ZNSt8_Rb_treeINSt7__cxx1112basic_stringIcSt11char_traitsIcESaIcEEESt4pairIKS5_S5_ESt10_Select1stIS8_ESt4lessIS5_ESaIS8_EE6_S_keyEPKSt18_Rb_tree_node_base>
  409368:	48 8b 7d d0          	mov    -0x30(%rbp),%rdi
  40936c:	48 8b 75 c0          	mov    -0x40(%rbp),%rsi
  409370:	48 89 c2             	mov    %rax,%rdx
  409373:	e8 68 e2 ff ff       	callq  4075e0 <_ZNKSt4lessINSt7__cxx1112basic_stringIcSt11char_traitsIcESaIcEEEEclERKS5_S8_>
  409378:	a8 01                	test   $0x1,%al
  40937a:	0f 85 05 00 00 00    	jne    409385 <_ZNSt8_Rb_treeINSt7__cxx1112basic_stringIcSt11char_traitsIcESaIcEEESt4pairIKS5_S5_ESt10_Select1stIS8_ESt4lessIS5_ESaIS8_EE4findERS7_+0x95>
  409380:	e9 12 00 00 00       	jmpq   409397 <_ZNSt8_Rb_treeINSt7__cxx1112basic_stringIcSt11char_traitsIcESaIcEEESt4pairIKS5_S5_ESt10_Select1stIS8_ESt4lessIS5_ESaIS8_EE4findERS7_+0xa7>
  409385:	48 8b 7d d0          	mov    -0x30(%rbp),%rdi
  409389:	e8 42 f7 ff ff       	callq  408ad0 <_ZNSt8_Rb_treeINSt7__cxx1112basic_stringIcSt11char_traitsIcESaIcEEESt4pairIKS5_S5_ESt10_Select1stIS8_ESt4lessIS5_ESaIS8_EE3endEv>
  40938e:	48 89 45 f8          	mov    %rax,-0x8(%rbp)
  409392:	e9 08 00 00 00       	jmpq   40939f <_ZNSt8_Rb_treeINSt7__cxx1112basic_stringIcSt11char_traitsIcESaIcEEESt4pairIKS5_S5_ESt10_Select1stIS8_ESt4lessIS5_ESaIS8_EE4findERS7_+0xaf>
  409397:	48 8b 45 e0          	mov    -0x20(%rbp),%rax
  40939b:	48 89 45 f8          	mov    %rax,-0x8(%rbp)
  40939f:	48 8b 45 f8          	mov    -0x8(%rbp),%rax
  4093a3:	48 83 c4 40          	add    $0x40,%rsp
  4093a7:	5d                   	pop    %rbp
  4093a8:	c3                   	retq   
  4093a9:	0f 1f 80 00 00 00 00 	nopl   0x0(%rax)

00000000004093b0 <_ZN9__gnu_cxx17__normal_iteratorIPhSt6vectorIhSaIhEEEC2ERKS1_>:
  4093b0:	55                   	push   %rbp
  4093b1:	48 89 e5             	mov    %rsp,%rbp
  4093b4:	48 89 7d f8          	mov    %rdi,-0x8(%rbp)
  4093b8:	48 89 75 f0          	mov    %rsi,-0x10(%rbp)
  4093bc:	48 8b 75 f8          	mov    -0x8(%rbp),%rsi
  4093c0:	48 8b 7d f0          	mov    -0x10(%rbp),%rdi
  4093c4:	48 8b 3f             	mov    (%rdi),%rdi
  4093c7:	48 89 3e             	mov    %rdi,(%rsi)
  4093ca:	5d                   	pop    %rbp
  4093cb:	c3                   	retq   
  4093cc:	0f 1f 40 00          	nopl   0x0(%rax)

00000000004093d0 <_ZN9__gnu_cxxmiIPKhSt6vectorIhSaIhEEEENS_17__normal_iteratorIT_T0_E15difference_typeERKS9_SC_>:
  4093d0:	55                   	push   %rbp
  4093d1:	48 89 e5             	mov    %rsp,%rbp
  4093d4:	48 83 ec 20          	sub    $0x20,%rsp
  4093d8:	48 89 7d f8          	mov    %rdi,-0x8(%rbp)
  4093dc:	48 89 75 f0          	mov    %rsi,-0x10(%rbp)
  4093e0:	48 8b 7d f8          	mov    -0x8(%rbp),%rdi
  4093e4:	e8 17 01 00 00       	callq  409500 <_ZNK9__gnu_cxx17__normal_iteratorIPKhSt6vectorIhSaIhEEE4baseEv>
  4093e9:	48 8b 00             	mov    (%rax),%rax
  4093ec:	48 8b 7d f0          	mov    -0x10(%rbp),%rdi
  4093f0:	48 89 45 e8          	mov    %rax,-0x18(%rbp)
  4093f4:	e8 07 01 00 00       	callq  409500 <_ZNK9__gnu_cxx17__normal_iteratorIPKhSt6vectorIhSaIhEEE4baseEv>
  4093f9:	48 8b 00             	mov    (%rax),%rax
  4093fc:	48 8b 75 e8          	mov    -0x18(%rbp),%rsi
  409400:	48 29 c6             	sub    %rax,%rsi
  409403:	48 89 f0             	mov    %rsi,%rax
  409406:	48 83 c4 20          	add    $0x20,%rsp
  40940a:	5d                   	pop    %rbp
  40940b:	c3                   	retq   
  40940c:	0f 1f 40 00          	nopl   0x0(%rax)

0000000000409410 <_ZNKSt6vectorIhSaIhEE6cbeginEv>:
  409410:	55                   	push   %rbp
  409411:	48 89 e5             	mov    %rsp,%rbp
  409414:	48 83 ec 20          	sub    $0x20,%rsp
  409418:	48 8d 45 f8          	lea    -0x8(%rbp),%rax
  40941c:	48 8d 75 e8          	lea    -0x18(%rbp),%rsi
  409420:	48 89 7d f0          	mov    %rdi,-0x10(%rbp)
  409424:	48 8b 7d f0          	mov    -0x10(%rbp),%rdi
  409428:	48 8b 3f             	mov    (%rdi),%rdi
  40942b:	48 89 7d e8          	mov    %rdi,-0x18(%rbp)
  40942f:	48 89 c7             	mov    %rax,%rdi
  409432:	e8 d9 00 00 00       	callq  409510 <_ZN9__gnu_cxx17__normal_iteratorIPKhSt6vectorIhSaIhEEEC2ERKS2_>
  409437:	48 8b 45 f8          	mov    -0x8(%rbp),%rax
  40943b:	48 83 c4 20          	add    $0x20,%rsp
  40943f:	5d                   	pop    %rbp
  409440:	c3                   	retq   
  409441:	66 2e 0f 1f 84 00 00 	nopw   %cs:0x0(%rax,%rax,1)
  409448:	00 00 00 
  40944b:	0f 1f 44 00 00       	nopl   0x0(%rax,%rax,1)

0000000000409450 <_ZNSt6vectorIhSaIhEE18_M_insert_dispatchIPKcEEvN9__gnu_cxx17__normal_iteratorIPhS1_EET_S9_St12__false_type>:
  409450:	55                   	push   %rbp
  409451:	48 89 e5             	mov    %rsp,%rbp
  409454:	48 83 ec 40          	sub    $0x40,%rsp
  409458:	48 89 75 f8          	mov    %rsi,-0x8(%rbp)
  40945c:	48 89 7d e8          	mov    %rdi,-0x18(%rbp)
  409460:	48 89 55 e0          	mov    %rdx,-0x20(%rbp)
  409464:	48 89 4d d8          	mov    %rcx,-0x28(%rbp)
  409468:	48 8b 7d e8          	mov    -0x18(%rbp),%rdi
  40946c:	48 8b 4d f8          	mov    -0x8(%rbp),%rcx
  409470:	48 89 4d d0          	mov    %rcx,-0x30(%rbp)
  409474:	48 8b 55 e0          	mov    -0x20(%rbp),%rdx
  409478:	48 8b 4d d8          	mov    -0x28(%rbp),%rcx
  40947c:	48 8b 75 d0          	mov    -0x30(%rbp),%rsi
  409480:	e8 ab 00 00 00       	callq  409530 <_ZNSt6vectorIhSaIhEE15_M_range_insertIPKcEEvN9__gnu_cxx17__normal_iteratorIPhS1_EET_S9_St20forward_iterator_tag>
  409485:	48 83 c4 40          	add    $0x40,%rsp
  409489:	5d                   	pop    %rbp
  40948a:	c3                   	retq   
  40948b:	0f 1f 44 00 00       	nopl   0x0(%rax,%rax,1)

0000000000409490 <_ZNSt6vectorIhSaIhEE5beginEv>:
  409490:	55                   	push   %rbp
  409491:	48 89 e5             	mov    %rsp,%rbp
  409494:	48 83 ec 20          	sub    $0x20,%rsp
  409498:	48 8d 45 f8          	lea    -0x8(%rbp),%rax
  40949c:	48 89 7d f0          	mov    %rdi,-0x10(%rbp)
  4094a0:	48 8b 7d f0          	mov    -0x10(%rbp),%rdi
  4094a4:	48 89 7d e8          	mov    %rdi,-0x18(%rbp)
  4094a8:	48 89 c7             	mov    %rax,%rdi
  4094ab:	48 8b 75 e8          	mov    -0x18(%rbp),%rsi
  4094af:	e8 fc fe ff ff       	callq  4093b0 <_ZN9__gnu_cxx17__normal_iteratorIPhSt6vectorIhSaIhEEEC2ERKS1_>
  4094b4:	48 8b 45 f8          	mov    -0x8(%rbp),%rax
  4094b8:	48 83 c4 20          	add    $0x20,%rsp
  4094bc:	5d                   	pop    %rbp
  4094bd:	c3                   	retq   
  4094be:	66 90                	xchg   %ax,%ax

00000000004094c0 <_ZNK9__gnu_cxx17__normal_iteratorIPhSt6vectorIhSaIhEEEplEl>:
  4094c0:	55                   	push   %rbp
  4094c1:	48 89 e5             	mov    %rsp,%rbp
  4094c4:	48 83 ec 20          	sub    $0x20,%rsp
  4094c8:	48 8d 45 f8          	lea    -0x8(%rbp),%rax
  4094cc:	48 8d 4d e0          	lea    -0x20(%rbp),%rcx
  4094d0:	48 89 7d f0          	mov    %rdi,-0x10(%rbp)
  4094d4:	48 89 75 e8          	mov    %rsi,-0x18(%rbp)
  4094d8:	48 8b 75 f0          	mov    -0x10(%rbp),%rsi
  4094dc:	48 8b 36             	mov    (%rsi),%rsi
  4094df:	48 03 75 e8          	add    -0x18(%rbp),%rsi
  4094e3:	48 89 75 e0          	mov    %rsi,-0x20(%rbp)
  4094e7:	48 89 c7             	mov    %rax,%rdi
  4094ea:	48 89 ce             	mov    %rcx,%rsi
  4094ed:	e8 be fe ff ff       	callq  4093b0 <_ZN9__gnu_cxx17__normal_iteratorIPhSt6vectorIhSaIhEEEC2ERKS1_>
  4094f2:	48 8b 45 f8          	mov    -0x8(%rbp),%rax
  4094f6:	48 83 c4 20          	add    $0x20,%rsp
  4094fa:	5d                   	pop    %rbp
  4094fb:	c3                   	retq   
  4094fc:	0f 1f 40 00          	nopl   0x0(%rax)

0000000000409500 <_ZNK9__gnu_cxx17__normal_iteratorIPKhSt6vectorIhSaIhEEE4baseEv>:
  409500:	55                   	push   %rbp
  409501:	48 89 e5             	mov    %rsp,%rbp
  409504:	48 89 7d f8          	mov    %rdi,-0x8(%rbp)
  409508:	48 8b 45 f8          	mov    -0x8(%rbp),%rax
  40950c:	5d                   	pop    %rbp
  40950d:	c3                   	retq   
  40950e:	66 90                	xchg   %ax,%ax

0000000000409510 <_ZN9__gnu_cxx17__normal_iteratorIPKhSt6vectorIhSaIhEEEC2ERKS2_>:
  409510:	55                   	push   %rbp
  409511:	48 89 e5             	mov    %rsp,%rbp
  409514:	48 89 7d f8          	mov    %rdi,-0x8(%rbp)
  409518:	48 89 75 f0          	mov    %rsi,-0x10(%rbp)
  40951c:	48 8b 75 f8          	mov    -0x8(%rbp),%rsi
  409520:	48 8b 7d f0          	mov    -0x10(%rbp),%rdi
  409524:	48 8b 3f             	mov    (%rdi),%rdi
  409527:	48 89 3e             	mov    %rdi,(%rsi)
  40952a:	5d                   	pop    %rbp
  40952b:	c3                   	retq   
  40952c:	0f 1f 40 00          	nopl   0x0(%rax)

0000000000409530 <_ZNSt6vectorIhSaIhEE15_M_range_insertIPKcEEvN9__gnu_cxx17__normal_iteratorIPhS1_EET_S9_St20forward_iterator_tag>:
  409530:	55                   	push   %rbp
  409531:	48 89 e5             	mov    %rsp,%rbp
  409534:	48 81 ec a0 01 00 00 	sub    $0x1a0,%rsp
  40953b:	48 89 75 f8          	mov    %rsi,-0x8(%rbp)
  40953f:	48 89 7d e8          	mov    %rdi,-0x18(%rbp)
  409543:	48 89 55 e0          	mov    %rdx,-0x20(%rbp)
  409547:	48 89 4d d8          	mov    %rcx,-0x28(%rbp)
  40954b:	48 8b 4d e8          	mov    -0x18(%rbp),%rcx
  40954f:	48 8b 55 e0          	mov    -0x20(%rbp),%rdx
  409553:	48 3b 55 d8          	cmp    -0x28(%rbp),%rdx
  409557:	48 89 8d 60 ff ff ff 	mov    %rcx,-0xa0(%rbp)
  40955e:	0f 84 fc 04 00 00    	je     409a60 <_ZNSt6vectorIhSaIhEE15_M_range_insertIPKcEEvN9__gnu_cxx17__normal_iteratorIPhS1_EET_S9_St20forward_iterator_tag+0x530>
  409564:	48 8b 7d e0          	mov    -0x20(%rbp),%rdi
  409568:	48 8b 75 d8          	mov    -0x28(%rbp),%rsi
  40956c:	e8 1f 05 00 00       	callq  409a90 <_ZSt8distanceIPKcENSt15iterator_traitsIT_E15difference_typeES3_S3_>
  409571:	48 89 45 d0          	mov    %rax,-0x30(%rbp)
  409575:	48 8b 85 60 ff ff ff 	mov    -0xa0(%rbp),%rax
  40957c:	48 8b 70 10          	mov    0x10(%rax),%rsi
  409580:	48 8b 78 08          	mov    0x8(%rax),%rdi
  409584:	48 29 fe             	sub    %rdi,%rsi
  409587:	48 3b 75 d0          	cmp    -0x30(%rbp),%rsi
  40958b:	0f 82 17 02 00 00    	jb     4097a8 <_ZNSt6vectorIhSaIhEE15_M_range_insertIPKcEEvN9__gnu_cxx17__normal_iteratorIPhS1_EET_S9_St20forward_iterator_tag+0x278>
  409591:	48 8b bd 60 ff ff ff 	mov    -0xa0(%rbp),%rdi
  409598:	e8 23 d6 ff ff       	callq  406bc0 <_ZNSt6vectorIhSaIhEE3endEv>
  40959d:	48 8d 7d c0          	lea    -0x40(%rbp),%rdi
  4095a1:	48 8d 75 f8          	lea    -0x8(%rbp),%rsi
  4095a5:	48 89 45 c0          	mov    %rax,-0x40(%rbp)
  4095a9:	e8 22 05 00 00       	callq  409ad0 <_ZN9__gnu_cxxmiIPhSt6vectorIhSaIhEEEENS_17__normal_iteratorIT_T0_E15difference_typeERKS8_SB_>
  4095ae:	48 89 45 c8          	mov    %rax,-0x38(%rbp)
  4095b2:	48 8b 85 60 ff ff ff 	mov    -0xa0(%rbp),%rax
  4095b9:	48 8b 70 08          	mov    0x8(%rax),%rsi
  4095bd:	48 89 75 b8          	mov    %rsi,-0x48(%rbp)
  4095c1:	48 8b 75 c8          	mov    -0x38(%rbp),%rsi
  4095c5:	48 3b 75 d0          	cmp    -0x30(%rbp),%rsi
  4095c9:	0f 86 c8 00 00 00    	jbe    409697 <_ZNSt6vectorIhSaIhEE15_M_range_insertIPKcEEvN9__gnu_cxx17__normal_iteratorIPhS1_EET_S9_St20forward_iterator_tag+0x167>
  4095cf:	31 c0                	xor    %eax,%eax
  4095d1:	89 c1                	mov    %eax,%ecx
  4095d3:	48 8b 95 60 ff ff ff 	mov    -0xa0(%rbp),%rdx
  4095da:	48 8b 72 08          	mov    0x8(%rdx),%rsi
  4095de:	48 2b 4d d0          	sub    -0x30(%rbp),%rcx
  4095e2:	48 01 ce             	add    %rcx,%rsi
  4095e5:	48 8b 4a 08          	mov    0x8(%rdx),%rcx
  4095e9:	48 8b 52 08          	mov    0x8(%rdx),%rdx
  4095ed:	48 8b bd 60 ff ff ff 	mov    -0xa0(%rbp),%rdi
  4095f4:	48 89 b5 58 ff ff ff 	mov    %rsi,-0xa8(%rbp)
  4095fb:	48 89 95 50 ff ff ff 	mov    %rdx,-0xb0(%rbp)
  409602:	48 89 8d 48 ff ff ff 	mov    %rcx,-0xb8(%rbp)
  409609:	e8 92 f6 ff ff       	callq  408ca0 <_ZNSt12_Vector_baseIhSaIhEE19_M_get_Tp_allocatorEv>
  40960e:	48 8b bd 58 ff ff ff 	mov    -0xa8(%rbp),%rdi
  409615:	48 8b b5 48 ff ff ff 	mov    -0xb8(%rbp),%rsi
  40961c:	48 8b 95 50 ff ff ff 	mov    -0xb0(%rbp),%rdx
  409623:	48 89 c1             	mov    %rax,%rcx
  409626:	e8 e5 04 00 00       	callq  409b10 <_ZSt22__uninitialized_move_aIPhS0_SaIhEET0_T_S3_S2_RT1_>
  40962b:	48 8d 7d f8          	lea    -0x8(%rbp),%rdi
  40962f:	48 8b 4d d0          	mov    -0x30(%rbp),%rcx
  409633:	48 8b 95 60 ff ff ff 	mov    -0xa0(%rbp),%rdx
  40963a:	48 03 4a 08          	add    0x8(%rdx),%rcx
  40963e:	48 89 4a 08          	mov    %rcx,0x8(%rdx)
  409642:	48 89 85 40 ff ff ff 	mov    %rax,-0xc0(%rbp)
  409649:	e8 52 05 00 00       	callq  409ba0 <_ZNK9__gnu_cxx17__normal_iteratorIPhSt6vectorIhSaIhEEE4baseEv>
  40964e:	45 31 c0             	xor    %r8d,%r8d
  409651:	44 89 c1             	mov    %r8d,%ecx
  409654:	48 8b 38             	mov    (%rax),%rdi
  409657:	48 8b 45 b8          	mov    -0x48(%rbp),%rax
  40965b:	48 2b 4d d0          	sub    -0x30(%rbp),%rcx
  40965f:	48 01 c8             	add    %rcx,%rax
  409662:	48 8b 55 b8          	mov    -0x48(%rbp),%rdx
  409666:	48 89 c6             	mov    %rax,%rsi
  409669:	e8 f2 04 00 00       	callq  409b60 <_ZSt13move_backwardIPhS0_ET0_T_S2_S1_>
  40966e:	48 8b 7d e0          	mov    -0x20(%rbp),%rdi
  409672:	48 8b 75 d8          	mov    -0x28(%rbp),%rsi
  409676:	48 8b 4d f8          	mov    -0x8(%rbp),%rcx
  40967a:	48 89 4d b0          	mov    %rcx,-0x50(%rbp)
  40967e:	48 8b 55 b0          	mov    -0x50(%rbp),%rdx
  409682:	48 89 85 38 ff ff ff 	mov    %rax,-0xc8(%rbp)
  409689:	e8 22 05 00 00       	callq  409bb0 <_ZSt4copyIPKcN9__gnu_cxx17__normal_iteratorIPhSt6vectorIhSaIhEEEEET0_T_SA_S9_>
  40968e:	48 89 45 a8          	mov    %rax,-0x58(%rbp)
  409692:	e9 0c 01 00 00       	jmpq   4097a3 <_ZNSt6vectorIhSaIhEE15_M_range_insertIPKcEEvN9__gnu_cxx17__normal_iteratorIPhS1_EET_S9_St20forward_iterator_tag+0x273>
  409697:	48 8d 7d a0          	lea    -0x60(%rbp),%rdi
  40969b:	48 8b 45 e0          	mov    -0x20(%rbp),%rax
  40969f:	48 89 45 a0          	mov    %rax,-0x60(%rbp)
  4096a3:	48 8b 75 c8          	mov    -0x38(%rbp),%rsi
  4096a7:	e8 54 05 00 00       	callq  409c00 <_ZSt7advanceIPKcmEvRT_T0_>
  4096ac:	48 8b 7d a0          	mov    -0x60(%rbp),%rdi
  4096b0:	48 8b 75 d8          	mov    -0x28(%rbp),%rsi
  4096b4:	48 8b 85 60 ff ff ff 	mov    -0xa0(%rbp),%rax
  4096bb:	48 8b 50 08          	mov    0x8(%rax),%rdx
  4096bf:	48 89 bd 30 ff ff ff 	mov    %rdi,-0xd0(%rbp)
  4096c6:	48 89 c7             	mov    %rax,%rdi
  4096c9:	48 89 95 28 ff ff ff 	mov    %rdx,-0xd8(%rbp)
  4096d0:	48 89 b5 20 ff ff ff 	mov    %rsi,-0xe0(%rbp)
  4096d7:	e8 c4 f5 ff ff       	callq  408ca0 <_ZNSt12_Vector_baseIhSaIhEE19_M_get_Tp_allocatorEv>
  4096dc:	48 8b bd 30 ff ff ff 	mov    -0xd0(%rbp),%rdi
  4096e3:	48 8b b5 20 ff ff ff 	mov    -0xe0(%rbp),%rsi
  4096ea:	48 8b 95 28 ff ff ff 	mov    -0xd8(%rbp),%rdx
  4096f1:	48 89 c1             	mov    %rax,%rcx
  4096f4:	e8 57 05 00 00       	callq  409c50 <_ZSt22__uninitialized_copy_aIPKcPhhET0_T_S4_S3_RSaIT1_E>
  4096f9:	48 8d 7d f8          	lea    -0x8(%rbp),%rdi
  4096fd:	48 8b 4d d0          	mov    -0x30(%rbp),%rcx
  409701:	48 2b 4d c8          	sub    -0x38(%rbp),%rcx
  409705:	48 8b 95 60 ff ff ff 	mov    -0xa0(%rbp),%rdx
  40970c:	48 03 4a 08          	add    0x8(%rdx),%rcx
  409710:	48 89 4a 08          	mov    %rcx,0x8(%rdx)
  409714:	48 89 85 18 ff ff ff 	mov    %rax,-0xe8(%rbp)
  40971b:	e8 80 04 00 00       	callq  409ba0 <_ZNK9__gnu_cxx17__normal_iteratorIPhSt6vectorIhSaIhEEE4baseEv>
  409720:	48 8b 38             	mov    (%rax),%rdi
  409723:	48 8b 75 b8          	mov    -0x48(%rbp),%rsi
  409727:	48 8b 85 60 ff ff ff 	mov    -0xa0(%rbp),%rax
  40972e:	48 8b 50 08          	mov    0x8(%rax),%rdx
  409732:	48 89 bd 10 ff ff ff 	mov    %rdi,-0xf0(%rbp)
  409739:	48 89 c7             	mov    %rax,%rdi
  40973c:	48 89 95 08 ff ff ff 	mov    %rdx,-0xf8(%rbp)
  409743:	48 89 b5 00 ff ff ff 	mov    %rsi,-0x100(%rbp)
  40974a:	e8 51 f5 ff ff       	callq  408ca0 <_ZNSt12_Vector_baseIhSaIhEE19_M_get_Tp_allocatorEv>
  40974f:	48 8b bd 10 ff ff ff 	mov    -0xf0(%rbp),%rdi
  409756:	48 8b b5 00 ff ff ff 	mov    -0x100(%rbp),%rsi
  40975d:	48 8b 95 08 ff ff ff 	mov    -0xf8(%rbp),%rdx
  409764:	48 89 c1             	mov    %rax,%rcx
  409767:	e8 a4 03 00 00       	callq  409b10 <_ZSt22__uninitialized_move_aIPhS0_SaIhEET0_T_S3_S2_RT1_>
  40976c:	48 8b 4d c8          	mov    -0x38(%rbp),%rcx
  409770:	48 8b 95 60 ff ff ff 	mov    -0xa0(%rbp),%rdx
  409777:	48 03 4a 08          	add    0x8(%rdx),%rcx
  40977b:	48 89 4a 08          	mov    %rcx,0x8(%rdx)
  40977f:	48 8b 7d e0          	mov    -0x20(%rbp),%rdi
  409783:	48 8b 75 a0          	mov    -0x60(%rbp),%rsi
  409787:	48 8b 4d f8          	mov    -0x8(%rbp),%rcx
  40978b:	48 89 4d 98          	mov    %rcx,-0x68(%rbp)
  40978f:	48 8b 55 98          	mov    -0x68(%rbp),%rdx
  409793:	48 89 85 f8 fe ff ff 	mov    %rax,-0x108(%rbp)
  40979a:	e8 11 04 00 00       	callq  409bb0 <_ZSt4copyIPKcN9__gnu_cxx17__normal_iteratorIPhSt6vectorIhSaIhEEEEET0_T_SA_S9_>
  40979f:	48 89 45 90          	mov    %rax,-0x70(%rbp)
  4097a3:	e9 b3 02 00 00       	jmpq   409a5b <_ZNSt6vectorIhSaIhEE15_M_range_insertIPKcEEvN9__gnu_cxx17__normal_iteratorIPhS1_EET_S9_St20forward_iterator_tag+0x52b>
  4097a8:	48 8b 75 d0          	mov    -0x30(%rbp),%rsi
  4097ac:	b8 08 ef 40 00       	mov    $0x40ef08,%eax
  4097b1:	89 c2                	mov    %eax,%edx
  4097b3:	48 8b bd 60 ff ff ff 	mov    -0xa0(%rbp),%rdi
  4097ba:	e8 c1 04 00 00       	callq  409c80 <_ZNKSt6vectorIhSaIhEE12_M_check_lenEmPKc>
  4097bf:	48 89 45 88          	mov    %rax,-0x78(%rbp)
  4097c3:	48 8b bd 60 ff ff ff 	mov    -0xa0(%rbp),%rdi
  4097ca:	48 89 c6             	mov    %rax,%rsi
  4097cd:	e8 8e 05 00 00       	callq  409d60 <_ZNSt12_Vector_baseIhSaIhEE11_M_allocateEm>
  4097d2:	48 89 45 80          	mov    %rax,-0x80(%rbp)
  4097d6:	48 89 85 78 ff ff ff 	mov    %rax,-0x88(%rbp)
  4097dd:	48 8b 85 60 ff ff ff 	mov    -0xa0(%rbp),%rax
  4097e4:	48 8b 38             	mov    (%rax),%rdi
  4097e7:	48 8d 55 f8          	lea    -0x8(%rbp),%rdx
  4097eb:	48 89 bd f0 fe ff ff 	mov    %rdi,-0x110(%rbp)
  4097f2:	48 89 d7             	mov    %rdx,%rdi
  4097f5:	e8 a6 03 00 00       	callq  409ba0 <_ZNK9__gnu_cxx17__normal_iteratorIPhSt6vectorIhSaIhEEE4baseEv>
  4097fa:	48 8b 30             	mov    (%rax),%rsi
  4097fd:	48 8b 55 80          	mov    -0x80(%rbp),%rdx
  409801:	48 8b bd 60 ff ff ff 	mov    -0xa0(%rbp),%rdi
  409808:	48 89 b5 e8 fe ff ff 	mov    %rsi,-0x118(%rbp)
  40980f:	48 89 95 e0 fe ff ff 	mov    %rdx,-0x120(%rbp)
  409816:	e8 85 f4 ff ff       	callq  408ca0 <_ZNSt12_Vector_baseIhSaIhEE19_M_get_Tp_allocatorEv>
  40981b:	48 8b bd f0 fe ff ff 	mov    -0x110(%rbp),%rdi
  409822:	48 8b b5 e8 fe ff ff 	mov    -0x118(%rbp),%rsi
  409829:	48 8b 95 e0 fe ff ff 	mov    -0x120(%rbp),%rdx
  409830:	48 89 c1             	mov    %rax,%rcx
  409833:	e8 88 05 00 00       	callq  409dc0 <_ZSt34__uninitialized_move_if_noexcept_aIPhS0_SaIhEET0_T_S3_S2_RT1_>
  409838:	48 89 85 d8 fe ff ff 	mov    %rax,-0x128(%rbp)
  40983f:	e9 00 00 00 00       	jmpq   409844 <_ZNSt6vectorIhSaIhEE15_M_range_insertIPKcEEvN9__gnu_cxx17__normal_iteratorIPhS1_EET_S9_St20forward_iterator_tag+0x314>
  409844:	48 8b 85 d8 fe ff ff 	mov    -0x128(%rbp),%rax
  40984b:	48 89 85 78 ff ff ff 	mov    %rax,-0x88(%rbp)
  409852:	48 8b 7d e0          	mov    -0x20(%rbp),%rdi
  409856:	48 8b 75 d8          	mov    -0x28(%rbp),%rsi
  40985a:	48 8b 8d 60 ff ff ff 	mov    -0xa0(%rbp),%rcx
  409861:	48 89 bd d0 fe ff ff 	mov    %rdi,-0x130(%rbp)
  409868:	48 89 cf             	mov    %rcx,%rdi
  40986b:	48 89 b5 c8 fe ff ff 	mov    %rsi,-0x138(%rbp)
  409872:	e8 29 f4 ff ff       	callq  408ca0 <_ZNSt12_Vector_baseIhSaIhEE19_M_get_Tp_allocatorEv>
  409877:	48 8b bd d0 fe ff ff 	mov    -0x130(%rbp),%rdi
  40987e:	48 8b b5 c8 fe ff ff 	mov    -0x138(%rbp),%rsi
  409885:	48 8b 95 d8 fe ff ff 	mov    -0x128(%rbp),%rdx
  40988c:	48 89 c1             	mov    %rax,%rcx
  40988f:	e8 bc 03 00 00       	callq  409c50 <_ZSt22__uninitialized_copy_aIPKcPhhET0_T_S4_S3_RSaIT1_E>
  409894:	48 89 85 c0 fe ff ff 	mov    %rax,-0x140(%rbp)
  40989b:	e9 00 00 00 00       	jmpq   4098a0 <_ZNSt6vectorIhSaIhEE15_M_range_insertIPKcEEvN9__gnu_cxx17__normal_iteratorIPhS1_EET_S9_St20forward_iterator_tag+0x370>
  4098a0:	48 8b 85 c0 fe ff ff 	mov    -0x140(%rbp),%rax
  4098a7:	48 89 85 78 ff ff ff 	mov    %rax,-0x88(%rbp)
  4098ae:	48 8d 7d f8          	lea    -0x8(%rbp),%rdi
  4098b2:	e8 e9 02 00 00       	callq  409ba0 <_ZNK9__gnu_cxx17__normal_iteratorIPhSt6vectorIhSaIhEEE4baseEv>
  4098b7:	48 8b 38             	mov    (%rax),%rdi
  4098ba:	48 8b 85 60 ff ff ff 	mov    -0xa0(%rbp),%rax
  4098c1:	48 8b 70 08          	mov    0x8(%rax),%rsi
  4098c5:	48 8b 95 78 ff ff ff 	mov    -0x88(%rbp),%rdx
  4098cc:	48 89 bd b8 fe ff ff 	mov    %rdi,-0x148(%rbp)
  4098d3:	48 89 c7             	mov    %rax,%rdi
  4098d6:	48 89 95 b0 fe ff ff 	mov    %rdx,-0x150(%rbp)
  4098dd:	48 89 b5 a8 fe ff ff 	mov    %rsi,-0x158(%rbp)
  4098e4:	e8 b7 f3 ff ff       	callq  408ca0 <_ZNSt12_Vector_baseIhSaIhEE19_M_get_Tp_allocatorEv>
  4098e9:	48 8b bd b8 fe ff ff 	mov    -0x148(%rbp),%rdi
  4098f0:	48 8b b5 a8 fe ff ff 	mov    -0x158(%rbp),%rsi
  4098f7:	48 8b 95 b0 fe ff ff 	mov    -0x150(%rbp),%rdx
  4098fe:	48 89 c1             	mov    %rax,%rcx
  409901:	e8 ba 04 00 00       	callq  409dc0 <_ZSt34__uninitialized_move_if_noexcept_aIPhS0_SaIhEET0_T_S3_S2_RT1_>
  409906:	48 89 85 a0 fe ff ff 	mov    %rax,-0x160(%rbp)
  40990d:	e9 00 00 00 00       	jmpq   409912 <_ZNSt6vectorIhSaIhEE15_M_range_insertIPKcEEvN9__gnu_cxx17__normal_iteratorIPhS1_EET_S9_St20forward_iterator_tag+0x3e2>
  409912:	48 8b 85 a0 fe ff ff 	mov    -0x160(%rbp),%rax
  409919:	48 89 85 78 ff ff ff 	mov    %rax,-0x88(%rbp)
  409920:	e9 a6 00 00 00       	jmpq   4099cb <_ZNSt6vectorIhSaIhEE15_M_range_insertIPKcEEvN9__gnu_cxx17__normal_iteratorIPhS1_EET_S9_St20forward_iterator_tag+0x49b>
  409925:	89 d1                	mov    %edx,%ecx
  409927:	48 89 85 70 ff ff ff 	mov    %rax,-0x90(%rbp)
  40992e:	89 8d 6c ff ff ff    	mov    %ecx,-0x94(%rbp)
  409934:	48 8b bd 70 ff ff ff 	mov    -0x90(%rbp),%rdi
  40993b:	e8 80 92 ff ff       	callq  402bc0 <__cxa_begin_catch@plt>
  409940:	48 8b 7d 80          	mov    -0x80(%rbp),%rdi
  409944:	48 8b b5 78 ff ff ff 	mov    -0x88(%rbp),%rsi
  40994b:	48 8b 8d 60 ff ff ff 	mov    -0xa0(%rbp),%rcx
  409952:	48 89 bd 98 fe ff ff 	mov    %rdi,-0x168(%rbp)
  409959:	48 89 cf             	mov    %rcx,%rdi
  40995c:	48 89 85 90 fe ff ff 	mov    %rax,-0x170(%rbp)
  409963:	48 89 b5 88 fe ff ff 	mov    %rsi,-0x178(%rbp)
  40996a:	e8 31 f3 ff ff       	callq  408ca0 <_ZNSt12_Vector_baseIhSaIhEE19_M_get_Tp_allocatorEv>
  40996f:	48 8b bd 98 fe ff ff 	mov    -0x168(%rbp),%rdi
  409976:	48 8b b5 88 fe ff ff 	mov    -0x178(%rbp),%rsi
  40997d:	48 89 c2             	mov    %rax,%rdx
  409980:	e8 eb f2 ff ff       	callq  408c70 <_ZSt8_DestroyIPhhEvT_S1_RSaIT0_E>
  409985:	e9 00 00 00 00       	jmpq   40998a <_ZNSt6vectorIhSaIhEE15_M_range_insertIPKcEEvN9__gnu_cxx17__normal_iteratorIPhS1_EET_S9_St20forward_iterator_tag+0x45a>
  40998a:	48 8b 75 80          	mov    -0x80(%rbp),%rsi
  40998e:	48 8b 55 88          	mov    -0x78(%rbp),%rdx
  409992:	48 8b bd 60 ff ff ff 	mov    -0xa0(%rbp),%rdi
  409999:	e8 72 04 00 00       	callq  409e10 <_ZNSt12_Vector_baseIhSaIhEE13_M_deallocateEPhm>
  40999e:	e9 00 00 00 00       	jmpq   4099a3 <_ZNSt6vectorIhSaIhEE15_M_range_insertIPKcEEvN9__gnu_cxx17__normal_iteratorIPhS1_EET_S9_St20forward_iterator_tag+0x473>
  4099a3:	e8 68 95 ff ff       	callq  402f10 <__cxa_rethrow@plt>
  4099a8:	e9 d8 00 00 00       	jmpq   409a85 <_ZNSt6vectorIhSaIhEE15_M_range_insertIPKcEEvN9__gnu_cxx17__normal_iteratorIPhS1_EET_S9_St20forward_iterator_tag+0x555>
  4099ad:	89 d1                	mov    %edx,%ecx
  4099af:	48 89 85 70 ff ff ff 	mov    %rax,-0x90(%rbp)
  4099b6:	89 8d 6c ff ff ff    	mov    %ecx,-0x94(%rbp)
  4099bc:	e8 cf 95 ff ff       	callq  402f90 <__cxa_end_catch@plt>
  4099c1:	e9 00 00 00 00       	jmpq   4099c6 <_ZNSt6vectorIhSaIhEE15_M_range_insertIPKcEEvN9__gnu_cxx17__normal_iteratorIPhS1_EET_S9_St20forward_iterator_tag+0x496>
  4099c6:	e9 9e 00 00 00       	jmpq   409a69 <_ZNSt6vectorIhSaIhEE15_M_range_insertIPKcEEvN9__gnu_cxx17__normal_iteratorIPhS1_EET_S9_St20forward_iterator_tag+0x539>
  4099cb:	48 8b 85 60 ff ff ff 	mov    -0xa0(%rbp),%rax
  4099d2:	48 8b 38             	mov    (%rax),%rdi
  4099d5:	48 8b 70 08          	mov    0x8(%rax),%rsi
  4099d9:	48 89 bd 80 fe ff ff 	mov    %rdi,-0x180(%rbp)
  4099e0:	48 89 c7             	mov    %rax,%rdi
  4099e3:	48 89 b5 78 fe ff ff 	mov    %rsi,-0x188(%rbp)
  4099ea:	e8 b1 f2 ff ff       	callq  408ca0 <_ZNSt12_Vector_baseIhSaIhEE19_M_get_Tp_allocatorEv>
  4099ef:	48 8b bd 80 fe ff ff 	mov    -0x180(%rbp),%rdi
  4099f6:	48 8b b5 78 fe ff ff 	mov    -0x188(%rbp),%rsi
  4099fd:	48 89 c2             	mov    %rax,%rdx
  409a00:	e8 6b f2 ff ff       	callq  408c70 <_ZSt8_DestroyIPhhEvT_S1_RSaIT0_E>
  409a05:	48 8b 85 60 ff ff ff 	mov    -0xa0(%rbp),%rax
  409a0c:	48 8b 95 60 ff ff ff 	mov    -0xa0(%rbp),%rdx
  409a13:	48 8b 32             	mov    (%rdx),%rsi
  409a16:	48 8b 7a 10          	mov    0x10(%rdx),%rdi
  409a1a:	48 8b 0a             	mov    (%rdx),%rcx
  409a1d:	48 29 cf             	sub    %rcx,%rdi
  409a20:	48 89 bd 70 fe ff ff 	mov    %rdi,-0x190(%rbp)
  409a27:	48 89 c7             	mov    %rax,%rdi
  409a2a:	48 8b 95 70 fe ff ff 	mov    -0x190(%rbp),%rdx
  409a31:	e8 da 03 00 00       	callq  409e10 <_ZNSt12_Vector_baseIhSaIhEE13_M_deallocateEPhm>
  409a36:	48 8b 45 80          	mov    -0x80(%rbp),%rax
  409a3a:	48 8b 8d 60 ff ff ff 	mov    -0xa0(%rbp),%rcx
  409a41:	48 89 01             	mov    %rax,(%rcx)
  409a44:	48 8b 85 78 ff ff ff 	mov    -0x88(%rbp),%rax
  409a4b:	48 89 41 08          	mov    %rax,0x8(%rcx)
  409a4f:	48 8b 45 80          	mov    -0x80(%rbp),%rax
  409a53:	48 03 45 88          	add    -0x78(%rbp),%rax
  409a57:	48 89 41 10          	mov    %rax,0x10(%rcx)
  409a5b:	e9 00 00 00 00       	jmpq   409a60 <_ZNSt6vectorIhSaIhEE15_M_range_insertIPKcEEvN9__gnu_cxx17__normal_iteratorIPhS1_EET_S9_St20forward_iterator_tag+0x530>
  409a60:	48 81 c4 a0 01 00 00 	add    $0x1a0,%rsp
  409a67:	5d                   	pop    %rbp
  409a68:	c3                   	retq   
  409a69:	48 8b bd 70 ff ff ff 	mov    -0x90(%rbp),%rdi
  409a70:	e8 ab 95 ff ff       	callq  403020 <_Unwind_Resume@plt>
  409a75:	89 d1                	mov    %edx,%ecx
  409a77:	48 89 c7             	mov    %rax,%rdi
  409a7a:	89 8d 6c fe ff ff    	mov    %ecx,-0x194(%rbp)
  409a80:	e8 3b da ff ff       	callq  4074c0 <__clang_call_terminate>
  409a85:	66 2e 0f 1f 84 00 00 	nopw   %cs:0x0(%rax,%rax,1)
  409a8c:	00 00 00 
  409a8f:	90                   	nop

0000000000409a90 <_ZSt8distanceIPKcENSt15iterator_traitsIT_E15difference_typeES3_S3_>:
  409a90:	55                   	push   %rbp
  409a91:	48 89 e5             	mov    %rsp,%rbp
  409a94:	48 83 ec 30          	sub    $0x30,%rsp
  409a98:	48 8d 45 f8          	lea    -0x8(%rbp),%rax
  409a9c:	48 89 7d f8          	mov    %rdi,-0x8(%rbp)
  409aa0:	48 89 75 f0          	mov    %rsi,-0x10(%rbp)
  409aa4:	48 8b 7d f8          	mov    -0x8(%rbp),%rdi
  409aa8:	48 8b 75 f0          	mov    -0x10(%rbp),%rsi
  409aac:	48 89 7d d8          	mov    %rdi,-0x28(%rbp)
  409ab0:	48 89 c7             	mov    %rax,%rdi
  409ab3:	48 89 75 d0          	mov    %rsi,-0x30(%rbp)
  409ab7:	e8 c4 03 00 00       	callq  409e80 <_ZSt19__iterator_categoryIPKcENSt15iterator_traitsIT_E17iterator_categoryERKS3_>
  409abc:	48 8b 7d d8          	mov    -0x28(%rbp),%rdi
  409ac0:	48 8b 75 d0          	mov    -0x30(%rbp),%rsi
  409ac4:	e8 97 03 00 00       	callq  409e60 <_ZSt10__distanceIPKcENSt15iterator_traitsIT_E15difference_typeES3_S3_St26random_access_iterator_tag>
  409ac9:	48 83 c4 30          	add    $0x30,%rsp
  409acd:	5d                   	pop    %rbp
  409ace:	c3                   	retq   
  409acf:	90                   	nop

0000000000409ad0 <_ZN9__gnu_cxxmiIPhSt6vectorIhSaIhEEEENS_17__normal_iteratorIT_T0_E15difference_typeERKS8_SB_>:
  409ad0:	55                   	push   %rbp
  409ad1:	48 89 e5             	mov    %rsp,%rbp
  409ad4:	48 83 ec 20          	sub    $0x20,%rsp
  409ad8:	48 89 7d f8          	mov    %rdi,-0x8(%rbp)
  409adc:	48 89 75 f0          	mov    %rsi,-0x10(%rbp)
  409ae0:	48 8b 7d f8          	mov    -0x8(%rbp),%rdi
  409ae4:	e8 b7 00 00 00       	callq  409ba0 <_ZNK9__gnu_cxx17__normal_iteratorIPhSt6vectorIhSaIhEEE4baseEv>
  409ae9:	48 8b 00             	mov    (%rax),%rax
  409aec:	48 8b 7d f0          	mov    -0x10(%rbp),%rdi
  409af0:	48 89 45 e8          	mov    %rax,-0x18(%rbp)
  409af4:	e8 a7 00 00 00       	callq  409ba0 <_ZNK9__gnu_cxx17__normal_iteratorIPhSt6vectorIhSaIhEEE4baseEv>
  409af9:	48 8b 00             	mov    (%rax),%rax
  409afc:	48 8b 75 e8          	mov    -0x18(%rbp),%rsi
  409b00:	48 29 c6             	sub    %rax,%rsi
  409b03:	48 89 f0             	mov    %rsi,%rax
  409b06:	48 83 c4 20          	add    $0x20,%rsp
  409b0a:	5d                   	pop    %rbp
  409b0b:	c3                   	retq   
  409b0c:	0f 1f 40 00          	nopl   0x0(%rax)

0000000000409b10 <_ZSt22__uninitialized_move_aIPhS0_SaIhEET0_T_S3_S2_RT1_>:
  409b10:	55                   	push   %rbp
  409b11:	48 89 e5             	mov    %rsp,%rbp
  409b14:	48 83 ec 30          	sub    $0x30,%rsp
  409b18:	48 89 7d f8          	mov    %rdi,-0x8(%rbp)
  409b1c:	48 89 75 f0          	mov    %rsi,-0x10(%rbp)
  409b20:	48 89 55 e8          	mov    %rdx,-0x18(%rbp)
  409b24:	48 89 4d e0          	mov    %rcx,-0x20(%rbp)
  409b28:	48 8b 7d f8          	mov    -0x8(%rbp),%rdi
  409b2c:	e8 9f 03 00 00       	callq  409ed0 <_ZSt18make_move_iteratorIPhESt13move_iteratorIT_ES2_>
  409b31:	48 89 45 d8          	mov    %rax,-0x28(%rbp)
  409b35:	48 8b 7d f0          	mov    -0x10(%rbp),%rdi
  409b39:	e8 92 03 00 00       	callq  409ed0 <_ZSt18make_move_iteratorIPhESt13move_iteratorIT_ES2_>
  409b3e:	48 89 45 d0          	mov    %rax,-0x30(%rbp)
  409b42:	48 8b 55 e8          	mov    -0x18(%rbp),%rdx
  409b46:	48 8b 4d e0          	mov    -0x20(%rbp),%rcx
  409b4a:	48 8b 7d d8          	mov    -0x28(%rbp),%rdi
  409b4e:	48 8b 75 d0          	mov    -0x30(%rbp),%rsi
  409b52:	e8 39 03 00 00       	callq  409e90 <_ZSt22__uninitialized_copy_aISt13move_iteratorIPhES1_hET0_T_S4_S3_RSaIT1_E>
  409b57:	48 83 c4 30          	add    $0x30,%rsp
  409b5b:	5d                   	pop    %rbp
  409b5c:	c3                   	retq   
  409b5d:	0f 1f 00             	nopl   (%rax)

0000000000409b60 <_ZSt13move_backwardIPhS0_ET0_T_S2_S1_>:
  409b60:	55                   	push   %rbp
  409b61:	48 89 e5             	mov    %rsp,%rbp
  409b64:	48 83 ec 20          	sub    $0x20,%rsp
  409b68:	48 89 7d f8          	mov    %rdi,-0x8(%rbp)
  409b6c:	48 89 75 f0          	mov    %rsi,-0x10(%rbp)
  409b70:	48 89 55 e8          	mov    %rdx,-0x18(%rbp)
  409b74:	48 8b 7d f8          	mov    -0x8(%rbp),%rdi
  409b78:	e8 43 06 00 00       	callq  40a1c0 <_ZSt12__miter_baseIPhENSt11_Miter_baseIT_E13iterator_typeES2_>
  409b7d:	48 8b 7d f0          	mov    -0x10(%rbp),%rdi
  409b81:	48 89 45 e0          	mov    %rax,-0x20(%rbp)
  409b85:	e8 36 06 00 00       	callq  40a1c0 <_ZSt12__miter_baseIPhENSt11_Miter_baseIT_E13iterator_typeES2_>
  409b8a:	48 8b 55 e8          	mov    -0x18(%rbp),%rdx
  409b8e:	48 8b 7d e0          	mov    -0x20(%rbp),%rdi
  409b92:	48 89 c6             	mov    %rax,%rsi
  409b95:	e8 d6 05 00 00       	callq  40a170 <_ZSt23__copy_move_backward_a2ILb1EPhS0_ET1_T0_S2_S1_>
  409b9a:	48 83 c4 20          	add    $0x20,%rsp
  409b9e:	5d                   	pop    %rbp
  409b9f:	c3                   	retq   

0000000000409ba0 <_ZNK9__gnu_cxx17__normal_iteratorIPhSt6vectorIhSaIhEEE4baseEv>:
  409ba0:	55                   	push   %rbp
  409ba1:	48 89 e5             	mov    %rsp,%rbp
  409ba4:	48 89 7d f8          	mov    %rdi,-0x8(%rbp)
  409ba8:	48 8b 45 f8          	mov    -0x8(%rbp),%rax
  409bac:	5d                   	pop    %rbp
  409bad:	c3                   	retq   
  409bae:	66 90                	xchg   %ax,%ax

0000000000409bb0 <_ZSt4copyIPKcN9__gnu_cxx17__normal_iteratorIPhSt6vectorIhSaIhEEEEET0_T_SA_S9_>:
  409bb0:	55                   	push   %rbp
  409bb1:	48 89 e5             	mov    %rsp,%rbp
  409bb4:	48 83 ec 30          	sub    $0x30,%rsp
  409bb8:	48 89 55 f0          	mov    %rdx,-0x10(%rbp)
  409bbc:	48 89 7d e8          	mov    %rdi,-0x18(%rbp)
  409bc0:	48 89 75 e0          	mov    %rsi,-0x20(%rbp)
  409bc4:	48 8b 7d e8          	mov    -0x18(%rbp),%rdi
  409bc8:	e8 23 07 00 00       	callq  40a2f0 <_ZSt12__miter_baseIPKcENSt11_Miter_baseIT_E13iterator_typeES3_>
  409bcd:	48 8b 7d e0          	mov    -0x20(%rbp),%rdi
  409bd1:	48 89 45 d0          	mov    %rax,-0x30(%rbp)
  409bd5:	e8 16 07 00 00       	callq  40a2f0 <_ZSt12__miter_baseIPKcENSt11_Miter_baseIT_E13iterator_typeES3_>
  409bda:	48 8b 55 f0          	mov    -0x10(%rbp),%rdx
  409bde:	48 89 55 d8          	mov    %rdx,-0x28(%rbp)
  409be2:	48 8b 55 d8          	mov    -0x28(%rbp),%rdx
  409be6:	48 8b 7d d0          	mov    -0x30(%rbp),%rdi
  409bea:	48 89 c6             	mov    %rax,%rsi
  409bed:	e8 8e 06 00 00       	callq  40a280 <_ZSt14__copy_move_a2ILb0EPKcN9__gnu_cxx17__normal_iteratorIPhSt6vectorIhSaIhEEEEET1_T0_SA_S9_>
  409bf2:	48 89 45 f8          	mov    %rax,-0x8(%rbp)
  409bf6:	48 8b 45 f8          	mov    -0x8(%rbp),%rax
  409bfa:	48 83 c4 30          	add    $0x30,%rsp
  409bfe:	5d                   	pop    %rbp
  409bff:	c3                   	retq   

0000000000409c00 <_ZSt7advanceIPKcmEvRT_T0_>:
  409c00:	55                   	push   %rbp
  409c01:	48 89 e5             	mov    %rsp,%rbp
  409c04:	48 83 ec 40          	sub    $0x40,%rsp
  409c08:	48 89 7d f8          	mov    %rdi,-0x8(%rbp)
  409c0c:	48 89 75 f0          	mov    %rsi,-0x10(%rbp)
  409c10:	48 8b 75 f0          	mov    -0x10(%rbp),%rsi
  409c14:	48 89 75 e8          	mov    %rsi,-0x18(%rbp)
  409c18:	48 8b 7d f8          	mov    -0x8(%rbp),%rdi
  409c1c:	48 8b 75 e8          	mov    -0x18(%rbp),%rsi
  409c20:	48 8b 45 f8          	mov    -0x8(%rbp),%rax
  409c24:	48 89 7d d0          	mov    %rdi,-0x30(%rbp)
  409c28:	48 89 c7             	mov    %rax,%rdi
  409c2b:	48 89 75 c8          	mov    %rsi,-0x38(%rbp)
  409c2f:	e8 4c 02 00 00       	callq  409e80 <_ZSt19__iterator_categoryIPKcENSt15iterator_traitsIT_E17iterator_categoryERKS3_>
  409c34:	48 8b 7d d0          	mov    -0x30(%rbp),%rdi
  409c38:	48 8b 75 c8          	mov    -0x38(%rbp),%rsi
  409c3c:	e8 ff 07 00 00       	callq  40a440 <_ZSt9__advanceIPKclEvRT_T0_St26random_access_iterator_tag>
  409c41:	48 83 c4 40          	add    $0x40,%rsp
  409c45:	5d                   	pop    %rbp
  409c46:	c3                   	retq   
  409c47:	66 0f 1f 84 00 00 00 	nopw   0x0(%rax,%rax,1)
  409c4e:	00 00 

0000000000409c50 <_ZSt22__uninitialized_copy_aIPKcPhhET0_T_S4_S3_RSaIT1_E>:
  409c50:	55                   	push   %rbp
  409c51:	48 89 e5             	mov    %rsp,%rbp
  409c54:	48 83 ec 20          	sub    $0x20,%rsp
  409c58:	48 89 7d f8          	mov    %rdi,-0x8(%rbp)
  409c5c:	48 89 75 f0          	mov    %rsi,-0x10(%rbp)
  409c60:	48 89 55 e8          	mov    %rdx,-0x18(%rbp)
  409c64:	48 89 4d e0          	mov    %rcx,-0x20(%rbp)
  409c68:	48 8b 7d f8          	mov    -0x8(%rbp),%rdi
  409c6c:	48 8b 75 f0          	mov    -0x10(%rbp),%rsi
  409c70:	48 8b 55 e8          	mov    -0x18(%rbp),%rdx
  409c74:	e8 e7 07 00 00       	callq  40a460 <_ZSt18uninitialized_copyIPKcPhET0_T_S4_S3_>
  409c79:	48 83 c4 20          	add    $0x20,%rsp
  409c7d:	5d                   	pop    %rbp
  409c7e:	c3                   	retq   
  409c7f:	90                   	nop

0000000000409c80 <_ZNKSt6vectorIhSaIhEE12_M_check_lenEmPKc>:
  409c80:	55                   	push   %rbp
  409c81:	48 89 e5             	mov    %rsp,%rbp
  409c84:	48 83 ec 60          	sub    $0x60,%rsp
  409c88:	48 89 7d f8          	mov    %rdi,-0x8(%rbp)
  409c8c:	48 89 75 f0          	mov    %rsi,-0x10(%rbp)
  409c90:	48 89 55 e8          	mov    %rdx,-0x18(%rbp)
  409c94:	48 8b 55 f8          	mov    -0x8(%rbp),%rdx
  409c98:	48 89 d7             	mov    %rdx,%rdi
  409c9b:	48 89 55 d0          	mov    %rdx,-0x30(%rbp)
  409c9f:	e8 ac 08 00 00       	callq  40a550 <_ZNKSt6vectorIhSaIhEE8max_sizeEv>
  409ca4:	48 8b 7d d0          	mov    -0x30(%rbp),%rdi
  409ca8:	48 89 45 c8          	mov    %rax,-0x38(%rbp)
  409cac:	e8 8f cf ff ff       	callq  406c40 <_ZNKSt6vectorIhSaIhEE4sizeEv>
  409cb1:	48 8b 55 c8          	mov    -0x38(%rbp),%rdx
  409cb5:	48 29 c2             	sub    %rax,%rdx
  409cb8:	48 3b 55 f0          	cmp    -0x10(%rbp),%rdx
  409cbc:	0f 83 09 00 00 00    	jae    409ccb <_ZNKSt6vectorIhSaIhEE12_M_check_lenEmPKc+0x4b>
  409cc2:	48 8b 7d e8          	mov    -0x18(%rbp),%rdi
  409cc6:	e8 55 8f ff ff       	callq  402c20 <_ZSt20__throw_length_errorPKc@plt>
  409ccb:	48 8b 7d d0          	mov    -0x30(%rbp),%rdi
  409ccf:	e8 6c cf ff ff       	callq  406c40 <_ZNKSt6vectorIhSaIhEE4sizeEv>
  409cd4:	48 8b 7d d0          	mov    -0x30(%rbp),%rdi
  409cd8:	48 89 45 c0          	mov    %rax,-0x40(%rbp)
  409cdc:	e8 5f cf ff ff       	callq  406c40 <_ZNKSt6vectorIhSaIhEE4sizeEv>
  409ce1:	48 8d 7d d8          	lea    -0x28(%rbp),%rdi
  409ce5:	48 8d 75 f0          	lea    -0x10(%rbp),%rsi
  409ce9:	48 89 45 d8          	mov    %rax,-0x28(%rbp)
  409ced:	e8 8e 08 00 00       	callq  40a580 <_ZSt3maxImERKT_S2_S2_>
  409cf2:	48 8b 75 c0          	mov    -0x40(%rbp),%rsi
  409cf6:	48 03 30             	add    (%rax),%rsi
  409cf9:	48 89 75 e0          	mov    %rsi,-0x20(%rbp)
  409cfd:	48 8b 45 e0          	mov    -0x20(%rbp),%rax
  409d01:	48 8b 7d d0          	mov    -0x30(%rbp),%rdi
  409d05:	48 89 45 b8          	mov    %rax,-0x48(%rbp)
  409d09:	e8 32 cf ff ff       	callq  406c40 <_ZNKSt6vectorIhSaIhEE4sizeEv>
  409d0e:	48 8b 75 b8          	mov    -0x48(%rbp),%rsi
  409d12:	48 39 c6             	cmp    %rax,%rsi
  409d15:	0f 82 1e 00 00 00    	jb     409d39 <_ZNKSt6vectorIhSaIhEE12_M_check_lenEmPKc+0xb9>
  409d1b:	48 8b 45 e0          	mov    -0x20(%rbp),%rax
  409d1f:	48 8b 7d d0          	mov    -0x30(%rbp),%rdi
  409d23:	48 89 45 b0          	mov    %rax,-0x50(%rbp)
  409d27:	e8 24 08 00 00       	callq  40a550 <_ZNKSt6vectorIhSaIhEE8max_sizeEv>
  409d2c:	48 8b 7d b0          	mov    -0x50(%rbp),%rdi
  409d30:	48 39 c7             	cmp    %rax,%rdi
  409d33:	0f 86 12 00 00 00    	jbe    409d4b <_ZNKSt6vectorIhSaIhEE12_M_check_lenEmPKc+0xcb>
  409d39:	48 8b 7d d0          	mov    -0x30(%rbp),%rdi
  409d3d:	e8 0e 08 00 00       	callq  40a550 <_ZNKSt6vectorIhSaIhEE8max_sizeEv>
  409d42:	48 89 45 a8          	mov    %rax,-0x58(%rbp)
  409d46:	e9 08 00 00 00       	jmpq   409d53 <_ZNKSt6vectorIhSaIhEE12_M_check_lenEmPKc+0xd3>
  409d4b:	48 8b 45 e0          	mov    -0x20(%rbp),%rax
  409d4f:	48 89 45 a8          	mov    %rax,-0x58(%rbp)
  409d53:	48 8b 45 a8          	mov    -0x58(%rbp),%rax
  409d57:	48 83 c4 60          	add    $0x60,%rsp
  409d5b:	5d                   	pop    %rbp
  409d5c:	c3                   	retq   
  409d5d:	0f 1f 00             	nopl   (%rax)

0000000000409d60 <_ZNSt12_Vector_baseIhSaIhEE11_M_allocateEm>:
  409d60:	55                   	push   %rbp
  409d61:	48 89 e5             	mov    %rsp,%rbp
  409d64:	48 83 ec 20          	sub    $0x20,%rsp
  409d68:	48 89 7d f8          	mov    %rdi,-0x8(%rbp)
  409d6c:	48 89 75 f0          	mov    %rsi,-0x10(%rbp)
  409d70:	48 8b 75 f8          	mov    -0x8(%rbp),%rsi
  409d74:	48 83 7d f0 00       	cmpq   $0x0,-0x10(%rbp)
  409d79:	48 89 75 e8          	mov    %rsi,-0x18(%rbp)
  409d7d:	0f 84 19 00 00 00    	je     409d9c <_ZNSt12_Vector_baseIhSaIhEE11_M_allocateEm+0x3c>
  409d83:	48 8b 45 e8          	mov    -0x18(%rbp),%rax
  409d87:	48 8b 75 f0          	mov    -0x10(%rbp),%rsi
  409d8b:	48 89 c7             	mov    %rax,%rdi
  409d8e:	e8 8d 08 00 00       	callq  40a620 <_ZNSt16allocator_traitsISaIhEE8allocateERS0_m>
  409d93:	48 89 45 e0          	mov    %rax,-0x20(%rbp)
  409d97:	e9 0d 00 00 00       	jmpq   409da9 <_ZNSt12_Vector_baseIhSaIhEE11_M_allocateEm+0x49>
  409d9c:	31 c0                	xor    %eax,%eax
  409d9e:	89 c1                	mov    %eax,%ecx
  409da0:	48 89 4d e0          	mov    %rcx,-0x20(%rbp)
  409da4:	e9 00 00 00 00       	jmpq   409da9 <_ZNSt12_Vector_baseIhSaIhEE11_M_allocateEm+0x49>
  409da9:	48 8b 45 e0          	mov    -0x20(%rbp),%rax
  409dad:	48 83 c4 20          	add    $0x20,%rsp
  409db1:	5d                   	pop    %rbp
  409db2:	c3                   	retq   
  409db3:	66 2e 0f 1f 84 00 00 	nopw   %cs:0x0(%rax,%rax,1)
  409dba:	00 00 00 
  409dbd:	0f 1f 00             	nopl   (%rax)

0000000000409dc0 <_ZSt34__uninitialized_move_if_noexcept_aIPhS0_SaIhEET0_T_S3_S2_RT1_>:
  409dc0:	55                   	push   %rbp
  409dc1:	48 89 e5             	mov    %rsp,%rbp
  409dc4:	48 83 ec 30          	sub    $0x30,%rsp
  409dc8:	48 89 7d f8          	mov    %rdi,-0x8(%rbp)
  409dcc:	48 89 75 f0          	mov    %rsi,-0x10(%rbp)
  409dd0:	48 89 55 e8          	mov    %rdx,-0x18(%rbp)
  409dd4:	48 89 4d e0          	mov    %rcx,-0x20(%rbp)
  409dd8:	48 8b 7d f8          	mov    -0x8(%rbp),%rdi
  409ddc:	e8 cf 08 00 00       	callq  40a6b0 <_ZSt32__make_move_if_noexcept_iteratorIPhSt13move_iteratorIS0_EET0_T_>
  409de1:	48 89 45 d8          	mov    %rax,-0x28(%rbp)
  409de5:	48 8b 7d f0          	mov    -0x10(%rbp),%rdi
  409de9:	e8 c2 08 00 00       	callq  40a6b0 <_ZSt32__make_move_if_noexcept_iteratorIPhSt13move_iteratorIS0_EET0_T_>
  409dee:	48 89 45 d0          	mov    %rax,-0x30(%rbp)
  409df2:	48 8b 55 e8          	mov    -0x18(%rbp),%rdx
  409df6:	48 8b 4d e0          	mov    -0x20(%rbp),%rcx
  409dfa:	48 8b 7d d8          	mov    -0x28(%rbp),%rdi
  409dfe:	48 8b 75 d0          	mov    -0x30(%rbp),%rsi
  409e02:	e8 89 00 00 00       	callq  409e90 <_ZSt22__uninitialized_copy_aISt13move_iteratorIPhES1_hET0_T_S4_S3_RSaIT1_E>
  409e07:	48 83 c4 30          	add    $0x30,%rsp
  409e0b:	5d                   	pop    %rbp
  409e0c:	c3                   	retq   
  409e0d:	0f 1f 00             	nopl   (%rax)

0000000000409e10 <_ZNSt12_Vector_baseIhSaIhEE13_M_deallocateEPhm>:
  409e10:	55                   	push   %rbp
  409e11:	48 89 e5             	mov    %rsp,%rbp
  409e14:	48 83 ec 20          	sub    $0x20,%rsp
  409e18:	48 89 7d f8          	mov    %rdi,-0x8(%rbp)
  409e1c:	48 89 75 f0          	mov    %rsi,-0x10(%rbp)
  409e20:	48 89 55 e8          	mov    %rdx,-0x18(%rbp)
  409e24:	48 8b 55 f8          	mov    -0x8(%rbp),%rdx
  409e28:	48 83 7d f0 00       	cmpq   $0x0,-0x10(%rbp)
  409e2d:	48 89 55 e0          	mov    %rdx,-0x20(%rbp)
  409e31:	0f 84 14 00 00 00    	je     409e4b <_ZNSt12_Vector_baseIhSaIhEE13_M_deallocateEPhm+0x3b>
  409e37:	48 8b 45 e0          	mov    -0x20(%rbp),%rax
  409e3b:	48 8b 75 f0          	mov    -0x10(%rbp),%rsi
  409e3f:	48 8b 55 e8          	mov    -0x18(%rbp),%rdx
  409e43:	48 89 c7             	mov    %rax,%rdi
  409e46:	e8 95 08 00 00       	callq  40a6e0 <_ZNSt16allocator_traitsISaIhEE10deallocateERS0_Phm>
  409e4b:	48 83 c4 20          	add    $0x20,%rsp
  409e4f:	5d                   	pop    %rbp
  409e50:	c3                   	retq   
  409e51:	66 2e 0f 1f 84 00 00 	nopw   %cs:0x0(%rax,%rax,1)
  409e58:	00 00 00 
  409e5b:	0f 1f 44 00 00       	nopl   0x0(%rax,%rax,1)

0000000000409e60 <_ZSt10__distanceIPKcENSt15iterator_traitsIT_E15difference_typeES3_S3_St26random_access_iterator_tag>:
  409e60:	55                   	push   %rbp
  409e61:	48 89 e5             	mov    %rsp,%rbp
  409e64:	48 89 7d f0          	mov    %rdi,-0x10(%rbp)
  409e68:	48 89 75 e8          	mov    %rsi,-0x18(%rbp)
  409e6c:	48 8b 75 e8          	mov    -0x18(%rbp),%rsi
  409e70:	48 8b 7d f0          	mov    -0x10(%rbp),%rdi
  409e74:	48 29 fe             	sub    %rdi,%rsi
  409e77:	48 89 f0             	mov    %rsi,%rax
  409e7a:	5d                   	pop    %rbp
  409e7b:	c3                   	retq   
  409e7c:	0f 1f 40 00          	nopl   0x0(%rax)

0000000000409e80 <_ZSt19__iterator_categoryIPKcENSt15iterator_traitsIT_E17iterator_categoryERKS3_>:
  409e80:	55                   	push   %rbp
  409e81:	48 89 e5             	mov    %rsp,%rbp
  409e84:	48 89 7d f0          	mov    %rdi,-0x10(%rbp)
  409e88:	5d                   	pop    %rbp
  409e89:	c3                   	retq   
  409e8a:	66 0f 1f 44 00 00    	nopw   0x0(%rax,%rax,1)

0000000000409e90 <_ZSt22__uninitialized_copy_aISt13move_iteratorIPhES1_hET0_T_S4_S3_RSaIT1_E>:
  409e90:	55                   	push   %rbp
  409e91:	48 89 e5             	mov    %rsp,%rbp
  409e94:	48 83 ec 30          	sub    $0x30,%rsp
  409e98:	48 89 7d f8          	mov    %rdi,-0x8(%rbp)
  409e9c:	48 89 75 f0          	mov    %rsi,-0x10(%rbp)
  409ea0:	48 89 55 e8          	mov    %rdx,-0x18(%rbp)
  409ea4:	48 89 4d e0          	mov    %rcx,-0x20(%rbp)
  409ea8:	48 8b 4d f8          	mov    -0x8(%rbp),%rcx
  409eac:	48 89 4d d8          	mov    %rcx,-0x28(%rbp)
  409eb0:	48 8b 4d f0          	mov    -0x10(%rbp),%rcx
  409eb4:	48 89 4d d0          	mov    %rcx,-0x30(%rbp)
  409eb8:	48 8b 55 e8          	mov    -0x18(%rbp),%rdx
  409ebc:	48 8b 7d d8          	mov    -0x28(%rbp),%rdi
  409ec0:	48 8b 75 d0          	mov    -0x30(%rbp),%rsi
  409ec4:	e8 37 00 00 00       	callq  409f00 <_ZSt18uninitialized_copyISt13move_iteratorIPhES1_ET0_T_S4_S3_>
  409ec9:	48 83 c4 30          	add    $0x30,%rsp
  409ecd:	5d                   	pop    %rbp
  409ece:	c3                   	retq   
  409ecf:	90                   	nop

0000000000409ed0 <_ZSt18make_move_iteratorIPhESt13move_iteratorIT_ES2_>:
  409ed0:	55                   	push   %rbp
  409ed1:	48 89 e5             	mov    %rsp,%rbp
  409ed4:	48 83 ec 10          	sub    $0x10,%rsp
  409ed8:	48 8d 45 f8          	lea    -0x8(%rbp),%rax
  409edc:	48 89 7d f0          	mov    %rdi,-0x10(%rbp)
  409ee0:	48 8b 75 f0          	mov    -0x10(%rbp),%rsi
  409ee4:	48 89 c7             	mov    %rax,%rdi
  409ee7:	e8 64 02 00 00       	callq  40a150 <_ZNSt13move_iteratorIPhEC2ES0_>
  409eec:	48 8b 45 f8          	mov    -0x8(%rbp),%rax
  409ef0:	48 83 c4 10          	add    $0x10,%rsp
  409ef4:	5d                   	pop    %rbp
  409ef5:	c3                   	retq   
  409ef6:	66 2e 0f 1f 84 00 00 	nopw   %cs:0x0(%rax,%rax,1)
  409efd:	00 00 00 

0000000000409f00 <_ZSt18uninitialized_copyISt13move_iteratorIPhES1_ET0_T_S4_S3_>:
  409f00:	55                   	push   %rbp
  409f01:	48 89 e5             	mov    %rsp,%rbp
  409f04:	48 83 ec 30          	sub    $0x30,%rsp
  409f08:	48 89 7d f8          	mov    %rdi,-0x8(%rbp)
  409f0c:	48 89 75 f0          	mov    %rsi,-0x10(%rbp)
  409f10:	48 89 55 e8          	mov    %rdx,-0x18(%rbp)
  409f14:	c6 45 e7 01          	movb   $0x1,-0x19(%rbp)
  409f18:	48 8b 55 f8          	mov    -0x8(%rbp),%rdx
  409f1c:	48 89 55 d8          	mov    %rdx,-0x28(%rbp)
  409f20:	48 8b 55 f0          	mov    -0x10(%rbp),%rdx
  409f24:	48 89 55 d0          	mov    %rdx,-0x30(%rbp)
  409f28:	48 8b 55 e8          	mov    -0x18(%rbp),%rdx
  409f2c:	48 8b 7d d8          	mov    -0x28(%rbp),%rdi
  409f30:	48 8b 75 d0          	mov    -0x30(%rbp),%rsi
  409f34:	e8 07 00 00 00       	callq  409f40 <_ZNSt20__uninitialized_copyILb1EE13__uninit_copyISt13move_iteratorIPhES3_EET0_T_S6_S5_>
  409f39:	48 83 c4 30          	add    $0x30,%rsp
  409f3d:	5d                   	pop    %rbp
  409f3e:	c3                   	retq   
  409f3f:	90                   	nop

0000000000409f40 <_ZNSt20__uninitialized_copyILb1EE13__uninit_copyISt13move_iteratorIPhES3_EET0_T_S6_S5_>:
  409f40:	55                   	push   %rbp
  409f41:	48 89 e5             	mov    %rsp,%rbp
  409f44:	48 83 ec 30          	sub    $0x30,%rsp
  409f48:	48 89 7d f8          	mov    %rdi,-0x8(%rbp)
  409f4c:	48 89 75 f0          	mov    %rsi,-0x10(%rbp)
  409f50:	48 89 55 e8          	mov    %rdx,-0x18(%rbp)
  409f54:	48 8b 55 f8          	mov    -0x8(%rbp),%rdx
  409f58:	48 89 55 e0          	mov    %rdx,-0x20(%rbp)
  409f5c:	48 8b 55 f0          	mov    -0x10(%rbp),%rdx
  409f60:	48 89 55 d8          	mov    %rdx,-0x28(%rbp)
  409f64:	48 8b 55 e8          	mov    -0x18(%rbp),%rdx
  409f68:	48 8b 7d e0          	mov    -0x20(%rbp),%rdi
  409f6c:	48 8b 75 d8          	mov    -0x28(%rbp),%rsi
  409f70:	e8 0b 00 00 00       	callq  409f80 <_ZSt4copyISt13move_iteratorIPhES1_ET0_T_S4_S3_>
  409f75:	48 83 c4 30          	add    $0x30,%rsp
  409f79:	5d                   	pop    %rbp
  409f7a:	c3                   	retq   
  409f7b:	0f 1f 44 00 00       	nopl   0x0(%rax,%rax,1)

0000000000409f80 <_ZSt4copyISt13move_iteratorIPhES1_ET0_T_S4_S3_>:
  409f80:	55                   	push   %rbp
  409f81:	48 89 e5             	mov    %rsp,%rbp
  409f84:	48 83 ec 30          	sub    $0x30,%rsp
  409f88:	48 89 7d f8          	mov    %rdi,-0x8(%rbp)
  409f8c:	48 89 75 f0          	mov    %rsi,-0x10(%rbp)
  409f90:	48 89 55 e8          	mov    %rdx,-0x18(%rbp)
  409f94:	48 8b 55 f8          	mov    -0x8(%rbp),%rdx
  409f98:	48 89 55 e0          	mov    %rdx,-0x20(%rbp)
  409f9c:	48 8b 7d e0          	mov    -0x20(%rbp),%rdi
  409fa0:	e8 7b 00 00 00       	callq  40a020 <_ZSt12__miter_baseISt13move_iteratorIPhEENSt11_Miter_baseIT_E13iterator_typeES4_>
  409fa5:	48 8b 55 f0          	mov    -0x10(%rbp),%rdx
  409fa9:	48 89 55 d8          	mov    %rdx,-0x28(%rbp)
  409fad:	48 8b 7d d8          	mov    -0x28(%rbp),%rdi
  409fb1:	48 89 45 d0          	mov    %rax,-0x30(%rbp)
  409fb5:	e8 66 00 00 00       	callq  40a020 <_ZSt12__miter_baseISt13move_iteratorIPhEENSt11_Miter_baseIT_E13iterator_typeES4_>
  409fba:	48 8b 55 e8          	mov    -0x18(%rbp),%rdx
  409fbe:	48 8b 7d d0          	mov    -0x30(%rbp),%rdi
  409fc2:	48 89 c6             	mov    %rax,%rsi
  409fc5:	e8 06 00 00 00       	callq  409fd0 <_ZSt14__copy_move_a2ILb1EPhS0_ET1_T0_S2_S1_>
  409fca:	48 83 c4 30          	add    $0x30,%rsp
  409fce:	5d                   	pop    %rbp
  409fcf:	c3                   	retq   

0000000000409fd0 <_ZSt14__copy_move_a2ILb1EPhS0_ET1_T0_S2_S1_>:
  409fd0:	55                   	push   %rbp
  409fd1:	48 89 e5             	mov    %rsp,%rbp
  409fd4:	48 83 ec 30          	sub    $0x30,%rsp
  409fd8:	48 89 7d f8          	mov    %rdi,-0x8(%rbp)
  409fdc:	48 89 75 f0          	mov    %rsi,-0x10(%rbp)
  409fe0:	48 89 55 e8          	mov    %rdx,-0x18(%rbp)
  409fe4:	48 8b 7d f8          	mov    -0x8(%rbp),%rdi
  409fe8:	e8 93 00 00 00       	callq  40a080 <_ZSt12__niter_baseIPhENSt11_Niter_baseIT_E13iterator_typeES2_>
  409fed:	48 8b 7d f0          	mov    -0x10(%rbp),%rdi
  409ff1:	48 89 45 e0          	mov    %rax,-0x20(%rbp)
  409ff5:	e8 86 00 00 00       	callq  40a080 <_ZSt12__niter_baseIPhENSt11_Niter_baseIT_E13iterator_typeES2_>
  409ffa:	48 8b 7d e8          	mov    -0x18(%rbp),%rdi
  409ffe:	48 89 45 d8          	mov    %rax,-0x28(%rbp)
  40a002:	e8 79 00 00 00       	callq  40a080 <_ZSt12__niter_baseIPhENSt11_Niter_baseIT_E13iterator_typeES2_>
  40a007:	48 8b 7d e0          	mov    -0x20(%rbp),%rdi
  40a00b:	48 8b 75 d8          	mov    -0x28(%rbp),%rsi
  40a00f:	48 89 c2             	mov    %rax,%rdx
  40a012:	e8 39 00 00 00       	callq  40a050 <_ZSt13__copy_move_aILb1EPhS0_ET1_T0_S2_S1_>
  40a017:	48 83 c4 30          	add    $0x30,%rsp
  40a01b:	5d                   	pop    %rbp
  40a01c:	c3                   	retq   
  40a01d:	0f 1f 00             	nopl   (%rax)

000000000040a020 <_ZSt12__miter_baseISt13move_iteratorIPhEENSt11_Miter_baseIT_E13iterator_typeES4_>:
  40a020:	55                   	push   %rbp
  40a021:	48 89 e5             	mov    %rsp,%rbp
  40a024:	48 83 ec 10          	sub    $0x10,%rsp
  40a028:	48 89 7d f8          	mov    %rdi,-0x8(%rbp)
  40a02c:	48 8b 7d f8          	mov    -0x8(%rbp),%rdi
  40a030:	48 89 7d f0          	mov    %rdi,-0x10(%rbp)
  40a034:	48 8b 7d f0          	mov    -0x10(%rbp),%rdi
  40a038:	e8 d3 00 00 00       	callq  40a110 <_ZNSt10_Iter_baseISt13move_iteratorIPhELb1EE7_S_baseES2_>
  40a03d:	48 83 c4 10          	add    $0x10,%rsp
  40a041:	5d                   	pop    %rbp
  40a042:	c3                   	retq   
  40a043:	66 2e 0f 1f 84 00 00 	nopw   %cs:0x0(%rax,%rax,1)
  40a04a:	00 00 00 
  40a04d:	0f 1f 00             	nopl   (%rax)

000000000040a050 <_ZSt13__copy_move_aILb1EPhS0_ET1_T0_S2_S1_>:
  40a050:	55                   	push   %rbp
  40a051:	48 89 e5             	mov    %rsp,%rbp
  40a054:	48 83 ec 20          	sub    $0x20,%rsp
  40a058:	48 89 7d f8          	mov    %rdi,-0x8(%rbp)
  40a05c:	48 89 75 f0          	mov    %rsi,-0x10(%rbp)
  40a060:	48 89 55 e8          	mov    %rdx,-0x18(%rbp)
  40a064:	c6 45 e7 01          	movb   $0x1,-0x19(%rbp)
  40a068:	48 8b 7d f8          	mov    -0x8(%rbp),%rdi
  40a06c:	48 8b 75 f0          	mov    -0x10(%rbp),%rsi
  40a070:	48 8b 55 e8          	mov    -0x18(%rbp),%rdx
  40a074:	e8 27 00 00 00       	callq  40a0a0 <_ZNSt11__copy_moveILb1ELb1ESt26random_access_iterator_tagE8__copy_mIhEEPT_PKS3_S6_S4_>
  40a079:	48 83 c4 20          	add    $0x20,%rsp
  40a07d:	5d                   	pop    %rbp
  40a07e:	c3                   	retq   
  40a07f:	90                   	nop

000000000040a080 <_ZSt12__niter_baseIPhENSt11_Niter_baseIT_E13iterator_typeES2_>:
  40a080:	55                   	push   %rbp
  40a081:	48 89 e5             	mov    %rsp,%rbp
  40a084:	48 83 ec 10          	sub    $0x10,%rsp
  40a088:	48 89 7d f8          	mov    %rdi,-0x8(%rbp)
  40a08c:	48 8b 7d f8          	mov    -0x8(%rbp),%rdi
  40a090:	e8 6b 00 00 00       	callq  40a100 <_ZNSt10_Iter_baseIPhLb0EE7_S_baseES0_>
  40a095:	48 83 c4 10          	add    $0x10,%rsp
  40a099:	5d                   	pop    %rbp
  40a09a:	c3                   	retq   
  40a09b:	0f 1f 44 00 00       	nopl   0x0(%rax,%rax,1)

000000000040a0a0 <_ZNSt11__copy_moveILb1ELb1ESt26random_access_iterator_tagE8__copy_mIhEEPT_PKS3_S6_S4_>:
  40a0a0:	55                   	push   %rbp
  40a0a1:	48 89 e5             	mov    %rsp,%rbp
  40a0a4:	48 83 ec 20          	sub    $0x20,%rsp
  40a0a8:	48 89 7d f8          	mov    %rdi,-0x8(%rbp)
  40a0ac:	48 89 75 f0          	mov    %rsi,-0x10(%rbp)
  40a0b0:	48 89 55 e8          	mov    %rdx,-0x18(%rbp)
  40a0b4:	48 8b 55 f0          	mov    -0x10(%rbp),%rdx
  40a0b8:	48 8b 75 f8          	mov    -0x8(%rbp),%rsi
  40a0bc:	48 29 f2             	sub    %rsi,%rdx
  40a0bf:	48 89 55 e0          	mov    %rdx,-0x20(%rbp)
  40a0c3:	48 83 7d e0 00       	cmpq   $0x0,-0x20(%rbp)
  40a0c8:	0f 84 18 00 00 00    	je     40a0e6 <_ZNSt11__copy_moveILb1ELb1ESt26random_access_iterator_tagE8__copy_mIhEEPT_PKS3_S6_S4_+0x46>
  40a0ce:	48 8b 7d e8          	mov    -0x18(%rbp),%rdi
  40a0d2:	48 8b 75 f8          	mov    -0x8(%rbp),%rsi
  40a0d6:	48 8b 45 e0          	mov    -0x20(%rbp),%rax
  40a0da:	48 c1 e0 00          	shl    $0x0,%rax
  40a0de:	48 89 c2             	mov    %rax,%rdx
  40a0e1:	e8 9a 8e ff ff       	callq  402f80 <memmove@plt>
  40a0e6:	48 8b 45 e8          	mov    -0x18(%rbp),%rax
  40a0ea:	48 03 45 e0          	add    -0x20(%rbp),%rax
  40a0ee:	48 83 c4 20          	add    $0x20,%rsp
  40a0f2:	5d                   	pop    %rbp
  40a0f3:	c3                   	retq   
  40a0f4:	66 2e 0f 1f 84 00 00 	nopw   %cs:0x0(%rax,%rax,1)
  40a0fb:	00 00 00 
  40a0fe:	66 90                	xchg   %ax,%ax

000000000040a100 <_ZNSt10_Iter_baseIPhLb0EE7_S_baseES0_>:
  40a100:	55                   	push   %rbp
  40a101:	48 89 e5             	mov    %rsp,%rbp
  40a104:	48 89 7d f8          	mov    %rdi,-0x8(%rbp)
  40a108:	48 8b 45 f8          	mov    -0x8(%rbp),%rax
  40a10c:	5d                   	pop    %rbp
  40a10d:	c3                   	retq   
  40a10e:	66 90                	xchg   %ax,%ax

000000000040a110 <_ZNSt10_Iter_baseISt13move_iteratorIPhELb1EE7_S_baseES2_>:
  40a110:	55                   	push   %rbp
  40a111:	48 89 e5             	mov    %rsp,%rbp
  40a114:	48 83 ec 10          	sub    $0x10,%rsp
  40a118:	48 8d 45 f8          	lea    -0x8(%rbp),%rax
  40a11c:	48 89 7d f8          	mov    %rdi,-0x8(%rbp)
  40a120:	48 89 c7             	mov    %rax,%rdi
  40a123:	e8 08 00 00 00       	callq  40a130 <_ZNKSt13move_iteratorIPhE4baseEv>
  40a128:	48 83 c4 10          	add    $0x10,%rsp
  40a12c:	5d                   	pop    %rbp
  40a12d:	c3                   	retq   
  40a12e:	66 90                	xchg   %ax,%ax

000000000040a130 <_ZNKSt13move_iteratorIPhE4baseEv>:
  40a130:	55                   	push   %rbp
  40a131:	48 89 e5             	mov    %rsp,%rbp
  40a134:	48 89 7d f8          	mov    %rdi,-0x8(%rbp)
  40a138:	48 8b 7d f8          	mov    -0x8(%rbp),%rdi
  40a13c:	48 8b 07             	mov    (%rdi),%rax
  40a13f:	5d                   	pop    %rbp
  40a140:	c3                   	retq   
  40a141:	66 2e 0f 1f 84 00 00 	nopw   %cs:0x0(%rax,%rax,1)
  40a148:	00 00 00 
  40a14b:	0f 1f 44 00 00       	nopl   0x0(%rax,%rax,1)

000000000040a150 <_ZNSt13move_iteratorIPhEC2ES0_>:
  40a150:	55                   	push   %rbp
  40a151:	48 89 e5             	mov    %rsp,%rbp
  40a154:	48 89 7d f8          	mov    %rdi,-0x8(%rbp)
  40a158:	48 89 75 f0          	mov    %rsi,-0x10(%rbp)
  40a15c:	48 8b 75 f8          	mov    -0x8(%rbp),%rsi
  40a160:	48 8b 7d f0          	mov    -0x10(%rbp),%rdi
  40a164:	48 89 3e             	mov    %rdi,(%rsi)
  40a167:	5d                   	pop    %rbp
  40a168:	c3                   	retq   
  40a169:	0f 1f 80 00 00 00 00 	nopl   0x0(%rax)

000000000040a170 <_ZSt23__copy_move_backward_a2ILb1EPhS0_ET1_T0_S2_S1_>:
  40a170:	55                   	push   %rbp
  40a171:	48 89 e5             	mov    %rsp,%rbp
  40a174:	48 83 ec 30          	sub    $0x30,%rsp
  40a178:	48 89 7d f8          	mov    %rdi,-0x8(%rbp)
  40a17c:	48 89 75 f0          	mov    %rsi,-0x10(%rbp)
  40a180:	48 89 55 e8          	mov    %rdx,-0x18(%rbp)
  40a184:	48 8b 7d f8          	mov    -0x8(%rbp),%rdi
  40a188:	e8 f3 fe ff ff       	callq  40a080 <_ZSt12__niter_baseIPhENSt11_Niter_baseIT_E13iterator_typeES2_>
  40a18d:	48 8b 7d f0          	mov    -0x10(%rbp),%rdi
  40a191:	48 89 45 e0          	mov    %rax,-0x20(%rbp)
  40a195:	e8 e6 fe ff ff       	callq  40a080 <_ZSt12__niter_baseIPhENSt11_Niter_baseIT_E13iterator_typeES2_>
  40a19a:	48 8b 7d e8          	mov    -0x18(%rbp),%rdi
  40a19e:	48 89 45 d8          	mov    %rax,-0x28(%rbp)
  40a1a2:	e8 d9 fe ff ff       	callq  40a080 <_ZSt12__niter_baseIPhENSt11_Niter_baseIT_E13iterator_typeES2_>
  40a1a7:	48 8b 7d e0          	mov    -0x20(%rbp),%rdi
  40a1ab:	48 8b 75 d8          	mov    -0x28(%rbp),%rsi
  40a1af:	48 89 c2             	mov    %rax,%rdx
  40a1b2:	e8 29 00 00 00       	callq  40a1e0 <_ZSt22__copy_move_backward_aILb1EPhS0_ET1_T0_S2_S1_>
  40a1b7:	48 83 c4 30          	add    $0x30,%rsp
  40a1bb:	5d                   	pop    %rbp
  40a1bc:	c3                   	retq   
  40a1bd:	0f 1f 00             	nopl   (%rax)

000000000040a1c0 <_ZSt12__miter_baseIPhENSt11_Miter_baseIT_E13iterator_typeES2_>:
  40a1c0:	55                   	push   %rbp
  40a1c1:	48 89 e5             	mov    %rsp,%rbp
  40a1c4:	48 83 ec 10          	sub    $0x10,%rsp
  40a1c8:	48 89 7d f8          	mov    %rdi,-0x8(%rbp)
  40a1cc:	48 8b 7d f8          	mov    -0x8(%rbp),%rdi
  40a1d0:	e8 2b ff ff ff       	callq  40a100 <_ZNSt10_Iter_baseIPhLb0EE7_S_baseES0_>
  40a1d5:	48 83 c4 10          	add    $0x10,%rsp
  40a1d9:	5d                   	pop    %rbp
  40a1da:	c3                   	retq   
  40a1db:	0f 1f 44 00 00       	nopl   0x0(%rax,%rax,1)

000000000040a1e0 <_ZSt22__copy_move_backward_aILb1EPhS0_ET1_T0_S2_S1_>:
  40a1e0:	55                   	push   %rbp
  40a1e1:	48 89 e5             	mov    %rsp,%rbp
  40a1e4:	48 83 ec 20          	sub    $0x20,%rsp
  40a1e8:	48 89 7d f8          	mov    %rdi,-0x8(%rbp)
  40a1ec:	48 89 75 f0          	mov    %rsi,-0x10(%rbp)
  40a1f0:	48 89 55 e8          	mov    %rdx,-0x18(%rbp)
  40a1f4:	c6 45 e7 01          	movb   $0x1,-0x19(%rbp)
  40a1f8:	48 8b 7d f8          	mov    -0x8(%rbp),%rdi
  40a1fc:	48 8b 75 f0          	mov    -0x10(%rbp),%rsi
  40a200:	48 8b 55 e8          	mov    -0x18(%rbp),%rdx
  40a204:	e8 07 00 00 00       	callq  40a210 <_ZNSt20__copy_move_backwardILb1ELb1ESt26random_access_iterator_tagE13__copy_move_bIhEEPT_PKS3_S6_S4_>
  40a209:	48 83 c4 20          	add    $0x20,%rsp
  40a20d:	5d                   	pop    %rbp
  40a20e:	c3                   	retq   
  40a20f:	90                   	nop

000000000040a210 <_ZNSt20__copy_move_backwardILb1ELb1ESt26random_access_iterator_tagE13__copy_move_bIhEEPT_PKS3_S6_S4_>:
  40a210:	55                   	push   %rbp
  40a211:	48 89 e5             	mov    %rsp,%rbp
  40a214:	48 83 ec 20          	sub    $0x20,%rsp
  40a218:	48 89 7d f8          	mov    %rdi,-0x8(%rbp)
  40a21c:	48 89 75 f0          	mov    %rsi,-0x10(%rbp)
  40a220:	48 89 55 e8          	mov    %rdx,-0x18(%rbp)
  40a224:	48 8b 55 f0          	mov    -0x10(%rbp),%rdx
  40a228:	48 8b 75 f8          	mov    -0x8(%rbp),%rsi
  40a22c:	48 29 f2             	sub    %rsi,%rdx
  40a22f:	48 89 55 e0          	mov    %rdx,-0x20(%rbp)
  40a233:	48 83 7d e0 00       	cmpq   $0x0,-0x20(%rbp)
  40a238:	0f 84 26 00 00 00    	je     40a264 <_ZNSt20__copy_move_backwardILb1ELb1ESt26random_access_iterator_tagE13__copy_move_bIhEEPT_PKS3_S6_S4_+0x54>
  40a23e:	31 c0                	xor    %eax,%eax
  40a240:	89 c1                	mov    %eax,%ecx
  40a242:	48 8b 55 e8          	mov    -0x18(%rbp),%rdx
  40a246:	48 2b 4d e0          	sub    -0x20(%rbp),%rcx
  40a24a:	48 01 ca             	add    %rcx,%rdx
  40a24d:	48 8b 75 f8          	mov    -0x8(%rbp),%rsi
  40a251:	48 8b 4d e0          	mov    -0x20(%rbp),%rcx
  40a255:	48 c1 e1 00          	shl    $0x0,%rcx
  40a259:	48 89 d7             	mov    %rdx,%rdi
  40a25c:	48 89 ca             	mov    %rcx,%rdx
  40a25f:	e8 1c 8d ff ff       	callq  402f80 <memmove@plt>
  40a264:	31 c0                	xor    %eax,%eax
  40a266:	89 c1                	mov    %eax,%ecx
  40a268:	48 8b 55 e8          	mov    -0x18(%rbp),%rdx
  40a26c:	48 2b 4d e0          	sub    -0x20(%rbp),%rcx
  40a270:	48 01 ca             	add    %rcx,%rdx
  40a273:	48 89 d0             	mov    %rdx,%rax
  40a276:	48 83 c4 20          	add    $0x20,%rsp
  40a27a:	5d                   	pop    %rbp
  40a27b:	c3                   	retq   
  40a27c:	0f 1f 40 00          	nopl   0x0(%rax)

000000000040a280 <_ZSt14__copy_move_a2ILb0EPKcN9__gnu_cxx17__normal_iteratorIPhSt6vectorIhSaIhEEEEET1_T0_SA_S9_>:
  40a280:	55                   	push   %rbp
  40a281:	48 89 e5             	mov    %rsp,%rbp
  40a284:	48 83 ec 40          	sub    $0x40,%rsp
  40a288:	48 89 55 f0          	mov    %rdx,-0x10(%rbp)
  40a28c:	48 89 7d e8          	mov    %rdi,-0x18(%rbp)
  40a290:	48 89 75 e0          	mov    %rsi,-0x20(%rbp)
  40a294:	48 8b 7d e8          	mov    -0x18(%rbp),%rdi
  40a298:	e8 a3 00 00 00       	callq  40a340 <_ZSt12__niter_baseIPKcENSt11_Niter_baseIT_E13iterator_typeES3_>
  40a29d:	48 8b 7d e0          	mov    -0x20(%rbp),%rdi
  40a2a1:	48 89 45 c8          	mov    %rax,-0x38(%rbp)
  40a2a5:	e8 96 00 00 00       	callq  40a340 <_ZSt12__niter_baseIPKcENSt11_Niter_baseIT_E13iterator_typeES3_>
  40a2aa:	48 8b 55 f0          	mov    -0x10(%rbp),%rdx
  40a2ae:	48 89 55 d0          	mov    %rdx,-0x30(%rbp)
  40a2b2:	48 8b 7d d0          	mov    -0x30(%rbp),%rdi
  40a2b6:	48 89 45 c0          	mov    %rax,-0x40(%rbp)
  40a2ba:	e8 a1 00 00 00       	callq  40a360 <_ZSt12__niter_baseIN9__gnu_cxx17__normal_iteratorIPhSt6vectorIhSaIhEEEEENSt11_Niter_baseIT_E13iterator_typeES8_>
  40a2bf:	48 8b 7d c8          	mov    -0x38(%rbp),%rdi
  40a2c3:	48 8b 75 c0          	mov    -0x40(%rbp),%rsi
  40a2c7:	48 89 c2             	mov    %rax,%rdx
  40a2ca:	e8 41 00 00 00       	callq  40a310 <_ZSt13__copy_move_aILb0EPKcPhET1_T0_S4_S3_>
  40a2cf:	48 8d 7d f8          	lea    -0x8(%rbp),%rdi
  40a2d3:	48 8d 75 d8          	lea    -0x28(%rbp),%rsi
  40a2d7:	48 89 45 d8          	mov    %rax,-0x28(%rbp)
  40a2db:	e8 d0 f0 ff ff       	callq  4093b0 <_ZN9__gnu_cxx17__normal_iteratorIPhSt6vectorIhSaIhEEEC2ERKS1_>
  40a2e0:	48 8b 45 f8          	mov    -0x8(%rbp),%rax
  40a2e4:	48 83 c4 40          	add    $0x40,%rsp
  40a2e8:	5d                   	pop    %rbp
  40a2e9:	c3                   	retq   
  40a2ea:	66 0f 1f 44 00 00    	nopw   0x0(%rax,%rax,1)

000000000040a2f0 <_ZSt12__miter_baseIPKcENSt11_Miter_baseIT_E13iterator_typeES3_>:
  40a2f0:	55                   	push   %rbp
  40a2f1:	48 89 e5             	mov    %rsp,%rbp
  40a2f4:	48 83 ec 10          	sub    $0x10,%rsp
  40a2f8:	48 89 7d f8          	mov    %rdi,-0x8(%rbp)
  40a2fc:	48 8b 7d f8          	mov    -0x8(%rbp),%rdi
  40a300:	e8 fb 00 00 00       	callq  40a400 <_ZNSt10_Iter_baseIPKcLb0EE7_S_baseES1_>
  40a305:	48 83 c4 10          	add    $0x10,%rsp
  40a309:	5d                   	pop    %rbp
  40a30a:	c3                   	retq   
  40a30b:	0f 1f 44 00 00       	nopl   0x0(%rax,%rax,1)

000000000040a310 <_ZSt13__copy_move_aILb0EPKcPhET1_T0_S4_S3_>:
  40a310:	55                   	push   %rbp
  40a311:	48 89 e5             	mov    %rsp,%rbp
  40a314:	48 83 ec 20          	sub    $0x20,%rsp
  40a318:	48 89 7d f8          	mov    %rdi,-0x8(%rbp)
  40a31c:	48 89 75 f0          	mov    %rsi,-0x10(%rbp)
  40a320:	48 89 55 e8          	mov    %rdx,-0x18(%rbp)
  40a324:	c6 45 e7 00          	movb   $0x0,-0x19(%rbp)
  40a328:	48 8b 7d f8          	mov    -0x8(%rbp),%rdi
  40a32c:	48 8b 75 f0          	mov    -0x10(%rbp),%rsi
  40a330:	48 8b 55 e8          	mov    -0x18(%rbp),%rdx
  40a334:	e8 57 00 00 00       	callq  40a390 <_ZNSt11__copy_moveILb0ELb0ESt26random_access_iterator_tagE8__copy_mIPKcPhEET0_T_S7_S6_>
  40a339:	48 83 c4 20          	add    $0x20,%rsp
  40a33d:	5d                   	pop    %rbp
  40a33e:	c3                   	retq   
  40a33f:	90                   	nop

000000000040a340 <_ZSt12__niter_baseIPKcENSt11_Niter_baseIT_E13iterator_typeES3_>:
  40a340:	55                   	push   %rbp
  40a341:	48 89 e5             	mov    %rsp,%rbp
  40a344:	48 83 ec 10          	sub    $0x10,%rsp
  40a348:	48 89 7d f8          	mov    %rdi,-0x8(%rbp)
  40a34c:	48 8b 7d f8          	mov    -0x8(%rbp),%rdi
  40a350:	e8 ab 00 00 00       	callq  40a400 <_ZNSt10_Iter_baseIPKcLb0EE7_S_baseES1_>
  40a355:	48 83 c4 10          	add    $0x10,%rsp
  40a359:	5d                   	pop    %rbp
  40a35a:	c3                   	retq   
  40a35b:	0f 1f 44 00 00       	nopl   0x0(%rax,%rax,1)

000000000040a360 <_ZSt12__niter_baseIN9__gnu_cxx17__normal_iteratorIPhSt6vectorIhSaIhEEEEENSt11_Niter_baseIT_E13iterator_typeES8_>:
  40a360:	55                   	push   %rbp
  40a361:	48 89 e5             	mov    %rsp,%rbp
  40a364:	48 83 ec 10          	sub    $0x10,%rsp
  40a368:	48 89 7d f8          	mov    %rdi,-0x8(%rbp)
  40a36c:	48 8b 7d f8          	mov    -0x8(%rbp),%rdi
  40a370:	48 89 7d f0          	mov    %rdi,-0x10(%rbp)
  40a374:	48 8b 7d f0          	mov    -0x10(%rbp),%rdi
  40a378:	e8 93 00 00 00       	callq  40a410 <_ZNSt10_Iter_baseIN9__gnu_cxx17__normal_iteratorIPhSt6vectorIhSaIhEEEELb1EE7_S_baseES6_>
  40a37d:	48 83 c4 10          	add    $0x10,%rsp
  40a381:	5d                   	pop    %rbp
  40a382:	c3                   	retq   
  40a383:	66 2e 0f 1f 84 00 00 	nopw   %cs:0x0(%rax,%rax,1)
  40a38a:	00 00 00 
  40a38d:	0f 1f 00             	nopl   (%rax)

000000000040a390 <_ZNSt11__copy_moveILb0ELb0ESt26random_access_iterator_tagE8__copy_mIPKcPhEET0_T_S7_S6_>:
  40a390:	55                   	push   %rbp
  40a391:	48 89 e5             	mov    %rsp,%rbp
  40a394:	48 89 7d f8          	mov    %rdi,-0x8(%rbp)
  40a398:	48 89 75 f0          	mov    %rsi,-0x10(%rbp)
  40a39c:	48 89 55 e8          	mov    %rdx,-0x18(%rbp)
  40a3a0:	48 8b 55 f0          	mov    -0x10(%rbp),%rdx
  40a3a4:	48 8b 75 f8          	mov    -0x8(%rbp),%rsi
  40a3a8:	48 29 f2             	sub    %rsi,%rdx
  40a3ab:	48 89 55 e0          	mov    %rdx,-0x20(%rbp)
  40a3af:	48 83 7d e0 00       	cmpq   $0x0,-0x20(%rbp)
  40a3b4:	0f 8e 35 00 00 00    	jle    40a3ef <_ZNSt11__copy_moveILb0ELb0ESt26random_access_iterator_tagE8__copy_mIPKcPhEET0_T_S7_S6_+0x5f>
  40a3ba:	48 8b 45 f8          	mov    -0x8(%rbp),%rax
  40a3be:	8a 08                	mov    (%rax),%cl
  40a3c0:	48 8b 45 e8          	mov    -0x18(%rbp),%rax
  40a3c4:	88 08                	mov    %cl,(%rax)
  40a3c6:	48 8b 45 f8          	mov    -0x8(%rbp),%rax
  40a3ca:	48 83 c0 01          	add    $0x1,%rax
  40a3ce:	48 89 45 f8          	mov    %rax,-0x8(%rbp)
  40a3d2:	48 8b 45 e8          	mov    -0x18(%rbp),%rax
  40a3d6:	48 83 c0 01          	add    $0x1,%rax
  40a3da:	48 89 45 e8          	mov    %rax,-0x18(%rbp)
  40a3de:	48 8b 45 e0          	mov    -0x20(%rbp),%rax
  40a3e2:	48 83 c0 ff          	add    $0xffffffffffffffff,%rax
  40a3e6:	48 89 45 e0          	mov    %rax,-0x20(%rbp)
  40a3ea:	e9 c0 ff ff ff       	jmpq   40a3af <_ZNSt11__copy_moveILb0ELb0ESt26random_access_iterator_tagE8__copy_mIPKcPhEET0_T_S7_S6_+0x1f>
  40a3ef:	48 8b 45 e8          	mov    -0x18(%rbp),%rax
  40a3f3:	5d                   	pop    %rbp
  40a3f4:	c3                   	retq   
  40a3f5:	66 2e 0f 1f 84 00 00 	nopw   %cs:0x0(%rax,%rax,1)
  40a3fc:	00 00 00 
  40a3ff:	90                   	nop

000000000040a400 <_ZNSt10_Iter_baseIPKcLb0EE7_S_baseES1_>:
  40a400:	55                   	push   %rbp
  40a401:	48 89 e5             	mov    %rsp,%rbp
  40a404:	48 89 7d f8          	mov    %rdi,-0x8(%rbp)
  40a408:	48 8b 45 f8          	mov    -0x8(%rbp),%rax
  40a40c:	5d                   	pop    %rbp
  40a40d:	c3                   	retq   
  40a40e:	66 90                	xchg   %ax,%ax

000000000040a410 <_ZNSt10_Iter_baseIN9__gnu_cxx17__normal_iteratorIPhSt6vectorIhSaIhEEEELb1EE7_S_baseES6_>:
  40a410:	55                   	push   %rbp
  40a411:	48 89 e5             	mov    %rsp,%rbp
  40a414:	48 83 ec 10          	sub    $0x10,%rsp
  40a418:	48 8d 45 f8          	lea    -0x8(%rbp),%rax
  40a41c:	48 89 7d f8          	mov    %rdi,-0x8(%rbp)
  40a420:	48 89 c7             	mov    %rax,%rdi
  40a423:	e8 78 f7 ff ff       	callq  409ba0 <_ZNK9__gnu_cxx17__normal_iteratorIPhSt6vectorIhSaIhEEE4baseEv>
  40a428:	48 8b 00             	mov    (%rax),%rax
  40a42b:	48 83 c4 10          	add    $0x10,%rsp
  40a42f:	5d                   	pop    %rbp
  40a430:	c3                   	retq   
  40a431:	66 2e 0f 1f 84 00 00 	nopw   %cs:0x0(%rax,%rax,1)
  40a438:	00 00 00 
  40a43b:	0f 1f 44 00 00       	nopl   0x0(%rax,%rax,1)

000000000040a440 <_ZSt9__advanceIPKclEvRT_T0_St26random_access_iterator_tag>:
  40a440:	55                   	push   %rbp
  40a441:	48 89 e5             	mov    %rsp,%rbp
  40a444:	48 89 7d f0          	mov    %rdi,-0x10(%rbp)
  40a448:	48 89 75 e8          	mov    %rsi,-0x18(%rbp)
  40a44c:	48 8b 75 e8          	mov    -0x18(%rbp),%rsi
  40a450:	48 8b 7d f0          	mov    -0x10(%rbp),%rdi
  40a454:	48 03 37             	add    (%rdi),%rsi
  40a457:	48 89 37             	mov    %rsi,(%rdi)
  40a45a:	5d                   	pop    %rbp
  40a45b:	c3                   	retq   
  40a45c:	0f 1f 40 00          	nopl   0x0(%rax)

000000000040a460 <_ZSt18uninitialized_copyIPKcPhET0_T_S4_S3_>:
  40a460:	55                   	push   %rbp
  40a461:	48 89 e5             	mov    %rsp,%rbp
  40a464:	48 83 ec 20          	sub    $0x20,%rsp
  40a468:	48 89 7d f8          	mov    %rdi,-0x8(%rbp)
  40a46c:	48 89 75 f0          	mov    %rsi,-0x10(%rbp)
  40a470:	48 89 55 e8          	mov    %rdx,-0x18(%rbp)
  40a474:	c6 45 e7 01          	movb   $0x1,-0x19(%rbp)
  40a478:	48 8b 7d f8          	mov    -0x8(%rbp),%rdi
  40a47c:	48 8b 75 f0          	mov    -0x10(%rbp),%rsi
  40a480:	48 8b 55 e8          	mov    -0x18(%rbp),%rdx
  40a484:	e8 07 00 00 00       	callq  40a490 <_ZNSt20__uninitialized_copyILb1EE13__uninit_copyIPKcPhEET0_T_S6_S5_>
  40a489:	48 83 c4 20          	add    $0x20,%rsp
  40a48d:	5d                   	pop    %rbp
  40a48e:	c3                   	retq   
  40a48f:	90                   	nop

000000000040a490 <_ZNSt20__uninitialized_copyILb1EE13__uninit_copyIPKcPhEET0_T_S6_S5_>:
  40a490:	55                   	push   %rbp
  40a491:	48 89 e5             	mov    %rsp,%rbp
  40a494:	48 83 ec 20          	sub    $0x20,%rsp
  40a498:	48 89 7d f8          	mov    %rdi,-0x8(%rbp)
  40a49c:	48 89 75 f0          	mov    %rsi,-0x10(%rbp)
  40a4a0:	48 89 55 e8          	mov    %rdx,-0x18(%rbp)
  40a4a4:	48 8b 7d f8          	mov    -0x8(%rbp),%rdi
  40a4a8:	48 8b 75 f0          	mov    -0x10(%rbp),%rsi
  40a4ac:	48 8b 55 e8          	mov    -0x18(%rbp),%rdx
  40a4b0:	e8 0b 00 00 00       	callq  40a4c0 <_ZSt4copyIPKcPhET0_T_S4_S3_>
  40a4b5:	48 83 c4 20          	add    $0x20,%rsp
  40a4b9:	5d                   	pop    %rbp
  40a4ba:	c3                   	retq   
  40a4bb:	0f 1f 44 00 00       	nopl   0x0(%rax,%rax,1)

000000000040a4c0 <_ZSt4copyIPKcPhET0_T_S4_S3_>:
  40a4c0:	55                   	push   %rbp
  40a4c1:	48 89 e5             	mov    %rsp,%rbp
  40a4c4:	48 83 ec 20          	sub    $0x20,%rsp
  40a4c8:	48 89 7d f8          	mov    %rdi,-0x8(%rbp)
  40a4cc:	48 89 75 f0          	mov    %rsi,-0x10(%rbp)
  40a4d0:	48 89 55 e8          	mov    %rdx,-0x18(%rbp)
  40a4d4:	48 8b 7d f8          	mov    -0x8(%rbp),%rdi
  40a4d8:	e8 13 fe ff ff       	callq  40a2f0 <_ZSt12__miter_baseIPKcENSt11_Miter_baseIT_E13iterator_typeES3_>
  40a4dd:	48 8b 7d f0          	mov    -0x10(%rbp),%rdi
  40a4e1:	48 89 45 e0          	mov    %rax,-0x20(%rbp)
  40a4e5:	e8 06 fe ff ff       	callq  40a2f0 <_ZSt12__miter_baseIPKcENSt11_Miter_baseIT_E13iterator_typeES3_>
  40a4ea:	48 8b 55 e8          	mov    -0x18(%rbp),%rdx
  40a4ee:	48 8b 7d e0          	mov    -0x20(%rbp),%rdi
  40a4f2:	48 89 c6             	mov    %rax,%rsi
  40a4f5:	e8 06 00 00 00       	callq  40a500 <_ZSt14__copy_move_a2ILb0EPKcPhET1_T0_S4_S3_>
  40a4fa:	48 83 c4 20          	add    $0x20,%rsp
  40a4fe:	5d                   	pop    %rbp
  40a4ff:	c3                   	retq   

000000000040a500 <_ZSt14__copy_move_a2ILb0EPKcPhET1_T0_S4_S3_>:
  40a500:	55                   	push   %rbp
  40a501:	48 89 e5             	mov    %rsp,%rbp
  40a504:	48 83 ec 30          	sub    $0x30,%rsp
  40a508:	48 89 7d f8          	mov    %rdi,-0x8(%rbp)
  40a50c:	48 89 75 f0          	mov    %rsi,-0x10(%rbp)
  40a510:	48 89 55 e8          	mov    %rdx,-0x18(%rbp)
  40a514:	48 8b 7d f8          	mov    -0x8(%rbp),%rdi
  40a518:	e8 23 fe ff ff       	callq  40a340 <_ZSt12__niter_baseIPKcENSt11_Niter_baseIT_E13iterator_typeES3_>
  40a51d:	48 8b 7d f0          	mov    -0x10(%rbp),%rdi
  40a521:	48 89 45 e0          	mov    %rax,-0x20(%rbp)
  40a525:	e8 16 fe ff ff       	callq  40a340 <_ZSt12__niter_baseIPKcENSt11_Niter_baseIT_E13iterator_typeES3_>
  40a52a:	48 8b 7d e8          	mov    -0x18(%rbp),%rdi
  40a52e:	48 89 45 d8          	mov    %rax,-0x28(%rbp)
  40a532:	e8 49 fb ff ff       	callq  40a080 <_ZSt12__niter_baseIPhENSt11_Niter_baseIT_E13iterator_typeES2_>
  40a537:	48 8b 7d e0          	mov    -0x20(%rbp),%rdi
  40a53b:	48 8b 75 d8          	mov    -0x28(%rbp),%rsi
  40a53f:	48 89 c2             	mov    %rax,%rdx
  40a542:	e8 c9 fd ff ff       	callq  40a310 <_ZSt13__copy_move_aILb0EPKcPhET1_T0_S4_S3_>
  40a547:	48 83 c4 30          	add    $0x30,%rsp
  40a54b:	5d                   	pop    %rbp
  40a54c:	c3                   	retq   
  40a54d:	0f 1f 00             	nopl   (%rax)

000000000040a550 <_ZNKSt6vectorIhSaIhEE8max_sizeEv>:
  40a550:	55                   	push   %rbp
  40a551:	48 89 e5             	mov    %rsp,%rbp
  40a554:	48 83 ec 10          	sub    $0x10,%rsp
  40a558:	48 89 7d f8          	mov    %rdi,-0x8(%rbp)
  40a55c:	48 8b 7d f8          	mov    -0x8(%rbp),%rdi
  40a560:	e8 7b 00 00 00       	callq  40a5e0 <_ZNKSt12_Vector_baseIhSaIhEE19_M_get_Tp_allocatorEv>
  40a565:	48 89 c7             	mov    %rax,%rdi
  40a568:	e8 53 00 00 00       	callq  40a5c0 <_ZNSt16allocator_traitsISaIhEE8max_sizeERKS0_>
  40a56d:	48 83 c4 10          	add    $0x10,%rsp
  40a571:	5d                   	pop    %rbp
  40a572:	c3                   	retq   
  40a573:	66 2e 0f 1f 84 00 00 	nopw   %cs:0x0(%rax,%rax,1)
  40a57a:	00 00 00 
  40a57d:	0f 1f 00             	nopl   (%rax)

000000000040a580 <_ZSt3maxImERKT_S2_S2_>:
  40a580:	55                   	push   %rbp
  40a581:	48 89 e5             	mov    %rsp,%rbp
  40a584:	48 89 7d f0          	mov    %rdi,-0x10(%rbp)
  40a588:	48 89 75 e8          	mov    %rsi,-0x18(%rbp)
  40a58c:	48 8b 75 f0          	mov    -0x10(%rbp),%rsi
  40a590:	48 8b 36             	mov    (%rsi),%rsi
  40a593:	48 8b 7d e8          	mov    -0x18(%rbp),%rdi
  40a597:	48 3b 37             	cmp    (%rdi),%rsi
  40a59a:	0f 83 0d 00 00 00    	jae    40a5ad <_ZSt3maxImERKT_S2_S2_+0x2d>
  40a5a0:	48 8b 45 e8          	mov    -0x18(%rbp),%rax
  40a5a4:	48 89 45 f8          	mov    %rax,-0x8(%rbp)
  40a5a8:	e9 08 00 00 00       	jmpq   40a5b5 <_ZSt3maxImERKT_S2_S2_+0x35>
  40a5ad:	48 8b 45 f0          	mov    -0x10(%rbp),%rax
  40a5b1:	48 89 45 f8          	mov    %rax,-0x8(%rbp)
  40a5b5:	48 8b 45 f8          	mov    -0x8(%rbp),%rax
  40a5b9:	5d                   	pop    %rbp
  40a5ba:	c3                   	retq   
  40a5bb:	0f 1f 44 00 00       	nopl   0x0(%rax,%rax,1)

000000000040a5c0 <_ZNSt16allocator_traitsISaIhEE8max_sizeERKS0_>:
  40a5c0:	55                   	push   %rbp
  40a5c1:	48 89 e5             	mov    %rsp,%rbp
  40a5c4:	48 83 ec 10          	sub    $0x10,%rsp
  40a5c8:	48 89 7d f8          	mov    %rdi,-0x8(%rbp)
  40a5cc:	48 8b 7d f8          	mov    -0x8(%rbp),%rdi
  40a5d0:	e8 2b 00 00 00       	callq  40a600 <_ZNK9__gnu_cxx13new_allocatorIhE8max_sizeEv>
  40a5d5:	48 83 c4 10          	add    $0x10,%rsp
  40a5d9:	5d                   	pop    %rbp
  40a5da:	c3                   	retq   
  40a5db:	0f 1f 44 00 00       	nopl   0x0(%rax,%rax,1)

000000000040a5e0 <_ZNKSt12_Vector_baseIhSaIhEE19_M_get_Tp_allocatorEv>:
  40a5e0:	55                   	push   %rbp
  40a5e1:	48 89 e5             	mov    %rsp,%rbp
  40a5e4:	48 89 7d f8          	mov    %rdi,-0x8(%rbp)
  40a5e8:	48 8b 7d f8          	mov    -0x8(%rbp),%rdi
  40a5ec:	48 89 f8             	mov    %rdi,%rax
  40a5ef:	5d                   	pop    %rbp
  40a5f0:	c3                   	retq   
  40a5f1:	66 2e 0f 1f 84 00 00 	nopw   %cs:0x0(%rax,%rax,1)
  40a5f8:	00 00 00 
  40a5fb:	0f 1f 44 00 00       	nopl   0x0(%rax,%rax,1)

000000000040a600 <_ZNK9__gnu_cxx13new_allocatorIhE8max_sizeEv>:
  40a600:	55                   	push   %rbp
  40a601:	48 89 e5             	mov    %rsp,%rbp
  40a604:	48 c7 c0 ff ff ff ff 	mov    $0xffffffffffffffff,%rax
  40a60b:	48 89 7d f8          	mov    %rdi,-0x8(%rbp)
  40a60f:	5d                   	pop    %rbp
  40a610:	c3                   	retq   
  40a611:	66 2e 0f 1f 84 00 00 	nopw   %cs:0x0(%rax,%rax,1)
  40a618:	00 00 00 
  40a61b:	0f 1f 44 00 00       	nopl   0x0(%rax,%rax,1)

000000000040a620 <_ZNSt16allocator_traitsISaIhEE8allocateERS0_m>:
  40a620:	55                   	push   %rbp
  40a621:	48 89 e5             	mov    %rsp,%rbp
  40a624:	48 83 ec 20          	sub    $0x20,%rsp
  40a628:	31 c0                	xor    %eax,%eax
  40a62a:	89 c2                	mov    %eax,%edx
  40a62c:	48 89 7d f8          	mov    %rdi,-0x8(%rbp)
  40a630:	48 89 75 f0          	mov    %rsi,-0x10(%rbp)
  40a634:	48 8b 75 f8          	mov    -0x8(%rbp),%rsi
  40a638:	48 8b 7d f0          	mov    -0x10(%rbp),%rdi
  40a63c:	48 89 7d e8          	mov    %rdi,-0x18(%rbp)
  40a640:	48 89 f7             	mov    %rsi,%rdi
  40a643:	48 8b 75 e8          	mov    -0x18(%rbp),%rsi
  40a647:	e8 14 00 00 00       	callq  40a660 <_ZN9__gnu_cxx13new_allocatorIhE8allocateEmPKv>
  40a64c:	48 83 c4 20          	add    $0x20,%rsp
  40a650:	5d                   	pop    %rbp
  40a651:	c3                   	retq   
  40a652:	66 2e 0f 1f 84 00 00 	nopw   %cs:0x0(%rax,%rax,1)
  40a659:	00 00 00 
  40a65c:	0f 1f 40 00          	nopl   0x0(%rax)

000000000040a660 <_ZN9__gnu_cxx13new_allocatorIhE8allocateEmPKv>:
  40a660:	55                   	push   %rbp
  40a661:	48 89 e5             	mov    %rsp,%rbp
  40a664:	48 83 ec 20          	sub    $0x20,%rsp
  40a668:	48 89 7d f8          	mov    %rdi,-0x8(%rbp)
  40a66c:	48 89 75 f0          	mov    %rsi,-0x10(%rbp)
  40a670:	48 89 55 e8          	mov    %rdx,-0x18(%rbp)
  40a674:	48 8b 7d f8          	mov    -0x8(%rbp),%rdi
  40a678:	48 8b 55 f0          	mov    -0x10(%rbp),%rdx
  40a67c:	48 89 55 e0          	mov    %rdx,-0x20(%rbp)
  40a680:	e8 7b ff ff ff       	callq  40a600 <_ZNK9__gnu_cxx13new_allocatorIhE8max_sizeEv>
  40a685:	48 8b 55 e0          	mov    -0x20(%rbp),%rdx
  40a689:	48 39 c2             	cmp    %rax,%rdx
  40a68c:	0f 86 05 00 00 00    	jbe    40a697 <_ZN9__gnu_cxx13new_allocatorIhE8allocateEmPKv+0x37>
  40a692:	e8 09 85 ff ff       	callq  402ba0 <_ZSt17__throw_bad_allocv@plt>
  40a697:	48 8b 45 f0          	mov    -0x10(%rbp),%rax
  40a69b:	48 c1 e0 00          	shl    $0x0,%rax
  40a69f:	48 89 c7             	mov    %rax,%rdi
  40a6a2:	e8 09 87 ff ff       	callq  402db0 <_Znwm@plt>
  40a6a7:	48 83 c4 20          	add    $0x20,%rsp
  40a6ab:	5d                   	pop    %rbp
  40a6ac:	c3                   	retq   
  40a6ad:	0f 1f 00             	nopl   (%rax)

000000000040a6b0 <_ZSt32__make_move_if_noexcept_iteratorIPhSt13move_iteratorIS0_EET0_T_>:
  40a6b0:	55                   	push   %rbp
  40a6b1:	48 89 e5             	mov    %rsp,%rbp
  40a6b4:	48 83 ec 10          	sub    $0x10,%rsp
  40a6b8:	48 8d 45 f8          	lea    -0x8(%rbp),%rax
  40a6bc:	48 89 7d f0          	mov    %rdi,-0x10(%rbp)
  40a6c0:	48 8b 75 f0          	mov    -0x10(%rbp),%rsi
  40a6c4:	48 89 c7             	mov    %rax,%rdi
  40a6c7:	e8 84 fa ff ff       	callq  40a150 <_ZNSt13move_iteratorIPhEC2ES0_>
  40a6cc:	48 8b 45 f8          	mov    -0x8(%rbp),%rax
  40a6d0:	48 83 c4 10          	add    $0x10,%rsp
  40a6d4:	5d                   	pop    %rbp
  40a6d5:	c3                   	retq   
  40a6d6:	66 2e 0f 1f 84 00 00 	nopw   %cs:0x0(%rax,%rax,1)
  40a6dd:	00 00 00 

000000000040a6e0 <_ZNSt16allocator_traitsISaIhEE10deallocateERS0_Phm>:
  40a6e0:	55                   	push   %rbp
  40a6e1:	48 89 e5             	mov    %rsp,%rbp
  40a6e4:	48 83 ec 20          	sub    $0x20,%rsp
  40a6e8:	48 89 7d f8          	mov    %rdi,-0x8(%rbp)
  40a6ec:	48 89 75 f0          	mov    %rsi,-0x10(%rbp)
  40a6f0:	48 89 55 e8          	mov    %rdx,-0x18(%rbp)
  40a6f4:	48 8b 55 f8          	mov    -0x8(%rbp),%rdx
  40a6f8:	48 8b 75 f0          	mov    -0x10(%rbp),%rsi
  40a6fc:	48 8b 7d e8          	mov    -0x18(%rbp),%rdi
  40a700:	48 89 7d e0          	mov    %rdi,-0x20(%rbp)
  40a704:	48 89 d7             	mov    %rdx,%rdi
  40a707:	48 8b 55 e0          	mov    -0x20(%rbp),%rdx
  40a70b:	e8 10 00 00 00       	callq  40a720 <_ZN9__gnu_cxx13new_allocatorIhE10deallocateEPhm>
  40a710:	48 83 c4 20          	add    $0x20,%rsp
  40a714:	5d                   	pop    %rbp
  40a715:	c3                   	retq   
  40a716:	66 2e 0f 1f 84 00 00 	nopw   %cs:0x0(%rax,%rax,1)
  40a71d:	00 00 00 

000000000040a720 <_ZN9__gnu_cxx13new_allocatorIhE10deallocateEPhm>:
  40a720:	55                   	push   %rbp
  40a721:	48 89 e5             	mov    %rsp,%rbp
  40a724:	48 83 ec 20          	sub    $0x20,%rsp
  40a728:	48 89 7d f8          	mov    %rdi,-0x8(%rbp)
  40a72c:	48 89 75 f0          	mov    %rsi,-0x10(%rbp)
  40a730:	48 89 55 e8          	mov    %rdx,-0x18(%rbp)
  40a734:	48 8b 7d f0          	mov    -0x10(%rbp),%rdi
  40a738:	e8 53 86 ff ff       	callq  402d90 <_ZdlPv@plt>
  40a73d:	48 83 c4 20          	add    $0x20,%rsp
  40a741:	5d                   	pop    %rbp
  40a742:	c3                   	retq   
  40a743:	66 2e 0f 1f 84 00 00 	nopw   %cs:0x0(%rax,%rax,1)
  40a74a:	00 00 00 
  40a74d:	0f 1f 00             	nopl   (%rax)

000000000040a750 <_ZNSt6vectorIhSaIhEE18_M_insert_dispatchIPcEEvN9__gnu_cxx17__normal_iteratorIPhS1_EET_S8_St12__false_type>:
  40a750:	55                   	push   %rbp
  40a751:	48 89 e5             	mov    %rsp,%rbp
  40a754:	48 83 ec 40          	sub    $0x40,%rsp
  40a758:	48 89 75 f8          	mov    %rsi,-0x8(%rbp)
  40a75c:	48 89 7d e8          	mov    %rdi,-0x18(%rbp)
  40a760:	48 89 55 e0          	mov    %rdx,-0x20(%rbp)
  40a764:	48 89 4d d8          	mov    %rcx,-0x28(%rbp)
  40a768:	48 8b 7d e8          	mov    -0x18(%rbp),%rdi
  40a76c:	48 8b 4d f8          	mov    -0x8(%rbp),%rcx
  40a770:	48 89 4d d0          	mov    %rcx,-0x30(%rbp)
  40a774:	48 8b 55 e0          	mov    -0x20(%rbp),%rdx
  40a778:	48 8b 4d d8          	mov    -0x28(%rbp),%rcx
  40a77c:	48 8b 75 d0          	mov    -0x30(%rbp),%rsi
  40a780:	e8 0b 00 00 00       	callq  40a790 <_ZNSt6vectorIhSaIhEE15_M_range_insertIPcEEvN9__gnu_cxx17__normal_iteratorIPhS1_EET_S8_St20forward_iterator_tag>
  40a785:	48 83 c4 40          	add    $0x40,%rsp
  40a789:	5d                   	pop    %rbp
  40a78a:	c3                   	retq   
  40a78b:	0f 1f 44 00 00       	nopl   0x0(%rax,%rax,1)

000000000040a790 <_ZNSt6vectorIhSaIhEE15_M_range_insertIPcEEvN9__gnu_cxx17__normal_iteratorIPhS1_EET_S8_St20forward_iterator_tag>:
  40a790:	55                   	push   %rbp
  40a791:	48 89 e5             	mov    %rsp,%rbp
  40a794:	48 81 ec a0 01 00 00 	sub    $0x1a0,%rsp
  40a79b:	48 89 75 f8          	mov    %rsi,-0x8(%rbp)
  40a79f:	48 89 7d e8          	mov    %rdi,-0x18(%rbp)
  40a7a3:	48 89 55 e0          	mov    %rdx,-0x20(%rbp)
  40a7a7:	48 89 4d d8          	mov    %rcx,-0x28(%rbp)
  40a7ab:	48 8b 4d e8          	mov    -0x18(%rbp),%rcx
  40a7af:	48 8b 55 e0          	mov    -0x20(%rbp),%rdx
  40a7b3:	48 3b 55 d8          	cmp    -0x28(%rbp),%rdx
  40a7b7:	48 89 8d 60 ff ff ff 	mov    %rcx,-0xa0(%rbp)
  40a7be:	0f 84 fc 04 00 00    	je     40acc0 <_ZNSt6vectorIhSaIhEE15_M_range_insertIPcEEvN9__gnu_cxx17__normal_iteratorIPhS1_EET_S8_St20forward_iterator_tag+0x530>
  40a7c4:	48 8b 7d e0          	mov    -0x20(%rbp),%rdi
  40a7c8:	48 8b 75 d8          	mov    -0x28(%rbp),%rsi
  40a7cc:	e8 af cc ff ff       	callq  407480 <_ZSt8distanceIPcENSt15iterator_traitsIT_E15difference_typeES2_S2_>
  40a7d1:	48 89 45 d0          	mov    %rax,-0x30(%rbp)
  40a7d5:	48 8b 85 60 ff ff ff 	mov    -0xa0(%rbp),%rax
  40a7dc:	48 8b 70 10          	mov    0x10(%rax),%rsi
  40a7e0:	48 8b 78 08          	mov    0x8(%rax),%rdi
  40a7e4:	48 29 fe             	sub    %rdi,%rsi
  40a7e7:	48 3b 75 d0          	cmp    -0x30(%rbp),%rsi
  40a7eb:	0f 82 17 02 00 00    	jb     40aa08 <_ZNSt6vectorIhSaIhEE15_M_range_insertIPcEEvN9__gnu_cxx17__normal_iteratorIPhS1_EET_S8_St20forward_iterator_tag+0x278>
  40a7f1:	48 8b bd 60 ff ff ff 	mov    -0xa0(%rbp),%rdi
  40a7f8:	e8 c3 c3 ff ff       	callq  406bc0 <_ZNSt6vectorIhSaIhEE3endEv>
  40a7fd:	48 8d 7d c0          	lea    -0x40(%rbp),%rdi
  40a801:	48 8d 75 f8          	lea    -0x8(%rbp),%rsi
  40a805:	48 89 45 c0          	mov    %rax,-0x40(%rbp)
  40a809:	e8 c2 f2 ff ff       	callq  409ad0 <_ZN9__gnu_cxxmiIPhSt6vectorIhSaIhEEEENS_17__normal_iteratorIT_T0_E15difference_typeERKS8_SB_>
  40a80e:	48 89 45 c8          	mov    %rax,-0x38(%rbp)
  40a812:	48 8b 85 60 ff ff ff 	mov    -0xa0(%rbp),%rax
  40a819:	48 8b 70 08          	mov    0x8(%rax),%rsi
  40a81d:	48 89 75 b8          	mov    %rsi,-0x48(%rbp)
  40a821:	48 8b 75 c8          	mov    -0x38(%rbp),%rsi
  40a825:	48 3b 75 d0          	cmp    -0x30(%rbp),%rsi
  40a829:	0f 86 c8 00 00 00    	jbe    40a8f7 <_ZNSt6vectorIhSaIhEE15_M_range_insertIPcEEvN9__gnu_cxx17__normal_iteratorIPhS1_EET_S8_St20forward_iterator_tag+0x167>
  40a82f:	31 c0                	xor    %eax,%eax
  40a831:	89 c1                	mov    %eax,%ecx
  40a833:	48 8b 95 60 ff ff ff 	mov    -0xa0(%rbp),%rdx
  40a83a:	48 8b 72 08          	mov    0x8(%rdx),%rsi
  40a83e:	48 2b 4d d0          	sub    -0x30(%rbp),%rcx
  40a842:	48 01 ce             	add    %rcx,%rsi
  40a845:	48 8b 4a 08          	mov    0x8(%rdx),%rcx
  40a849:	48 8b 52 08          	mov    0x8(%rdx),%rdx
  40a84d:	48 8b bd 60 ff ff ff 	mov    -0xa0(%rbp),%rdi
  40a854:	48 89 b5 58 ff ff ff 	mov    %rsi,-0xa8(%rbp)
  40a85b:	48 89 95 50 ff ff ff 	mov    %rdx,-0xb0(%rbp)
  40a862:	48 89 8d 48 ff ff ff 	mov    %rcx,-0xb8(%rbp)
  40a869:	e8 32 e4 ff ff       	callq  408ca0 <_ZNSt12_Vector_baseIhSaIhEE19_M_get_Tp_allocatorEv>
  40a86e:	48 8b bd 58 ff ff ff 	mov    -0xa8(%rbp),%rdi
  40a875:	48 8b b5 48 ff ff ff 	mov    -0xb8(%rbp),%rsi
  40a87c:	48 8b 95 50 ff ff ff 	mov    -0xb0(%rbp),%rdx
  40a883:	48 89 c1             	mov    %rax,%rcx
  40a886:	e8 85 f2 ff ff       	callq  409b10 <_ZSt22__uninitialized_move_aIPhS0_SaIhEET0_T_S3_S2_RT1_>
  40a88b:	48 8d 7d f8          	lea    -0x8(%rbp),%rdi
  40a88f:	48 8b 4d d0          	mov    -0x30(%rbp),%rcx
  40a893:	48 8b 95 60 ff ff ff 	mov    -0xa0(%rbp),%rdx
  40a89a:	48 03 4a 08          	add    0x8(%rdx),%rcx
  40a89e:	48 89 4a 08          	mov    %rcx,0x8(%rdx)
  40a8a2:	48 89 85 40 ff ff ff 	mov    %rax,-0xc0(%rbp)
  40a8a9:	e8 f2 f2 ff ff       	callq  409ba0 <_ZNK9__gnu_cxx17__normal_iteratorIPhSt6vectorIhSaIhEEE4baseEv>
  40a8ae:	45 31 c0             	xor    %r8d,%r8d
  40a8b1:	44 89 c1             	mov    %r8d,%ecx
  40a8b4:	48 8b 38             	mov    (%rax),%rdi
  40a8b7:	48 8b 45 b8          	mov    -0x48(%rbp),%rax
  40a8bb:	48 2b 4d d0          	sub    -0x30(%rbp),%rcx
  40a8bf:	48 01 c8             	add    %rcx,%rax
  40a8c2:	48 8b 55 b8          	mov    -0x48(%rbp),%rdx
  40a8c6:	48 89 c6             	mov    %rax,%rsi
  40a8c9:	e8 92 f2 ff ff       	callq  409b60 <_ZSt13move_backwardIPhS0_ET0_T_S2_S1_>
  40a8ce:	48 8b 7d e0          	mov    -0x20(%rbp),%rdi
  40a8d2:	48 8b 75 d8          	mov    -0x28(%rbp),%rsi
  40a8d6:	48 8b 4d f8          	mov    -0x8(%rbp),%rcx
  40a8da:	48 89 4d b0          	mov    %rcx,-0x50(%rbp)
  40a8de:	48 8b 55 b0          	mov    -0x50(%rbp),%rdx
  40a8e2:	48 89 85 38 ff ff ff 	mov    %rax,-0xc8(%rbp)
  40a8e9:	e8 02 04 00 00       	callq  40acf0 <_ZSt4copyIPcN9__gnu_cxx17__normal_iteratorIPhSt6vectorIhSaIhEEEEET0_T_S9_S8_>
  40a8ee:	48 89 45 a8          	mov    %rax,-0x58(%rbp)
  40a8f2:	e9 0c 01 00 00       	jmpq   40aa03 <_ZNSt6vectorIhSaIhEE15_M_range_insertIPcEEvN9__gnu_cxx17__normal_iteratorIPhS1_EET_S8_St20forward_iterator_tag+0x273>
  40a8f7:	48 8d 7d a0          	lea    -0x60(%rbp),%rdi
  40a8fb:	48 8b 45 e0          	mov    -0x20(%rbp),%rax
  40a8ff:	48 89 45 a0          	mov    %rax,-0x60(%rbp)
  40a903:	48 8b 75 c8          	mov    -0x38(%rbp),%rsi
  40a907:	e8 34 04 00 00       	callq  40ad40 <_ZSt7advanceIPcmEvRT_T0_>
  40a90c:	48 8b 7d a0          	mov    -0x60(%rbp),%rdi
  40a910:	48 8b 75 d8          	mov    -0x28(%rbp),%rsi
  40a914:	48 8b 85 60 ff ff ff 	mov    -0xa0(%rbp),%rax
  40a91b:	48 8b 50 08          	mov    0x8(%rax),%rdx
  40a91f:	48 89 bd 30 ff ff ff 	mov    %rdi,-0xd0(%rbp)
  40a926:	48 89 c7             	mov    %rax,%rdi
  40a929:	48 89 95 28 ff ff ff 	mov    %rdx,-0xd8(%rbp)
  40a930:	48 89 b5 20 ff ff ff 	mov    %rsi,-0xe0(%rbp)
  40a937:	e8 64 e3 ff ff       	callq  408ca0 <_ZNSt12_Vector_baseIhSaIhEE19_M_get_Tp_allocatorEv>
  40a93c:	48 8b bd 30 ff ff ff 	mov    -0xd0(%rbp),%rdi
  40a943:	48 8b b5 20 ff ff ff 	mov    -0xe0(%rbp),%rsi
  40a94a:	48 8b 95 28 ff ff ff 	mov    -0xd8(%rbp),%rdx
  40a951:	48 89 c1             	mov    %rax,%rcx
  40a954:	e8 37 04 00 00       	callq  40ad90 <_ZSt22__uninitialized_copy_aIPcPhhET0_T_S3_S2_RSaIT1_E>
  40a959:	48 8d 7d f8          	lea    -0x8(%rbp),%rdi
  40a95d:	48 8b 4d d0          	mov    -0x30(%rbp),%rcx
  40a961:	48 2b 4d c8          	sub    -0x38(%rbp),%rcx
  40a965:	48 8b 95 60 ff ff ff 	mov    -0xa0(%rbp),%rdx
  40a96c:	48 03 4a 08          	add    0x8(%rdx),%rcx
  40a970:	48 89 4a 08          	mov    %rcx,0x8(%rdx)
  40a974:	48 89 85 18 ff ff ff 	mov    %rax,-0xe8(%rbp)
  40a97b:	e8 20 f2 ff ff       	callq  409ba0 <_ZNK9__gnu_cxx17__normal_iteratorIPhSt6vectorIhSaIhEEE4baseEv>
  40a980:	48 8b 38             	mov    (%rax),%rdi
  40a983:	48 8b 75 b8          	mov    -0x48(%rbp),%rsi
  40a987:	48 8b 85 60 ff ff ff 	mov    -0xa0(%rbp),%rax
  40a98e:	48 8b 50 08          	mov    0x8(%rax),%rdx
  40a992:	48 89 bd 10 ff ff ff 	mov    %rdi,-0xf0(%rbp)
  40a999:	48 89 c7             	mov    %rax,%rdi
  40a99c:	48 89 95 08 ff ff ff 	mov    %rdx,-0xf8(%rbp)
  40a9a3:	48 89 b5 00 ff ff ff 	mov    %rsi,-0x100(%rbp)
  40a9aa:	e8 f1 e2 ff ff       	callq  408ca0 <_ZNSt12_Vector_baseIhSaIhEE19_M_get_Tp_allocatorEv>
  40a9af:	48 8b bd 10 ff ff ff 	mov    -0xf0(%rbp),%rdi
  40a9b6:	48 8b b5 00 ff ff ff 	mov    -0x100(%rbp),%rsi
  40a9bd:	48 8b 95 08 ff ff ff 	mov    -0xf8(%rbp),%rdx
  40a9c4:	48 89 c1             	mov    %rax,%rcx
  40a9c7:	e8 44 f1 ff ff       	callq  409b10 <_ZSt22__uninitialized_move_aIPhS0_SaIhEET0_T_S3_S2_RT1_>
  40a9cc:	48 8b 4d c8          	mov    -0x38(%rbp),%rcx
  40a9d0:	48 8b 95 60 ff ff ff 	mov    -0xa0(%rbp),%rdx
  40a9d7:	48 03 4a 08          	add    0x8(%rdx),%rcx
  40a9db:	48 89 4a 08          	mov    %rcx,0x8(%rdx)
  40a9df:	48 8b 7d e0          	mov    -0x20(%rbp),%rdi
  40a9e3:	48 8b 75 a0          	mov    -0x60(%rbp),%rsi
  40a9e7:	48 8b 4d f8          	mov    -0x8(%rbp),%rcx
  40a9eb:	48 89 4d 98          	mov    %rcx,-0x68(%rbp)
  40a9ef:	48 8b 55 98          	mov    -0x68(%rbp),%rdx
  40a9f3:	48 89 85 f8 fe ff ff 	mov    %rax,-0x108(%rbp)
  40a9fa:	e8 f1 02 00 00       	callq  40acf0 <_ZSt4copyIPcN9__gnu_cxx17__normal_iteratorIPhSt6vectorIhSaIhEEEEET0_T_S9_S8_>
  40a9ff:	48 89 45 90          	mov    %rax,-0x70(%rbp)
  40aa03:	e9 b3 02 00 00       	jmpq   40acbb <_ZNSt6vectorIhSaIhEE15_M_range_insertIPcEEvN9__gnu_cxx17__normal_iteratorIPhS1_EET_S8_St20forward_iterator_tag+0x52b>
  40aa08:	48 8b 75 d0          	mov    -0x30(%rbp),%rsi
  40aa0c:	b8 08 ef 40 00       	mov    $0x40ef08,%eax
  40aa11:	89 c2                	mov    %eax,%edx
  40aa13:	48 8b bd 60 ff ff ff 	mov    -0xa0(%rbp),%rdi
  40aa1a:	e8 61 f2 ff ff       	callq  409c80 <_ZNKSt6vectorIhSaIhEE12_M_check_lenEmPKc>
  40aa1f:	48 89 45 88          	mov    %rax,-0x78(%rbp)
  40aa23:	48 8b bd 60 ff ff ff 	mov    -0xa0(%rbp),%rdi
  40aa2a:	48 89 c6             	mov    %rax,%rsi
  40aa2d:	e8 2e f3 ff ff       	callq  409d60 <_ZNSt12_Vector_baseIhSaIhEE11_M_allocateEm>
  40aa32:	48 89 45 80          	mov    %rax,-0x80(%rbp)
  40aa36:	48 89 85 78 ff ff ff 	mov    %rax,-0x88(%rbp)
  40aa3d:	48 8b 85 60 ff ff ff 	mov    -0xa0(%rbp),%rax
  40aa44:	48 8b 38             	mov    (%rax),%rdi
  40aa47:	48 8d 55 f8          	lea    -0x8(%rbp),%rdx
  40aa4b:	48 89 bd f0 fe ff ff 	mov    %rdi,-0x110(%rbp)
  40aa52:	48 89 d7             	mov    %rdx,%rdi
  40aa55:	e8 46 f1 ff ff       	callq  409ba0 <_ZNK9__gnu_cxx17__normal_iteratorIPhSt6vectorIhSaIhEEE4baseEv>
  40aa5a:	48 8b 30             	mov    (%rax),%rsi
  40aa5d:	48 8b 55 80          	mov    -0x80(%rbp),%rdx
  40aa61:	48 8b bd 60 ff ff ff 	mov    -0xa0(%rbp),%rdi
  40aa68:	48 89 b5 e8 fe ff ff 	mov    %rsi,-0x118(%rbp)
  40aa6f:	48 89 95 e0 fe ff ff 	mov    %rdx,-0x120(%rbp)
  40aa76:	e8 25 e2 ff ff       	callq  408ca0 <_ZNSt12_Vector_baseIhSaIhEE19_M_get_Tp_allocatorEv>
  40aa7b:	48 8b bd f0 fe ff ff 	mov    -0x110(%rbp),%rdi
  40aa82:	48 8b b5 e8 fe ff ff 	mov    -0x118(%rbp),%rsi
  40aa89:	48 8b 95 e0 fe ff ff 	mov    -0x120(%rbp),%rdx
  40aa90:	48 89 c1             	mov    %rax,%rcx
  40aa93:	e8 28 f3 ff ff       	callq  409dc0 <_ZSt34__uninitialized_move_if_noexcept_aIPhS0_SaIhEET0_T_S3_S2_RT1_>
  40aa98:	48 89 85 d8 fe ff ff 	mov    %rax,-0x128(%rbp)
  40aa9f:	e9 00 00 00 00       	jmpq   40aaa4 <_ZNSt6vectorIhSaIhEE15_M_range_insertIPcEEvN9__gnu_cxx17__normal_iteratorIPhS1_EET_S8_St20forward_iterator_tag+0x314>
  40aaa4:	48 8b 85 d8 fe ff ff 	mov    -0x128(%rbp),%rax
  40aaab:	48 89 85 78 ff ff ff 	mov    %rax,-0x88(%rbp)
  40aab2:	48 8b 7d e0          	mov    -0x20(%rbp),%rdi
  40aab6:	48 8b 75 d8          	mov    -0x28(%rbp),%rsi
  40aaba:	48 8b 8d 60 ff ff ff 	mov    -0xa0(%rbp),%rcx
  40aac1:	48 89 bd d0 fe ff ff 	mov    %rdi,-0x130(%rbp)
  40aac8:	48 89 cf             	mov    %rcx,%rdi
  40aacb:	48 89 b5 c8 fe ff ff 	mov    %rsi,-0x138(%rbp)
  40aad2:	e8 c9 e1 ff ff       	callq  408ca0 <_ZNSt12_Vector_baseIhSaIhEE19_M_get_Tp_allocatorEv>
  40aad7:	48 8b bd d0 fe ff ff 	mov    -0x130(%rbp),%rdi
  40aade:	48 8b b5 c8 fe ff ff 	mov    -0x138(%rbp),%rsi
  40aae5:	48 8b 95 d8 fe ff ff 	mov    -0x128(%rbp),%rdx
  40aaec:	48 89 c1             	mov    %rax,%rcx
  40aaef:	e8 9c 02 00 00       	callq  40ad90 <_ZSt22__uninitialized_copy_aIPcPhhET0_T_S3_S2_RSaIT1_E>
  40aaf4:	48 89 85 c0 fe ff ff 	mov    %rax,-0x140(%rbp)
  40aafb:	e9 00 00 00 00       	jmpq   40ab00 <_ZNSt6vectorIhSaIhEE15_M_range_insertIPcEEvN9__gnu_cxx17__normal_iteratorIPhS1_EET_S8_St20forward_iterator_tag+0x370>
  40ab00:	48 8b 85 c0 fe ff ff 	mov    -0x140(%rbp),%rax
  40ab07:	48 89 85 78 ff ff ff 	mov    %rax,-0x88(%rbp)
  40ab0e:	48 8d 7d f8          	lea    -0x8(%rbp),%rdi
  40ab12:	e8 89 f0 ff ff       	callq  409ba0 <_ZNK9__gnu_cxx17__normal_iteratorIPhSt6vectorIhSaIhEEE4baseEv>
  40ab17:	48 8b 38             	mov    (%rax),%rdi
  40ab1a:	48 8b 85 60 ff ff ff 	mov    -0xa0(%rbp),%rax
  40ab21:	48 8b 70 08          	mov    0x8(%rax),%rsi
  40ab25:	48 8b 95 78 ff ff ff 	mov    -0x88(%rbp),%rdx
  40ab2c:	48 89 bd b8 fe ff ff 	mov    %rdi,-0x148(%rbp)
  40ab33:	48 89 c7             	mov    %rax,%rdi
  40ab36:	48 89 95 b0 fe ff ff 	mov    %rdx,-0x150(%rbp)
  40ab3d:	48 89 b5 a8 fe ff ff 	mov    %rsi,-0x158(%rbp)
  40ab44:	e8 57 e1 ff ff       	callq  408ca0 <_ZNSt12_Vector_baseIhSaIhEE19_M_get_Tp_allocatorEv>
  40ab49:	48 8b bd b8 fe ff ff 	mov    -0x148(%rbp),%rdi
  40ab50:	48 8b b5 a8 fe ff ff 	mov    -0x158(%rbp),%rsi
  40ab57:	48 8b 95 b0 fe ff ff 	mov    -0x150(%rbp),%rdx
  40ab5e:	48 89 c1             	mov    %rax,%rcx
  40ab61:	e8 5a f2 ff ff       	callq  409dc0 <_ZSt34__uninitialized_move_if_noexcept_aIPhS0_SaIhEET0_T_S3_S2_RT1_>
  40ab66:	48 89 85 a0 fe ff ff 	mov    %rax,-0x160(%rbp)
  40ab6d:	e9 00 00 00 00       	jmpq   40ab72 <_ZNSt6vectorIhSaIhEE15_M_range_insertIPcEEvN9__gnu_cxx17__normal_iteratorIPhS1_EET_S8_St20forward_iterator_tag+0x3e2>
  40ab72:	48 8b 85 a0 fe ff ff 	mov    -0x160(%rbp),%rax
  40ab79:	48 89 85 78 ff ff ff 	mov    %rax,-0x88(%rbp)
  40ab80:	e9 a6 00 00 00       	jmpq   40ac2b <_ZNSt6vectorIhSaIhEE15_M_range_insertIPcEEvN9__gnu_cxx17__normal_iteratorIPhS1_EET_S8_St20forward_iterator_tag+0x49b>
  40ab85:	89 d1                	mov    %edx,%ecx
  40ab87:	48 89 85 70 ff ff ff 	mov    %rax,-0x90(%rbp)
  40ab8e:	89 8d 6c ff ff ff    	mov    %ecx,-0x94(%rbp)
  40ab94:	48 8b bd 70 ff ff ff 	mov    -0x90(%rbp),%rdi
  40ab9b:	e8 20 80 ff ff       	callq  402bc0 <__cxa_begin_catch@plt>
  40aba0:	48 8b 7d 80          	mov    -0x80(%rbp),%rdi
  40aba4:	48 8b b5 78 ff ff ff 	mov    -0x88(%rbp),%rsi
  40abab:	48 8b 8d 60 ff ff ff 	mov    -0xa0(%rbp),%rcx
  40abb2:	48 89 bd 98 fe ff ff 	mov    %rdi,-0x168(%rbp)
  40abb9:	48 89 cf             	mov    %rcx,%rdi
  40abbc:	48 89 85 90 fe ff ff 	mov    %rax,-0x170(%rbp)
  40abc3:	48 89 b5 88 fe ff ff 	mov    %rsi,-0x178(%rbp)
  40abca:	e8 d1 e0 ff ff       	callq  408ca0 <_ZNSt12_Vector_baseIhSaIhEE19_M_get_Tp_allocatorEv>
  40abcf:	48 8b bd 98 fe ff ff 	mov    -0x168(%rbp),%rdi
  40abd6:	48 8b b5 88 fe ff ff 	mov    -0x178(%rbp),%rsi
  40abdd:	48 89 c2             	mov    %rax,%rdx
  40abe0:	e8 8b e0 ff ff       	callq  408c70 <_ZSt8_DestroyIPhhEvT_S1_RSaIT0_E>
  40abe5:	e9 00 00 00 00       	jmpq   40abea <_ZNSt6vectorIhSaIhEE15_M_range_insertIPcEEvN9__gnu_cxx17__normal_iteratorIPhS1_EET_S8_St20forward_iterator_tag+0x45a>
  40abea:	48 8b 75 80          	mov    -0x80(%rbp),%rsi
  40abee:	48 8b 55 88          	mov    -0x78(%rbp),%rdx
  40abf2:	48 8b bd 60 ff ff ff 	mov    -0xa0(%rbp),%rdi
  40abf9:	e8 12 f2 ff ff       	callq  409e10 <_ZNSt12_Vector_baseIhSaIhEE13_M_deallocateEPhm>
  40abfe:	e9 00 00 00 00       	jmpq   40ac03 <_ZNSt6vectorIhSaIhEE15_M_range_insertIPcEEvN9__gnu_cxx17__normal_iteratorIPhS1_EET_S8_St20forward_iterator_tag+0x473>
  40ac03:	e8 08 83 ff ff       	callq  402f10 <__cxa_rethrow@plt>
  40ac08:	e9 d8 00 00 00       	jmpq   40ace5 <_ZNSt6vectorIhSaIhEE15_M_range_insertIPcEEvN9__gnu_cxx17__normal_iteratorIPhS1_EET_S8_St20forward_iterator_tag+0x555>
  40ac0d:	89 d1                	mov    %edx,%ecx
  40ac0f:	48 89 85 70 ff ff ff 	mov    %rax,-0x90(%rbp)
  40ac16:	89 8d 6c ff ff ff    	mov    %ecx,-0x94(%rbp)
  40ac1c:	e8 6f 83 ff ff       	callq  402f90 <__cxa_end_catch@plt>
  40ac21:	e9 00 00 00 00       	jmpq   40ac26 <_ZNSt6vectorIhSaIhEE15_M_range_insertIPcEEvN9__gnu_cxx17__normal_iteratorIPhS1_EET_S8_St20forward_iterator_tag+0x496>
  40ac26:	e9 9e 00 00 00       	jmpq   40acc9 <_ZNSt6vectorIhSaIhEE15_M_range_insertIPcEEvN9__gnu_cxx17__normal_iteratorIPhS1_EET_S8_St20forward_iterator_tag+0x539>
  40ac2b:	48 8b 85 60 ff ff ff 	mov    -0xa0(%rbp),%rax
  40ac32:	48 8b 38             	mov    (%rax),%rdi
  40ac35:	48 8b 70 08          	mov    0x8(%rax),%rsi
  40ac39:	48 89 bd 80 fe ff ff 	mov    %rdi,-0x180(%rbp)
  40ac40:	48 89 c7             	mov    %rax,%rdi
  40ac43:	48 89 b5 78 fe ff ff 	mov    %rsi,-0x188(%rbp)
  40ac4a:	e8 51 e0 ff ff       	callq  408ca0 <_ZNSt12_Vector_baseIhSaIhEE19_M_get_Tp_allocatorEv>
  40ac4f:	48 8b bd 80 fe ff ff 	mov    -0x180(%rbp),%rdi
  40ac56:	48 8b b5 78 fe ff ff 	mov    -0x188(%rbp),%rsi
  40ac5d:	48 89 c2             	mov    %rax,%rdx
  40ac60:	e8 0b e0 ff ff       	callq  408c70 <_ZSt8_DestroyIPhhEvT_S1_RSaIT0_E>
  40ac65:	48 8b 85 60 ff ff ff 	mov    -0xa0(%rbp),%rax
  40ac6c:	48 8b 95 60 ff ff ff 	mov    -0xa0(%rbp),%rdx
  40ac73:	48 8b 32             	mov    (%rdx),%rsi
  40ac76:	48 8b 7a 10          	mov    0x10(%rdx),%rdi
  40ac7a:	48 8b 0a             	mov    (%rdx),%rcx
  40ac7d:	48 29 cf             	sub    %rcx,%rdi
  40ac80:	48 89 bd 70 fe ff ff 	mov    %rdi,-0x190(%rbp)
  40ac87:	48 89 c7             	mov    %rax,%rdi
  40ac8a:	48 8b 95 70 fe ff ff 	mov    -0x190(%rbp),%rdx
  40ac91:	e8 7a f1 ff ff       	callq  409e10 <_ZNSt12_Vector_baseIhSaIhEE13_M_deallocateEPhm>
  40ac96:	48 8b 45 80          	mov    -0x80(%rbp),%rax
  40ac9a:	48 8b 8d 60 ff ff ff 	mov    -0xa0(%rbp),%rcx
  40aca1:	48 89 01             	mov    %rax,(%rcx)
  40aca4:	48 8b 85 78 ff ff ff 	mov    -0x88(%rbp),%rax
  40acab:	48 89 41 08          	mov    %rax,0x8(%rcx)
  40acaf:	48 8b 45 80          	mov    -0x80(%rbp),%rax
  40acb3:	48 03 45 88          	add    -0x78(%rbp),%rax
  40acb7:	48 89 41 10          	mov    %rax,0x10(%rcx)
  40acbb:	e9 00 00 00 00       	jmpq   40acc0 <_ZNSt6vectorIhSaIhEE15_M_range_insertIPcEEvN9__gnu_cxx17__normal_iteratorIPhS1_EET_S8_St20forward_iterator_tag+0x530>
  40acc0:	48 81 c4 a0 01 00 00 	add    $0x1a0,%rsp
  40acc7:	5d                   	pop    %rbp
  40acc8:	c3                   	retq   
  40acc9:	48 8b bd 70 ff ff ff 	mov    -0x90(%rbp),%rdi
  40acd0:	e8 4b 83 ff ff       	callq  403020 <_Unwind_Resume@plt>
  40acd5:	89 d1                	mov    %edx,%ecx
  40acd7:	48 89 c7             	mov    %rax,%rdi
  40acda:	89 8d 6c fe ff ff    	mov    %ecx,-0x194(%rbp)
  40ace0:	e8 db c7 ff ff       	callq  4074c0 <__clang_call_terminate>
  40ace5:	66 2e 0f 1f 84 00 00 	nopw   %cs:0x0(%rax,%rax,1)
  40acec:	00 00 00 
  40acef:	90                   	nop

000000000040acf0 <_ZSt4copyIPcN9__gnu_cxx17__normal_iteratorIPhSt6vectorIhSaIhEEEEET0_T_S9_S8_>:
  40acf0:	55                   	push   %rbp
  40acf1:	48 89 e5             	mov    %rsp,%rbp
  40acf4:	48 83 ec 30          	sub    $0x30,%rsp
  40acf8:	48 89 55 f0          	mov    %rdx,-0x10(%rbp)
  40acfc:	48 89 7d e8          	mov    %rdi,-0x18(%rbp)
  40ad00:	48 89 75 e0          	mov    %rsi,-0x20(%rbp)
  40ad04:	48 8b 7d e8          	mov    -0x18(%rbp),%rdi
  40ad08:	e8 23 01 00 00       	callq  40ae30 <_ZSt12__miter_baseIPcENSt11_Miter_baseIT_E13iterator_typeES2_>
  40ad0d:	48 8b 7d e0          	mov    -0x20(%rbp),%rdi
  40ad11:	48 89 45 d0          	mov    %rax,-0x30(%rbp)
  40ad15:	e8 16 01 00 00       	callq  40ae30 <_ZSt12__miter_baseIPcENSt11_Miter_baseIT_E13iterator_typeES2_>
  40ad1a:	48 8b 55 f0          	mov    -0x10(%rbp),%rdx
  40ad1e:	48 89 55 d8          	mov    %rdx,-0x28(%rbp)
  40ad22:	48 8b 55 d8          	mov    -0x28(%rbp),%rdx
  40ad26:	48 8b 7d d0          	mov    -0x30(%rbp),%rdi
  40ad2a:	48 89 c6             	mov    %rax,%rsi
  40ad2d:	e8 8e 00 00 00       	callq  40adc0 <_ZSt14__copy_move_a2ILb0EPcN9__gnu_cxx17__normal_iteratorIPhSt6vectorIhSaIhEEEEET1_T0_S9_S8_>
  40ad32:	48 89 45 f8          	mov    %rax,-0x8(%rbp)
  40ad36:	48 8b 45 f8          	mov    -0x8(%rbp),%rax
  40ad3a:	48 83 c4 30          	add    $0x30,%rsp
  40ad3e:	5d                   	pop    %rbp
  40ad3f:	c3                   	retq   

000000000040ad40 <_ZSt7advanceIPcmEvRT_T0_>:
  40ad40:	55                   	push   %rbp
  40ad41:	48 89 e5             	mov    %rsp,%rbp
  40ad44:	48 83 ec 40          	sub    $0x40,%rsp
  40ad48:	48 89 7d f8          	mov    %rdi,-0x8(%rbp)
  40ad4c:	48 89 75 f0          	mov    %rsi,-0x10(%rbp)
  40ad50:	48 8b 75 f0          	mov    -0x10(%rbp),%rsi
  40ad54:	48 89 75 e8          	mov    %rsi,-0x18(%rbp)
  40ad58:	48 8b 7d f8          	mov    -0x8(%rbp),%rdi
  40ad5c:	48 8b 75 e8          	mov    -0x18(%rbp),%rsi
  40ad60:	48 8b 45 f8          	mov    -0x8(%rbp),%rax
  40ad64:	48 89 7d d0          	mov    %rdi,-0x30(%rbp)
  40ad68:	48 89 c7             	mov    %rax,%rdi
  40ad6b:	48 89 75 c8          	mov    %rsi,-0x38(%rbp)
  40ad6f:	e8 7c c7 ff ff       	callq  4074f0 <_ZSt19__iterator_categoryIPcENSt15iterator_traitsIT_E17iterator_categoryERKS2_>
  40ad74:	48 8b 7d d0          	mov    -0x30(%rbp),%rdi
  40ad78:	48 8b 75 c8          	mov    -0x38(%rbp),%rsi
  40ad7c:	e8 9f 01 00 00       	callq  40af20 <_ZSt9__advanceIPclEvRT_T0_St26random_access_iterator_tag>
  40ad81:	48 83 c4 40          	add    $0x40,%rsp
  40ad85:	5d                   	pop    %rbp
  40ad86:	c3                   	retq   
  40ad87:	66 0f 1f 84 00 00 00 	nopw   0x0(%rax,%rax,1)
  40ad8e:	00 00 

000000000040ad90 <_ZSt22__uninitialized_copy_aIPcPhhET0_T_S3_S2_RSaIT1_E>:
  40ad90:	55                   	push   %rbp
  40ad91:	48 89 e5             	mov    %rsp,%rbp
  40ad94:	48 83 ec 20          	sub    $0x20,%rsp
  40ad98:	48 89 7d f8          	mov    %rdi,-0x8(%rbp)
  40ad9c:	48 89 75 f0          	mov    %rsi,-0x10(%rbp)
  40ada0:	48 89 55 e8          	mov    %rdx,-0x18(%rbp)
  40ada4:	48 89 4d e0          	mov    %rcx,-0x20(%rbp)
  40ada8:	48 8b 7d f8          	mov    -0x8(%rbp),%rdi
  40adac:	48 8b 75 f0          	mov    -0x10(%rbp),%rsi
  40adb0:	48 8b 55 e8          	mov    -0x18(%rbp),%rdx
  40adb4:	e8 87 01 00 00       	callq  40af40 <_ZSt18uninitialized_copyIPcPhET0_T_S3_S2_>
  40adb9:	48 83 c4 20          	add    $0x20,%rsp
  40adbd:	5d                   	pop    %rbp
  40adbe:	c3                   	retq   
  40adbf:	90                   	nop

000000000040adc0 <_ZSt14__copy_move_a2ILb0EPcN9__gnu_cxx17__normal_iteratorIPhSt6vectorIhSaIhEEEEET1_T0_S9_S8_>:
  40adc0:	55                   	push   %rbp
  40adc1:	48 89 e5             	mov    %rsp,%rbp
  40adc4:	48 83 ec 40          	sub    $0x40,%rsp
  40adc8:	48 89 55 f0          	mov    %rdx,-0x10(%rbp)
  40adcc:	48 89 7d e8          	mov    %rdi,-0x18(%rbp)
  40add0:	48 89 75 e0          	mov    %rsi,-0x20(%rbp)
  40add4:	48 8b 7d e8          	mov    -0x18(%rbp),%rdi
  40add8:	e8 a3 00 00 00       	callq  40ae80 <_ZSt12__niter_baseIPcENSt11_Niter_baseIT_E13iterator_typeES2_>
  40addd:	48 8b 7d e0          	mov    -0x20(%rbp),%rdi
  40ade1:	48 89 45 c8          	mov    %rax,-0x38(%rbp)
  40ade5:	e8 96 00 00 00       	callq  40ae80 <_ZSt12__niter_baseIPcENSt11_Niter_baseIT_E13iterator_typeES2_>
  40adea:	48 8b 55 f0          	mov    -0x10(%rbp),%rdx
  40adee:	48 89 55 d0          	mov    %rdx,-0x30(%rbp)
  40adf2:	48 8b 7d d0          	mov    -0x30(%rbp),%rdi
  40adf6:	48 89 45 c0          	mov    %rax,-0x40(%rbp)
  40adfa:	e8 61 f5 ff ff       	callq  40a360 <_ZSt12__niter_baseIN9__gnu_cxx17__normal_iteratorIPhSt6vectorIhSaIhEEEEENSt11_Niter_baseIT_E13iterator_typeES8_>
  40adff:	48 8b 7d c8          	mov    -0x38(%rbp),%rdi
  40ae03:	48 8b 75 c0          	mov    -0x40(%rbp),%rsi
  40ae07:	48 89 c2             	mov    %rax,%rdx
  40ae0a:	e8 41 00 00 00       	callq  40ae50 <_ZSt13__copy_move_aILb0EPcPhET1_T0_S3_S2_>
  40ae0f:	48 8d 7d f8          	lea    -0x8(%rbp),%rdi
  40ae13:	48 8d 75 d8          	lea    -0x28(%rbp),%rsi
  40ae17:	48 89 45 d8          	mov    %rax,-0x28(%rbp)
  40ae1b:	e8 90 e5 ff ff       	callq  4093b0 <_ZN9__gnu_cxx17__normal_iteratorIPhSt6vectorIhSaIhEEEC2ERKS1_>
  40ae20:	48 8b 45 f8          	mov    -0x8(%rbp),%rax
  40ae24:	48 83 c4 40          	add    $0x40,%rsp
  40ae28:	5d                   	pop    %rbp
  40ae29:	c3                   	retq   
  40ae2a:	66 0f 1f 44 00 00    	nopw   0x0(%rax,%rax,1)

000000000040ae30 <_ZSt12__miter_baseIPcENSt11_Miter_baseIT_E13iterator_typeES2_>:
  40ae30:	55                   	push   %rbp
  40ae31:	48 89 e5             	mov    %rsp,%rbp
  40ae34:	48 83 ec 10          	sub    $0x10,%rsp
  40ae38:	48 89 7d f8          	mov    %rdi,-0x8(%rbp)
  40ae3c:	48 8b 7d f8          	mov    -0x8(%rbp),%rdi
  40ae40:	e8 cb 00 00 00       	callq  40af10 <_ZNSt10_Iter_baseIPcLb0EE7_S_baseES0_>
  40ae45:	48 83 c4 10          	add    $0x10,%rsp
  40ae49:	5d                   	pop    %rbp
  40ae4a:	c3                   	retq   
  40ae4b:	0f 1f 44 00 00       	nopl   0x0(%rax,%rax,1)

000000000040ae50 <_ZSt13__copy_move_aILb0EPcPhET1_T0_S3_S2_>:
  40ae50:	55                   	push   %rbp
  40ae51:	48 89 e5             	mov    %rsp,%rbp
  40ae54:	48 83 ec 20          	sub    $0x20,%rsp
  40ae58:	48 89 7d f8          	mov    %rdi,-0x8(%rbp)
  40ae5c:	48 89 75 f0          	mov    %rsi,-0x10(%rbp)
  40ae60:	48 89 55 e8          	mov    %rdx,-0x18(%rbp)
  40ae64:	c6 45 e7 00          	movb   $0x0,-0x19(%rbp)
  40ae68:	48 8b 7d f8          	mov    -0x8(%rbp),%rdi
  40ae6c:	48 8b 75 f0          	mov    -0x10(%rbp),%rsi
  40ae70:	48 8b 55 e8          	mov    -0x18(%rbp),%rdx
  40ae74:	e8 27 00 00 00       	callq  40aea0 <_ZNSt11__copy_moveILb0ELb0ESt26random_access_iterator_tagE8__copy_mIPcPhEET0_T_S6_S5_>
  40ae79:	48 83 c4 20          	add    $0x20,%rsp
  40ae7d:	5d                   	pop    %rbp
  40ae7e:	c3                   	retq   
  40ae7f:	90                   	nop

000000000040ae80 <_ZSt12__niter_baseIPcENSt11_Niter_baseIT_E13iterator_typeES2_>:
  40ae80:	55                   	push   %rbp
  40ae81:	48 89 e5             	mov    %rsp,%rbp
  40ae84:	48 83 ec 10          	sub    $0x10,%rsp
  40ae88:	48 89 7d f8          	mov    %rdi,-0x8(%rbp)
  40ae8c:	48 8b 7d f8          	mov    -0x8(%rbp),%rdi
  40ae90:	e8 7b 00 00 00       	callq  40af10 <_ZNSt10_Iter_baseIPcLb0EE7_S_baseES0_>
  40ae95:	48 83 c4 10          	add    $0x10,%rsp
  40ae99:	5d                   	pop    %rbp
  40ae9a:	c3                   	retq   
  40ae9b:	0f 1f 44 00 00       	nopl   0x0(%rax,%rax,1)

000000000040aea0 <_ZNSt11__copy_moveILb0ELb0ESt26random_access_iterator_tagE8__copy_mIPcPhEET0_T_S6_S5_>:
  40aea0:	55                   	push   %rbp
  40aea1:	48 89 e5             	mov    %rsp,%rbp
  40aea4:	48 89 7d f8          	mov    %rdi,-0x8(%rbp)
  40aea8:	48 89 75 f0          	mov    %rsi,-0x10(%rbp)
  40aeac:	48 89 55 e8          	mov    %rdx,-0x18(%rbp)
  40aeb0:	48 8b 55 f0          	mov    -0x10(%rbp),%rdx
  40aeb4:	48 8b 75 f8          	mov    -0x8(%rbp),%rsi
  40aeb8:	48 29 f2             	sub    %rsi,%rdx
  40aebb:	48 89 55 e0          	mov    %rdx,-0x20(%rbp)
  40aebf:	48 83 7d e0 00       	cmpq   $0x0,-0x20(%rbp)
  40aec4:	0f 8e 35 00 00 00    	jle    40aeff <_ZNSt11__copy_moveILb0ELb0ESt26random_access_iterator_tagE8__copy_mIPcPhEET0_T_S6_S5_+0x5f>
  40aeca:	48 8b 45 f8          	mov    -0x8(%rbp),%rax
  40aece:	8a 08                	mov    (%rax),%cl
  40aed0:	48 8b 45 e8          	mov    -0x18(%rbp),%rax
  40aed4:	88 08                	mov    %cl,(%rax)
  40aed6:	48 8b 45 f8          	mov    -0x8(%rbp),%rax
  40aeda:	48 83 c0 01          	add    $0x1,%rax
  40aede:	48 89 45 f8          	mov    %rax,-0x8(%rbp)
  40aee2:	48 8b 45 e8          	mov    -0x18(%rbp),%rax
  40aee6:	48 83 c0 01          	add    $0x1,%rax
  40aeea:	48 89 45 e8          	mov    %rax,-0x18(%rbp)
  40aeee:	48 8b 45 e0          	mov    -0x20(%rbp),%rax
  40aef2:	48 83 c0 ff          	add    $0xffffffffffffffff,%rax
  40aef6:	48 89 45 e0          	mov    %rax,-0x20(%rbp)
  40aefa:	e9 c0 ff ff ff       	jmpq   40aebf <_ZNSt11__copy_moveILb0ELb0ESt26random_access_iterator_tagE8__copy_mIPcPhEET0_T_S6_S5_+0x1f>
  40aeff:	48 8b 45 e8          	mov    -0x18(%rbp),%rax
  40af03:	5d                   	pop    %rbp
  40af04:	c3                   	retq   
  40af05:	66 2e 0f 1f 84 00 00 	nopw   %cs:0x0(%rax,%rax,1)
  40af0c:	00 00 00 
  40af0f:	90                   	nop

000000000040af10 <_ZNSt10_Iter_baseIPcLb0EE7_S_baseES0_>:
  40af10:	55                   	push   %rbp
  40af11:	48 89 e5             	mov    %rsp,%rbp
  40af14:	48 89 7d f8          	mov    %rdi,-0x8(%rbp)
  40af18:	48 8b 45 f8          	mov    -0x8(%rbp),%rax
  40af1c:	5d                   	pop    %rbp
  40af1d:	c3                   	retq   
  40af1e:	66 90                	xchg   %ax,%ax

000000000040af20 <_ZSt9__advanceIPclEvRT_T0_St26random_access_iterator_tag>:
  40af20:	55                   	push   %rbp
  40af21:	48 89 e5             	mov    %rsp,%rbp
  40af24:	48 89 7d f0          	mov    %rdi,-0x10(%rbp)
  40af28:	48 89 75 e8          	mov    %rsi,-0x18(%rbp)
  40af2c:	48 8b 75 e8          	mov    -0x18(%rbp),%rsi
  40af30:	48 8b 7d f0          	mov    -0x10(%rbp),%rdi
  40af34:	48 03 37             	add    (%rdi),%rsi
  40af37:	48 89 37             	mov    %rsi,(%rdi)
  40af3a:	5d                   	pop    %rbp
  40af3b:	c3                   	retq   
  40af3c:	0f 1f 40 00          	nopl   0x0(%rax)

000000000040af40 <_ZSt18uninitialized_copyIPcPhET0_T_S3_S2_>:
  40af40:	55                   	push   %rbp
  40af41:	48 89 e5             	mov    %rsp,%rbp
  40af44:	48 83 ec 20          	sub    $0x20,%rsp
  40af48:	48 89 7d f8          	mov    %rdi,-0x8(%rbp)
  40af4c:	48 89 75 f0          	mov    %rsi,-0x10(%rbp)
  40af50:	48 89 55 e8          	mov    %rdx,-0x18(%rbp)
  40af54:	c6 45 e7 01          	movb   $0x1,-0x19(%rbp)
  40af58:	48 8b 7d f8          	mov    -0x8(%rbp),%rdi
  40af5c:	48 8b 75 f0          	mov    -0x10(%rbp),%rsi
  40af60:	48 8b 55 e8          	mov    -0x18(%rbp),%rdx
  40af64:	e8 07 00 00 00       	callq  40af70 <_ZNSt20__uninitialized_copyILb1EE13__uninit_copyIPcPhEET0_T_S5_S4_>
  40af69:	48 83 c4 20          	add    $0x20,%rsp
  40af6d:	5d                   	pop    %rbp
  40af6e:	c3                   	retq   
  40af6f:	90                   	nop

000000000040af70 <_ZNSt20__uninitialized_copyILb1EE13__uninit_copyIPcPhEET0_T_S5_S4_>:
  40af70:	55                   	push   %rbp
  40af71:	48 89 e5             	mov    %rsp,%rbp
  40af74:	48 83 ec 20          	sub    $0x20,%rsp
  40af78:	48 89 7d f8          	mov    %rdi,-0x8(%rbp)
  40af7c:	48 89 75 f0          	mov    %rsi,-0x10(%rbp)
  40af80:	48 89 55 e8          	mov    %rdx,-0x18(%rbp)
  40af84:	48 8b 7d f8          	mov    -0x8(%rbp),%rdi
  40af88:	48 8b 75 f0          	mov    -0x10(%rbp),%rsi
  40af8c:	48 8b 55 e8          	mov    -0x18(%rbp),%rdx
  40af90:	e8 0b 00 00 00       	callq  40afa0 <_ZSt4copyIPcPhET0_T_S3_S2_>
  40af95:	48 83 c4 20          	add    $0x20,%rsp
  40af99:	5d                   	pop    %rbp
  40af9a:	c3                   	retq   
  40af9b:	0f 1f 44 00 00       	nopl   0x0(%rax,%rax,1)

000000000040afa0 <_ZSt4copyIPcPhET0_T_S3_S2_>:
  40afa0:	55                   	push   %rbp
  40afa1:	48 89 e5             	mov    %rsp,%rbp
  40afa4:	48 83 ec 20          	sub    $0x20,%rsp
  40afa8:	48 89 7d f8          	mov    %rdi,-0x8(%rbp)
  40afac:	48 89 75 f0          	mov    %rsi,-0x10(%rbp)
  40afb0:	48 89 55 e8          	mov    %rdx,-0x18(%rbp)
  40afb4:	48 8b 7d f8          	mov    -0x8(%rbp),%rdi
  40afb8:	e8 73 fe ff ff       	callq  40ae30 <_ZSt12__miter_baseIPcENSt11_Miter_baseIT_E13iterator_typeES2_>
  40afbd:	48 8b 7d f0          	mov    -0x10(%rbp),%rdi
  40afc1:	48 89 45 e0          	mov    %rax,-0x20(%rbp)
  40afc5:	e8 66 fe ff ff       	callq  40ae30 <_ZSt12__miter_baseIPcENSt11_Miter_baseIT_E13iterator_typeES2_>
  40afca:	48 8b 55 e8          	mov    -0x18(%rbp),%rdx
  40afce:	48 8b 7d e0          	mov    -0x20(%rbp),%rdi
  40afd2:	48 89 c6             	mov    %rax,%rsi
  40afd5:	e8 06 00 00 00       	callq  40afe0 <_ZSt14__copy_move_a2ILb0EPcPhET1_T0_S3_S2_>
  40afda:	48 83 c4 20          	add    $0x20,%rsp
  40afde:	5d                   	pop    %rbp
  40afdf:	c3                   	retq   

000000000040afe0 <_ZSt14__copy_move_a2ILb0EPcPhET1_T0_S3_S2_>:
  40afe0:	55                   	push   %rbp
  40afe1:	48 89 e5             	mov    %rsp,%rbp
  40afe4:	48 83 ec 30          	sub    $0x30,%rsp
  40afe8:	48 89 7d f8          	mov    %rdi,-0x8(%rbp)
  40afec:	48 89 75 f0          	mov    %rsi,-0x10(%rbp)
  40aff0:	48 89 55 e8          	mov    %rdx,-0x18(%rbp)
  40aff4:	48 8b 7d f8          	mov    -0x8(%rbp),%rdi
  40aff8:	e8 83 fe ff ff       	callq  40ae80 <_ZSt12__niter_baseIPcENSt11_Niter_baseIT_E13iterator_typeES2_>
  40affd:	48 8b 7d f0          	mov    -0x10(%rbp),%rdi
  40b001:	48 89 45 e0          	mov    %rax,-0x20(%rbp)
  40b005:	e8 76 fe ff ff       	callq  40ae80 <_ZSt12__niter_baseIPcENSt11_Niter_baseIT_E13iterator_typeES2_>
  40b00a:	48 8b 7d e8          	mov    -0x18(%rbp),%rdi
  40b00e:	48 89 45 d8          	mov    %rax,-0x28(%rbp)
  40b012:	e8 69 f0 ff ff       	callq  40a080 <_ZSt12__niter_baseIPhENSt11_Niter_baseIT_E13iterator_typeES2_>
  40b017:	48 8b 7d e0          	mov    -0x20(%rbp),%rdi
  40b01b:	48 8b 75 d8          	mov    -0x28(%rbp),%rsi
  40b01f:	48 89 c2             	mov    %rax,%rdx
  40b022:	e8 29 fe ff ff       	callq  40ae50 <_ZSt13__copy_move_aILb0EPcPhET1_T0_S3_S2_>
  40b027:	48 83 c4 30          	add    $0x30,%rsp
  40b02b:	5d                   	pop    %rbp
  40b02c:	c3                   	retq   
  40b02d:	0f 1f 00             	nopl   (%rax)

000000000040b030 <_ZNSt12_Vector_baseISt4pairISt6threadbESaIS2_EEC2Ev>:
  40b030:	55                   	push   %rbp
  40b031:	48 89 e5             	mov    %rsp,%rbp
  40b034:	48 83 ec 10          	sub    $0x10,%rsp
  40b038:	48 89 7d f8          	mov    %rdi,-0x8(%rbp)
  40b03c:	48 8b 7d f8          	mov    -0x8(%rbp),%rdi
  40b040:	e8 0b 00 00 00       	callq  40b050 <_ZNSt12_Vector_baseISt4pairISt6threadbESaIS2_EE12_Vector_implC2Ev>
  40b045:	48 83 c4 10          	add    $0x10,%rsp
  40b049:	5d                   	pop    %rbp
  40b04a:	c3                   	retq   
  40b04b:	0f 1f 44 00 00       	nopl   0x0(%rax,%rax,1)

000000000040b050 <_ZNSt12_Vector_baseISt4pairISt6threadbESaIS2_EE12_Vector_implC2Ev>:
  40b050:	55                   	push   %rbp
  40b051:	48 89 e5             	mov    %rsp,%rbp
  40b054:	48 83 ec 10          	sub    $0x10,%rsp
  40b058:	48 89 7d f8          	mov    %rdi,-0x8(%rbp)
  40b05c:	48 8b 7d f8          	mov    -0x8(%rbp),%rdi
  40b060:	48 89 f8             	mov    %rdi,%rax
  40b063:	48 89 7d f0          	mov    %rdi,-0x10(%rbp)
  40b067:	48 89 c7             	mov    %rax,%rdi
  40b06a:	e8 21 00 00 00       	callq  40b090 <_ZNSaISt4pairISt6threadbEEC2Ev>
  40b06f:	48 8b 45 f0          	mov    -0x10(%rbp),%rax
  40b073:	48 c7 00 00 00 00 00 	movq   $0x0,(%rax)
  40b07a:	48 c7 40 08 00 00 00 	movq   $0x0,0x8(%rax)
  40b081:	00 
  40b082:	48 c7 40 10 00 00 00 	movq   $0x0,0x10(%rax)
  40b089:	00 
  40b08a:	48 83 c4 10          	add    $0x10,%rsp
  40b08e:	5d                   	pop    %rbp
  40b08f:	c3                   	retq   

000000000040b090 <_ZNSaISt4pairISt6threadbEEC2Ev>:
  40b090:	55                   	push   %rbp
  40b091:	48 89 e5             	mov    %rsp,%rbp
  40b094:	48 83 ec 10          	sub    $0x10,%rsp
  40b098:	48 89 7d f8          	mov    %rdi,-0x8(%rbp)
  40b09c:	48 8b 7d f8          	mov    -0x8(%rbp),%rdi
  40b0a0:	e8 0b 00 00 00       	callq  40b0b0 <_ZN9__gnu_cxx13new_allocatorISt4pairISt6threadbEEC2Ev>
  40b0a5:	48 83 c4 10          	add    $0x10,%rsp
  40b0a9:	5d                   	pop    %rbp
  40b0aa:	c3                   	retq   
  40b0ab:	0f 1f 44 00 00       	nopl   0x0(%rax,%rax,1)

000000000040b0b0 <_ZN9__gnu_cxx13new_allocatorISt4pairISt6threadbEEC2Ev>:
  40b0b0:	55                   	push   %rbp
  40b0b1:	48 89 e5             	mov    %rsp,%rbp
  40b0b4:	48 89 7d f8          	mov    %rdi,-0x8(%rbp)
  40b0b8:	5d                   	pop    %rbp
  40b0b9:	c3                   	retq   
  40b0ba:	66 0f 1f 44 00 00    	nopw   0x0(%rax,%rax,1)

000000000040b0c0 <_ZSt8_DestroyIPSt4pairISt6threadbES2_EvT_S4_RSaIT0_E>:
  40b0c0:	55                   	push   %rbp
  40b0c1:	48 89 e5             	mov    %rsp,%rbp
  40b0c4:	48 83 ec 20          	sub    $0x20,%rsp
  40b0c8:	48 89 7d f8          	mov    %rdi,-0x8(%rbp)
  40b0cc:	48 89 75 f0          	mov    %rsi,-0x10(%rbp)
  40b0d0:	48 89 55 e8          	mov    %rdx,-0x18(%rbp)
  40b0d4:	48 8b 7d f8          	mov    -0x8(%rbp),%rdi
  40b0d8:	48 8b 75 f0          	mov    -0x10(%rbp),%rsi
  40b0dc:	e8 8f 00 00 00       	callq  40b170 <_ZSt8_DestroyIPSt4pairISt6threadbEEvT_S4_>
  40b0e1:	48 83 c4 20          	add    $0x20,%rsp
  40b0e5:	5d                   	pop    %rbp
  40b0e6:	c3                   	retq   
  40b0e7:	66 0f 1f 84 00 00 00 	nopw   0x0(%rax,%rax,1)
  40b0ee:	00 00 

000000000040b0f0 <_ZNSt12_Vector_baseISt4pairISt6threadbESaIS2_EE19_M_get_Tp_allocatorEv>:
  40b0f0:	55                   	push   %rbp
  40b0f1:	48 89 e5             	mov    %rsp,%rbp
  40b0f4:	48 89 7d f8          	mov    %rdi,-0x8(%rbp)
  40b0f8:	48 8b 7d f8          	mov    -0x8(%rbp),%rdi
  40b0fc:	48 89 f8             	mov    %rdi,%rax
  40b0ff:	5d                   	pop    %rbp
  40b100:	c3                   	retq   
  40b101:	66 2e 0f 1f 84 00 00 	nopw   %cs:0x0(%rax,%rax,1)
  40b108:	00 00 00 
  40b10b:	0f 1f 44 00 00       	nopl   0x0(%rax,%rax,1)

000000000040b110 <_ZNSt12_Vector_baseISt4pairISt6threadbESaIS2_EED2Ev>:
  40b110:	55                   	push   %rbp
  40b111:	48 89 e5             	mov    %rsp,%rbp
  40b114:	48 83 ec 20          	sub    $0x20,%rsp
  40b118:	48 89 7d f8          	mov    %rdi,-0x8(%rbp)
  40b11c:	48 89 f8             	mov    %rdi,%rax
  40b11f:	48 8b 0f             	mov    (%rdi),%rcx
  40b122:	48 8b 57 10          	mov    0x10(%rdi),%rdx
  40b126:	48 29 ca             	sub    %rcx,%rdx
  40b129:	48 c1 fa 04          	sar    $0x4,%rdx
  40b12d:	48 89 ce             	mov    %rcx,%rsi
  40b130:	48 89 45 e0          	mov    %rax,-0x20(%rbp)
  40b134:	e8 f7 01 00 00       	callq  40b330 <_ZNSt12_Vector_baseISt4pairISt6threadbESaIS2_EE13_M_deallocateEPS2_m>
  40b139:	e9 00 00 00 00       	jmpq   40b13e <_ZNSt12_Vector_baseISt4pairISt6threadbESaIS2_EED2Ev+0x2e>
  40b13e:	48 8b 7d e0          	mov    -0x20(%rbp),%rdi
  40b142:	e8 39 02 00 00       	callq  40b380 <_ZNSt12_Vector_baseISt4pairISt6threadbESaIS2_EE12_Vector_implD2Ev>
  40b147:	48 83 c4 20          	add    $0x20,%rsp
  40b14b:	5d                   	pop    %rbp
  40b14c:	c3                   	retq   
  40b14d:	89 d1                	mov    %edx,%ecx
  40b14f:	48 89 45 f0          	mov    %rax,-0x10(%rbp)
  40b153:	89 4d ec             	mov    %ecx,-0x14(%rbp)
  40b156:	48 8b 7d e0          	mov    -0x20(%rbp),%rdi
  40b15a:	e8 21 02 00 00       	callq  40b380 <_ZNSt12_Vector_baseISt4pairISt6threadbESaIS2_EE12_Vector_implD2Ev>
  40b15f:	48 8b 7d f0          	mov    -0x10(%rbp),%rdi
  40b163:	e8 58 c3 ff ff       	callq  4074c0 <__clang_call_terminate>
  40b168:	0f 1f 84 00 00 00 00 	nopl   0x0(%rax,%rax,1)
  40b16f:	00 

000000000040b170 <_ZSt8_DestroyIPSt4pairISt6threadbEEvT_S4_>:
  40b170:	55                   	push   %rbp
  40b171:	48 89 e5             	mov    %rsp,%rbp
  40b174:	48 83 ec 10          	sub    $0x10,%rsp
  40b178:	48 89 7d f8          	mov    %rdi,-0x8(%rbp)
  40b17c:	48 89 75 f0          	mov    %rsi,-0x10(%rbp)
  40b180:	48 8b 7d f8          	mov    -0x8(%rbp),%rdi
  40b184:	48 8b 75 f0          	mov    -0x10(%rbp),%rsi
  40b188:	e8 13 00 00 00       	callq  40b1a0 <_ZNSt12_Destroy_auxILb0EE9__destroyIPSt4pairISt6threadbEEEvT_S6_>
  40b18d:	48 83 c4 10          	add    $0x10,%rsp
  40b191:	5d                   	pop    %rbp
  40b192:	c3                   	retq   
  40b193:	66 2e 0f 1f 84 00 00 	nopw   %cs:0x0(%rax,%rax,1)
  40b19a:	00 00 00 
  40b19d:	0f 1f 00             	nopl   (%rax)

000000000040b1a0 <_ZNSt12_Destroy_auxILb0EE9__destroyIPSt4pairISt6threadbEEEvT_S6_>:
  40b1a0:	55                   	push   %rbp
  40b1a1:	48 89 e5             	mov    %rsp,%rbp
  40b1a4:	48 83 ec 10          	sub    $0x10,%rsp
  40b1a8:	48 89 7d f8          	mov    %rdi,-0x8(%rbp)
  40b1ac:	48 89 75 f0          	mov    %rsi,-0x10(%rbp)
  40b1b0:	48 8b 45 f8          	mov    -0x8(%rbp),%rax
  40b1b4:	48 3b 45 f0          	cmp    -0x10(%rbp),%rax
  40b1b8:	0f 84 22 00 00 00    	je     40b1e0 <_ZNSt12_Destroy_auxILb0EE9__destroyIPSt4pairISt6threadbEEEvT_S6_+0x40>
  40b1be:	48 8b 7d f8          	mov    -0x8(%rbp),%rdi
  40b1c2:	e8 49 00 00 00       	callq  40b210 <_ZSt11__addressofISt4pairISt6threadbEEPT_RS3_>
  40b1c7:	48 89 c7             	mov    %rax,%rdi
  40b1ca:	e8 21 00 00 00       	callq  40b1f0 <_ZSt8_DestroyISt4pairISt6threadbEEvPT_>
  40b1cf:	48 8b 45 f8          	mov    -0x8(%rbp),%rax
  40b1d3:	48 83 c0 10          	add    $0x10,%rax
  40b1d7:	48 89 45 f8          	mov    %rax,-0x8(%rbp)
  40b1db:	e9 d0 ff ff ff       	jmpq   40b1b0 <_ZNSt12_Destroy_auxILb0EE9__destroyIPSt4pairISt6threadbEEEvT_S6_+0x10>
  40b1e0:	48 83 c4 10          	add    $0x10,%rsp
  40b1e4:	5d                   	pop    %rbp
  40b1e5:	c3                   	retq   
  40b1e6:	66 2e 0f 1f 84 00 00 	nopw   %cs:0x0(%rax,%rax,1)
  40b1ed:	00 00 00 

000000000040b1f0 <_ZSt8_DestroyISt4pairISt6threadbEEvPT_>:
  40b1f0:	55                   	push   %rbp
  40b1f1:	48 89 e5             	mov    %rsp,%rbp
  40b1f4:	48 83 ec 10          	sub    $0x10,%rsp
  40b1f8:	48 89 7d f8          	mov    %rdi,-0x8(%rbp)
  40b1fc:	48 8b 7d f8          	mov    -0x8(%rbp),%rdi
  40b200:	e8 2b 00 00 00       	callq  40b230 <_ZNSt4pairISt6threadbED2Ev>
  40b205:	48 83 c4 10          	add    $0x10,%rsp
  40b209:	5d                   	pop    %rbp
  40b20a:	c3                   	retq   
  40b20b:	0f 1f 44 00 00       	nopl   0x0(%rax,%rax,1)

000000000040b210 <_ZSt11__addressofISt4pairISt6threadbEEPT_RS3_>:
  40b210:	55                   	push   %rbp
  40b211:	48 89 e5             	mov    %rsp,%rbp
  40b214:	48 89 7d f8          	mov    %rdi,-0x8(%rbp)
  40b218:	48 8b 7d f8          	mov    -0x8(%rbp),%rdi
  40b21c:	48 89 f8             	mov    %rdi,%rax
  40b21f:	5d                   	pop    %rbp
  40b220:	c3                   	retq   
  40b221:	66 2e 0f 1f 84 00 00 	nopw   %cs:0x0(%rax,%rax,1)
  40b228:	00 00 00 
  40b22b:	0f 1f 44 00 00       	nopl   0x0(%rax,%rax,1)

000000000040b230 <_ZNSt4pairISt6threadbED2Ev>:
  40b230:	55                   	push   %rbp
  40b231:	48 89 e5             	mov    %rsp,%rbp
  40b234:	48 83 ec 10          	sub    $0x10,%rsp
  40b238:	48 89 7d f8          	mov    %rdi,-0x8(%rbp)
  40b23c:	48 8b 7d f8          	mov    -0x8(%rbp),%rdi
  40b240:	e8 0b 00 00 00       	callq  40b250 <_ZNSt6threadD2Ev>
  40b245:	48 83 c4 10          	add    $0x10,%rsp
  40b249:	5d                   	pop    %rbp
  40b24a:	c3                   	retq   
  40b24b:	0f 1f 44 00 00       	nopl   0x0(%rax,%rax,1)

000000000040b250 <_ZNSt6threadD2Ev>:
  40b250:	55                   	push   %rbp
  40b251:	48 89 e5             	mov    %rsp,%rbp
  40b254:	48 83 ec 10          	sub    $0x10,%rsp
  40b258:	48 89 7d f8          	mov    %rdi,-0x8(%rbp)
  40b25c:	48 8b 7d f8          	mov    -0x8(%rbp),%rdi
  40b260:	e8 1b 00 00 00       	callq  40b280 <_ZNKSt6thread8joinableEv>
  40b265:	a8 01                	test   $0x1,%al
  40b267:	0f 85 05 00 00 00    	jne    40b272 <_ZNSt6threadD2Ev+0x22>
  40b26d:	e9 05 00 00 00       	jmpq   40b277 <_ZNSt6threadD2Ev+0x27>
  40b272:	e8 b9 78 ff ff       	callq  402b30 <_ZSt9terminatev@plt>
  40b277:	48 83 c4 10          	add    $0x10,%rsp
  40b27b:	5d                   	pop    %rbp
  40b27c:	c3                   	retq   
  40b27d:	0f 1f 00             	nopl   (%rax)

000000000040b280 <_ZNKSt6thread8joinableEv>:
  40b280:	55                   	push   %rbp
  40b281:	48 89 e5             	mov    %rsp,%rbp
  40b284:	48 83 ec 20          	sub    $0x20,%rsp
  40b288:	48 8d 45 e8          	lea    -0x18(%rbp),%rax
  40b28c:	48 89 7d f8          	mov    %rdi,-0x8(%rbp)
  40b290:	48 8b 7d f8          	mov    -0x8(%rbp),%rdi
  40b294:	48 8b 3f             	mov    (%rdi),%rdi
  40b297:	48 89 7d f0          	mov    %rdi,-0x10(%rbp)
  40b29b:	48 89 c7             	mov    %rax,%rdi
  40b29e:	e8 6d 00 00 00       	callq  40b310 <_ZNSt6thread2idC2Ev>
  40b2a3:	48 8b 7d f0          	mov    -0x10(%rbp),%rdi
  40b2a7:	48 8b 75 e8          	mov    -0x18(%rbp),%rsi
  40b2ab:	e8 10 00 00 00       	callq  40b2c0 <_ZSteqNSt6thread2idES0_>
  40b2b0:	34 ff                	xor    $0xff,%al
  40b2b2:	24 01                	and    $0x1,%al
  40b2b4:	0f b6 c0             	movzbl %al,%eax
  40b2b7:	48 83 c4 20          	add    $0x20,%rsp
  40b2bb:	5d                   	pop    %rbp
  40b2bc:	c3                   	retq   
  40b2bd:	0f 1f 00             	nopl   (%rax)

000000000040b2c0 <_ZSteqNSt6thread2idES0_>:
  40b2c0:	55                   	push   %rbp
  40b2c1:	48 89 e5             	mov    %rsp,%rbp
  40b2c4:	48 83 ec 20          	sub    $0x20,%rsp
  40b2c8:	48 89 7d f8          	mov    %rdi,-0x8(%rbp)
  40b2cc:	48 89 75 f0          	mov    %rsi,-0x10(%rbp)
  40b2d0:	48 8b 7d f8          	mov    -0x8(%rbp),%rdi
  40b2d4:	e8 c7 95 ff ff       	callq  4048a0 <_ZL15__gthread_equalmm>
  40b2d9:	89 45 ec             	mov    %eax,-0x14(%rbp)
  40b2dc:	e9 00 00 00 00       	jmpq   40b2e1 <_ZSteqNSt6thread2idES0_+0x21>
  40b2e1:	8b 45 ec             	mov    -0x14(%rbp),%eax
  40b2e4:	83 f8 00             	cmp    $0x0,%eax
  40b2e7:	0f 95 c1             	setne  %cl
  40b2ea:	80 e1 01             	and    $0x1,%cl
  40b2ed:	0f b6 c1             	movzbl %cl,%eax
  40b2f0:	48 83 c4 20          	add    $0x20,%rsp
  40b2f4:	5d                   	pop    %rbp
  40b2f5:	c3                   	retq   
  40b2f6:	89 d1                	mov    %edx,%ecx
  40b2f8:	48 89 c7             	mov    %rax,%rdi
  40b2fb:	89 4d e8             	mov    %ecx,-0x18(%rbp)
  40b2fe:	e8 bd c1 ff ff       	callq  4074c0 <__clang_call_terminate>
  40b303:	66 2e 0f 1f 84 00 00 	nopw   %cs:0x0(%rax,%rax,1)
  40b30a:	00 00 00 
  40b30d:	0f 1f 00             	nopl   (%rax)

000000000040b310 <_ZNSt6thread2idC2Ev>:
  40b310:	55                   	push   %rbp
  40b311:	48 89 e5             	mov    %rsp,%rbp
  40b314:	48 89 7d f8          	mov    %rdi,-0x8(%rbp)
  40b318:	48 8b 7d f8          	mov    -0x8(%rbp),%rdi
  40b31c:	48 c7 07 00 00 00 00 	movq   $0x0,(%rdi)
  40b323:	5d                   	pop    %rbp
  40b324:	c3                   	retq   
  40b325:	66 2e 0f 1f 84 00 00 	nopw   %cs:0x0(%rax,%rax,1)
  40b32c:	00 00 00 
  40b32f:	90                   	nop

000000000040b330 <_ZNSt12_Vector_baseISt4pairISt6threadbESaIS2_EE13_M_deallocateEPS2_m>:
  40b330:	55                   	push   %rbp
  40b331:	48 89 e5             	mov    %rsp,%rbp
  40b334:	48 83 ec 20          	sub    $0x20,%rsp
  40b338:	48 89 7d f8          	mov    %rdi,-0x8(%rbp)
  40b33c:	48 89 75 f0          	mov    %rsi,-0x10(%rbp)
  40b340:	48 89 55 e8          	mov    %rdx,-0x18(%rbp)
  40b344:	48 8b 55 f8          	mov    -0x8(%rbp),%rdx
  40b348:	48 83 7d f0 00       	cmpq   $0x0,-0x10(%rbp)
  40b34d:	48 89 55 e0          	mov    %rdx,-0x20(%rbp)
  40b351:	0f 84 14 00 00 00    	je     40b36b <_ZNSt12_Vector_baseISt4pairISt6threadbESaIS2_EE13_M_deallocateEPS2_m+0x3b>
  40b357:	48 8b 45 e0          	mov    -0x20(%rbp),%rax
  40b35b:	48 8b 75 f0          	mov    -0x10(%rbp),%rsi
  40b35f:	48 8b 55 e8          	mov    -0x18(%rbp),%rdx
  40b363:	48 89 c7             	mov    %rax,%rdi
  40b366:	e8 35 00 00 00       	callq  40b3a0 <_ZNSt16allocator_traitsISaISt4pairISt6threadbEEE10deallocateERS3_PS2_m>
  40b36b:	48 83 c4 20          	add    $0x20,%rsp
  40b36f:	5d                   	pop    %rbp
  40b370:	c3                   	retq   
  40b371:	66 2e 0f 1f 84 00 00 	nopw   %cs:0x0(%rax,%rax,1)
  40b378:	00 00 00 
  40b37b:	0f 1f 44 00 00       	nopl   0x0(%rax,%rax,1)

000000000040b380 <_ZNSt12_Vector_baseISt4pairISt6threadbESaIS2_EE12_Vector_implD2Ev>:
  40b380:	55                   	push   %rbp
  40b381:	48 89 e5             	mov    %rsp,%rbp
  40b384:	48 83 ec 10          	sub    $0x10,%rsp
  40b388:	48 89 7d f8          	mov    %rdi,-0x8(%rbp)
  40b38c:	48 8b 7d f8          	mov    -0x8(%rbp),%rdi
  40b390:	e8 7b 00 00 00       	callq  40b410 <_ZNSaISt4pairISt6threadbEED2Ev>
  40b395:	48 83 c4 10          	add    $0x10,%rsp
  40b399:	5d                   	pop    %rbp
  40b39a:	c3                   	retq   
  40b39b:	0f 1f 44 00 00       	nopl   0x0(%rax,%rax,1)

000000000040b3a0 <_ZNSt16allocator_traitsISaISt4pairISt6threadbEEE10deallocateERS3_PS2_m>:
  40b3a0:	55                   	push   %rbp
  40b3a1:	48 89 e5             	mov    %rsp,%rbp
  40b3a4:	48 83 ec 20          	sub    $0x20,%rsp
  40b3a8:	48 89 7d f8          	mov    %rdi,-0x8(%rbp)
  40b3ac:	48 89 75 f0          	mov    %rsi,-0x10(%rbp)
  40b3b0:	48 89 55 e8          	mov    %rdx,-0x18(%rbp)
  40b3b4:	48 8b 55 f8          	mov    -0x8(%rbp),%rdx
  40b3b8:	48 8b 75 f0          	mov    -0x10(%rbp),%rsi
  40b3bc:	48 8b 7d e8          	mov    -0x18(%rbp),%rdi
  40b3c0:	48 89 7d e0          	mov    %rdi,-0x20(%rbp)
  40b3c4:	48 89 d7             	mov    %rdx,%rdi
  40b3c7:	48 8b 55 e0          	mov    -0x20(%rbp),%rdx
  40b3cb:	e8 10 00 00 00       	callq  40b3e0 <_ZN9__gnu_cxx13new_allocatorISt4pairISt6threadbEE10deallocateEPS3_m>
  40b3d0:	48 83 c4 20          	add    $0x20,%rsp
  40b3d4:	5d                   	pop    %rbp
  40b3d5:	c3                   	retq   
  40b3d6:	66 2e 0f 1f 84 00 00 	nopw   %cs:0x0(%rax,%rax,1)
  40b3dd:	00 00 00 

000000000040b3e0 <_ZN9__gnu_cxx13new_allocatorISt4pairISt6threadbEE10deallocateEPS3_m>:
  40b3e0:	55                   	push   %rbp
  40b3e1:	48 89 e5             	mov    %rsp,%rbp
  40b3e4:	48 83 ec 20          	sub    $0x20,%rsp
  40b3e8:	48 89 7d f8          	mov    %rdi,-0x8(%rbp)
  40b3ec:	48 89 75 f0          	mov    %rsi,-0x10(%rbp)
  40b3f0:	48 89 55 e8          	mov    %rdx,-0x18(%rbp)
  40b3f4:	48 8b 55 f0          	mov    -0x10(%rbp),%rdx
  40b3f8:	48 89 d7             	mov    %rdx,%rdi
  40b3fb:	e8 90 79 ff ff       	callq  402d90 <_ZdlPv@plt>
  40b400:	48 83 c4 20          	add    $0x20,%rsp
  40b404:	5d                   	pop    %rbp
  40b405:	c3                   	retq   
  40b406:	66 2e 0f 1f 84 00 00 	nopw   %cs:0x0(%rax,%rax,1)
  40b40d:	00 00 00 

000000000040b410 <_ZNSaISt4pairISt6threadbEED2Ev>:
  40b410:	55                   	push   %rbp
  40b411:	48 89 e5             	mov    %rsp,%rbp
  40b414:	48 83 ec 10          	sub    $0x10,%rsp
  40b418:	48 89 7d f8          	mov    %rdi,-0x8(%rbp)
  40b41c:	48 8b 7d f8          	mov    -0x8(%rbp),%rdi
  40b420:	e8 0b 00 00 00       	callq  40b430 <_ZN9__gnu_cxx13new_allocatorISt4pairISt6threadbEED2Ev>
  40b425:	48 83 c4 10          	add    $0x10,%rsp
  40b429:	5d                   	pop    %rbp
  40b42a:	c3                   	retq   
  40b42b:	0f 1f 44 00 00       	nopl   0x0(%rax,%rax,1)

000000000040b430 <_ZN9__gnu_cxx13new_allocatorISt4pairISt6threadbEED2Ev>:
  40b430:	55                   	push   %rbp
  40b431:	48 89 e5             	mov    %rsp,%rbp
  40b434:	48 89 7d f8          	mov    %rdi,-0x8(%rbp)
  40b438:	5d                   	pop    %rbp
  40b439:	c3                   	retq   
  40b43a:	66 0f 1f 44 00 00    	nopw   0x0(%rax,%rax,1)

000000000040b440 <_ZNSt5mutex4lockEv>:
  40b440:	55                   	push   %rbp
  40b441:	48 89 e5             	mov    %rsp,%rbp
  40b444:	48 83 ec 10          	sub    $0x10,%rsp
  40b448:	48 89 7d f8          	mov    %rdi,-0x8(%rbp)
  40b44c:	48 8b 7d f8          	mov    -0x8(%rbp),%rdi
  40b450:	e8 7b 94 ff ff       	callq  4048d0 <_ZL20__gthread_mutex_lockP15pthread_mutex_t>
  40b455:	89 45 f4             	mov    %eax,-0xc(%rbp)
  40b458:	83 7d f4 00          	cmpl   $0x0,-0xc(%rbp)
  40b45c:	0f 84 08 00 00 00    	je     40b46a <_ZNSt5mutex4lockEv+0x2a>
  40b462:	8b 7d f4             	mov    -0xc(%rbp),%edi
  40b465:	e8 16 78 ff ff       	callq  402c80 <_ZSt20__throw_system_errori@plt>
  40b46a:	48 83 c4 10          	add    $0x10,%rsp
  40b46e:	5d                   	pop    %rbp
  40b46f:	c3                   	retq   

000000000040b470 <_ZNSt5mutex6unlockEv>:
  40b470:	55                   	push   %rbp
  40b471:	48 89 e5             	mov    %rsp,%rbp
  40b474:	48 83 ec 10          	sub    $0x10,%rsp
  40b478:	48 89 7d f8          	mov    %rdi,-0x8(%rbp)
  40b47c:	48 8b 7d f8          	mov    -0x8(%rbp),%rdi
  40b480:	e8 ab 94 ff ff       	callq  404930 <_ZL22__gthread_mutex_unlockP15pthread_mutex_t>
  40b485:	89 45 f4             	mov    %eax,-0xc(%rbp)
  40b488:	48 83 c4 10          	add    $0x10,%rsp
  40b48c:	5d                   	pop    %rbp
  40b48d:	c3                   	retq   
  40b48e:	66 90                	xchg   %ax,%ax

000000000040b490 <_ZN9__gnu_cxx17__normal_iteratorIPSt4pairISt6threadbESt6vectorIS3_SaIS3_EEEC2ERKS4_>:
  40b490:	55                   	push   %rbp
  40b491:	48 89 e5             	mov    %rsp,%rbp
  40b494:	48 89 7d f8          	mov    %rdi,-0x8(%rbp)
  40b498:	48 89 75 f0          	mov    %rsi,-0x10(%rbp)
  40b49c:	48 8b 75 f8          	mov    -0x8(%rbp),%rsi
  40b4a0:	48 8b 7d f0          	mov    -0x10(%rbp),%rdi
  40b4a4:	48 8b 3f             	mov    (%rdi),%rdi
  40b4a7:	48 89 3e             	mov    %rdi,(%rsi)
  40b4aa:	5d                   	pop    %rbp
  40b4ab:	c3                   	retq   
  40b4ac:	0f 1f 40 00          	nopl   0x0(%rax)

000000000040b4b0 <_ZNK9__gnu_cxx17__normal_iteratorIPSt4pairISt6threadbESt6vectorIS3_SaIS3_EEE4baseEv>:
  40b4b0:	55                   	push   %rbp
  40b4b1:	48 89 e5             	mov    %rsp,%rbp
  40b4b4:	48 89 7d f8          	mov    %rdi,-0x8(%rbp)
  40b4b8:	48 8b 45 f8          	mov    -0x8(%rbp),%rax
  40b4bc:	5d                   	pop    %rbp
  40b4bd:	c3                   	retq   
  40b4be:	66 90                	xchg   %ax,%ax

000000000040b4c0 <_ZSt7forwardIbEOT_RNSt16remove_referenceIS0_E4typeE>:
  40b4c0:	55                   	push   %rbp
  40b4c1:	48 89 e5             	mov    %rsp,%rbp
  40b4c4:	48 89 7d f8          	mov    %rdi,-0x8(%rbp)
  40b4c8:	48 8b 45 f8          	mov    -0x8(%rbp),%rax
  40b4cc:	5d                   	pop    %rbp
  40b4cd:	c3                   	retq   
  40b4ce:	66 90                	xchg   %ax,%ax

000000000040b4d0 <_ZNSt5tupleIJObEEC2IJbEvEEDpOT_>:
  40b4d0:	55                   	push   %rbp
  40b4d1:	48 89 e5             	mov    %rsp,%rbp
  40b4d4:	48 83 ec 20          	sub    $0x20,%rsp
  40b4d8:	48 89 7d f8          	mov    %rdi,-0x8(%rbp)
  40b4dc:	48 89 75 f0          	mov    %rsi,-0x10(%rbp)
  40b4e0:	48 8b 75 f8          	mov    -0x8(%rbp),%rsi
  40b4e4:	48 8b 7d f0          	mov    -0x10(%rbp),%rdi
  40b4e8:	48 89 75 e8          	mov    %rsi,-0x18(%rbp)
  40b4ec:	e8 cf ff ff ff       	callq  40b4c0 <_ZSt7forwardIbEOT_RNSt16remove_referenceIS0_E4typeE>
  40b4f1:	48 8b 7d e8          	mov    -0x18(%rbp),%rdi
  40b4f5:	48 89 c6             	mov    %rax,%rsi
  40b4f8:	e8 13 00 00 00       	callq  40b510 <_ZNSt11_Tuple_implILm0EJObEEC2IbEEOT_>
  40b4fd:	48 83 c4 20          	add    $0x20,%rsp
  40b501:	5d                   	pop    %rbp
  40b502:	c3                   	retq   
  40b503:	66 2e 0f 1f 84 00 00 	nopw   %cs:0x0(%rax,%rax,1)
  40b50a:	00 00 00 
  40b50d:	0f 1f 00             	nopl   (%rax)

000000000040b510 <_ZNSt11_Tuple_implILm0EJObEEC2IbEEOT_>:
  40b510:	55                   	push   %rbp
  40b511:	48 89 e5             	mov    %rsp,%rbp
  40b514:	48 83 ec 20          	sub    $0x20,%rsp
  40b518:	48 89 7d f8          	mov    %rdi,-0x8(%rbp)
  40b51c:	48 89 75 f0          	mov    %rsi,-0x10(%rbp)
  40b520:	48 8b 75 f8          	mov    -0x8(%rbp),%rsi
  40b524:	48 8b 7d f0          	mov    -0x10(%rbp),%rdi
  40b528:	48 89 75 e8          	mov    %rsi,-0x18(%rbp)
  40b52c:	e8 8f ff ff ff       	callq  40b4c0 <_ZSt7forwardIbEOT_RNSt16remove_referenceIS0_E4typeE>
  40b531:	48 8b 7d e8          	mov    -0x18(%rbp),%rdi
  40b535:	48 89 c6             	mov    %rax,%rsi
  40b538:	e8 13 00 00 00       	callq  40b550 <_ZNSt10_Head_baseILm0EObLb0EEC2IbEEOT_>
  40b53d:	48 83 c4 20          	add    $0x20,%rsp
  40b541:	5d                   	pop    %rbp
  40b542:	c3                   	retq   
  40b543:	66 2e 0f 1f 84 00 00 	nopw   %cs:0x0(%rax,%rax,1)
  40b54a:	00 00 00 
  40b54d:	0f 1f 00             	nopl   (%rax)

000000000040b550 <_ZNSt10_Head_baseILm0EObLb0EEC2IbEEOT_>:
  40b550:	55                   	push   %rbp
  40b551:	48 89 e5             	mov    %rsp,%rbp
  40b554:	48 83 ec 20          	sub    $0x20,%rsp
  40b558:	48 89 7d f8          	mov    %rdi,-0x8(%rbp)
  40b55c:	48 89 75 f0          	mov    %rsi,-0x10(%rbp)
  40b560:	48 8b 75 f8          	mov    -0x8(%rbp),%rsi
  40b564:	48 8b 7d f0          	mov    -0x10(%rbp),%rdi
  40b568:	48 89 75 e8          	mov    %rsi,-0x18(%rbp)
  40b56c:	e8 4f ff ff ff       	callq  40b4c0 <_ZSt7forwardIbEOT_RNSt16remove_referenceIS0_E4typeE>
  40b571:	48 8b 75 e8          	mov    -0x18(%rbp),%rsi
  40b575:	48 89 06             	mov    %rax,(%rsi)
  40b578:	48 83 c4 20          	add    $0x20,%rsp
  40b57c:	5d                   	pop    %rbp
  40b57d:	c3                   	retq   
  40b57e:	66 90                	xchg   %ax,%ax

000000000040b580 <_ZSt7forwardISt5tupleIJObEEEOT_RNSt16remove_referenceIS3_E4typeE>:
  40b580:	55                   	push   %rbp
  40b581:	48 89 e5             	mov    %rsp,%rbp
  40b584:	48 89 7d f8          	mov    %rdi,-0x8(%rbp)
  40b588:	48 8b 45 f8          	mov    -0x8(%rbp),%rax
  40b58c:	5d                   	pop    %rbp
  40b58d:	c3                   	retq   
  40b58e:	66 90                	xchg   %ax,%ax

000000000040b590 <_ZNSt5tupleIJObEEC2EOS1_>:
  40b590:	55                   	push   %rbp
  40b591:	48 89 e5             	mov    %rsp,%rbp
  40b594:	48 83 ec 20          	sub    $0x20,%rsp
  40b598:	48 89 7d f8          	mov    %rdi,-0x8(%rbp)
  40b59c:	48 89 75 f0          	mov    %rsi,-0x10(%rbp)
  40b5a0:	48 8b 75 f8          	mov    -0x8(%rbp),%rsi
  40b5a4:	48 8b 7d f0          	mov    -0x10(%rbp),%rdi
  40b5a8:	48 89 7d e8          	mov    %rdi,-0x18(%rbp)
  40b5ac:	48 89 f7             	mov    %rsi,%rdi
  40b5af:	48 8b 75 e8          	mov    -0x18(%rbp),%rsi
  40b5b3:	e8 08 00 00 00       	callq  40b5c0 <_ZNSt11_Tuple_implILm0EJObEEC2EOS1_>
  40b5b8:	48 83 c4 20          	add    $0x20,%rsp
  40b5bc:	5d                   	pop    %rbp
  40b5bd:	c3                   	retq   
  40b5be:	66 90                	xchg   %ax,%ax

000000000040b5c0 <_ZNSt11_Tuple_implILm0EJObEEC2EOS1_>:
  40b5c0:	55                   	push   %rbp
  40b5c1:	48 89 e5             	mov    %rsp,%rbp
  40b5c4:	48 83 ec 20          	sub    $0x20,%rsp
  40b5c8:	48 89 7d f8          	mov    %rdi,-0x8(%rbp)
  40b5cc:	48 89 75 f0          	mov    %rsi,-0x10(%rbp)
  40b5d0:	48 8b 7d f8          	mov    -0x8(%rbp),%rdi
  40b5d4:	48 89 7d e8          	mov    %rdi,-0x18(%rbp)
  40b5d8:	48 89 f7             	mov    %rsi,%rdi
  40b5db:	e8 40 00 00 00       	callq  40b620 <_ZNSt11_Tuple_implILm0EJObEE7_M_headERS1_>
  40b5e0:	48 89 c7             	mov    %rax,%rdi
  40b5e3:	e8 28 00 00 00       	callq  40b610 <_ZSt7forwardIObEOT_RNSt16remove_referenceIS1_E4typeE>
  40b5e8:	48 8b 7d e8          	mov    -0x18(%rbp),%rdi
  40b5ec:	48 89 c6             	mov    %rax,%rsi
  40b5ef:	e8 5c ff ff ff       	callq  40b550 <_ZNSt10_Head_baseILm0EObLb0EEC2IbEEOT_>
  40b5f4:	e9 00 00 00 00       	jmpq   40b5f9 <_ZNSt11_Tuple_implILm0EJObEEC2EOS1_+0x39>
  40b5f9:	48 83 c4 20          	add    $0x20,%rsp
  40b5fd:	5d                   	pop    %rbp
  40b5fe:	c3                   	retq   
  40b5ff:	89 d1                	mov    %edx,%ecx
  40b601:	48 89 c7             	mov    %rax,%rdi
  40b604:	89 4d e4             	mov    %ecx,-0x1c(%rbp)
  40b607:	e8 b4 be ff ff       	callq  4074c0 <__clang_call_terminate>
  40b60c:	0f 1f 40 00          	nopl   0x0(%rax)

000000000040b610 <_ZSt7forwardIObEOT_RNSt16remove_referenceIS1_E4typeE>:
  40b610:	55                   	push   %rbp
  40b611:	48 89 e5             	mov    %rsp,%rbp
  40b614:	48 89 7d f8          	mov    %rdi,-0x8(%rbp)
  40b618:	48 8b 45 f8          	mov    -0x8(%rbp),%rax
  40b61c:	5d                   	pop    %rbp
  40b61d:	c3                   	retq   
  40b61e:	66 90                	xchg   %ax,%ax

000000000040b620 <_ZNSt11_Tuple_implILm0EJObEE7_M_headERS1_>:
  40b620:	55                   	push   %rbp
  40b621:	48 89 e5             	mov    %rsp,%rbp
  40b624:	48 83 ec 10          	sub    $0x10,%rsp
  40b628:	48 89 7d f8          	mov    %rdi,-0x8(%rbp)
  40b62c:	48 8b 7d f8          	mov    -0x8(%rbp),%rdi
  40b630:	e8 0b 00 00 00       	callq  40b640 <_ZNSt10_Head_baseILm0EObLb0EE7_M_headERS1_>
  40b635:	48 83 c4 10          	add    $0x10,%rsp
  40b639:	5d                   	pop    %rbp
  40b63a:	c3                   	retq   
  40b63b:	0f 1f 44 00 00       	nopl   0x0(%rax,%rax,1)

000000000040b640 <_ZNSt10_Head_baseILm0EObLb0EE7_M_headERS1_>:
  40b640:	55                   	push   %rbp
  40b641:	48 89 e5             	mov    %rsp,%rbp
  40b644:	48 89 7d f8          	mov    %rdi,-0x8(%rbp)
  40b648:	48 8b 7d f8          	mov    -0x8(%rbp),%rdi
  40b64c:	48 8b 07             	mov    (%rdi),%rax
  40b64f:	5d                   	pop    %rbp
  40b650:	c3                   	retq   
  40b651:	66 2e 0f 1f 84 00 00 	nopw   %cs:0x0(%rax,%rax,1)
  40b658:	00 00 00 
  40b65b:	0f 1f 44 00 00       	nopl   0x0(%rax,%rax,1)

000000000040b660 <_ZSt3getILm0EJObEERNSt13tuple_elementIXT_ESt5tupleIJDpT0_EEE4typeERS5_>:
  40b660:	55                   	push   %rbp
  40b661:	48 89 e5             	mov    %rsp,%rbp
  40b664:	48 83 ec 10          	sub    $0x10,%rsp
  40b668:	48 89 7d f8          	mov    %rdi,-0x8(%rbp)
  40b66c:	48 8b 7d f8          	mov    -0x8(%rbp),%rdi
  40b670:	e8 fb 04 00 00       	callq  40bb70 <_ZSt12__get_helperILm0EObJEERT0_RSt11_Tuple_implIXT_EJS1_DpT1_EE>
  40b675:	48 83 c4 10          	add    $0x10,%rsp
  40b679:	5d                   	pop    %rbp
  40b67a:	c3                   	retq   
  40b67b:	0f 1f 44 00 00       	nopl   0x0(%rax,%rax,1)

000000000040b680 <_ZNSt10shared_ptrINSt6thread10_Impl_baseEED2Ev>:
  40b680:	55                   	push   %rbp
  40b681:	48 89 e5             	mov    %rsp,%rbp
  40b684:	48 83 ec 10          	sub    $0x10,%rsp
  40b688:	48 89 7d f8          	mov    %rdi,-0x8(%rbp)
  40b68c:	48 8b 7d f8          	mov    -0x8(%rbp),%rdi
  40b690:	e8 eb 03 00 00       	callq  40ba80 <_ZNSt12__shared_ptrINSt6thread10_Impl_baseELN9__gnu_cxx12_Lock_policyE2EED2Ev>
  40b695:	48 83 c4 10          	add    $0x10,%rsp
  40b699:	5d                   	pop    %rbp
  40b69a:	c3                   	retq   
  40b69b:	0f 1f 44 00 00       	nopl   0x0(%rax,%rax,1)

000000000040b6a0 <_ZNKSt14__shared_countILN9__gnu_cxx12_Lock_policyE2EE14_M_get_deleterERKSt9type_info>:
  40b6a0:	55                   	push   %rbp
  40b6a1:	48 89 e5             	mov    %rsp,%rbp
  40b6a4:	48 83 ec 20          	sub    $0x20,%rsp
  40b6a8:	48 89 7d f8          	mov    %rdi,-0x8(%rbp)
  40b6ac:	48 89 75 f0          	mov    %rsi,-0x10(%rbp)
  40b6b0:	48 8b 75 f8          	mov    -0x8(%rbp),%rsi
  40b6b4:	48 83 3e 00          	cmpq   $0x0,(%rsi)
  40b6b8:	48 89 75 e8          	mov    %rsi,-0x18(%rbp)
  40b6bc:	0f 84 20 00 00 00    	je     40b6e2 <_ZNKSt14__shared_countILN9__gnu_cxx12_Lock_policyE2EE14_M_get_deleterERKSt9type_info+0x42>
  40b6c2:	48 8b 45 e8          	mov    -0x18(%rbp),%rax
  40b6c6:	48 8b 08             	mov    (%rax),%rcx
  40b6c9:	48 8b 11             	mov    (%rcx),%rdx
  40b6cc:	48 8b 52 20          	mov    0x20(%rdx),%rdx
  40b6d0:	48 8b 75 f0          	mov    -0x10(%rbp),%rsi
  40b6d4:	48 89 cf             	mov    %rcx,%rdi
  40b6d7:	ff d2                	callq  *%rdx
  40b6d9:	48 89 45 e0          	mov    %rax,-0x20(%rbp)
  40b6dd:	e9 0d 00 00 00       	jmpq   40b6ef <_ZNKSt14__shared_countILN9__gnu_cxx12_Lock_policyE2EE14_M_get_deleterERKSt9type_info+0x4f>
  40b6e2:	31 c0                	xor    %eax,%eax
  40b6e4:	89 c1                	mov    %eax,%ecx
  40b6e6:	48 89 4d e0          	mov    %rcx,-0x20(%rbp)
  40b6ea:	e9 00 00 00 00       	jmpq   40b6ef <_ZNKSt14__shared_countILN9__gnu_cxx12_Lock_policyE2EE14_M_get_deleterERKSt9type_info+0x4f>
  40b6ef:	48 8b 45 e0          	mov    -0x20(%rbp),%rax
  40b6f3:	48 83 c4 20          	add    $0x20,%rsp
  40b6f7:	5d                   	pop    %rbp
  40b6f8:	c3                   	retq   
  40b6f9:	0f 1f 80 00 00 00 00 	nopl   0x0(%rax)

000000000040b700 <_ZSt32__enable_shared_from_this_helperILN9__gnu_cxx12_Lock_policyE2EEvRKSt14__shared_countIXT_EEz>:
  40b700:	55                   	push   %rbp
  40b701:	48 89 e5             	mov    %rsp,%rbp
  40b704:	48 89 7d f8          	mov    %rdi,-0x8(%rbp)
  40b708:	5d                   	pop    %rbp
  40b709:	c3                   	retq   
  40b70a:	66 0f 1f 44 00 00    	nopw   0x0(%rax,%rax,1)

000000000040b710 <_ZNSt16_Sp_counted_baseILN9__gnu_cxx12_Lock_policyE2EEC2Ev>:
  40b710:	55                   	push   %rbp
  40b711:	48 89 e5             	mov    %rsp,%rbp
  40b714:	48 b8 08 f0 40 00 00 	movabs $0x40f008,%rax
  40b71b:	00 00 00 
  40b71e:	48 83 c0 10          	add    $0x10,%rax
  40b722:	48 89 7d f8          	mov    %rdi,-0x8(%rbp)
  40b726:	48 8b 7d f8          	mov    -0x8(%rbp),%rdi
  40b72a:	48 89 07             	mov    %rax,(%rdi)
  40b72d:	c7 47 08 01 00 00 00 	movl   $0x1,0x8(%rdi)
  40b734:	c7 47 0c 01 00 00 00 	movl   $0x1,0xc(%rdi)
  40b73b:	5d                   	pop    %rbp
  40b73c:	c3                   	retq   
  40b73d:	0f 1f 00             	nopl   (%rax)

000000000040b740 <_ZNSt16_Sp_counted_baseILN9__gnu_cxx12_Lock_policyE2EED2Ev>:
  40b740:	55                   	push   %rbp
  40b741:	48 89 e5             	mov    %rsp,%rbp
  40b744:	48 89 7d f8          	mov    %rdi,-0x8(%rbp)
  40b748:	5d                   	pop    %rbp
  40b749:	c3                   	retq   
  40b74a:	66 0f 1f 44 00 00    	nopw   0x0(%rax,%rax,1)

000000000040b750 <_ZNSt16_Sp_counted_baseILN9__gnu_cxx12_Lock_policyE2EED0Ev>:
  40b750:	55                   	push   %rbp
  40b751:	48 89 e5             	mov    %rsp,%rbp
  40b754:	48 83 ec 10          	sub    $0x10,%rsp
  40b758:	48 89 7d f8          	mov    %rdi,-0x8(%rbp)
  40b75c:	48 8b 7d f8          	mov    -0x8(%rbp),%rdi
  40b760:	48 89 7d f0          	mov    %rdi,-0x10(%rbp)
  40b764:	e8 d7 ff ff ff       	callq  40b740 <_ZNSt16_Sp_counted_baseILN9__gnu_cxx12_Lock_policyE2EED2Ev>
  40b769:	48 8b 7d f0          	mov    -0x10(%rbp),%rdi
  40b76d:	e8 1e 76 ff ff       	callq  402d90 <_ZdlPv@plt>
  40b772:	48 83 c4 10          	add    $0x10,%rsp
  40b776:	5d                   	pop    %rbp
  40b777:	c3                   	retq   
  40b778:	0f 1f 84 00 00 00 00 	nopl   0x0(%rax,%rax,1)
  40b77f:	00 

000000000040b780 <_ZNSt16_Sp_counted_baseILN9__gnu_cxx12_Lock_policyE2EE10_M_destroyEv>:
  40b780:	55                   	push   %rbp
  40b781:	48 89 e5             	mov    %rsp,%rbp
  40b784:	48 83 ec 10          	sub    $0x10,%rsp
  40b788:	48 89 7d f8          	mov    %rdi,-0x8(%rbp)
  40b78c:	48 8b 7d f8          	mov    -0x8(%rbp),%rdi
  40b790:	48 83 ff 00          	cmp    $0x0,%rdi
  40b794:	48 89 7d f0          	mov    %rdi,-0x10(%rbp)
  40b798:	0f 84 0d 00 00 00    	je     40b7ab <_ZNSt16_Sp_counted_baseILN9__gnu_cxx12_Lock_policyE2EE10_M_destroyEv+0x2b>
  40b79e:	48 8b 45 f0          	mov    -0x10(%rbp),%rax
  40b7a2:	48 8b 08             	mov    (%rax),%rcx
  40b7a5:	48 89 c7             	mov    %rax,%rdi
  40b7a8:	ff 51 08             	callq  *0x8(%rcx)
  40b7ab:	48 83 c4 10          	add    $0x10,%rsp
  40b7af:	5d                   	pop    %rbp
  40b7b0:	c3                   	retq   
  40b7b1:	66 2e 0f 1f 84 00 00 	nopw   %cs:0x0(%rax,%rax,1)
  40b7b8:	00 00 00 
  40b7bb:	0f 1f 44 00 00       	nopl   0x0(%rax,%rax,1)

000000000040b7c0 <_ZNSt6thread10_Impl_baseC2Ev>:
  40b7c0:	55                   	push   %rbp
  40b7c1:	48 89 e5             	mov    %rsp,%rbp
  40b7c4:	48 83 ec 10          	sub    $0x10,%rsp
  40b7c8:	48 b8 68 f0 40 00 00 	movabs $0x40f068,%rax
  40b7cf:	00 00 00 
  40b7d2:	48 83 c0 10          	add    $0x10,%rax
  40b7d6:	48 89 7d f8          	mov    %rdi,-0x8(%rbp)
  40b7da:	48 8b 7d f8          	mov    -0x8(%rbp),%rdi
  40b7de:	48 89 07             	mov    %rax,(%rdi)
  40b7e1:	48 83 c7 08          	add    $0x8,%rdi
  40b7e5:	e8 06 00 00 00       	callq  40b7f0 <_ZNSt10shared_ptrINSt6thread10_Impl_baseEEC2Ev>
  40b7ea:	48 83 c4 10          	add    $0x10,%rsp
  40b7ee:	5d                   	pop    %rbp
  40b7ef:	c3                   	retq   

000000000040b7f0 <_ZNSt10shared_ptrINSt6thread10_Impl_baseEEC2Ev>:
  40b7f0:	55                   	push   %rbp
  40b7f1:	48 89 e5             	mov    %rsp,%rbp
  40b7f4:	48 83 ec 10          	sub    $0x10,%rsp
  40b7f8:	48 89 7d f8          	mov    %rdi,-0x8(%rbp)
  40b7fc:	48 8b 7d f8          	mov    -0x8(%rbp),%rdi
  40b800:	e8 6b 00 00 00       	callq  40b870 <_ZNSt12__shared_ptrINSt6thread10_Impl_baseELN9__gnu_cxx12_Lock_policyE2EEC2Ev>
  40b805:	48 83 c4 10          	add    $0x10,%rsp
  40b809:	5d                   	pop    %rbp
  40b80a:	c3                   	retq   
  40b80b:	0f 1f 44 00 00       	nopl   0x0(%rax,%rax,1)

000000000040b810 <_ZNSt6thread10_Impl_baseD2Ev>:
  40b810:	55                   	push   %rbp
  40b811:	48 89 e5             	mov    %rsp,%rbp
  40b814:	48 83 ec 10          	sub    $0x10,%rsp
  40b818:	48 b8 68 f0 40 00 00 	movabs $0x40f068,%rax
  40b81f:	00 00 00 
  40b822:	48 83 c0 10          	add    $0x10,%rax
  40b826:	48 89 7d f8          	mov    %rdi,-0x8(%rbp)
  40b82a:	48 8b 7d f8          	mov    -0x8(%rbp),%rdi
  40b82e:	48 89 07             	mov    %rax,(%rdi)
  40b831:	48 83 c7 08          	add    $0x8,%rdi
  40b835:	e8 46 fe ff ff       	callq  40b680 <_ZNSt10shared_ptrINSt6thread10_Impl_baseEED2Ev>
  40b83a:	48 83 c4 10          	add    $0x10,%rsp
  40b83e:	5d                   	pop    %rbp
  40b83f:	c3                   	retq   

000000000040b840 <_ZNSt6thread10_Impl_baseD0Ev>:
  40b840:	55                   	push   %rbp
  40b841:	48 89 e5             	mov    %rsp,%rbp
  40b844:	48 83 ec 10          	sub    $0x10,%rsp
  40b848:	48 89 7d f8          	mov    %rdi,-0x8(%rbp)
  40b84c:	48 8b 7d f8          	mov    -0x8(%rbp),%rdi
  40b850:	48 89 7d f0          	mov    %rdi,-0x10(%rbp)
  40b854:	e8 b7 ff ff ff       	callq  40b810 <_ZNSt6thread10_Impl_baseD2Ev>
  40b859:	48 8b 7d f0          	mov    -0x10(%rbp),%rdi
  40b85d:	e8 2e 75 ff ff       	callq  402d90 <_ZdlPv@plt>
  40b862:	48 83 c4 10          	add    $0x10,%rsp
  40b866:	5d                   	pop    %rbp
  40b867:	c3                   	retq   
  40b868:	0f 1f 84 00 00 00 00 	nopl   0x0(%rax,%rax,1)
  40b86f:	00 

000000000040b870 <_ZNSt12__shared_ptrINSt6thread10_Impl_baseELN9__gnu_cxx12_Lock_policyE2EEC2Ev>:
  40b870:	55                   	push   %rbp
  40b871:	48 89 e5             	mov    %rsp,%rbp
  40b874:	48 83 ec 10          	sub    $0x10,%rsp
  40b878:	48 89 7d f8          	mov    %rdi,-0x8(%rbp)
  40b87c:	48 8b 7d f8          	mov    -0x8(%rbp),%rdi
  40b880:	48 c7 07 00 00 00 00 	movq   $0x0,(%rdi)
  40b887:	48 83 c7 08          	add    $0x8,%rdi
  40b88b:	e8 10 00 00 00       	callq  40b8a0 <_ZNSt14__shared_countILN9__gnu_cxx12_Lock_policyE2EEC2Ev>
  40b890:	48 83 c4 10          	add    $0x10,%rsp
  40b894:	5d                   	pop    %rbp
  40b895:	c3                   	retq   
  40b896:	66 2e 0f 1f 84 00 00 	nopw   %cs:0x0(%rax,%rax,1)
  40b89d:	00 00 00 

000000000040b8a0 <_ZNSt14__shared_countILN9__gnu_cxx12_Lock_policyE2EEC2Ev>:
  40b8a0:	55                   	push   %rbp
  40b8a1:	48 89 e5             	mov    %rsp,%rbp
  40b8a4:	48 89 7d f8          	mov    %rdi,-0x8(%rbp)
  40b8a8:	48 8b 7d f8          	mov    -0x8(%rbp),%rdi
  40b8ac:	48 c7 07 00 00 00 00 	movq   $0x0,(%rdi)
  40b8b3:	5d                   	pop    %rbp
  40b8b4:	c3                   	retq   
  40b8b5:	66 2e 0f 1f 84 00 00 	nopw   %cs:0x0(%rax,%rax,1)
  40b8bc:	00 00 00 
  40b8bf:	90                   	nop

000000000040b8c0 <_ZNKSt8functionIFviEEclEi>:
  40b8c0:	55                   	push   %rbp
  40b8c1:	48 89 e5             	mov    %rsp,%rbp
  40b8c4:	48 83 ec 30          	sub    $0x30,%rsp
  40b8c8:	48 89 7d f8          	mov    %rdi,-0x8(%rbp)
  40b8cc:	89 75 f4             	mov    %esi,-0xc(%rbp)
  40b8cf:	48 8b 7d f8          	mov    -0x8(%rbp),%rdi
  40b8d3:	48 89 f8             	mov    %rdi,%rax
  40b8d6:	48 89 7d e8          	mov    %rdi,-0x18(%rbp)
  40b8da:	48 89 c7             	mov    %rax,%rdi
  40b8dd:	e8 9e 00 00 00       	callq  40b980 <_ZNKSt14_Function_base8_M_emptyEv>
  40b8e2:	a8 01                	test   $0x1,%al
  40b8e4:	0f 85 05 00 00 00    	jne    40b8ef <_ZNKSt8functionIFviEEclEi+0x2f>
  40b8ea:	e9 05 00 00 00       	jmpq   40b8f4 <_ZNKSt8functionIFviEEclEi+0x34>
  40b8ef:	e8 bc 72 ff ff       	callq  402bb0 <_ZSt25__throw_bad_function_callv@plt>
  40b8f4:	48 8d 7d f4          	lea    -0xc(%rbp),%rdi
  40b8f8:	48 8b 45 e8          	mov    -0x18(%rbp),%rax
  40b8fc:	48 8b 48 18          	mov    0x18(%rax),%rcx
  40b900:	48 89 4d e0          	mov    %rcx,-0x20(%rbp)
  40b904:	48 89 45 d8          	mov    %rax,-0x28(%rbp)
  40b908:	e8 93 00 00 00       	callq  40b9a0 <_ZSt7forwardIiEOT_RNSt16remove_referenceIS0_E4typeE>
  40b90d:	48 8b 7d d8          	mov    -0x28(%rbp),%rdi
  40b911:	48 89 c6             	mov    %rax,%rsi
  40b914:	48 8b 45 e0          	mov    -0x20(%rbp),%rax
  40b918:	ff d0                	callq  *%rax
  40b91a:	48 83 c4 30          	add    $0x30,%rsp
  40b91e:	5d                   	pop    %rbp
  40b91f:	c3                   	retq   

000000000040b920 <_ZNKSt6thread6get_idEv>:
  40b920:	55                   	push   %rbp
  40b921:	48 89 e5             	mov    %rsp,%rbp
  40b924:	48 89 7d f0          	mov    %rdi,-0x10(%rbp)
  40b928:	48 8b 7d f0          	mov    -0x10(%rbp),%rdi
  40b92c:	48 8b 3f             	mov    (%rdi),%rdi
  40b92f:	48 89 7d f8          	mov    %rdi,-0x8(%rbp)
  40b933:	48 8b 45 f8          	mov    -0x8(%rbp),%rax
  40b937:	5d                   	pop    %rbp
  40b938:	c3                   	retq   
  40b939:	0f 1f 80 00 00 00 00 	nopl   0x0(%rax)

000000000040b940 <_ZNSt11this_thread6get_idEv>:
  40b940:	55                   	push   %rbp
  40b941:	48 89 e5             	mov    %rsp,%rbp
  40b944:	48 83 ec 20          	sub    $0x20,%rsp
  40b948:	e8 53 a5 ff ff       	callq  405ea0 <_ZL14__gthread_selfv>
  40b94d:	48 89 45 f0          	mov    %rax,-0x10(%rbp)
  40b951:	e9 00 00 00 00       	jmpq   40b956 <_ZNSt11this_thread6get_idEv+0x16>
  40b956:	48 8d 7d f8          	lea    -0x8(%rbp),%rdi
  40b95a:	48 8b 75 f0          	mov    -0x10(%rbp),%rsi
  40b95e:	e8 4d 00 00 00       	callq  40b9b0 <_ZNSt6thread2idC2Em>
  40b963:	e9 00 00 00 00       	jmpq   40b968 <_ZNSt11this_thread6get_idEv+0x28>
  40b968:	48 8b 45 f8          	mov    -0x8(%rbp),%rax
  40b96c:	48 83 c4 20          	add    $0x20,%rsp
  40b970:	5d                   	pop    %rbp
  40b971:	c3                   	retq   
  40b972:	89 d1                	mov    %edx,%ecx
  40b974:	48 89 c7             	mov    %rax,%rdi
  40b977:	89 4d ec             	mov    %ecx,-0x14(%rbp)
  40b97a:	e8 41 bb ff ff       	callq  4074c0 <__clang_call_terminate>
  40b97f:	90                   	nop

000000000040b980 <_ZNKSt14_Function_base8_M_emptyEv>:
  40b980:	55                   	push   %rbp
  40b981:	48 89 e5             	mov    %rsp,%rbp
  40b984:	48 89 7d f8          	mov    %rdi,-0x8(%rbp)
  40b988:	48 8b 7d f8          	mov    -0x8(%rbp),%rdi
  40b98c:	48 83 7f 10 00       	cmpq   $0x0,0x10(%rdi)
  40b991:	0f 95 c0             	setne  %al
  40b994:	34 ff                	xor    $0xff,%al
  40b996:	24 01                	and    $0x1,%al
  40b998:	0f b6 c0             	movzbl %al,%eax
  40b99b:	5d                   	pop    %rbp
  40b99c:	c3                   	retq   
  40b99d:	0f 1f 00             	nopl   (%rax)

000000000040b9a0 <_ZSt7forwardIiEOT_RNSt16remove_referenceIS0_E4typeE>:
  40b9a0:	55                   	push   %rbp
  40b9a1:	48 89 e5             	mov    %rsp,%rbp
  40b9a4:	48 89 7d f8          	mov    %rdi,-0x8(%rbp)
  40b9a8:	48 8b 45 f8          	mov    -0x8(%rbp),%rax
  40b9ac:	5d                   	pop    %rbp
  40b9ad:	c3                   	retq   
  40b9ae:	66 90                	xchg   %ax,%ax

000000000040b9b0 <_ZNSt6thread2idC2Em>:
  40b9b0:	55                   	push   %rbp
  40b9b1:	48 89 e5             	mov    %rsp,%rbp
  40b9b4:	48 89 7d f8          	mov    %rdi,-0x8(%rbp)
  40b9b8:	48 89 75 f0          	mov    %rsi,-0x10(%rbp)
  40b9bc:	48 8b 75 f8          	mov    -0x8(%rbp),%rsi
  40b9c0:	48 8b 7d f0          	mov    -0x10(%rbp),%rdi
  40b9c4:	48 89 3e             	mov    %rdi,(%rsi)
  40b9c7:	5d                   	pop    %rbp
  40b9c8:	c3                   	retq   
  40b9c9:	0f 1f 80 00 00 00 00 	nopl   0x0(%rax)

000000000040b9d0 <_ZNKSt9type_infoeqERKS_>:
  40b9d0:	55                   	push   %rbp
  40b9d1:	48 89 e5             	mov    %rsp,%rbp
  40b9d4:	48 83 ec 20          	sub    $0x20,%rsp
  40b9d8:	b0 01                	mov    $0x1,%al
  40b9da:	48 89 7d f8          	mov    %rdi,-0x8(%rbp)
  40b9de:	48 89 75 f0          	mov    %rsi,-0x10(%rbp)
  40b9e2:	48 8b 75 f8          	mov    -0x8(%rbp),%rsi
  40b9e6:	48 8b 7e 08          	mov    0x8(%rsi),%rdi
  40b9ea:	48 8b 4d f0          	mov    -0x10(%rbp),%rcx
  40b9ee:	48 3b 79 08          	cmp    0x8(%rcx),%rdi
  40b9f2:	48 89 75 e8          	mov    %rsi,-0x18(%rbp)
  40b9f6:	88 45 e7             	mov    %al,-0x19(%rbp)
  40b9f9:	0f 84 3f 00 00 00    	je     40ba3e <_ZNKSt9type_infoeqERKS_+0x6e>
  40b9ff:	31 c0                	xor    %eax,%eax
  40ba01:	88 c1                	mov    %al,%cl
  40ba03:	48 8b 55 e8          	mov    -0x18(%rbp),%rdx
  40ba07:	48 8b 72 08          	mov    0x8(%rdx),%rsi
  40ba0b:	0f be 06             	movsbl (%rsi),%eax
  40ba0e:	83 f8 2a             	cmp    $0x2a,%eax
  40ba11:	88 4d e6             	mov    %cl,-0x1a(%rbp)
  40ba14:	0f 84 1e 00 00 00    	je     40ba38 <_ZNKSt9type_infoeqERKS_+0x68>
  40ba1a:	48 8b 45 e8          	mov    -0x18(%rbp),%rax
  40ba1e:	48 8b 78 08          	mov    0x8(%rax),%rdi
  40ba22:	48 8b 4d f0          	mov    -0x10(%rbp),%rcx
  40ba26:	48 8b 71 08          	mov    0x8(%rcx),%rsi
  40ba2a:	e8 c1 74 ff ff       	callq  402ef0 <strcmp@plt>
  40ba2f:	83 f8 00             	cmp    $0x0,%eax
  40ba32:	0f 94 c2             	sete   %dl
  40ba35:	88 55 e6             	mov    %dl,-0x1a(%rbp)
  40ba38:	8a 45 e6             	mov    -0x1a(%rbp),%al
  40ba3b:	88 45 e7             	mov    %al,-0x19(%rbp)
  40ba3e:	8a 45 e7             	mov    -0x19(%rbp),%al
  40ba41:	24 01                	and    $0x1,%al
  40ba43:	0f b6 c0             	movzbl %al,%eax
  40ba46:	48 83 c4 20          	add    $0x20,%rsp
  40ba4a:	5d                   	pop    %rbp
  40ba4b:	c3                   	retq   
  40ba4c:	0f 1f 40 00          	nopl   0x0(%rax)

000000000040ba50 <_ZNSt14__shared_countILN9__gnu_cxx12_Lock_policyE2EE7_M_swapERS2_>:
  40ba50:	55                   	push   %rbp
  40ba51:	48 89 e5             	mov    %rsp,%rbp
  40ba54:	48 89 7d f8          	mov    %rdi,-0x8(%rbp)
  40ba58:	48 89 75 f0          	mov    %rsi,-0x10(%rbp)
  40ba5c:	48 8b 75 f8          	mov    -0x8(%rbp),%rsi
  40ba60:	48 8b 7d f0          	mov    -0x10(%rbp),%rdi
  40ba64:	48 8b 3f             	mov    (%rdi),%rdi
  40ba67:	48 89 7d e8          	mov    %rdi,-0x18(%rbp)
  40ba6b:	48 8b 3e             	mov    (%rsi),%rdi
  40ba6e:	48 8b 45 f0          	mov    -0x10(%rbp),%rax
  40ba72:	48 89 38             	mov    %rdi,(%rax)
  40ba75:	48 8b 45 e8          	mov    -0x18(%rbp),%rax
  40ba79:	48 89 06             	mov    %rax,(%rsi)
  40ba7c:	5d                   	pop    %rbp
  40ba7d:	c3                   	retq   
  40ba7e:	66 90                	xchg   %ax,%ax

000000000040ba80 <_ZNSt12__shared_ptrINSt6thread10_Impl_baseELN9__gnu_cxx12_Lock_policyE2EED2Ev>:
  40ba80:	55                   	push   %rbp
  40ba81:	48 89 e5             	mov    %rsp,%rbp
  40ba84:	48 83 ec 10          	sub    $0x10,%rsp
  40ba88:	48 89 7d f8          	mov    %rdi,-0x8(%rbp)
  40ba8c:	48 8b 7d f8          	mov    -0x8(%rbp),%rdi
  40ba90:	48 83 c7 08          	add    $0x8,%rdi
  40ba94:	e8 07 00 00 00       	callq  40baa0 <_ZNSt14__shared_countILN9__gnu_cxx12_Lock_policyE2EED2Ev>
  40ba99:	48 83 c4 10          	add    $0x10,%rsp
  40ba9d:	5d                   	pop    %rbp
  40ba9e:	c3                   	retq   
  40ba9f:	90                   	nop

000000000040baa0 <_ZNSt14__shared_countILN9__gnu_cxx12_Lock_policyE2EED2Ev>:
  40baa0:	55                   	push   %rbp
  40baa1:	48 89 e5             	mov    %rsp,%rbp
  40baa4:	48 83 ec 10          	sub    $0x10,%rsp
  40baa8:	48 89 7d f8          	mov    %rdi,-0x8(%rbp)
  40baac:	48 8b 7d f8          	mov    -0x8(%rbp),%rdi
  40bab0:	48 83 3f 00          	cmpq   $0x0,(%rdi)
  40bab4:	48 89 7d f0          	mov    %rdi,-0x10(%rbp)
  40bab8:	0f 84 0c 00 00 00    	je     40baca <_ZNSt14__shared_countILN9__gnu_cxx12_Lock_policyE2EED2Ev+0x2a>
  40babe:	48 8b 45 f0          	mov    -0x10(%rbp),%rax
  40bac2:	48 8b 38             	mov    (%rax),%rdi
  40bac5:	e8 06 00 00 00       	callq  40bad0 <_ZNSt16_Sp_counted_baseILN9__gnu_cxx12_Lock_policyE2EE10_M_releaseEv>
  40baca:	48 83 c4 10          	add    $0x10,%rsp
  40bace:	5d                   	pop    %rbp
  40bacf:	c3                   	retq   

000000000040bad0 <_ZNSt16_Sp_counted_baseILN9__gnu_cxx12_Lock_policyE2EE10_M_releaseEv>:
  40bad0:	55                   	push   %rbp
  40bad1:	48 89 e5             	mov    %rsp,%rbp
  40bad4:	48 83 ec 20          	sub    $0x20,%rsp
  40bad8:	48 89 7d f8          	mov    %rdi,-0x8(%rbp)
  40badc:	48 89 f8             	mov    %rdi,%rax
  40badf:	48 83 c7 08          	add    $0x8,%rdi
  40bae3:	be ff ff ff ff       	mov    $0xffffffff,%esi
  40bae8:	48 89 45 f0          	mov    %rax,-0x10(%rbp)
  40baec:	e8 bf a6 ff ff       	callq  4061b0 <_ZN9__gnu_cxxL27__exchange_and_add_dispatchEPii>
  40baf1:	89 45 ec             	mov    %eax,-0x14(%rbp)
  40baf4:	e9 00 00 00 00       	jmpq   40baf9 <_ZNSt16_Sp_counted_baseILN9__gnu_cxx12_Lock_policyE2EE10_M_releaseEv+0x29>
  40baf9:	8b 45 ec             	mov    -0x14(%rbp),%eax
  40bafc:	83 f8 01             	cmp    $0x1,%eax
  40baff:	0f 85 4b 00 00 00    	jne    40bb50 <_ZNSt16_Sp_counted_baseILN9__gnu_cxx12_Lock_policyE2EE10_M_releaseEv+0x80>
  40bb05:	48 8b 45 f0          	mov    -0x10(%rbp),%rax
  40bb09:	48 8b 08             	mov    (%rax),%rcx
  40bb0c:	48 8b 49 10          	mov    0x10(%rcx),%rcx
  40bb10:	48 89 c7             	mov    %rax,%rdi
  40bb13:	ff d1                	callq  *%rcx
  40bb15:	48 8b 45 f0          	mov    -0x10(%rbp),%rax
  40bb19:	48 83 c0 0c          	add    $0xc,%rax
  40bb1d:	be ff ff ff ff       	mov    $0xffffffff,%esi
  40bb22:	48 89 c7             	mov    %rax,%rdi
  40bb25:	e8 86 a6 ff ff       	callq  4061b0 <_ZN9__gnu_cxxL27__exchange_and_add_dispatchEPii>
  40bb2a:	89 45 e8             	mov    %eax,-0x18(%rbp)
  40bb2d:	e9 00 00 00 00       	jmpq   40bb32 <_ZNSt16_Sp_counted_baseILN9__gnu_cxx12_Lock_policyE2EE10_M_releaseEv+0x62>
  40bb32:	8b 45 e8             	mov    -0x18(%rbp),%eax
  40bb35:	83 f8 01             	cmp    $0x1,%eax
  40bb38:	0f 85 0d 00 00 00    	jne    40bb4b <_ZNSt16_Sp_counted_baseILN9__gnu_cxx12_Lock_policyE2EE10_M_releaseEv+0x7b>
  40bb3e:	48 8b 45 f0          	mov    -0x10(%rbp),%rax
  40bb42:	48 8b 08             	mov    (%rax),%rcx
  40bb45:	48 89 c7             	mov    %rax,%rdi
  40bb48:	ff 51 18             	callq  *0x18(%rcx)
  40bb4b:	e9 00 00 00 00       	jmpq   40bb50 <_ZNSt16_Sp_counted_baseILN9__gnu_cxx12_Lock_policyE2EE10_M_releaseEv+0x80>
  40bb50:	48 83 c4 20          	add    $0x20,%rsp
  40bb54:	5d                   	pop    %rbp
  40bb55:	c3                   	retq   
  40bb56:	89 d1                	mov    %edx,%ecx
  40bb58:	48 89 c7             	mov    %rax,%rdi
  40bb5b:	89 4d e4             	mov    %ecx,-0x1c(%rbp)
  40bb5e:	e8 5d b9 ff ff       	callq  4074c0 <__clang_call_terminate>
  40bb63:	66 2e 0f 1f 84 00 00 	nopw   %cs:0x0(%rax,%rax,1)
  40bb6a:	00 00 00 
  40bb6d:	0f 1f 00             	nopl   (%rax)

000000000040bb70 <_ZSt12__get_helperILm0EObJEERT0_RSt11_Tuple_implIXT_EJS1_DpT1_EE>:
  40bb70:	55                   	push   %rbp
  40bb71:	48 89 e5             	mov    %rsp,%rbp
  40bb74:	48 83 ec 10          	sub    $0x10,%rsp
  40bb78:	48 89 7d f8          	mov    %rdi,-0x8(%rbp)
  40bb7c:	48 8b 7d f8          	mov    -0x8(%rbp),%rdi
  40bb80:	e8 9b fa ff ff       	callq  40b620 <_ZNSt11_Tuple_implILm0EJObEE7_M_headERS1_>
  40bb85:	48 83 c4 10          	add    $0x10,%rsp
  40bb89:	5d                   	pop    %rbp
  40bb8a:	c3                   	retq   
  40bb8b:	0f 1f 44 00 00       	nopl   0x0(%rax,%rax,1)

000000000040bb90 <_ZNKSt6vectorISt4pairISt6threadbESaIS2_EE12_M_check_lenEmPKc>:
  40bb90:	55                   	push   %rbp
  40bb91:	48 89 e5             	mov    %rsp,%rbp
  40bb94:	48 83 ec 60          	sub    $0x60,%rsp
  40bb98:	48 89 7d f8          	mov    %rdi,-0x8(%rbp)
  40bb9c:	48 89 75 f0          	mov    %rsi,-0x10(%rbp)
  40bba0:	48 89 55 e8          	mov    %rdx,-0x18(%rbp)
  40bba4:	48 8b 55 f8          	mov    -0x8(%rbp),%rdx
  40bba8:	48 89 d7             	mov    %rdx,%rdi
  40bbab:	48 89 55 d0          	mov    %rdx,-0x30(%rbp)
  40bbaf:	e8 bc 01 00 00       	callq  40bd70 <_ZNKSt6vectorISt4pairISt6threadbESaIS2_EE8max_sizeEv>
  40bbb4:	48 8b 7d d0          	mov    -0x30(%rbp),%rdi
  40bbb8:	48 89 45 c8          	mov    %rax,-0x38(%rbp)
  40bbbc:	e8 0f 01 00 00       	callq  40bcd0 <_ZNKSt6vectorISt4pairISt6threadbESaIS2_EE4sizeEv>
  40bbc1:	48 8b 55 c8          	mov    -0x38(%rbp),%rdx
  40bbc5:	48 29 c2             	sub    %rax,%rdx
  40bbc8:	48 3b 55 f0          	cmp    -0x10(%rbp),%rdx
  40bbcc:	0f 83 09 00 00 00    	jae    40bbdb <_ZNKSt6vectorISt4pairISt6threadbESaIS2_EE12_M_check_lenEmPKc+0x4b>
  40bbd2:	48 8b 7d e8          	mov    -0x18(%rbp),%rdi
  40bbd6:	e8 45 70 ff ff       	callq  402c20 <_ZSt20__throw_length_errorPKc@plt>
  40bbdb:	48 8b 7d d0          	mov    -0x30(%rbp),%rdi
  40bbdf:	e8 ec 00 00 00       	callq  40bcd0 <_ZNKSt6vectorISt4pairISt6threadbESaIS2_EE4sizeEv>
  40bbe4:	48 8b 7d d0          	mov    -0x30(%rbp),%rdi
  40bbe8:	48 89 45 c0          	mov    %rax,-0x40(%rbp)
  40bbec:	e8 df 00 00 00       	callq  40bcd0 <_ZNKSt6vectorISt4pairISt6threadbESaIS2_EE4sizeEv>
  40bbf1:	48 8d 7d d8          	lea    -0x28(%rbp),%rdi
  40bbf5:	48 8d 75 f0          	lea    -0x10(%rbp),%rsi
  40bbf9:	48 89 45 d8          	mov    %rax,-0x28(%rbp)
  40bbfd:	e8 7e e9 ff ff       	callq  40a580 <_ZSt3maxImERKT_S2_S2_>
  40bc02:	48 8b 75 c0          	mov    -0x40(%rbp),%rsi
  40bc06:	48 03 30             	add    (%rax),%rsi
  40bc09:	48 89 75 e0          	mov    %rsi,-0x20(%rbp)
  40bc0d:	48 8b 45 e0          	mov    -0x20(%rbp),%rax
  40bc11:	48 8b 7d d0          	mov    -0x30(%rbp),%rdi
  40bc15:	48 89 45 b8          	mov    %rax,-0x48(%rbp)
  40bc19:	e8 b2 00 00 00       	callq  40bcd0 <_ZNKSt6vectorISt4pairISt6threadbESaIS2_EE4sizeEv>
  40bc1e:	48 8b 75 b8          	mov    -0x48(%rbp),%rsi
  40bc22:	48 39 c6             	cmp    %rax,%rsi
  40bc25:	0f 82 1e 00 00 00    	jb     40bc49 <_ZNKSt6vectorISt4pairISt6threadbESaIS2_EE12_M_check_lenEmPKc+0xb9>
  40bc2b:	48 8b 45 e0          	mov    -0x20(%rbp),%rax
  40bc2f:	48 8b 7d d0          	mov    -0x30(%rbp),%rdi
  40bc33:	48 89 45 b0          	mov    %rax,-0x50(%rbp)
  40bc37:	e8 34 01 00 00       	callq  40bd70 <_ZNKSt6vectorISt4pairISt6threadbESaIS2_EE8max_sizeEv>
  40bc3c:	48 8b 7d b0          	mov    -0x50(%rbp),%rdi
  40bc40:	48 39 c7             	cmp    %rax,%rdi
  40bc43:	0f 86 12 00 00 00    	jbe    40bc5b <_ZNKSt6vectorISt4pairISt6threadbESaIS2_EE12_M_check_lenEmPKc+0xcb>
  40bc49:	48 8b 7d d0          	mov    -0x30(%rbp),%rdi
  40bc4d:	e8 1e 01 00 00       	callq  40bd70 <_ZNKSt6vectorISt4pairISt6threadbESaIS2_EE8max_sizeEv>
  40bc52:	48 89 45 a8          	mov    %rax,-0x58(%rbp)
  40bc56:	e9 08 00 00 00       	jmpq   40bc63 <_ZNKSt6vectorISt4pairISt6threadbESaIS2_EE12_M_check_lenEmPKc+0xd3>
  40bc5b:	48 8b 45 e0          	mov    -0x20(%rbp),%rax
  40bc5f:	48 89 45 a8          	mov    %rax,-0x58(%rbp)
  40bc63:	48 8b 45 a8          	mov    -0x58(%rbp),%rax
  40bc67:	48 83 c4 60          	add    $0x60,%rsp
  40bc6b:	5d                   	pop    %rbp
  40bc6c:	c3                   	retq   
  40bc6d:	0f 1f 00             	nopl   (%rax)

000000000040bc70 <_ZNSt12_Vector_baseISt4pairISt6threadbESaIS2_EE11_M_allocateEm>:
  40bc70:	55                   	push   %rbp
  40bc71:	48 89 e5             	mov    %rsp,%rbp
  40bc74:	48 83 ec 20          	sub    $0x20,%rsp
  40bc78:	48 89 7d f8          	mov    %rdi,-0x8(%rbp)
  40bc7c:	48 89 75 f0          	mov    %rsi,-0x10(%rbp)
  40bc80:	48 8b 75 f8          	mov    -0x8(%rbp),%rsi
  40bc84:	48 83 7d f0 00       	cmpq   $0x0,-0x10(%rbp)
  40bc89:	48 89 75 e8          	mov    %rsi,-0x18(%rbp)
  40bc8d:	0f 84 19 00 00 00    	je     40bcac <_ZNSt12_Vector_baseISt4pairISt6threadbESaIS2_EE11_M_allocateEm+0x3c>
  40bc93:	48 8b 45 e8          	mov    -0x18(%rbp),%rax
  40bc97:	48 8b 75 f0          	mov    -0x10(%rbp),%rsi
  40bc9b:	48 89 c7             	mov    %rax,%rdi
  40bc9e:	e8 5d 01 00 00       	callq  40be00 <_ZNSt16allocator_traitsISaISt4pairISt6threadbEEE8allocateERS3_m>
  40bca3:	48 89 45 e0          	mov    %rax,-0x20(%rbp)
  40bca7:	e9 0d 00 00 00       	jmpq   40bcb9 <_ZNSt12_Vector_baseISt4pairISt6threadbESaIS2_EE11_M_allocateEm+0x49>
  40bcac:	31 c0                	xor    %eax,%eax
  40bcae:	89 c1                	mov    %eax,%ecx
  40bcb0:	48 89 4d e0          	mov    %rcx,-0x20(%rbp)
  40bcb4:	e9 00 00 00 00       	jmpq   40bcb9 <_ZNSt12_Vector_baseISt4pairISt6threadbESaIS2_EE11_M_allocateEm+0x49>
  40bcb9:	48 8b 45 e0          	mov    -0x20(%rbp),%rax
  40bcbd:	48 83 c4 20          	add    $0x20,%rsp
  40bcc1:	5d                   	pop    %rbp
  40bcc2:	c3                   	retq   
  40bcc3:	66 2e 0f 1f 84 00 00 	nopw   %cs:0x0(%rax,%rax,1)
  40bcca:	00 00 00 
  40bccd:	0f 1f 00             	nopl   (%rax)

000000000040bcd0 <_ZNKSt6vectorISt4pairISt6threadbESaIS2_EE4sizeEv>:
  40bcd0:	55                   	push   %rbp
  40bcd1:	48 89 e5             	mov    %rsp,%rbp
  40bcd4:	48 89 7d f8          	mov    %rdi,-0x8(%rbp)
  40bcd8:	48 8b 7d f8          	mov    -0x8(%rbp),%rdi
  40bcdc:	48 8b 47 08          	mov    0x8(%rdi),%rax
  40bce0:	48 8b 3f             	mov    (%rdi),%rdi
  40bce3:	48 29 f8             	sub    %rdi,%rax
  40bce6:	48 c1 f8 04          	sar    $0x4,%rax
  40bcea:	5d                   	pop    %rbp
  40bceb:	c3                   	retq   
  40bcec:	0f 1f 40 00          	nopl   0x0(%rax)

000000000040bcf0 <_ZSt34__uninitialized_move_if_noexcept_aIPSt4pairISt6threadbES3_SaIS2_EET0_T_S6_S5_RT1_>:
  40bcf0:	55                   	push   %rbp
  40bcf1:	48 89 e5             	mov    %rsp,%rbp
  40bcf4:	48 83 ec 30          	sub    $0x30,%rsp
  40bcf8:	48 89 7d f8          	mov    %rdi,-0x8(%rbp)
  40bcfc:	48 89 75 f0          	mov    %rsi,-0x10(%rbp)
  40bd00:	48 89 55 e8          	mov    %rdx,-0x18(%rbp)
  40bd04:	48 89 4d e0          	mov    %rcx,-0x20(%rbp)
  40bd08:	48 8b 7d f8          	mov    -0x8(%rbp),%rdi
  40bd0c:	e8 bf 01 00 00       	callq  40bed0 <_ZSt32__make_move_if_noexcept_iteratorIPSt4pairISt6threadbESt13move_iteratorIS3_EET0_T_>
  40bd11:	48 89 45 d8          	mov    %rax,-0x28(%rbp)
  40bd15:	48 8b 7d f0          	mov    -0x10(%rbp),%rdi
  40bd19:	e8 b2 01 00 00       	callq  40bed0 <_ZSt32__make_move_if_noexcept_iteratorIPSt4pairISt6threadbESt13move_iteratorIS3_EET0_T_>
  40bd1e:	48 89 45 d0          	mov    %rax,-0x30(%rbp)
  40bd22:	48 8b 55 e8          	mov    -0x18(%rbp),%rdx
  40bd26:	48 8b 4d e0          	mov    -0x20(%rbp),%rcx
  40bd2a:	48 8b 7d d8          	mov    -0x28(%rbp),%rdi
  40bd2e:	48 8b 75 d0          	mov    -0x30(%rbp),%rsi
  40bd32:	e8 59 01 00 00       	callq  40be90 <_ZSt22__uninitialized_copy_aISt13move_iteratorIPSt4pairISt6threadbEES4_S3_ET0_T_S7_S6_RSaIT1_E>
  40bd37:	48 83 c4 30          	add    $0x30,%rsp
  40bd3b:	5d                   	pop    %rbp
  40bd3c:	c3                   	retq   
  40bd3d:	0f 1f 00             	nopl   (%rax)

000000000040bd40 <_ZNSt16allocator_traitsISaISt4pairISt6threadbEEE7destroyIS2_EEvRS3_PT_>:
  40bd40:	55                   	push   %rbp
  40bd41:	48 89 e5             	mov    %rsp,%rbp
  40bd44:	48 83 ec 20          	sub    $0x20,%rsp
  40bd48:	48 89 7d f8          	mov    %rdi,-0x8(%rbp)
  40bd4c:	48 89 75 f0          	mov    %rsi,-0x10(%rbp)
  40bd50:	48 8b 75 f8          	mov    -0x8(%rbp),%rsi
  40bd54:	48 8b 7d f0          	mov    -0x10(%rbp),%rdi
  40bd58:	48 89 7d e8          	mov    %rdi,-0x18(%rbp)
  40bd5c:	48 89 f7             	mov    %rsi,%rdi
  40bd5f:	48 8b 75 e8          	mov    -0x18(%rbp),%rsi
  40bd63:	e8 58 05 00 00       	callq  40c2c0 <_ZN9__gnu_cxx13new_allocatorISt4pairISt6threadbEE7destroyIS3_EEvPT_>
  40bd68:	48 83 c4 20          	add    $0x20,%rsp
  40bd6c:	5d                   	pop    %rbp
  40bd6d:	c3                   	retq   
  40bd6e:	66 90                	xchg   %ax,%ax

000000000040bd70 <_ZNKSt6vectorISt4pairISt6threadbESaIS2_EE8max_sizeEv>:
  40bd70:	55                   	push   %rbp
  40bd71:	48 89 e5             	mov    %rsp,%rbp
  40bd74:	48 83 ec 10          	sub    $0x10,%rsp
  40bd78:	48 89 7d f8          	mov    %rdi,-0x8(%rbp)
  40bd7c:	48 8b 7d f8          	mov    -0x8(%rbp),%rdi
  40bd80:	e8 3b 00 00 00       	callq  40bdc0 <_ZNKSt12_Vector_baseISt4pairISt6threadbESaIS2_EE19_M_get_Tp_allocatorEv>
  40bd85:	48 89 c7             	mov    %rax,%rdi
  40bd88:	e8 13 00 00 00       	callq  40bda0 <_ZNSt16allocator_traitsISaISt4pairISt6threadbEEE8max_sizeERKS3_>
  40bd8d:	48 83 c4 10          	add    $0x10,%rsp
  40bd91:	5d                   	pop    %rbp
  40bd92:	c3                   	retq   
  40bd93:	66 2e 0f 1f 84 00 00 	nopw   %cs:0x0(%rax,%rax,1)
  40bd9a:	00 00 00 
  40bd9d:	0f 1f 00             	nopl   (%rax)

000000000040bda0 <_ZNSt16allocator_traitsISaISt4pairISt6threadbEEE8max_sizeERKS3_>:
  40bda0:	55                   	push   %rbp
  40bda1:	48 89 e5             	mov    %rsp,%rbp
  40bda4:	48 83 ec 10          	sub    $0x10,%rsp
  40bda8:	48 89 7d f8          	mov    %rdi,-0x8(%rbp)
  40bdac:	48 8b 7d f8          	mov    -0x8(%rbp),%rdi
  40bdb0:	e8 2b 00 00 00       	callq  40bde0 <_ZNK9__gnu_cxx13new_allocatorISt4pairISt6threadbEE8max_sizeEv>
  40bdb5:	48 83 c4 10          	add    $0x10,%rsp
  40bdb9:	5d                   	pop    %rbp
  40bdba:	c3                   	retq   
  40bdbb:	0f 1f 44 00 00       	nopl   0x0(%rax,%rax,1)

000000000040bdc0 <_ZNKSt12_Vector_baseISt4pairISt6threadbESaIS2_EE19_M_get_Tp_allocatorEv>:
  40bdc0:	55                   	push   %rbp
  40bdc1:	48 89 e5             	mov    %rsp,%rbp
  40bdc4:	48 89 7d f8          	mov    %rdi,-0x8(%rbp)
  40bdc8:	48 8b 7d f8          	mov    -0x8(%rbp),%rdi
  40bdcc:	48 89 f8             	mov    %rdi,%rax
  40bdcf:	5d                   	pop    %rbp
  40bdd0:	c3                   	retq   
  40bdd1:	66 2e 0f 1f 84 00 00 	nopw   %cs:0x0(%rax,%rax,1)
  40bdd8:	00 00 00 
  40bddb:	0f 1f 44 00 00       	nopl   0x0(%rax,%rax,1)

000000000040bde0 <_ZNK9__gnu_cxx13new_allocatorISt4pairISt6threadbEE8max_sizeEv>:
  40bde0:	55                   	push   %rbp
  40bde1:	48 89 e5             	mov    %rsp,%rbp
  40bde4:	48 b8 ff ff ff ff ff 	movabs $0xfffffffffffffff,%rax
  40bdeb:	ff ff 0f 
  40bdee:	48 89 7d f8          	mov    %rdi,-0x8(%rbp)
  40bdf2:	5d                   	pop    %rbp
  40bdf3:	c3                   	retq   
  40bdf4:	66 2e 0f 1f 84 00 00 	nopw   %cs:0x0(%rax,%rax,1)
  40bdfb:	00 00 00 
  40bdfe:	66 90                	xchg   %ax,%ax

000000000040be00 <_ZNSt16allocator_traitsISaISt4pairISt6threadbEEE8allocateERS3_m>:
  40be00:	55                   	push   %rbp
  40be01:	48 89 e5             	mov    %rsp,%rbp
  40be04:	48 83 ec 20          	sub    $0x20,%rsp
  40be08:	31 c0                	xor    %eax,%eax
  40be0a:	89 c2                	mov    %eax,%edx
  40be0c:	48 89 7d f8          	mov    %rdi,-0x8(%rbp)
  40be10:	48 89 75 f0          	mov    %rsi,-0x10(%rbp)
  40be14:	48 8b 75 f8          	mov    -0x8(%rbp),%rsi
  40be18:	48 8b 7d f0          	mov    -0x10(%rbp),%rdi
  40be1c:	48 89 7d e8          	mov    %rdi,-0x18(%rbp)
  40be20:	48 89 f7             	mov    %rsi,%rdi
  40be23:	48 8b 75 e8          	mov    -0x18(%rbp),%rsi
  40be27:	e8 14 00 00 00       	callq  40be40 <_ZN9__gnu_cxx13new_allocatorISt4pairISt6threadbEE8allocateEmPKv>
  40be2c:	48 83 c4 20          	add    $0x20,%rsp
  40be30:	5d                   	pop    %rbp
  40be31:	c3                   	retq   
  40be32:	66 2e 0f 1f 84 00 00 	nopw   %cs:0x0(%rax,%rax,1)
  40be39:	00 00 00 
  40be3c:	0f 1f 40 00          	nopl   0x0(%rax)

000000000040be40 <_ZN9__gnu_cxx13new_allocatorISt4pairISt6threadbEE8allocateEmPKv>:
  40be40:	55                   	push   %rbp
  40be41:	48 89 e5             	mov    %rsp,%rbp
  40be44:	48 83 ec 20          	sub    $0x20,%rsp
  40be48:	48 89 7d f8          	mov    %rdi,-0x8(%rbp)
  40be4c:	48 89 75 f0          	mov    %rsi,-0x10(%rbp)
  40be50:	48 89 55 e8          	mov    %rdx,-0x18(%rbp)
  40be54:	48 8b 7d f8          	mov    -0x8(%rbp),%rdi
  40be58:	48 8b 55 f0          	mov    -0x10(%rbp),%rdx
  40be5c:	48 89 55 e0          	mov    %rdx,-0x20(%rbp)
  40be60:	e8 7b ff ff ff       	callq  40bde0 <_ZNK9__gnu_cxx13new_allocatorISt4pairISt6threadbEE8max_sizeEv>
  40be65:	48 8b 55 e0          	mov    -0x20(%rbp),%rdx
  40be69:	48 39 c2             	cmp    %rax,%rdx
  40be6c:	0f 86 05 00 00 00    	jbe    40be77 <_ZN9__gnu_cxx13new_allocatorISt4pairISt6threadbEE8allocateEmPKv+0x37>
  40be72:	e8 29 6d ff ff       	callq  402ba0 <_ZSt17__throw_bad_allocv@plt>
  40be77:	48 8b 45 f0          	mov    -0x10(%rbp),%rax
  40be7b:	48 c1 e0 04          	shl    $0x4,%rax
  40be7f:	48 89 c7             	mov    %rax,%rdi
  40be82:	e8 29 6f ff ff       	callq  402db0 <_Znwm@plt>
  40be87:	48 83 c4 20          	add    $0x20,%rsp
  40be8b:	5d                   	pop    %rbp
  40be8c:	c3                   	retq   
  40be8d:	0f 1f 00             	nopl   (%rax)

000000000040be90 <_ZSt22__uninitialized_copy_aISt13move_iteratorIPSt4pairISt6threadbEES4_S3_ET0_T_S7_S6_RSaIT1_E>:
  40be90:	55                   	push   %rbp
  40be91:	48 89 e5             	mov    %rsp,%rbp
  40be94:	48 83 ec 30          	sub    $0x30,%rsp
  40be98:	48 89 7d f8          	mov    %rdi,-0x8(%rbp)
  40be9c:	48 89 75 f0          	mov    %rsi,-0x10(%rbp)
  40bea0:	48 89 55 e8          	mov    %rdx,-0x18(%rbp)
  40bea4:	48 89 4d e0          	mov    %rcx,-0x20(%rbp)
  40bea8:	48 8b 4d f8          	mov    -0x8(%rbp),%rcx
  40beac:	48 89 4d d8          	mov    %rcx,-0x28(%rbp)
  40beb0:	48 8b 4d f0          	mov    -0x10(%rbp),%rcx
  40beb4:	48 89 4d d0          	mov    %rcx,-0x30(%rbp)
  40beb8:	48 8b 55 e8          	mov    -0x18(%rbp),%rdx
  40bebc:	48 8b 7d d8          	mov    -0x28(%rbp),%rdi
  40bec0:	48 8b 75 d0          	mov    -0x30(%rbp),%rsi
  40bec4:	e8 37 00 00 00       	callq  40bf00 <_ZSt18uninitialized_copyISt13move_iteratorIPSt4pairISt6threadbEES4_ET0_T_S7_S6_>
  40bec9:	48 83 c4 30          	add    $0x30,%rsp
  40becd:	5d                   	pop    %rbp
  40bece:	c3                   	retq   
  40becf:	90                   	nop

000000000040bed0 <_ZSt32__make_move_if_noexcept_iteratorIPSt4pairISt6threadbESt13move_iteratorIS3_EET0_T_>:
  40bed0:	55                   	push   %rbp
  40bed1:	48 89 e5             	mov    %rsp,%rbp
  40bed4:	48 83 ec 10          	sub    $0x10,%rsp
  40bed8:	48 8d 45 f8          	lea    -0x8(%rbp),%rax
  40bedc:	48 89 7d f0          	mov    %rdi,-0x10(%rbp)
  40bee0:	48 8b 75 f0          	mov    -0x10(%rbp),%rsi
  40bee4:	48 89 c7             	mov    %rax,%rdi
  40bee7:	e8 b4 03 00 00       	callq  40c2a0 <_ZNSt13move_iteratorIPSt4pairISt6threadbEEC2ES3_>
  40beec:	48 8b 45 f8          	mov    -0x8(%rbp),%rax
  40bef0:	48 83 c4 10          	add    $0x10,%rsp
  40bef4:	5d                   	pop    %rbp
  40bef5:	c3                   	retq   
  40bef6:	66 2e 0f 1f 84 00 00 	nopw   %cs:0x0(%rax,%rax,1)
  40befd:	00 00 00 

000000000040bf00 <_ZSt18uninitialized_copyISt13move_iteratorIPSt4pairISt6threadbEES4_ET0_T_S7_S6_>:
  40bf00:	55                   	push   %rbp
  40bf01:	48 89 e5             	mov    %rsp,%rbp
  40bf04:	48 83 ec 30          	sub    $0x30,%rsp
  40bf08:	48 89 7d f8          	mov    %rdi,-0x8(%rbp)
  40bf0c:	48 89 75 f0          	mov    %rsi,-0x10(%rbp)
  40bf10:	48 89 55 e8          	mov    %rdx,-0x18(%rbp)
  40bf14:	c6 45 e7 01          	movb   $0x1,-0x19(%rbp)
  40bf18:	48 8b 55 f8          	mov    -0x8(%rbp),%rdx
  40bf1c:	48 89 55 d8          	mov    %rdx,-0x28(%rbp)
  40bf20:	48 8b 55 f0          	mov    -0x10(%rbp),%rdx
  40bf24:	48 89 55 d0          	mov    %rdx,-0x30(%rbp)
  40bf28:	48 8b 55 e8          	mov    -0x18(%rbp),%rdx
  40bf2c:	48 8b 7d d8          	mov    -0x28(%rbp),%rdi
  40bf30:	48 8b 75 d0          	mov    -0x30(%rbp),%rsi
  40bf34:	e8 07 00 00 00       	callq  40bf40 <_ZNSt20__uninitialized_copyILb0EE13__uninit_copyISt13move_iteratorIPSt4pairISt6threadbEES6_EET0_T_S9_S8_>
  40bf39:	48 83 c4 30          	add    $0x30,%rsp
  40bf3d:	5d                   	pop    %rbp
  40bf3e:	c3                   	retq   
  40bf3f:	90                   	nop

000000000040bf40 <_ZNSt20__uninitialized_copyILb0EE13__uninit_copyISt13move_iteratorIPSt4pairISt6threadbEES6_EET0_T_S9_S8_>:
  40bf40:	55                   	push   %rbp
  40bf41:	48 89 e5             	mov    %rsp,%rbp
  40bf44:	48 83 ec 60          	sub    $0x60,%rsp
  40bf48:	48 89 7d f8          	mov    %rdi,-0x8(%rbp)
  40bf4c:	48 89 75 f0          	mov    %rsi,-0x10(%rbp)
  40bf50:	48 89 55 e8          	mov    %rdx,-0x18(%rbp)
  40bf54:	48 8b 55 e8          	mov    -0x18(%rbp),%rdx
  40bf58:	48 89 55 e0          	mov    %rdx,-0x20(%rbp)
  40bf5c:	48 8d 7d f8          	lea    -0x8(%rbp),%rdi
  40bf60:	48 8d 75 f0          	lea    -0x10(%rbp),%rsi
  40bf64:	e8 e7 00 00 00       	callq  40c050 <_ZStneIPSt4pairISt6threadbEEbRKSt13move_iteratorIT_ES8_>
  40bf69:	88 45 d3             	mov    %al,-0x2d(%rbp)
  40bf6c:	e9 00 00 00 00       	jmpq   40bf71 <_ZNSt20__uninitialized_copyILb0EE13__uninit_copyISt13move_iteratorIPSt4pairISt6threadbEES6_EET0_T_S9_S8_+0x31>
  40bf71:	8a 45 d3             	mov    -0x2d(%rbp),%al
  40bf74:	a8 01                	test   $0x1,%al
  40bf76:	0f 85 05 00 00 00    	jne    40bf81 <_ZNSt20__uninitialized_copyILb0EE13__uninit_copyISt13move_iteratorIPSt4pairISt6threadbEES6_EET0_T_S9_S8_+0x41>
  40bf7c:	e9 8b 00 00 00       	jmpq   40c00c <_ZNSt20__uninitialized_copyILb0EE13__uninit_copyISt13move_iteratorIPSt4pairISt6threadbEES6_EET0_T_S9_S8_+0xcc>
  40bf81:	48 8b 7d e0          	mov    -0x20(%rbp),%rdi
  40bf85:	e8 86 f2 ff ff       	callq  40b210 <_ZSt11__addressofISt4pairISt6threadbEEPT_RS3_>
  40bf8a:	48 8d 7d f8          	lea    -0x8(%rbp),%rdi
  40bf8e:	48 89 45 c8          	mov    %rax,-0x38(%rbp)
  40bf92:	e8 29 01 00 00       	callq  40c0c0 <_ZNKSt13move_iteratorIPSt4pairISt6threadbEEdeEv>
  40bf97:	48 89 45 c0          	mov    %rax,-0x40(%rbp)
  40bf9b:	e9 00 00 00 00       	jmpq   40bfa0 <_ZNSt20__uninitialized_copyILb0EE13__uninit_copyISt13move_iteratorIPSt4pairISt6threadbEES6_EET0_T_S9_S8_+0x60>
  40bfa0:	48 8b 7d c8          	mov    -0x38(%rbp),%rdi
  40bfa4:	48 8b 75 c0          	mov    -0x40(%rbp),%rsi
  40bfa8:	e8 d3 00 00 00       	callq  40c080 <_ZSt10_ConstructISt4pairISt6threadbEJS2_EEvPT_DpOT0_>
  40bfad:	e9 00 00 00 00       	jmpq   40bfb2 <_ZNSt20__uninitialized_copyILb0EE13__uninit_copyISt13move_iteratorIPSt4pairISt6threadbEES6_EET0_T_S9_S8_+0x72>
  40bfb2:	e9 00 00 00 00       	jmpq   40bfb7 <_ZNSt20__uninitialized_copyILb0EE13__uninit_copyISt13move_iteratorIPSt4pairISt6threadbEES6_EET0_T_S9_S8_+0x77>
  40bfb7:	48 8d 7d f8          	lea    -0x8(%rbp),%rdi
  40bfbb:	e8 20 01 00 00       	callq  40c0e0 <_ZNSt13move_iteratorIPSt4pairISt6threadbEEppEv>
  40bfc0:	48 89 45 b8          	mov    %rax,-0x48(%rbp)
  40bfc4:	e9 00 00 00 00       	jmpq   40bfc9 <_ZNSt20__uninitialized_copyILb0EE13__uninit_copyISt13move_iteratorIPSt4pairISt6threadbEES6_EET0_T_S9_S8_+0x89>
  40bfc9:	48 8b 45 e0          	mov    -0x20(%rbp),%rax
  40bfcd:	48 83 c0 10          	add    $0x10,%rax
  40bfd1:	48 89 45 e0          	mov    %rax,-0x20(%rbp)
  40bfd5:	e9 82 ff ff ff       	jmpq   40bf5c <_ZNSt20__uninitialized_copyILb0EE13__uninit_copyISt13move_iteratorIPSt4pairISt6threadbEES6_EET0_T_S9_S8_+0x1c>
  40bfda:	89 d1                	mov    %edx,%ecx
  40bfdc:	48 89 45 d8          	mov    %rax,-0x28(%rbp)
  40bfe0:	89 4d d4             	mov    %ecx,-0x2c(%rbp)
  40bfe3:	48 8b 7d d8          	mov    -0x28(%rbp),%rdi
  40bfe7:	e8 d4 6b ff ff       	callq  402bc0 <__cxa_begin_catch@plt>
  40bfec:	48 8b 7d e8          	mov    -0x18(%rbp),%rdi
  40bff0:	48 8b 75 e0          	mov    -0x20(%rbp),%rsi
  40bff4:	48 89 45 b0          	mov    %rax,-0x50(%rbp)
  40bff8:	e8 73 f1 ff ff       	callq  40b170 <_ZSt8_DestroyIPSt4pairISt6threadbEEvT_S4_>
  40bffd:	e9 00 00 00 00       	jmpq   40c002 <_ZNSt20__uninitialized_copyILb0EE13__uninit_copyISt13move_iteratorIPSt4pairISt6threadbEES6_EET0_T_S9_S8_+0xc2>
  40c002:	e8 09 6f ff ff       	callq  402f10 <__cxa_rethrow@plt>
  40c007:	e9 38 00 00 00       	jmpq   40c044 <_ZNSt20__uninitialized_copyILb0EE13__uninit_copyISt13move_iteratorIPSt4pairISt6threadbEES6_EET0_T_S9_S8_+0x104>
  40c00c:	48 8b 45 e0          	mov    -0x20(%rbp),%rax
  40c010:	48 83 c4 60          	add    $0x60,%rsp
  40c014:	5d                   	pop    %rbp
  40c015:	c3                   	retq   
  40c016:	89 d1                	mov    %edx,%ecx
  40c018:	48 89 45 d8          	mov    %rax,-0x28(%rbp)
  40c01c:	89 4d d4             	mov    %ecx,-0x2c(%rbp)
  40c01f:	e8 6c 6f ff ff       	callq  402f90 <__cxa_end_catch@plt>
  40c024:	e9 00 00 00 00       	jmpq   40c029 <_ZNSt20__uninitialized_copyILb0EE13__uninit_copyISt13move_iteratorIPSt4pairISt6threadbEES6_EET0_T_S9_S8_+0xe9>
  40c029:	e9 00 00 00 00       	jmpq   40c02e <_ZNSt20__uninitialized_copyILb0EE13__uninit_copyISt13move_iteratorIPSt4pairISt6threadbEES6_EET0_T_S9_S8_+0xee>
  40c02e:	48 8b 7d d8          	mov    -0x28(%rbp),%rdi
  40c032:	e8 e9 6f ff ff       	callq  403020 <_Unwind_Resume@plt>
  40c037:	89 d1                	mov    %edx,%ecx
  40c039:	48 89 c7             	mov    %rax,%rdi
  40c03c:	89 4d ac             	mov    %ecx,-0x54(%rbp)
  40c03f:	e8 7c b4 ff ff       	callq  4074c0 <__clang_call_terminate>
  40c044:	66 2e 0f 1f 84 00 00 	nopw   %cs:0x0(%rax,%rax,1)
  40c04b:	00 00 00 
  40c04e:	66 90                	xchg   %ax,%ax

000000000040c050 <_ZStneIPSt4pairISt6threadbEEbRKSt13move_iteratorIT_ES8_>:
  40c050:	55                   	push   %rbp
  40c051:	48 89 e5             	mov    %rsp,%rbp
  40c054:	48 83 ec 10          	sub    $0x10,%rsp
  40c058:	48 89 7d f8          	mov    %rdi,-0x8(%rbp)
  40c05c:	48 89 75 f0          	mov    %rsi,-0x10(%rbp)
  40c060:	48 8b 7d f8          	mov    -0x8(%rbp),%rdi
  40c064:	48 8b 75 f0          	mov    -0x10(%rbp),%rsi
  40c068:	e8 93 00 00 00       	callq  40c100 <_ZSteqIPSt4pairISt6threadbEEbRKSt13move_iteratorIT_ES8_>
  40c06d:	34 ff                	xor    $0xff,%al
  40c06f:	24 01                	and    $0x1,%al
  40c071:	0f b6 c0             	movzbl %al,%eax
  40c074:	48 83 c4 10          	add    $0x10,%rsp
  40c078:	5d                   	pop    %rbp
  40c079:	c3                   	retq   
  40c07a:	66 0f 1f 44 00 00    	nopw   0x0(%rax,%rax,1)

000000000040c080 <_ZSt10_ConstructISt4pairISt6threadbEJS2_EEvPT_DpOT0_>:
  40c080:	55                   	push   %rbp
  40c081:	48 89 e5             	mov    %rsp,%rbp
  40c084:	48 83 ec 20          	sub    $0x20,%rsp
  40c088:	48 89 7d f8          	mov    %rdi,-0x8(%rbp)
  40c08c:	48 89 75 f0          	mov    %rsi,-0x10(%rbp)
  40c090:	48 8b 75 f8          	mov    -0x8(%rbp),%rsi
  40c094:	48 8b 7d f0          	mov    -0x10(%rbp),%rdi
  40c098:	48 89 75 e8          	mov    %rsi,-0x18(%rbp)
  40c09c:	e8 bf 00 00 00       	callq  40c160 <_ZSt7forwardISt4pairISt6threadbEEOT_RNSt16remove_referenceIS3_E4typeE>
  40c0a1:	48 8b 7d e8          	mov    -0x18(%rbp),%rdi
  40c0a5:	48 89 c6             	mov    %rax,%rsi
  40c0a8:	e8 c3 00 00 00       	callq  40c170 <_ZNSt4pairISt6threadbEC2EOS1_>
  40c0ad:	48 83 c4 20          	add    $0x20,%rsp
  40c0b1:	5d                   	pop    %rbp
  40c0b2:	c3                   	retq   
  40c0b3:	66 2e 0f 1f 84 00 00 	nopw   %cs:0x0(%rax,%rax,1)
  40c0ba:	00 00 00 
  40c0bd:	0f 1f 00             	nopl   (%rax)

000000000040c0c0 <_ZNKSt13move_iteratorIPSt4pairISt6threadbEEdeEv>:
  40c0c0:	55                   	push   %rbp
  40c0c1:	48 89 e5             	mov    %rsp,%rbp
  40c0c4:	48 89 7d f8          	mov    %rdi,-0x8(%rbp)
  40c0c8:	48 8b 7d f8          	mov    -0x8(%rbp),%rdi
  40c0cc:	48 8b 07             	mov    (%rdi),%rax
  40c0cf:	5d                   	pop    %rbp
  40c0d0:	c3                   	retq   
  40c0d1:	66 2e 0f 1f 84 00 00 	nopw   %cs:0x0(%rax,%rax,1)
  40c0d8:	00 00 00 
  40c0db:	0f 1f 44 00 00       	nopl   0x0(%rax,%rax,1)

000000000040c0e0 <_ZNSt13move_iteratorIPSt4pairISt6threadbEEppEv>:
  40c0e0:	55                   	push   %rbp
  40c0e1:	48 89 e5             	mov    %rsp,%rbp
  40c0e4:	48 89 7d f8          	mov    %rdi,-0x8(%rbp)
  40c0e8:	48 8b 7d f8          	mov    -0x8(%rbp),%rdi
  40c0ec:	48 8b 07             	mov    (%rdi),%rax
  40c0ef:	48 83 c0 10          	add    $0x10,%rax
  40c0f3:	48 89 07             	mov    %rax,(%rdi)
  40c0f6:	48 89 f8             	mov    %rdi,%rax
  40c0f9:	5d                   	pop    %rbp
  40c0fa:	c3                   	retq   
  40c0fb:	0f 1f 44 00 00       	nopl   0x0(%rax,%rax,1)

000000000040c100 <_ZSteqIPSt4pairISt6threadbEEbRKSt13move_iteratorIT_ES8_>:
  40c100:	55                   	push   %rbp
  40c101:	48 89 e5             	mov    %rsp,%rbp
  40c104:	48 83 ec 20          	sub    $0x20,%rsp
  40c108:	48 89 7d f8          	mov    %rdi,-0x8(%rbp)
  40c10c:	48 89 75 f0          	mov    %rsi,-0x10(%rbp)
  40c110:	48 8b 7d f8          	mov    -0x8(%rbp),%rdi
  40c114:	e8 27 00 00 00       	callq  40c140 <_ZNKSt13move_iteratorIPSt4pairISt6threadbEE4baseEv>
  40c119:	48 8b 7d f0          	mov    -0x10(%rbp),%rdi
  40c11d:	48 89 45 e8          	mov    %rax,-0x18(%rbp)
  40c121:	e8 1a 00 00 00       	callq  40c140 <_ZNKSt13move_iteratorIPSt4pairISt6threadbEE4baseEv>
  40c126:	48 8b 75 e8          	mov    -0x18(%rbp),%rsi
  40c12a:	48 39 c6             	cmp    %rax,%rsi
  40c12d:	0f 94 c1             	sete   %cl
  40c130:	80 e1 01             	and    $0x1,%cl
  40c133:	0f b6 c1             	movzbl %cl,%eax
  40c136:	48 83 c4 20          	add    $0x20,%rsp
  40c13a:	5d                   	pop    %rbp
  40c13b:	c3                   	retq   
  40c13c:	0f 1f 40 00          	nopl   0x0(%rax)

000000000040c140 <_ZNKSt13move_iteratorIPSt4pairISt6threadbEE4baseEv>:
  40c140:	55                   	push   %rbp
  40c141:	48 89 e5             	mov    %rsp,%rbp
  40c144:	48 89 7d f8          	mov    %rdi,-0x8(%rbp)
  40c148:	48 8b 7d f8          	mov    -0x8(%rbp),%rdi
  40c14c:	48 8b 07             	mov    (%rdi),%rax
  40c14f:	5d                   	pop    %rbp
  40c150:	c3                   	retq   
  40c151:	66 2e 0f 1f 84 00 00 	nopw   %cs:0x0(%rax,%rax,1)
  40c158:	00 00 00 
  40c15b:	0f 1f 44 00 00       	nopl   0x0(%rax,%rax,1)

000000000040c160 <_ZSt7forwardISt4pairISt6threadbEEOT_RNSt16remove_referenceIS3_E4typeE>:
  40c160:	55                   	push   %rbp
  40c161:	48 89 e5             	mov    %rsp,%rbp
  40c164:	48 89 7d f8          	mov    %rdi,-0x8(%rbp)
  40c168:	48 8b 45 f8          	mov    -0x8(%rbp),%rax
  40c16c:	5d                   	pop    %rbp
  40c16d:	c3                   	retq   
  40c16e:	66 90                	xchg   %ax,%ax

000000000040c170 <_ZNSt4pairISt6threadbEC2EOS1_>:
  40c170:	55                   	push   %rbp
  40c171:	48 89 e5             	mov    %rsp,%rbp
  40c174:	48 83 ec 20          	sub    $0x20,%rsp
  40c178:	48 89 7d f8          	mov    %rdi,-0x8(%rbp)
  40c17c:	48 89 75 f0          	mov    %rsi,-0x10(%rbp)
  40c180:	48 8b 75 f8          	mov    -0x8(%rbp),%rsi
  40c184:	48 8b 7d f0          	mov    -0x10(%rbp),%rdi
  40c188:	48 89 7d e8          	mov    %rdi,-0x18(%rbp)
  40c18c:	48 89 f7             	mov    %rsi,%rdi
  40c18f:	48 8b 45 e8          	mov    -0x18(%rbp),%rax
  40c193:	48 89 75 e0          	mov    %rsi,-0x20(%rbp)
  40c197:	48 89 c6             	mov    %rax,%rsi
  40c19a:	e8 21 00 00 00       	callq  40c1c0 <_ZNSt6threadC2EOS_>
  40c19f:	48 8b 45 f0          	mov    -0x10(%rbp),%rax
  40c1a3:	8a 48 08             	mov    0x8(%rax),%cl
  40c1a6:	80 e1 01             	and    $0x1,%cl
  40c1a9:	48 8b 45 e0          	mov    -0x20(%rbp),%rax
  40c1ad:	88 48 08             	mov    %cl,0x8(%rax)
  40c1b0:	48 83 c4 20          	add    $0x20,%rsp
  40c1b4:	5d                   	pop    %rbp
  40c1b5:	c3                   	retq   
  40c1b6:	66 2e 0f 1f 84 00 00 	nopw   %cs:0x0(%rax,%rax,1)
  40c1bd:	00 00 00 

000000000040c1c0 <_ZNSt6threadC2EOS_>:
  40c1c0:	55                   	push   %rbp
  40c1c1:	48 89 e5             	mov    %rsp,%rbp
  40c1c4:	48 83 ec 20          	sub    $0x20,%rsp
  40c1c8:	48 89 7d f8          	mov    %rdi,-0x8(%rbp)
  40c1cc:	48 89 75 f0          	mov    %rsi,-0x10(%rbp)
  40c1d0:	48 8b 75 f8          	mov    -0x8(%rbp),%rsi
  40c1d4:	48 89 f7             	mov    %rsi,%rdi
  40c1d7:	48 89 75 e8          	mov    %rsi,-0x18(%rbp)
  40c1db:	e8 30 f1 ff ff       	callq  40b310 <_ZNSt6thread2idC2Ev>
  40c1e0:	48 8b 75 f0          	mov    -0x10(%rbp),%rsi
  40c1e4:	48 8b 7d e8          	mov    -0x18(%rbp),%rdi
  40c1e8:	e8 13 00 00 00       	callq  40c200 <_ZNSt6thread4swapERS_>
  40c1ed:	48 83 c4 20          	add    $0x20,%rsp
  40c1f1:	5d                   	pop    %rbp
  40c1f2:	c3                   	retq   
  40c1f3:	66 2e 0f 1f 84 00 00 	nopw   %cs:0x0(%rax,%rax,1)
  40c1fa:	00 00 00 
  40c1fd:	0f 1f 00             	nopl   (%rax)

000000000040c200 <_ZNSt6thread4swapERS_>:
  40c200:	55                   	push   %rbp
  40c201:	48 89 e5             	mov    %rsp,%rbp
  40c204:	48 83 ec 10          	sub    $0x10,%rsp
  40c208:	48 89 7d f8          	mov    %rdi,-0x8(%rbp)
  40c20c:	48 89 75 f0          	mov    %rsi,-0x10(%rbp)
  40c210:	48 8b 7d f8          	mov    -0x8(%rbp),%rdi
  40c214:	48 8b 75 f0          	mov    -0x10(%rbp),%rsi
  40c218:	e8 13 00 00 00       	callq  40c230 <_ZSt4swapINSt6thread2idEEvRT_S3_>
  40c21d:	48 83 c4 10          	add    $0x10,%rsp
  40c221:	5d                   	pop    %rbp
  40c222:	c3                   	retq   
  40c223:	66 2e 0f 1f 84 00 00 	nopw   %cs:0x0(%rax,%rax,1)
  40c22a:	00 00 00 
  40c22d:	0f 1f 00             	nopl   (%rax)

000000000040c230 <_ZSt4swapINSt6thread2idEEvRT_S3_>:
  40c230:	55                   	push   %rbp
  40c231:	48 89 e5             	mov    %rsp,%rbp
  40c234:	48 83 ec 30          	sub    $0x30,%rsp
  40c238:	48 89 7d f8          	mov    %rdi,-0x8(%rbp)
  40c23c:	48 89 75 f0          	mov    %rsi,-0x10(%rbp)
  40c240:	48 8b 7d f8          	mov    -0x8(%rbp),%rdi
  40c244:	e8 47 00 00 00       	callq  40c290 <_ZSt4moveIRNSt6thread2idEEONSt16remove_referenceIT_E4typeEOS4_>
  40c249:	48 8b 00             	mov    (%rax),%rax
  40c24c:	48 89 45 e8          	mov    %rax,-0x18(%rbp)
  40c250:	48 8b 45 f8          	mov    -0x8(%rbp),%rax
  40c254:	48 8b 7d f0          	mov    -0x10(%rbp),%rdi
  40c258:	48 89 45 e0          	mov    %rax,-0x20(%rbp)
  40c25c:	e8 2f 00 00 00       	callq  40c290 <_ZSt4moveIRNSt6thread2idEEONSt16remove_referenceIT_E4typeEOS4_>
  40c261:	48 8d 7d e8          	lea    -0x18(%rbp),%rdi
  40c265:	48 8b 00             	mov    (%rax),%rax
  40c268:	48 8b 75 e0          	mov    -0x20(%rbp),%rsi
  40c26c:	48 89 06             	mov    %rax,(%rsi)
  40c26f:	48 8b 45 f0          	mov    -0x10(%rbp),%rax
  40c273:	48 89 45 d8          	mov    %rax,-0x28(%rbp)
  40c277:	e8 14 00 00 00       	callq  40c290 <_ZSt4moveIRNSt6thread2idEEONSt16remove_referenceIT_E4typeEOS4_>
  40c27c:	48 8b 00             	mov    (%rax),%rax
  40c27f:	48 8b 75 d8          	mov    -0x28(%rbp),%rsi
  40c283:	48 89 06             	mov    %rax,(%rsi)
  40c286:	48 83 c4 30          	add    $0x30,%rsp
  40c28a:	5d                   	pop    %rbp
  40c28b:	c3                   	retq   
  40c28c:	0f 1f 40 00          	nopl   0x0(%rax)

000000000040c290 <_ZSt4moveIRNSt6thread2idEEONSt16remove_referenceIT_E4typeEOS4_>:
  40c290:	55                   	push   %rbp
  40c291:	48 89 e5             	mov    %rsp,%rbp
  40c294:	48 89 7d f8          	mov    %rdi,-0x8(%rbp)
  40c298:	48 8b 45 f8          	mov    -0x8(%rbp),%rax
  40c29c:	5d                   	pop    %rbp
  40c29d:	c3                   	retq   
  40c29e:	66 90                	xchg   %ax,%ax

000000000040c2a0 <_ZNSt13move_iteratorIPSt4pairISt6threadbEEC2ES3_>:
  40c2a0:	55                   	push   %rbp
  40c2a1:	48 89 e5             	mov    %rsp,%rbp
  40c2a4:	48 89 7d f8          	mov    %rdi,-0x8(%rbp)
  40c2a8:	48 89 75 f0          	mov    %rsi,-0x10(%rbp)
  40c2ac:	48 8b 75 f8          	mov    -0x8(%rbp),%rsi
  40c2b0:	48 8b 7d f0          	mov    -0x10(%rbp),%rdi
  40c2b4:	48 89 3e             	mov    %rdi,(%rsi)
  40c2b7:	5d                   	pop    %rbp
  40c2b8:	c3                   	retq   
  40c2b9:	0f 1f 80 00 00 00 00 	nopl   0x0(%rax)

000000000040c2c0 <_ZN9__gnu_cxx13new_allocatorISt4pairISt6threadbEE7destroyIS3_EEvPT_>:
  40c2c0:	55                   	push   %rbp
  40c2c1:	48 89 e5             	mov    %rsp,%rbp
  40c2c4:	48 83 ec 10          	sub    $0x10,%rsp
  40c2c8:	48 89 7d f8          	mov    %rdi,-0x8(%rbp)
  40c2cc:	48 89 75 f0          	mov    %rsi,-0x10(%rbp)
  40c2d0:	48 8b 7d f0          	mov    -0x10(%rbp),%rdi
  40c2d4:	e8 57 ef ff ff       	callq  40b230 <_ZNSt4pairISt6threadbED2Ev>
  40c2d9:	48 83 c4 10          	add    $0x10,%rsp
  40c2dd:	5d                   	pop    %rbp
  40c2de:	c3                   	retq   
  40c2df:	90                   	nop

000000000040c2e0 <_ZN9__gnu_cxxeqIPSt4pairISt6threadbESt6vectorIS3_SaIS3_EEEEbRKNS_17__normal_iteratorIT_T0_EESD_>:
  40c2e0:	55                   	push   %rbp
  40c2e1:	48 89 e5             	mov    %rsp,%rbp
  40c2e4:	48 83 ec 20          	sub    $0x20,%rsp
  40c2e8:	48 89 7d f8          	mov    %rdi,-0x8(%rbp)
  40c2ec:	48 89 75 f0          	mov    %rsi,-0x10(%rbp)
  40c2f0:	48 8b 7d f8          	mov    -0x8(%rbp),%rdi
  40c2f4:	e8 b7 f1 ff ff       	callq  40b4b0 <_ZNK9__gnu_cxx17__normal_iteratorIPSt4pairISt6threadbESt6vectorIS3_SaIS3_EEE4baseEv>
  40c2f9:	48 8b 00             	mov    (%rax),%rax
  40c2fc:	48 8b 7d f0          	mov    -0x10(%rbp),%rdi
  40c300:	48 89 45 e8          	mov    %rax,-0x18(%rbp)
  40c304:	e8 a7 f1 ff ff       	callq  40b4b0 <_ZNK9__gnu_cxx17__normal_iteratorIPSt4pairISt6threadbESt6vectorIS3_SaIS3_EEE4baseEv>
  40c309:	48 8b 75 e8          	mov    -0x18(%rbp),%rsi
  40c30d:	48 3b 30             	cmp    (%rax),%rsi
  40c310:	0f 94 c1             	sete   %cl
  40c313:	80 e1 01             	and    $0x1,%cl
  40c316:	0f b6 c1             	movzbl %cl,%eax
  40c319:	48 83 c4 20          	add    $0x20,%rsp
  40c31d:	5d                   	pop    %rbp
  40c31e:	c3                   	retq   
  40c31f:	90                   	nop

000000000040c320 <_ZNSt4pairISt6threadbEaSEOS1_>:
  40c320:	55                   	push   %rbp
  40c321:	48 89 e5             	mov    %rsp,%rbp
  40c324:	48 83 ec 20          	sub    $0x20,%rsp
  40c328:	48 89 7d f8          	mov    %rdi,-0x8(%rbp)
  40c32c:	48 89 75 f0          	mov    %rsi,-0x10(%rbp)
  40c330:	48 8b 75 f8          	mov    -0x8(%rbp),%rsi
  40c334:	48 8b 7d f0          	mov    -0x10(%rbp),%rdi
  40c338:	48 89 75 e8          	mov    %rsi,-0x18(%rbp)
  40c33c:	e8 ef 00 00 00       	callq  40c430 <_ZSt7forwardISt6threadEOT_RNSt16remove_referenceIS1_E4typeE>
  40c341:	48 8b 7d e8          	mov    -0x18(%rbp),%rdi
  40c345:	48 89 c6             	mov    %rax,%rsi
  40c348:	e8 93 00 00 00       	callq  40c3e0 <_ZNSt6threadaSEOS_>
  40c34d:	48 8b 75 f0          	mov    -0x10(%rbp),%rsi
  40c351:	48 83 c6 08          	add    $0x8,%rsi
  40c355:	48 89 f7             	mov    %rsi,%rdi
  40c358:	48 89 45 e0          	mov    %rax,-0x20(%rbp)
  40c35c:	e8 5f f1 ff ff       	callq  40b4c0 <_ZSt7forwardIbEOT_RNSt16remove_referenceIS0_E4typeE>
  40c361:	8a 08                	mov    (%rax),%cl
  40c363:	80 e1 01             	and    $0x1,%cl
  40c366:	48 8b 45 e8          	mov    -0x18(%rbp),%rax
  40c36a:	88 48 08             	mov    %cl,0x8(%rax)
  40c36d:	48 83 c4 20          	add    $0x20,%rsp
  40c371:	5d                   	pop    %rbp
  40c372:	c3                   	retq   
  40c373:	66 2e 0f 1f 84 00 00 	nopw   %cs:0x0(%rax,%rax,1)
  40c37a:	00 00 00 
  40c37d:	0f 1f 00             	nopl   (%rax)

000000000040c380 <_ZSt4moveIRSt4pairISt6threadbEEONSt16remove_referenceIT_E4typeEOS5_>:
  40c380:	55                   	push   %rbp
  40c381:	48 89 e5             	mov    %rsp,%rbp
  40c384:	48 89 7d f8          	mov    %rdi,-0x8(%rbp)
  40c388:	48 8b 45 f8          	mov    -0x8(%rbp),%rax
  40c38c:	5d                   	pop    %rbp
  40c38d:	c3                   	retq   
  40c38e:	66 90                	xchg   %ax,%ax

000000000040c390 <_ZSt19__iterator_categoryIN9__gnu_cxx17__normal_iteratorIPSt4pairISt6threadbESt6vectorIS4_SaIS4_EEEEENSt15iterator_traitsIT_E17iterator_categoryERKSB_>:
  40c390:	55                   	push   %rbp
  40c391:	48 89 e5             	mov    %rsp,%rbp
  40c394:	48 89 7d f0          	mov    %rdi,-0x10(%rbp)
  40c398:	5d                   	pop    %rbp
  40c399:	c3                   	retq   
  40c39a:	66 0f 1f 44 00 00    	nopw   0x0(%rax,%rax,1)

000000000040c3a0 <_ZN9__gnu_cxxmiIPSt4pairISt6threadbESt6vectorIS3_SaIS3_EEEENS_17__normal_iteratorIT_T0_E15difference_typeERKSB_SE_>:
  40c3a0:	55                   	push   %rbp
  40c3a1:	48 89 e5             	mov    %rsp,%rbp
  40c3a4:	48 83 ec 20          	sub    $0x20,%rsp
  40c3a8:	48 89 7d f8          	mov    %rdi,-0x8(%rbp)
  40c3ac:	48 89 75 f0          	mov    %rsi,-0x10(%rbp)
  40c3b0:	48 8b 7d f8          	mov    -0x8(%rbp),%rdi
  40c3b4:	e8 f7 f0 ff ff       	callq  40b4b0 <_ZNK9__gnu_cxx17__normal_iteratorIPSt4pairISt6threadbESt6vectorIS3_SaIS3_EEE4baseEv>
  40c3b9:	48 8b 00             	mov    (%rax),%rax
  40c3bc:	48 8b 7d f0          	mov    -0x10(%rbp),%rdi
  40c3c0:	48 89 45 e8          	mov    %rax,-0x18(%rbp)
  40c3c4:	e8 e7 f0 ff ff       	callq  40b4b0 <_ZNK9__gnu_cxx17__normal_iteratorIPSt4pairISt6threadbESt6vectorIS3_SaIS3_EEE4baseEv>
  40c3c9:	48 8b 00             	mov    (%rax),%rax
  40c3cc:	48 8b 75 e8          	mov    -0x18(%rbp),%rsi
  40c3d0:	48 29 c6             	sub    %rax,%rsi
  40c3d3:	48 c1 fe 04          	sar    $0x4,%rsi
  40c3d7:	48 89 f0             	mov    %rsi,%rax
  40c3da:	48 83 c4 20          	add    $0x20,%rsp
  40c3de:	5d                   	pop    %rbp
  40c3df:	c3                   	retq   

000000000040c3e0 <_ZNSt6threadaSEOS_>:
  40c3e0:	55                   	push   %rbp
  40c3e1:	48 89 e5             	mov    %rsp,%rbp
  40c3e4:	48 83 ec 20          	sub    $0x20,%rsp
  40c3e8:	48 89 7d f8          	mov    %rdi,-0x8(%rbp)
  40c3ec:	48 89 75 f0          	mov    %rsi,-0x10(%rbp)
  40c3f0:	48 8b 75 f8          	mov    -0x8(%rbp),%rsi
  40c3f4:	48 89 f7             	mov    %rsi,%rdi
  40c3f7:	48 89 75 e8          	mov    %rsi,-0x18(%rbp)
  40c3fb:	e8 80 ee ff ff       	callq  40b280 <_ZNKSt6thread8joinableEv>
  40c400:	a8 01                	test   $0x1,%al
  40c402:	0f 85 05 00 00 00    	jne    40c40d <_ZNSt6threadaSEOS_+0x2d>
  40c408:	e9 05 00 00 00       	jmpq   40c412 <_ZNSt6threadaSEOS_+0x32>
  40c40d:	e8 1e 67 ff ff       	callq  402b30 <_ZSt9terminatev@plt>
  40c412:	48 8b 75 f0          	mov    -0x10(%rbp),%rsi
  40c416:	48 8b 7d e8          	mov    -0x18(%rbp),%rdi
  40c41a:	e8 e1 fd ff ff       	callq  40c200 <_ZNSt6thread4swapERS_>
  40c41f:	48 8b 45 e8          	mov    -0x18(%rbp),%rax
  40c423:	48 83 c4 20          	add    $0x20,%rsp
  40c427:	5d                   	pop    %rbp
  40c428:	c3                   	retq   
  40c429:	0f 1f 80 00 00 00 00 	nopl   0x0(%rax)

000000000040c430 <_ZSt7forwardISt6threadEOT_RNSt16remove_referenceIS1_E4typeE>:
  40c430:	55                   	push   %rbp
  40c431:	48 89 e5             	mov    %rsp,%rbp
  40c434:	48 89 7d f8          	mov    %rdi,-0x8(%rbp)
  40c438:	48 8b 45 f8          	mov    -0x8(%rbp),%rax
  40c43c:	5d                   	pop    %rbp
  40c43d:	c3                   	retq   
  40c43e:	66 90                	xchg   %ax,%ax

000000000040c440 <_ZNKSt6vectorISt4pairISt6threadbESaIS2_EE6cbeginEv>:
  40c440:	55                   	push   %rbp
  40c441:	48 89 e5             	mov    %rsp,%rbp
  40c444:	48 83 ec 20          	sub    $0x20,%rsp
  40c448:	48 8d 45 f8          	lea    -0x8(%rbp),%rax
  40c44c:	48 8d 75 e8          	lea    -0x18(%rbp),%rsi
  40c450:	48 89 7d f0          	mov    %rdi,-0x10(%rbp)
  40c454:	48 8b 7d f0          	mov    -0x10(%rbp),%rdi
  40c458:	48 8b 3f             	mov    (%rdi),%rdi
  40c45b:	48 89 7d e8          	mov    %rdi,-0x18(%rbp)
  40c45f:	48 89 c7             	mov    %rax,%rdi
  40c462:	e8 99 01 00 00       	callq  40c600 <_ZN9__gnu_cxx17__normal_iteratorIPKSt4pairISt6threadbESt6vectorIS3_SaIS3_EEEC2ERKS5_>
  40c467:	48 8b 45 f8          	mov    -0x8(%rbp),%rax
  40c46b:	48 83 c4 20          	add    $0x20,%rsp
  40c46f:	5d                   	pop    %rbp
  40c470:	c3                   	retq   
  40c471:	66 2e 0f 1f 84 00 00 	nopw   %cs:0x0(%rax,%rax,1)
  40c478:	00 00 00 
  40c47b:	0f 1f 44 00 00       	nopl   0x0(%rax,%rax,1)

000000000040c480 <_ZNSt6vectorISt4pairISt6threadbESaIS2_EE8_M_eraseEN9__gnu_cxx17__normal_iteratorIPS2_S4_EES8_>:
  40c480:	55                   	push   %rbp
  40c481:	48 89 e5             	mov    %rsp,%rbp
  40c484:	48 83 ec 60          	sub    $0x60,%rsp
  40c488:	48 8d 45 f0          	lea    -0x10(%rbp),%rax
  40c48c:	48 8d 4d e8          	lea    -0x18(%rbp),%rcx
  40c490:	48 89 75 f0          	mov    %rsi,-0x10(%rbp)
  40c494:	48 89 55 e8          	mov    %rdx,-0x18(%rbp)
  40c498:	48 89 7d e0          	mov    %rdi,-0x20(%rbp)
  40c49c:	48 8b 55 e0          	mov    -0x20(%rbp),%rdx
  40c4a0:	48 89 c7             	mov    %rax,%rdi
  40c4a3:	48 89 ce             	mov    %rcx,%rsi
  40c4a6:	48 89 55 a8          	mov    %rdx,-0x58(%rbp)
  40c4aa:	e8 81 a9 ff ff       	callq  406e30 <_ZN9__gnu_cxxneIPSt4pairISt6threadbESt6vectorIS3_SaIS3_EEEEbRKNS_17__normal_iteratorIT_T0_EESD_>
  40c4af:	a8 01                	test   $0x1,%al
  40c4b1:	0f 85 05 00 00 00    	jne    40c4bc <_ZNSt6vectorISt4pairISt6threadbESaIS2_EE8_M_eraseEN9__gnu_cxx17__normal_iteratorIPS2_S4_EES8_+0x3c>
  40c4b7:	e9 97 00 00 00       	jmpq   40c553 <_ZNSt6vectorISt4pairISt6threadbESaIS2_EE8_M_eraseEN9__gnu_cxx17__normal_iteratorIPS2_S4_EES8_+0xd3>
  40c4bc:	48 8b 7d a8          	mov    -0x58(%rbp),%rdi
  40c4c0:	e8 2b a9 ff ff       	callq  406df0 <_ZNSt6vectorISt4pairISt6threadbESaIS2_EE3endEv>
  40c4c5:	48 8d 7d e8          	lea    -0x18(%rbp),%rdi
  40c4c9:	48 8d 75 d8          	lea    -0x28(%rbp),%rsi
  40c4cd:	48 89 45 d8          	mov    %rax,-0x28(%rbp)
  40c4d1:	e8 5a a9 ff ff       	callq  406e30 <_ZN9__gnu_cxxneIPSt4pairISt6threadbESt6vectorIS3_SaIS3_EEEEbRKNS_17__normal_iteratorIT_T0_EESD_>
  40c4d6:	a8 01                	test   $0x1,%al
  40c4d8:	0f 85 05 00 00 00    	jne    40c4e3 <_ZNSt6vectorISt4pairISt6threadbESaIS2_EE8_M_eraseEN9__gnu_cxx17__normal_iteratorIPS2_S4_EES8_+0x63>
  40c4de:	e9 32 00 00 00       	jmpq   40c515 <_ZNSt6vectorISt4pairISt6threadbESaIS2_EE8_M_eraseEN9__gnu_cxx17__normal_iteratorIPS2_S4_EES8_+0x95>
  40c4e3:	48 8b 45 e8          	mov    -0x18(%rbp),%rax
  40c4e7:	48 89 45 d0          	mov    %rax,-0x30(%rbp)
  40c4eb:	48 8b 7d a8          	mov    -0x58(%rbp),%rdi
  40c4ef:	e8 fc a8 ff ff       	callq  406df0 <_ZNSt6vectorISt4pairISt6threadbESaIS2_EE3endEv>
  40c4f4:	48 89 45 c8          	mov    %rax,-0x38(%rbp)
  40c4f8:	48 8b 45 f0          	mov    -0x10(%rbp),%rax
  40c4fc:	48 89 45 c0          	mov    %rax,-0x40(%rbp)
  40c500:	48 8b 7d d0          	mov    -0x30(%rbp),%rdi
  40c504:	48 8b 75 c8          	mov    -0x38(%rbp),%rsi
  40c508:	48 8b 55 c0          	mov    -0x40(%rbp),%rdx
  40c50c:	e8 0f 01 00 00       	callq  40c620 <_ZSt4moveIN9__gnu_cxx17__normal_iteratorIPSt4pairISt6threadbESt6vectorIS4_SaIS4_EEEES9_ET0_T_SB_SA_>
  40c511:	48 89 45 b8          	mov    %rax,-0x48(%rbp)
  40c515:	48 8d 7d f0          	lea    -0x10(%rbp),%rdi
  40c519:	e8 92 ef ff ff       	callq  40b4b0 <_ZNK9__gnu_cxx17__normal_iteratorIPSt4pairISt6threadbESt6vectorIS3_SaIS3_EEE4baseEv>
  40c51e:	48 8b 00             	mov    (%rax),%rax
  40c521:	48 8b 7d a8          	mov    -0x58(%rbp),%rdi
  40c525:	48 89 45 a0          	mov    %rax,-0x60(%rbp)
  40c529:	e8 c2 a8 ff ff       	callq  406df0 <_ZNSt6vectorISt4pairISt6threadbESaIS2_EE3endEv>
  40c52e:	48 8d 7d b0          	lea    -0x50(%rbp),%rdi
  40c532:	48 8d 75 e8          	lea    -0x18(%rbp),%rsi
  40c536:	48 89 45 b0          	mov    %rax,-0x50(%rbp)
  40c53a:	e8 61 fe ff ff       	callq  40c3a0 <_ZN9__gnu_cxxmiIPSt4pairISt6threadbESt6vectorIS3_SaIS3_EEEENS_17__normal_iteratorIT_T0_E15difference_typeERKSB_SE_>
  40c53f:	48 c1 e0 04          	shl    $0x4,%rax
  40c543:	48 8b 75 a0          	mov    -0x60(%rbp),%rsi
  40c547:	48 01 c6             	add    %rax,%rsi
  40c54a:	48 8b 7d a8          	mov    -0x58(%rbp),%rdi
  40c54e:	e8 3d 01 00 00       	callq  40c690 <_ZNSt6vectorISt4pairISt6threadbESaIS2_EE15_M_erase_at_endEPS2_>
  40c553:	48 8b 45 f0          	mov    -0x10(%rbp),%rax
  40c557:	48 89 45 f8          	mov    %rax,-0x8(%rbp)
  40c55b:	48 8b 45 f8          	mov    -0x8(%rbp),%rax
  40c55f:	48 83 c4 60          	add    $0x60,%rsp
  40c563:	5d                   	pop    %rbp
  40c564:	c3                   	retq   
  40c565:	66 2e 0f 1f 84 00 00 	nopw   %cs:0x0(%rax,%rax,1)
  40c56c:	00 00 00 
  40c56f:	90                   	nop

000000000040c570 <_ZNK9__gnu_cxx17__normal_iteratorIPSt4pairISt6threadbESt6vectorIS3_SaIS3_EEEplEl>:
  40c570:	55                   	push   %rbp
  40c571:	48 89 e5             	mov    %rsp,%rbp
  40c574:	48 83 ec 20          	sub    $0x20,%rsp
  40c578:	48 8d 45 f8          	lea    -0x8(%rbp),%rax
  40c57c:	48 8d 4d e0          	lea    -0x20(%rbp),%rcx
  40c580:	48 89 7d f0          	mov    %rdi,-0x10(%rbp)
  40c584:	48 89 75 e8          	mov    %rsi,-0x18(%rbp)
  40c588:	48 8b 75 f0          	mov    -0x10(%rbp),%rsi
  40c58c:	48 8b 36             	mov    (%rsi),%rsi
  40c58f:	48 8b 7d e8          	mov    -0x18(%rbp),%rdi
  40c593:	48 c1 e7 04          	shl    $0x4,%rdi
  40c597:	48 01 fe             	add    %rdi,%rsi
  40c59a:	48 89 75 e0          	mov    %rsi,-0x20(%rbp)
  40c59e:	48 89 c7             	mov    %rax,%rdi
  40c5a1:	48 89 ce             	mov    %rcx,%rsi
  40c5a4:	e8 e7 ee ff ff       	callq  40b490 <_ZN9__gnu_cxx17__normal_iteratorIPSt4pairISt6threadbESt6vectorIS3_SaIS3_EEEC2ERKS4_>
  40c5a9:	48 8b 45 f8          	mov    -0x8(%rbp),%rax
  40c5ad:	48 83 c4 20          	add    $0x20,%rsp
  40c5b1:	5d                   	pop    %rbp
  40c5b2:	c3                   	retq   
  40c5b3:	66 2e 0f 1f 84 00 00 	nopw   %cs:0x0(%rax,%rax,1)
  40c5ba:	00 00 00 
  40c5bd:	0f 1f 00             	nopl   (%rax)

000000000040c5c0 <_ZN9__gnu_cxxmiIPKSt4pairISt6threadbESt6vectorIS3_SaIS3_EEEENS_17__normal_iteratorIT_T0_E15difference_typeERKSC_SF_>:
  40c5c0:	55                   	push   %rbp
  40c5c1:	48 89 e5             	mov    %rsp,%rbp
  40c5c4:	48 83 ec 20          	sub    $0x20,%rsp
  40c5c8:	48 89 7d f8          	mov    %rdi,-0x8(%rbp)
  40c5cc:	48 89 75 f0          	mov    %rsi,-0x10(%rbp)
  40c5d0:	48 8b 7d f8          	mov    -0x8(%rbp),%rdi
  40c5d4:	e8 07 03 00 00       	callq  40c8e0 <_ZNK9__gnu_cxx17__normal_iteratorIPKSt4pairISt6threadbESt6vectorIS3_SaIS3_EEE4baseEv>
  40c5d9:	48 8b 00             	mov    (%rax),%rax
  40c5dc:	48 8b 7d f0          	mov    -0x10(%rbp),%rdi
  40c5e0:	48 89 45 e8          	mov    %rax,-0x18(%rbp)
  40c5e4:	e8 f7 02 00 00       	callq  40c8e0 <_ZNK9__gnu_cxx17__normal_iteratorIPKSt4pairISt6threadbESt6vectorIS3_SaIS3_EEE4baseEv>
  40c5e9:	48 8b 00             	mov    (%rax),%rax
  40c5ec:	48 8b 75 e8          	mov    -0x18(%rbp),%rsi
  40c5f0:	48 29 c6             	sub    %rax,%rsi
  40c5f3:	48 c1 fe 04          	sar    $0x4,%rsi
  40c5f7:	48 89 f0             	mov    %rsi,%rax
  40c5fa:	48 83 c4 20          	add    $0x20,%rsp
  40c5fe:	5d                   	pop    %rbp
  40c5ff:	c3                   	retq   

000000000040c600 <_ZN9__gnu_cxx17__normal_iteratorIPKSt4pairISt6threadbESt6vectorIS3_SaIS3_EEEC2ERKS5_>:
  40c600:	55                   	push   %rbp
  40c601:	48 89 e5             	mov    %rsp,%rbp
  40c604:	48 89 7d f8          	mov    %rdi,-0x8(%rbp)
  40c608:	48 89 75 f0          	mov    %rsi,-0x10(%rbp)
  40c60c:	48 8b 75 f8          	mov    -0x8(%rbp),%rsi
  40c610:	48 8b 7d f0          	mov    -0x10(%rbp),%rdi
  40c614:	48 8b 3f             	mov    (%rdi),%rdi
  40c617:	48 89 3e             	mov    %rdi,(%rsi)
  40c61a:	5d                   	pop    %rbp
  40c61b:	c3                   	retq   
  40c61c:	0f 1f 40 00          	nopl   0x0(%rax)

000000000040c620 <_ZSt4moveIN9__gnu_cxx17__normal_iteratorIPSt4pairISt6threadbESt6vectorIS4_SaIS4_EEEES9_ET0_T_SB_SA_>:
  40c620:	55                   	push   %rbp
  40c621:	48 89 e5             	mov    %rsp,%rbp
  40c624:	48 83 ec 50          	sub    $0x50,%rsp
  40c628:	48 89 7d f0          	mov    %rdi,-0x10(%rbp)
  40c62c:	48 89 75 e8          	mov    %rsi,-0x18(%rbp)
  40c630:	48 89 55 e0          	mov    %rdx,-0x20(%rbp)
  40c634:	48 8b 55 f0          	mov    -0x10(%rbp),%rdx
  40c638:	48 89 55 d0          	mov    %rdx,-0x30(%rbp)
  40c63c:	48 8b 7d d0          	mov    -0x30(%rbp),%rdi
  40c640:	e8 2b 01 00 00       	callq  40c770 <_ZSt12__miter_baseIN9__gnu_cxx17__normal_iteratorIPSt4pairISt6threadbESt6vectorIS4_SaIS4_EEEEENSt11_Miter_baseIT_E13iterator_typeESB_>
  40c645:	48 89 45 d8          	mov    %rax,-0x28(%rbp)
  40c649:	48 8b 45 e8          	mov    -0x18(%rbp),%rax
  40c64d:	48 89 45 c0          	mov    %rax,-0x40(%rbp)
  40c651:	48 8b 7d c0          	mov    -0x40(%rbp),%rdi
  40c655:	e8 16 01 00 00       	callq  40c770 <_ZSt12__miter_baseIN9__gnu_cxx17__normal_iteratorIPSt4pairISt6threadbESt6vectorIS4_SaIS4_EEEEENSt11_Miter_baseIT_E13iterator_typeESB_>
  40c65a:	48 89 45 c8          	mov    %rax,-0x38(%rbp)
  40c65e:	48 8b 45 e0          	mov    -0x20(%rbp),%rax
  40c662:	48 89 45 b8          	mov    %rax,-0x48(%rbp)
  40c666:	48 8b 7d d8          	mov    -0x28(%rbp),%rdi
  40c66a:	48 8b 75 c8          	mov    -0x38(%rbp),%rsi
  40c66e:	48 8b 55 b8          	mov    -0x48(%rbp),%rdx
  40c672:	e8 79 00 00 00       	callq  40c6f0 <_ZSt14__copy_move_a2ILb1EN9__gnu_cxx17__normal_iteratorIPSt4pairISt6threadbESt6vectorIS4_SaIS4_EEEES9_ET1_T0_SB_SA_>
  40c677:	48 89 45 f8          	mov    %rax,-0x8(%rbp)
  40c67b:	48 8b 45 f8          	mov    -0x8(%rbp),%rax
  40c67f:	48 83 c4 50          	add    $0x50,%rsp
  40c683:	5d                   	pop    %rbp
  40c684:	c3                   	retq   
  40c685:	66 2e 0f 1f 84 00 00 	nopw   %cs:0x0(%rax,%rax,1)
  40c68c:	00 00 00 
  40c68f:	90                   	nop

000000000040c690 <_ZNSt6vectorISt4pairISt6threadbESaIS2_EE15_M_erase_at_endEPS2_>:
  40c690:	55                   	push   %rbp
  40c691:	48 89 e5             	mov    %rsp,%rbp
  40c694:	48 83 ec 30          	sub    $0x30,%rsp
  40c698:	48 89 7d f8          	mov    %rdi,-0x8(%rbp)
  40c69c:	48 89 75 f0          	mov    %rsi,-0x10(%rbp)
  40c6a0:	48 8b 7d f8          	mov    -0x8(%rbp),%rdi
  40c6a4:	48 8b 47 08          	mov    0x8(%rdi),%rax
  40c6a8:	48 89 7d e8          	mov    %rdi,-0x18(%rbp)
  40c6ac:	48 89 75 e0          	mov    %rsi,-0x20(%rbp)
  40c6b0:	48 89 45 d8          	mov    %rax,-0x28(%rbp)
  40c6b4:	e8 37 ea ff ff       	callq  40b0f0 <_ZNSt12_Vector_baseISt4pairISt6threadbESaIS2_EE19_M_get_Tp_allocatorEv>
  40c6b9:	48 8b 7d e0          	mov    -0x20(%rbp),%rdi
  40c6bd:	48 8b 75 d8          	mov    -0x28(%rbp),%rsi
  40c6c1:	48 89 c2             	mov    %rax,%rdx
  40c6c4:	e8 f7 e9 ff ff       	callq  40b0c0 <_ZSt8_DestroyIPSt4pairISt6threadbES2_EvT_S4_RSaIT0_E>
  40c6c9:	e9 00 00 00 00       	jmpq   40c6ce <_ZNSt6vectorISt4pairISt6threadbESaIS2_EE15_M_erase_at_endEPS2_+0x3e>
  40c6ce:	48 8b 45 f0          	mov    -0x10(%rbp),%rax
  40c6d2:	48 8b 4d e8          	mov    -0x18(%rbp),%rcx
  40c6d6:	48 89 41 08          	mov    %rax,0x8(%rcx)
  40c6da:	48 83 c4 30          	add    $0x30,%rsp
  40c6de:	5d                   	pop    %rbp
  40c6df:	c3                   	retq   
  40c6e0:	89 d1                	mov    %edx,%ecx
  40c6e2:	48 89 c7             	mov    %rax,%rdi
  40c6e5:	89 4d d4             	mov    %ecx,-0x2c(%rbp)
  40c6e8:	e8 d3 ad ff ff       	callq  4074c0 <__clang_call_terminate>
  40c6ed:	0f 1f 00             	nopl   (%rax)

000000000040c6f0 <_ZSt14__copy_move_a2ILb1EN9__gnu_cxx17__normal_iteratorIPSt4pairISt6threadbESt6vectorIS4_SaIS4_EEEES9_ET1_T0_SB_SA_>:
  40c6f0:	55                   	push   %rbp
  40c6f1:	48 89 e5             	mov    %rsp,%rbp
  40c6f4:	48 83 ec 50          	sub    $0x50,%rsp
  40c6f8:	48 89 7d f0          	mov    %rdi,-0x10(%rbp)
  40c6fc:	48 89 75 e8          	mov    %rsi,-0x18(%rbp)
  40c700:	48 89 55 e0          	mov    %rdx,-0x20(%rbp)
  40c704:	48 8b 55 f0          	mov    -0x10(%rbp),%rdx
  40c708:	48 89 55 d0          	mov    %rdx,-0x30(%rbp)
  40c70c:	48 8b 7d d0          	mov    -0x30(%rbp),%rdi
  40c710:	e8 bb 00 00 00       	callq  40c7d0 <_ZSt12__niter_baseIN9__gnu_cxx17__normal_iteratorIPSt4pairISt6threadbESt6vectorIS4_SaIS4_EEEEENSt11_Niter_baseIT_E13iterator_typeESB_>
  40c715:	48 8b 55 e8          	mov    -0x18(%rbp),%rdx
  40c719:	48 89 55 c8          	mov    %rdx,-0x38(%rbp)
  40c71d:	48 8b 7d c8          	mov    -0x38(%rbp),%rdi
  40c721:	48 89 45 b8          	mov    %rax,-0x48(%rbp)
  40c725:	e8 a6 00 00 00       	callq  40c7d0 <_ZSt12__niter_baseIN9__gnu_cxx17__normal_iteratorIPSt4pairISt6threadbESt6vectorIS4_SaIS4_EEEEENSt11_Niter_baseIT_E13iterator_typeESB_>
  40c72a:	48 8b 55 e0          	mov    -0x20(%rbp),%rdx
  40c72e:	48 89 55 c0          	mov    %rdx,-0x40(%rbp)
  40c732:	48 8b 7d c0          	mov    -0x40(%rbp),%rdi
  40c736:	48 89 45 b0          	mov    %rax,-0x50(%rbp)
  40c73a:	e8 91 00 00 00       	callq  40c7d0 <_ZSt12__niter_baseIN9__gnu_cxx17__normal_iteratorIPSt4pairISt6threadbESt6vectorIS4_SaIS4_EEEEENSt11_Niter_baseIT_E13iterator_typeESB_>
  40c73f:	48 8b 7d b8          	mov    -0x48(%rbp),%rdi
  40c743:	48 8b 75 b0          	mov    -0x50(%rbp),%rsi
  40c747:	48 89 c2             	mov    %rax,%rdx
  40c74a:	e8 51 00 00 00       	callq  40c7a0 <_ZSt13__copy_move_aILb1EPSt4pairISt6threadbES3_ET1_T0_S5_S4_>
  40c74f:	48 8d 7d f8          	lea    -0x8(%rbp),%rdi
  40c753:	48 8d 75 d8          	lea    -0x28(%rbp),%rsi
  40c757:	48 89 45 d8          	mov    %rax,-0x28(%rbp)
  40c75b:	e8 30 ed ff ff       	callq  40b490 <_ZN9__gnu_cxx17__normal_iteratorIPSt4pairISt6threadbESt6vectorIS3_SaIS3_EEEC2ERKS4_>
  40c760:	48 8b 45 f8          	mov    -0x8(%rbp),%rax
  40c764:	48 83 c4 50          	add    $0x50,%rsp
  40c768:	5d                   	pop    %rbp
  40c769:	c3                   	retq   
  40c76a:	66 0f 1f 44 00 00    	nopw   0x0(%rax,%rax,1)

000000000040c770 <_ZSt12__miter_baseIN9__gnu_cxx17__normal_iteratorIPSt4pairISt6threadbESt6vectorIS4_SaIS4_EEEEENSt11_Miter_baseIT_E13iterator_typeESB_>:
  40c770:	55                   	push   %rbp
  40c771:	48 89 e5             	mov    %rsp,%rbp
  40c774:	48 83 ec 20          	sub    $0x20,%rsp
  40c778:	48 89 7d f0          	mov    %rdi,-0x10(%rbp)
  40c77c:	48 8b 7d f0          	mov    -0x10(%rbp),%rdi
  40c780:	48 89 7d e8          	mov    %rdi,-0x18(%rbp)
  40c784:	48 8b 7d e8          	mov    -0x18(%rbp),%rdi
  40c788:	e8 33 01 00 00       	callq  40c8c0 <_ZNSt10_Iter_baseIN9__gnu_cxx17__normal_iteratorIPSt4pairISt6threadbESt6vectorIS4_SaIS4_EEEELb0EE7_S_baseES9_>
  40c78d:	48 89 45 f8          	mov    %rax,-0x8(%rbp)
  40c791:	48 8b 45 f8          	mov    -0x8(%rbp),%rax
  40c795:	48 83 c4 20          	add    $0x20,%rsp
  40c799:	5d                   	pop    %rbp
  40c79a:	c3                   	retq   
  40c79b:	0f 1f 44 00 00       	nopl   0x0(%rax,%rax,1)

000000000040c7a0 <_ZSt13__copy_move_aILb1EPSt4pairISt6threadbES3_ET1_T0_S5_S4_>:
  40c7a0:	55                   	push   %rbp
  40c7a1:	48 89 e5             	mov    %rsp,%rbp
  40c7a4:	48 83 ec 20          	sub    $0x20,%rsp
  40c7a8:	48 89 7d f8          	mov    %rdi,-0x8(%rbp)
  40c7ac:	48 89 75 f0          	mov    %rsi,-0x10(%rbp)
  40c7b0:	48 89 55 e8          	mov    %rdx,-0x18(%rbp)
  40c7b4:	c6 45 e7 00          	movb   $0x0,-0x19(%rbp)
  40c7b8:	48 8b 7d f8          	mov    -0x8(%rbp),%rdi
  40c7bc:	48 8b 75 f0          	mov    -0x10(%rbp),%rsi
  40c7c0:	48 8b 55 e8          	mov    -0x18(%rbp),%rdx
  40c7c4:	e8 37 00 00 00       	callq  40c800 <_ZNSt11__copy_moveILb1ELb0ESt26random_access_iterator_tagE8__copy_mIPSt4pairISt6threadbES6_EET0_T_S8_S7_>
  40c7c9:	48 83 c4 20          	add    $0x20,%rsp
  40c7cd:	5d                   	pop    %rbp
  40c7ce:	c3                   	retq   
  40c7cf:	90                   	nop

000000000040c7d0 <_ZSt12__niter_baseIN9__gnu_cxx17__normal_iteratorIPSt4pairISt6threadbESt6vectorIS4_SaIS4_EEEEENSt11_Niter_baseIT_E13iterator_typeESB_>:
  40c7d0:	55                   	push   %rbp
  40c7d1:	48 89 e5             	mov    %rsp,%rbp
  40c7d4:	48 83 ec 10          	sub    $0x10,%rsp
  40c7d8:	48 89 7d f8          	mov    %rdi,-0x8(%rbp)
  40c7dc:	48 8b 7d f8          	mov    -0x8(%rbp),%rdi
  40c7e0:	48 89 7d f0          	mov    %rdi,-0x10(%rbp)
  40c7e4:	48 8b 7d f0          	mov    -0x10(%rbp),%rdi
  40c7e8:	e8 a3 00 00 00       	callq  40c890 <_ZNSt10_Iter_baseIN9__gnu_cxx17__normal_iteratorIPSt4pairISt6threadbESt6vectorIS4_SaIS4_EEEELb1EE7_S_baseES9_>
  40c7ed:	48 83 c4 10          	add    $0x10,%rsp
  40c7f1:	5d                   	pop    %rbp
  40c7f2:	c3                   	retq   
  40c7f3:	66 2e 0f 1f 84 00 00 	nopw   %cs:0x0(%rax,%rax,1)
  40c7fa:	00 00 00 
  40c7fd:	0f 1f 00             	nopl   (%rax)

000000000040c800 <_ZNSt11__copy_moveILb1ELb0ESt26random_access_iterator_tagE8__copy_mIPSt4pairISt6threadbES6_EET0_T_S8_S7_>:
  40c800:	55                   	push   %rbp
  40c801:	48 89 e5             	mov    %rsp,%rbp
  40c804:	48 83 ec 30          	sub    $0x30,%rsp
  40c808:	48 89 7d f8          	mov    %rdi,-0x8(%rbp)
  40c80c:	48 89 75 f0          	mov    %rsi,-0x10(%rbp)
  40c810:	48 89 55 e8          	mov    %rdx,-0x18(%rbp)
  40c814:	48 8b 55 f0          	mov    -0x10(%rbp),%rdx
  40c818:	48 8b 75 f8          	mov    -0x8(%rbp),%rsi
  40c81c:	48 29 f2             	sub    %rsi,%rdx
  40c81f:	48 c1 fa 04          	sar    $0x4,%rdx
  40c823:	48 89 55 e0          	mov    %rdx,-0x20(%rbp)
  40c827:	48 83 7d e0 00       	cmpq   $0x0,-0x20(%rbp)
  40c82c:	0f 8e 4d 00 00 00    	jle    40c87f <_ZNSt11__copy_moveILb1ELb0ESt26random_access_iterator_tagE8__copy_mIPSt4pairISt6threadbES6_EET0_T_S8_S7_+0x7f>
  40c832:	48 8b 7d e8          	mov    -0x18(%rbp),%rdi
  40c836:	48 8b 45 f8          	mov    -0x8(%rbp),%rax
  40c83a:	48 89 7d d8          	mov    %rdi,-0x28(%rbp)
  40c83e:	48 89 c7             	mov    %rax,%rdi
  40c841:	e8 3a fb ff ff       	callq  40c380 <_ZSt4moveIRSt4pairISt6threadbEEONSt16remove_referenceIT_E4typeEOS5_>
  40c846:	48 8b 7d d8          	mov    -0x28(%rbp),%rdi
  40c84a:	48 89 c6             	mov    %rax,%rsi
  40c84d:	e8 ce fa ff ff       	callq  40c320 <_ZNSt4pairISt6threadbEaSEOS1_>
  40c852:	48 8b 75 f8          	mov    -0x8(%rbp),%rsi
  40c856:	48 83 c6 10          	add    $0x10,%rsi
  40c85a:	48 89 75 f8          	mov    %rsi,-0x8(%rbp)
  40c85e:	48 8b 75 e8          	mov    -0x18(%rbp),%rsi
  40c862:	48 83 c6 10          	add    $0x10,%rsi
  40c866:	48 89 75 e8          	mov    %rsi,-0x18(%rbp)
  40c86a:	48 89 45 d0          	mov    %rax,-0x30(%rbp)
  40c86e:	48 8b 45 e0          	mov    -0x20(%rbp),%rax
  40c872:	48 83 c0 ff          	add    $0xffffffffffffffff,%rax
  40c876:	48 89 45 e0          	mov    %rax,-0x20(%rbp)
  40c87a:	e9 a8 ff ff ff       	jmpq   40c827 <_ZNSt11__copy_moveILb1ELb0ESt26random_access_iterator_tagE8__copy_mIPSt4pairISt6threadbES6_EET0_T_S8_S7_+0x27>
  40c87f:	48 8b 45 e8          	mov    -0x18(%rbp),%rax
  40c883:	48 83 c4 30          	add    $0x30,%rsp
  40c887:	5d                   	pop    %rbp
  40c888:	c3                   	retq   
  40c889:	0f 1f 80 00 00 00 00 	nopl   0x0(%rax)

000000000040c890 <_ZNSt10_Iter_baseIN9__gnu_cxx17__normal_iteratorIPSt4pairISt6threadbESt6vectorIS4_SaIS4_EEEELb1EE7_S_baseES9_>:
  40c890:	55                   	push   %rbp
  40c891:	48 89 e5             	mov    %rsp,%rbp
  40c894:	48 83 ec 10          	sub    $0x10,%rsp
  40c898:	48 8d 45 f8          	lea    -0x8(%rbp),%rax
  40c89c:	48 89 7d f8          	mov    %rdi,-0x8(%rbp)
  40c8a0:	48 89 c7             	mov    %rax,%rdi
  40c8a3:	e8 08 ec ff ff       	callq  40b4b0 <_ZNK9__gnu_cxx17__normal_iteratorIPSt4pairISt6threadbESt6vectorIS3_SaIS3_EEE4baseEv>
  40c8a8:	48 8b 00             	mov    (%rax),%rax
  40c8ab:	48 83 c4 10          	add    $0x10,%rsp
  40c8af:	5d                   	pop    %rbp
  40c8b0:	c3                   	retq   
  40c8b1:	66 2e 0f 1f 84 00 00 	nopw   %cs:0x0(%rax,%rax,1)
  40c8b8:	00 00 00 
  40c8bb:	0f 1f 44 00 00       	nopl   0x0(%rax,%rax,1)

000000000040c8c0 <_ZNSt10_Iter_baseIN9__gnu_cxx17__normal_iteratorIPSt4pairISt6threadbESt6vectorIS4_SaIS4_EEEELb0EE7_S_baseES9_>:
  40c8c0:	55                   	push   %rbp
  40c8c1:	48 89 e5             	mov    %rsp,%rbp
  40c8c4:	48 89 7d f0          	mov    %rdi,-0x10(%rbp)
  40c8c8:	48 8b 7d f0          	mov    -0x10(%rbp),%rdi
  40c8cc:	48 89 7d f8          	mov    %rdi,-0x8(%rbp)
  40c8d0:	48 8b 45 f8          	mov    -0x8(%rbp),%rax
  40c8d4:	5d                   	pop    %rbp
  40c8d5:	c3                   	retq   
  40c8d6:	66 2e 0f 1f 84 00 00 	nopw   %cs:0x0(%rax,%rax,1)
  40c8dd:	00 00 00 

000000000040c8e0 <_ZNK9__gnu_cxx17__normal_iteratorIPKSt4pairISt6threadbESt6vectorIS3_SaIS3_EEE4baseEv>:
  40c8e0:	55                   	push   %rbp
  40c8e1:	48 89 e5             	mov    %rsp,%rbp
  40c8e4:	48 89 7d f8          	mov    %rdi,-0x8(%rbp)
  40c8e8:	48 8b 45 f8          	mov    -0x8(%rbp),%rax
  40c8ec:	5d                   	pop    %rbp
  40c8ed:	c3                   	retq   
  40c8ee:	66 90                	xchg   %ax,%ax

000000000040c8f0 <_Z7LoadDllPKc>:
  40c8f0:	55                   	push   %rbp
  40c8f1:	48 89 e5             	mov    %rsp,%rbp
  40c8f4:	48 83 ec 10          	sub    $0x10,%rsp
  40c8f8:	be 01 00 00 00       	mov    $0x1,%esi
  40c8fd:	48 89 7d f8          	mov    %rdi,-0x8(%rbp)
  40c901:	48 8b 7d f8          	mov    -0x8(%rbp),%rdi
  40c905:	e8 16 66 ff ff       	callq  402f20 <dlopen@plt>
  40c90a:	48 83 c4 10          	add    $0x10,%rsp
  40c90e:	5d                   	pop    %rbp
  40c90f:	c3                   	retq   

000000000040c910 <_Z7FreeDllPv>:
  40c910:	55                   	push   %rbp
  40c911:	48 89 e5             	mov    %rsp,%rbp
  40c914:	48 83 ec 10          	sub    $0x10,%rsp
  40c918:	48 89 7d f8          	mov    %rdi,-0x8(%rbp)
  40c91c:	48 8b 7d f8          	mov    -0x8(%rbp),%rdi
  40c920:	e8 cb 63 ff ff       	callq  402cf0 <dlclose@plt>
  40c925:	89 45 f4             	mov    %eax,-0xc(%rbp)
  40c928:	48 83 c4 10          	add    $0x10,%rsp
  40c92c:	5d                   	pop    %rbp
  40c92d:	c3                   	retq   
  40c92e:	66 90                	xchg   %ax,%ax

000000000040c930 <_Z11GetProcAddrPvPKc>:
  40c930:	55                   	push   %rbp
  40c931:	48 89 e5             	mov    %rsp,%rbp
  40c934:	48 83 ec 10          	sub    $0x10,%rsp
  40c938:	48 89 7d f8          	mov    %rdi,-0x8(%rbp)
  40c93c:	48 89 75 f0          	mov    %rsi,-0x10(%rbp)
  40c940:	48 8b 7d f8          	mov    -0x8(%rbp),%rdi
  40c944:	48 8b 75 f0          	mov    -0x10(%rbp),%rsi
  40c948:	e8 33 67 ff ff       	callq  403080 <dlsym@plt>
  40c94d:	48 83 c4 10          	add    $0x10,%rsp
  40c951:	5d                   	pop    %rbp
  40c952:	c3                   	retq   
  40c953:	66 66 66 66 2e 0f 1f 	data16 data16 data16 nopw %cs:0x0(%rax,%rax,1)
  40c95a:	84 00 00 00 00 00 

000000000040c960 <_Z9uninstallv>:
  40c960:	55                   	push   %rbp
  40c961:	48 89 e5             	mov    %rsp,%rbp
  40c964:	48 83 ec 10          	sub    $0x10,%rsp
  40c968:	48 bf 90 f0 40 00 00 	movabs $0x40f090,%rdi
  40c96f:	00 00 00 
  40c972:	b0 00                	mov    $0x0,%al
  40c974:	e8 27 61 ff ff       	callq  402aa0 <printf@plt>
  40c979:	89 45 fc             	mov    %eax,-0x4(%rbp)
  40c97c:	48 83 c4 10          	add    $0x10,%rsp
  40c980:	5d                   	pop    %rbp
  40c981:	c3                   	retq   
  40c982:	66 66 66 66 66 2e 0f 	data16 data16 data16 data16 nopw %cs:0x0(%rax,%rax,1)
  40c989:	1f 84 00 00 00 00 00 

000000000040c990 <_Z7test_soRNSt7__cxx1112basic_stringIcSt11char_traitsIcESaIcEEE>:
  40c990:	55                   	push   %rbp
  40c991:	48 89 e5             	mov    %rsp,%rbp
  40c994:	48 83 ec 70          	sub    $0x70,%rsp
  40c998:	48 b8 b3 f0 40 00 00 	movabs $0x40f0b3,%rax
  40c99f:	00 00 00 
  40c9a2:	48 89 7d f0          	mov    %rdi,-0x10(%rbp)
  40c9a6:	48 89 c7             	mov    %rax,%rdi
  40c9a9:	e8 42 ff ff ff       	callq  40c8f0 <_Z7LoadDllPKc>
  40c9ae:	48 89 45 e8          	mov    %rax,-0x18(%rbp)
  40c9b2:	48 83 7d e8 00       	cmpq   $0x0,-0x18(%rbp)
  40c9b7:	0f 85 20 00 00 00    	jne    40c9dd <_Z7test_soRNSt7__cxx1112basic_stringIcSt11char_traitsIcESaIcEEE+0x4d>
  40c9bd:	48 be c3 f0 40 00 00 	movabs $0x40f0c3,%rsi
  40c9c4:	00 00 00 
  40c9c7:	48 8b 7d f0          	mov    -0x10(%rbp),%rdi
  40c9cb:	e8 f0 64 ff ff       	callq  402ec0 <_ZNSt7__cxx1112basic_stringIcSt11char_traitsIcESaIcEEaSEPKc@plt>
  40c9d0:	c6 45 ff 00          	movb   $0x0,-0x1(%rbp)
  40c9d4:	48 89 45 b8          	mov    %rax,-0x48(%rbp)
  40c9d8:	e9 70 01 00 00       	jmpq   40cb4d <_Z7test_soRNSt7__cxx1112basic_stringIcSt11char_traitsIcESaIcEEE+0x1bd>
  40c9dd:	48 be 54 f1 40 00 00 	movabs $0x40f154,%rsi
  40c9e4:	00 00 00 
  40c9e7:	48 8b 7d e8          	mov    -0x18(%rbp),%rdi
  40c9eb:	e8 40 ff ff ff       	callq  40c930 <_Z11GetProcAddrPvPKc>
  40c9f0:	48 89 45 e0          	mov    %rax,-0x20(%rbp)
  40c9f4:	48 83 7d e0 00       	cmpq   $0x0,-0x20(%rbp)
  40c9f9:	0f 85 1c 00 00 00    	jne    40ca1b <_Z7test_soRNSt7__cxx1112basic_stringIcSt11char_traitsIcESaIcEEE+0x8b>
  40c9ff:	48 be fe f0 40 00 00 	movabs $0x40f0fe,%rsi
  40ca06:	00 00 00 
  40ca09:	48 8b 7d f0          	mov    -0x10(%rbp),%rdi
  40ca0d:	e8 ae 64 ff ff       	callq  402ec0 <_ZNSt7__cxx1112basic_stringIcSt11char_traitsIcESaIcEEaSEPKc@plt>
  40ca12:	48 89 45 b0          	mov    %rax,-0x50(%rbp)
  40ca16:	e9 25 01 00 00       	jmpq   40cb40 <_Z7test_soRNSt7__cxx1112basic_stringIcSt11char_traitsIcESaIcEEE+0x1b0>
  40ca1b:	bf 06 00 00 00       	mov    $0x6,%edi
  40ca20:	ff 55 e0             	callq  *-0x20(%rbp)
  40ca23:	a8 01                	test   $0x1,%al
  40ca25:	0f 85 05 00 00 00    	jne    40ca30 <_Z7test_soRNSt7__cxx1112basic_stringIcSt11char_traitsIcESaIcEEE+0xa0>
  40ca2b:	e9 15 00 00 00       	jmpq   40ca45 <_Z7test_soRNSt7__cxx1112basic_stringIcSt11char_traitsIcESaIcEEE+0xb5>
  40ca30:	bf 03 00 00 00       	mov    $0x3,%edi
  40ca35:	ff 55 e0             	callq  *-0x20(%rbp)
  40ca38:	a8 01                	test   $0x1,%al
  40ca3a:	0f 85 05 00 00 00    	jne    40ca45 <_Z7test_soRNSt7__cxx1112basic_stringIcSt11char_traitsIcESaIcEEE+0xb5>
  40ca40:	e9 1c 00 00 00       	jmpq   40ca61 <_Z7test_soRNSt7__cxx1112basic_stringIcSt11char_traitsIcESaIcEEE+0xd1>
  40ca45:	48 be 35 f1 40 00 00 	movabs $0x40f135,%rsi
  40ca4c:	00 00 00 
  40ca4f:	48 8b 7d f0          	mov    -0x10(%rbp),%rdi
  40ca53:	e8 68 64 ff ff       	callq  402ec0 <_ZNSt7__cxx1112basic_stringIcSt11char_traitsIcESaIcEEaSEPKc@plt>
  40ca58:	48 89 45 a8          	mov    %rax,-0x58(%rbp)
  40ca5c:	e9 df 00 00 00       	jmpq   40cb40 <_Z7test_soRNSt7__cxx1112basic_stringIcSt11char_traitsIcESaIcEEE+0x1b0>
  40ca61:	48 be d3 f1 40 00 00 	movabs $0x40f1d3,%rsi
  40ca68:	00 00 00 
  40ca6b:	48 8b 7d e8          	mov    -0x18(%rbp),%rdi
  40ca6f:	e8 bc fe ff ff       	callq  40c930 <_Z11GetProcAddrPvPKc>
  40ca74:	48 89 45 d8          	mov    %rax,-0x28(%rbp)
  40ca78:	48 83 7d d8 00       	cmpq   $0x0,-0x28(%rbp)
  40ca7d:	0f 85 1c 00 00 00    	jne    40ca9f <_Z7test_soRNSt7__cxx1112basic_stringIcSt11char_traitsIcESaIcEEE+0x10f>
  40ca83:	48 be 66 f1 40 00 00 	movabs $0x40f166,%rsi
  40ca8a:	00 00 00 
  40ca8d:	48 8b 7d f0          	mov    -0x10(%rbp),%rdi
  40ca91:	e8 2a 64 ff ff       	callq  402ec0 <_ZNSt7__cxx1112basic_stringIcSt11char_traitsIcESaIcEEaSEPKc@plt>
  40ca96:	48 89 45 a0          	mov    %rax,-0x60(%rbp)
  40ca9a:	e9 a1 00 00 00       	jmpq   40cb40 <_Z7test_soRNSt7__cxx1112basic_stringIcSt11char_traitsIcESaIcEEE+0x1b0>
  40ca9f:	48 bf e0 f2 40 00 00 	movabs $0x40f2e0,%rdi
  40caa6:	00 00 00 
  40caa9:	c6 45 d7 2a          	movb   $0x2a,-0x29(%rbp)
  40caad:	c7 45 d0 73 10 00 00 	movl   $0x1073,-0x30(%rbp)
  40cab4:	c6 45 cf 80          	movb   $0x80,-0x31(%rbp)
  40cab8:	c7 45 c8 68 2b 00 00 	movl   $0x2b68,-0x38(%rbp)
  40cabf:	48 8b 45 d8          	mov    -0x28(%rbp),%rax
  40cac3:	0f b6 75 d7          	movzbl -0x29(%rbp),%esi
  40cac7:	ff d0                	callq  *%rax
  40cac9:	48 bf 20 f3 40 00 00 	movabs $0x40f320,%rdi
  40cad0:	00 00 00 
  40cad3:	89 45 c4             	mov    %eax,-0x3c(%rbp)
  40cad6:	48 8b 4d d8          	mov    -0x28(%rbp),%rcx
  40cada:	0f b6 75 cf          	movzbl -0x31(%rbp),%esi
  40cade:	ff d1                	callq  *%rcx
  40cae0:	89 45 c0             	mov    %eax,-0x40(%rbp)
  40cae3:	8b 45 d0             	mov    -0x30(%rbp),%eax
  40cae6:	3b 45 c4             	cmp    -0x3c(%rbp),%eax
  40cae9:	0f 85 0c 00 00 00    	jne    40cafb <_Z7test_soRNSt7__cxx1112basic_stringIcSt11char_traitsIcESaIcEEE+0x16b>
  40caef:	8b 45 c8             	mov    -0x38(%rbp),%eax
  40caf2:	3b 45 c0             	cmp    -0x40(%rbp),%eax
  40caf5:	0f 84 1c 00 00 00    	je     40cb17 <_Z7test_soRNSt7__cxx1112basic_stringIcSt11char_traitsIcESaIcEEE+0x187>
  40cafb:	48 be b4 f1 40 00 00 	movabs $0x40f1b4,%rsi
  40cb02:	00 00 00 
  40cb05:	48 8b 7d f0          	mov    -0x10(%rbp),%rdi
  40cb09:	e8 b2 63 ff ff       	callq  402ec0 <_ZNSt7__cxx1112basic_stringIcSt11char_traitsIcESaIcEEaSEPKc@plt>
  40cb0e:	48 89 45 98          	mov    %rax,-0x68(%rbp)
  40cb12:	e9 29 00 00 00       	jmpq   40cb40 <_Z7test_soRNSt7__cxx1112basic_stringIcSt11char_traitsIcESaIcEEE+0x1b0>
  40cb17:	48 be fc f1 40 00 00 	movabs $0x40f1fc,%rsi
  40cb1e:	00 00 00 
  40cb21:	48 8b 7d f0          	mov    -0x10(%rbp),%rdi
  40cb25:	e8 96 63 ff ff       	callq  402ec0 <_ZNSt7__cxx1112basic_stringIcSt11char_traitsIcESaIcEEaSEPKc@plt>
  40cb2a:	48 8b 7d e8          	mov    -0x18(%rbp),%rdi
  40cb2e:	48 89 45 90          	mov    %rax,-0x70(%rbp)
  40cb32:	e8 d9 fd ff ff       	callq  40c910 <_Z7FreeDllPv>
  40cb37:	c6 45 ff 01          	movb   $0x1,-0x1(%rbp)
  40cb3b:	e9 0d 00 00 00       	jmpq   40cb4d <_Z7test_soRNSt7__cxx1112basic_stringIcSt11char_traitsIcESaIcEEE+0x1bd>
  40cb40:	48 8b 7d e8          	mov    -0x18(%rbp),%rdi
  40cb44:	e8 c7 fd ff ff       	callq  40c910 <_Z7FreeDllPv>
  40cb49:	c6 45 ff 00          	movb   $0x0,-0x1(%rbp)
  40cb4d:	8a 45 ff             	mov    -0x1(%rbp),%al
  40cb50:	24 01                	and    $0x1,%al
  40cb52:	0f b6 c0             	movzbl %al,%eax
  40cb55:	48 83 c4 70          	add    $0x70,%rsp
  40cb59:	5d                   	pop    %rbp
  40cb5a:	c3                   	retq   
  40cb5b:	0f 1f 44 00 00       	nopl   0x0(%rax,%rax,1)

000000000040cb60 <_Z7getFilei>:
  40cb60:	55                   	push   %rbp
  40cb61:	48 89 e5             	mov    %rsp,%rbp
  40cb64:	48 81 ec 60 03 00 00 	sub    $0x360,%rsp
  40cb6b:	89 7d fc             	mov    %edi,-0x4(%rbp)
  40cb6e:	48 8b 35 cb 98 20 00 	mov    0x2098cb(%rip),%rsi        # 616440 <self_path>
  40cb75:	48 8d 85 f0 fd ff ff 	lea    -0x210(%rbp),%rax
  40cb7c:	ba 04 00 00 00       	mov    $0x4,%edx
  40cb81:	48 89 c7             	mov    %rax,%rdi
  40cb84:	48 89 85 18 fd ff ff 	mov    %rax,-0x2e8(%rbp)
  40cb8b:	e8 d0 64 ff ff       	callq  403060 <_ZNSt14basic_ifstreamIcSt11char_traitsIcEEC1EPKcSt13_Ios_Openmode@plt>
  40cb90:	31 d2                	xor    %edx,%edx
  40cb92:	89 d6                	mov    %edx,%esi
  40cb94:	ba 02 00 00 00       	mov    $0x2,%edx
  40cb99:	48 8b bd 18 fd ff ff 	mov    -0x2e8(%rbp),%rdi
  40cba0:	e8 0b 63 ff ff       	callq  402eb0 <_ZNSi5seekgElSt12_Ios_Seekdir@plt>
  40cba5:	48 89 85 10 fd ff ff 	mov    %rax,-0x2f0(%rbp)
  40cbac:	e9 00 00 00 00       	jmpq   40cbb1 <_Z7getFilei+0x51>
  40cbb1:	48 8d bd f0 fd ff ff 	lea    -0x210(%rbp),%rdi
  40cbb8:	e8 43 64 ff ff       	callq  403000 <_ZNSi5tellgEv@plt>
  40cbbd:	48 89 95 08 fd ff ff 	mov    %rdx,-0x2f8(%rbp)
  40cbc4:	48 89 85 00 fd ff ff 	mov    %rax,-0x300(%rbp)
  40cbcb:	e9 00 00 00 00       	jmpq   40cbd0 <_Z7getFilei+0x70>
  40cbd0:	48 8b 85 00 fd ff ff 	mov    -0x300(%rbp),%rax
  40cbd7:	48 89 85 c8 fd ff ff 	mov    %rax,-0x238(%rbp)
  40cbde:	48 8b 8d 08 fd ff ff 	mov    -0x2f8(%rbp),%rcx
  40cbe5:	48 89 8d d0 fd ff ff 	mov    %rcx,-0x230(%rbp)
  40cbec:	48 8d bd c8 fd ff ff 	lea    -0x238(%rbp),%rdi
  40cbf3:	e8 08 9f ff ff       	callq  406b00 <_ZNKSt4fposI11__mbstate_tEcvlEv>
  40cbf8:	48 89 85 f8 fc ff ff 	mov    %rax,-0x308(%rbp)
  40cbff:	e9 00 00 00 00       	jmpq   40cc04 <_Z7getFilei+0xa4>
  40cc04:	48 8b 85 f8 fc ff ff 	mov    -0x308(%rbp),%rax
  40cc0b:	48 89 85 d8 fd ff ff 	mov    %rax,-0x228(%rbp)
  40cc12:	31 c9                	xor    %ecx,%ecx
  40cc14:	89 ce                	mov    %ecx,%esi
  40cc16:	48 8d bd f0 fd ff ff 	lea    -0x210(%rbp),%rdi
  40cc1d:	89 ca                	mov    %ecx,%edx
  40cc1f:	e8 8c 62 ff ff       	callq  402eb0 <_ZNSi5seekgElSt12_Ios_Seekdir@plt>
  40cc24:	48 89 85 f0 fc ff ff 	mov    %rax,-0x310(%rbp)
  40cc2b:	e9 00 00 00 00       	jmpq   40cc30 <_Z7getFilei+0xd0>
  40cc30:	48 8b b5 d8 fd ff ff 	mov    -0x228(%rbp),%rsi
  40cc37:	48 8d 85 a8 fd ff ff 	lea    -0x258(%rbp),%rax
  40cc3e:	48 89 c7             	mov    %rax,%rdi
  40cc41:	48 89 b5 e8 fc ff ff 	mov    %rsi,-0x318(%rbp)
  40cc48:	48 89 85 e0 fc ff ff 	mov    %rax,-0x320(%rbp)
  40cc4f:	e8 1c 0c 00 00       	callq  40d870 <_ZNSaIhEC2Ev>
  40cc54:	48 8d bd b0 fd ff ff 	lea    -0x250(%rbp),%rdi
  40cc5b:	48 8b b5 e8 fc ff ff 	mov    -0x318(%rbp),%rsi
  40cc62:	48 8b 95 e0 fc ff ff 	mov    -0x320(%rbp),%rdx
  40cc69:	e8 22 0c 00 00       	callq  40d890 <_ZNSt6vectorIhSaIhEEC2EmRKS0_>
  40cc6e:	e9 00 00 00 00       	jmpq   40cc73 <_Z7getFilei+0x113>
  40cc73:	48 8d bd a8 fd ff ff 	lea    -0x258(%rbp),%rdi
  40cc7a:	e8 81 0c 00 00       	callq  40d900 <_ZNSaIhED2Ev>
  40cc7f:	31 c0                	xor    %eax,%eax
  40cc81:	89 c6                	mov    %eax,%esi
  40cc83:	48 8d bd b0 fd ff ff 	lea    -0x250(%rbp),%rdi
  40cc8a:	e8 91 0c 00 00       	callq  40d920 <_ZNSt6vectorIhSaIhEEixEm>
  40cc8f:	48 8b 95 d8 fd ff ff 	mov    -0x228(%rbp),%rdx
  40cc96:	48 8d bd f0 fd ff ff 	lea    -0x210(%rbp),%rdi
  40cc9d:	48 89 c6             	mov    %rax,%rsi
  40cca0:	e8 db 61 ff ff       	callq  402e80 <_ZNSi4readEPcl@plt>
  40cca5:	48 89 85 d8 fc ff ff 	mov    %rax,-0x328(%rbp)
  40ccac:	e9 00 00 00 00       	jmpq   40ccb1 <_Z7getFilei+0x151>
  40ccb1:	48 8d bd 78 fd ff ff 	lea    -0x288(%rbp),%rdi
  40ccb8:	e8 83 0c 00 00       	callq  40d940 <_ZNSt3mapINSt7__cxx1112basic_stringIcSt11char_traitsIcESaIcEEES5_St4lessIS5_ESaISt4pairIKS5_S5_EEEC2Ev>
  40ccbd:	48 8d bd 50 fd ff ff 	lea    -0x2b0(%rbp),%rdi
  40ccc4:	48 89 bd d0 fc ff ff 	mov    %rdi,-0x330(%rbp)
  40cccb:	e8 60 63 ff ff       	callq  403030 <_ZNSaIcEC1Ev@plt>
  40ccd0:	b8 c7 f2 40 00       	mov    $0x40f2c7,%eax
  40ccd5:	89 c6                	mov    %eax,%esi
  40ccd7:	48 8d bd 58 fd ff ff 	lea    -0x2a8(%rbp),%rdi
  40ccde:	48 8b 95 d0 fc ff ff 	mov    -0x330(%rbp),%rdx
  40cce5:	e8 e6 61 ff ff       	callq  402ed0 <_ZNSt7__cxx1112basic_stringIcSt11char_traitsIcESaIcEEC1EPKcRKS3_@plt>
  40ccea:	e9 00 00 00 00       	jmpq   40ccef <_Z7getFilei+0x18f>
  40ccef:	48 8d bd 78 fd ff ff 	lea    -0x288(%rbp),%rdi
  40ccf6:	48 8d b5 58 fd ff ff 	lea    -0x2a8(%rbp),%rsi
  40ccfd:	e8 0e 9a ff ff       	callq  406710 <_ZNSt3mapINSt7__cxx1112basic_stringIcSt11char_traitsIcESaIcEEES5_St4lessIS5_ESaISt4pairIKS5_S5_EEEixEOS5_>
  40cd02:	48 89 85 c8 fc ff ff 	mov    %rax,-0x338(%rbp)
  40cd09:	e9 00 00 00 00       	jmpq   40cd0e <_Z7getFilei+0x1ae>
  40cd0e:	b8 4a f2 40 00       	mov    $0x40f24a,%eax
  40cd13:	89 c6                	mov    %eax,%esi
  40cd15:	48 8b bd c8 fc ff ff 	mov    -0x338(%rbp),%rdi
  40cd1c:	e8 9f 61 ff ff       	callq  402ec0 <_ZNSt7__cxx1112basic_stringIcSt11char_traitsIcESaIcEEaSEPKc@plt>
  40cd21:	48 89 85 c0 fc ff ff 	mov    %rax,-0x340(%rbp)
  40cd28:	e9 00 00 00 00       	jmpq   40cd2d <_Z7getFilei+0x1cd>
  40cd2d:	48 8d bd 58 fd ff ff 	lea    -0x2a8(%rbp),%rdi
  40cd34:	e8 27 5f ff ff       	callq  402c60 <_ZNSt7__cxx1112basic_stringIcSt11char_traitsIcESaIcEED1Ev@plt>
  40cd39:	48 8d bd 50 fd ff ff 	lea    -0x2b0(%rbp),%rdi
  40cd40:	e8 cb 60 ff ff       	callq  402e10 <_ZNSaIcED1Ev@plt>
  40cd45:	8b 7d fc             	mov    -0x4(%rbp),%edi
  40cd48:	48 8d 85 20 fd ff ff 	lea    -0x2e0(%rbp),%rax
  40cd4f:	48 8d b5 78 fd ff ff 	lea    -0x288(%rbp),%rsi
  40cd56:	89 bd bc fc ff ff    	mov    %edi,-0x344(%rbp)
  40cd5c:	48 89 c7             	mov    %rax,%rdi
  40cd5f:	e8 0c 0c 00 00       	callq  40d970 <_ZNSt3mapINSt7__cxx1112basic_stringIcSt11char_traitsIcESaIcEEES5_St4lessIS5_ESaISt4pairIKS5_S5_EEEC2ERKSC_>
  40cd64:	e9 00 00 00 00       	jmpq   40cd69 <_Z7getFilei+0x209>
  40cd69:	31 c0                	xor    %eax,%eax
  40cd6b:	89 c6                	mov    %eax,%esi
  40cd6d:	48 8d 8d b0 fd ff ff 	lea    -0x250(%rbp),%rcx
  40cd74:	48 89 cf             	mov    %rcx,%rdi
  40cd77:	48 89 8d b0 fc ff ff 	mov    %rcx,-0x350(%rbp)
  40cd7e:	e8 9d 0b 00 00       	callq  40d920 <_ZNSt6vectorIhSaIhEEixEm>
  40cd83:	48 8b bd b0 fc ff ff 	mov    -0x350(%rbp),%rdi
  40cd8a:	48 89 85 a8 fc ff ff 	mov    %rax,-0x358(%rbp)
  40cd91:	e8 aa 9e ff ff       	callq  406c40 <_ZNKSt6vectorIhSaIhEE4sizeEv>
  40cd96:	89 c2                	mov    %eax,%edx
  40cd98:	be c8 00 00 00       	mov    $0xc8,%esi
  40cd9d:	48 8d 85 20 fd ff ff 	lea    -0x2e0(%rbp),%rax
  40cda4:	8b bd bc fc ff ff    	mov    -0x344(%rbp),%edi
  40cdaa:	89 95 a4 fc ff ff    	mov    %edx,-0x35c(%rbp)
  40cdb0:	48 89 c2             	mov    %rax,%rdx
  40cdb3:	48 8b 8d a8 fc ff ff 	mov    -0x358(%rbp),%rcx
  40cdba:	44 8b 85 a4 fc ff ff 	mov    -0x35c(%rbp),%r8d
  40cdc1:	e8 3a 69 ff ff       	callq  403700 <_Z14write_responseiiSt3mapINSt7__cxx1112basic_stringIcSt11char_traitsIcESaIcEEES5_St4lessIS5_ESaISt4pairIKS5_S5_EEEPKvi>
  40cdc6:	e9 00 00 00 00       	jmpq   40cdcb <_Z7getFilei+0x26b>
  40cdcb:	48 8d bd 20 fd ff ff 	lea    -0x2e0(%rbp),%rdi
  40cdd2:	e8 c9 0b 00 00       	callq  40d9a0 <_ZNSt3mapINSt7__cxx1112basic_stringIcSt11char_traitsIcESaIcEEES5_St4lessIS5_ESaISt4pairIKS5_S5_EEED2Ev>
  40cdd7:	48 8d bd 78 fd ff ff 	lea    -0x288(%rbp),%rdi
  40cdde:	e8 bd 0b 00 00       	callq  40d9a0 <_ZNSt3mapINSt7__cxx1112basic_stringIcSt11char_traitsIcESaIcEEES5_St4lessIS5_ESaISt4pairIKS5_S5_EEED2Ev>
  40cde3:	48 8d bd b0 fd ff ff 	lea    -0x250(%rbp),%rdi
  40cdea:	e8 d1 0b 00 00       	callq  40d9c0 <_ZNSt6vectorIhSaIhEED2Ev>
  40cdef:	48 8d bd f0 fd ff ff 	lea    -0x210(%rbp),%rdi
  40cdf6:	e8 25 5d ff ff       	callq  402b20 <_ZNSt14basic_ifstreamIcSt11char_traitsIcEED1Ev@plt>
  40cdfb:	48 81 c4 60 03 00 00 	add    $0x360,%rsp
  40ce02:	5d                   	pop    %rbp
  40ce03:	c3                   	retq   
  40ce04:	89 d1                	mov    %edx,%ecx
  40ce06:	48 89 85 e8 fd ff ff 	mov    %rax,-0x218(%rbp)
  40ce0d:	89 8d e4 fd ff ff    	mov    %ecx,-0x21c(%rbp)
  40ce13:	e9 bb 00 00 00       	jmpq   40ced3 <_Z7getFilei+0x373>
  40ce18:	48 8d bd a8 fd ff ff 	lea    -0x258(%rbp),%rdi
  40ce1f:	89 d1                	mov    %edx,%ecx
  40ce21:	48 89 85 e8 fd ff ff 	mov    %rax,-0x218(%rbp)
  40ce28:	89 8d e4 fd ff ff    	mov    %ecx,-0x21c(%rbp)
  40ce2e:	e8 cd 0a 00 00       	callq  40d900 <_ZNSaIhED2Ev>
  40ce33:	e9 9b 00 00 00       	jmpq   40ced3 <_Z7getFilei+0x373>
  40ce38:	89 d1                	mov    %edx,%ecx
  40ce3a:	48 89 85 e8 fd ff ff 	mov    %rax,-0x218(%rbp)
  40ce41:	89 8d e4 fd ff ff    	mov    %ecx,-0x21c(%rbp)
  40ce47:	e9 7b 00 00 00       	jmpq   40cec7 <_Z7getFilei+0x367>
  40ce4c:	89 d1                	mov    %edx,%ecx
  40ce4e:	48 89 85 e8 fd ff ff 	mov    %rax,-0x218(%rbp)
  40ce55:	89 8d e4 fd ff ff    	mov    %ecx,-0x21c(%rbp)
  40ce5b:	e9 1b 00 00 00       	jmpq   40ce7b <_Z7getFilei+0x31b>
  40ce60:	48 8d bd 58 fd ff ff 	lea    -0x2a8(%rbp),%rdi
  40ce67:	89 d1                	mov    %edx,%ecx
  40ce69:	48 89 85 e8 fd ff ff 	mov    %rax,-0x218(%rbp)
  40ce70:	89 8d e4 fd ff ff    	mov    %ecx,-0x21c(%rbp)
  40ce76:	e8 e5 5d ff ff       	callq  402c60 <_ZNSt7__cxx1112basic_stringIcSt11char_traitsIcESaIcEED1Ev@plt>
  40ce7b:	48 8d bd 50 fd ff ff 	lea    -0x2b0(%rbp),%rdi
  40ce82:	e8 89 5f ff ff       	callq  402e10 <_ZNSaIcED1Ev@plt>
  40ce87:	e9 2f 00 00 00       	jmpq   40cebb <_Z7getFilei+0x35b>
  40ce8c:	89 d1                	mov    %edx,%ecx
  40ce8e:	48 89 85 e8 fd ff ff 	mov    %rax,-0x218(%rbp)
  40ce95:	89 8d e4 fd ff ff    	mov    %ecx,-0x21c(%rbp)
  40ce9b:	e9 1b 00 00 00       	jmpq   40cebb <_Z7getFilei+0x35b>
  40cea0:	48 8d bd 20 fd ff ff 	lea    -0x2e0(%rbp),%rdi
  40cea7:	89 d1                	mov    %edx,%ecx
  40cea9:	48 89 85 e8 fd ff ff 	mov    %rax,-0x218(%rbp)
  40ceb0:	89 8d e4 fd ff ff    	mov    %ecx,-0x21c(%rbp)
  40ceb6:	e8 e5 0a 00 00       	callq  40d9a0 <_ZNSt3mapINSt7__cxx1112basic_stringIcSt11char_traitsIcESaIcEEES5_St4lessIS5_ESaISt4pairIKS5_S5_EEED2Ev>
  40cebb:	48 8d bd 78 fd ff ff 	lea    -0x288(%rbp),%rdi
  40cec2:	e8 d9 0a 00 00       	callq  40d9a0 <_ZNSt3mapINSt7__cxx1112basic_stringIcSt11char_traitsIcESaIcEEES5_St4lessIS5_ESaISt4pairIKS5_S5_EEED2Ev>
  40cec7:	48 8d bd b0 fd ff ff 	lea    -0x250(%rbp),%rdi
  40cece:	e8 ed 0a 00 00       	callq  40d9c0 <_ZNSt6vectorIhSaIhEED2Ev>
  40ced3:	48 8d bd f0 fd ff ff 	lea    -0x210(%rbp),%rdi
  40ceda:	e8 41 5c ff ff       	callq  402b20 <_ZNSt14basic_ifstreamIcSt11char_traitsIcEED1Ev@plt>
  40cedf:	48 8b bd e8 fd ff ff 	mov    -0x218(%rbp),%rdi
  40cee6:	e8 35 61 ff ff       	callq  403020 <_Unwind_Resume@plt>
  40ceeb:	0f 1f 44 00 00       	nopl   0x0(%rax,%rax,1)

000000000040cef0 <main>:
  40cef0:	55                   	push   %rbp
  40cef1:	48 89 e5             	mov    %rsp,%rbp
  40cef4:	48 81 ec 60 05 00 00 	sub    $0x560,%rsp
  40cefb:	c7 45 fc 00 00 00 00 	movl   $0x0,-0x4(%rbp)
  40cf02:	89 7d f8             	mov    %edi,-0x8(%rbp)
  40cf05:	48 89 75 f0          	mov    %rsi,-0x10(%rbp)
  40cf09:	83 7d f8 03          	cmpl   $0x3,-0x8(%rbp)
  40cf0d:	0f 84 23 00 00 00    	je     40cf36 <main+0x46>
  40cf13:	48 bf 4e f2 40 00 00 	movabs $0x40f24e,%rdi
  40cf1a:	00 00 00 
  40cf1d:	b0 00                	mov    $0x0,%al
  40cf1f:	e8 7c 5b ff ff       	callq  402aa0 <printf@plt>
  40cf24:	c7 45 fc 01 00 00 00 	movl   $0x1,-0x4(%rbp)
  40cf2b:	89 85 84 fb ff ff    	mov    %eax,-0x47c(%rbp)
  40cf31:	e9 0d 09 00 00       	jmpq   40d843 <main+0x953>
  40cf36:	e8 c5 62 ff ff       	callq  403200 <_Z8net_initv>
  40cf3b:	48 8b 45 f0          	mov    -0x10(%rbp),%rax
  40cf3f:	48 8b 00             	mov    (%rax),%rax
  40cf42:	48 89 04 25 40 64 61 	mov    %rax,0x616440
  40cf49:	00 
  40cf4a:	48 8b 45 f0          	mov    -0x10(%rbp),%rax
  40cf4e:	48 8b 40 08          	mov    0x8(%rax),%rax
  40cf52:	48 89 45 e8          	mov    %rax,-0x18(%rbp)
  40cf56:	48 8b 45 f0          	mov    -0x10(%rbp),%rax
  40cf5a:	48 8b 78 10          	mov    0x10(%rax),%rdi
  40cf5e:	e8 fd 5f ff ff       	callq  402f60 <atoi@plt>
  40cf63:	48 bf 64 f2 40 00 00 	movabs $0x40f264,%rdi
  40cf6a:	00 00 00 
  40cf6d:	89 45 e4             	mov    %eax,-0x1c(%rbp)
  40cf70:	c7 45 e0 ff ff ff ff 	movl   $0xffffffff,-0x20(%rbp)
  40cf77:	b0 00                	mov    $0x0,%al
  40cf79:	e8 22 5b ff ff       	callq  402aa0 <printf@plt>
  40cf7e:	89 85 80 fb ff ff    	mov    %eax,-0x480(%rbp)
  40cf84:	83 7d e0 ff          	cmpl   $0xffffffff,-0x20(%rbp)
  40cf88:	0f 85 87 00 00 00    	jne    40d015 <main+0x125>
  40cf8e:	48 8b 7d e8          	mov    -0x18(%rbp),%rdi
  40cf92:	8b 75 e4             	mov    -0x1c(%rbp),%esi
  40cf95:	e8 96 63 ff ff       	callq  403330 <_Z17create_connectionPKci>
  40cf9a:	89 85 7c fb ff ff    	mov    %eax,-0x484(%rbp)
  40cfa0:	e9 00 00 00 00       	jmpq   40cfa5 <main+0xb5>
  40cfa5:	8b 85 7c fb ff ff    	mov    -0x484(%rbp),%eax
  40cfab:	89 45 e0             	mov    %eax,-0x20(%rbp)
  40cfae:	e9 45 00 00 00       	jmpq   40cff8 <main+0x108>
  40cfb3:	89 d1                	mov    %edx,%ecx
  40cfb5:	48 89 45 d8          	mov    %rax,-0x28(%rbp)
  40cfb9:	89 4d d4             	mov    %ecx,-0x2c(%rbp)
  40cfbc:	48 8b 7d d8          	mov    -0x28(%rbp),%rdi
  40cfc0:	e8 fb 5b ff ff       	callq  402bc0 <__cxa_begin_catch@plt>
  40cfc5:	c7 45 c4 01 00 00 00 	movl   $0x1,-0x3c(%rbp)
  40cfcc:	48 8d 7d c8          	lea    -0x38(%rbp),%rdi
  40cfd0:	48 8d 75 c4          	lea    -0x3c(%rbp),%rsi
  40cfd4:	48 89 85 70 fb ff ff 	mov    %rax,-0x490(%rbp)
  40cfdb:	e8 f0 0a 00 00       	callq  40dad0 <_ZNSt6chrono8durationIlSt5ratioILl1ELl1EEEC2IivEERKT_>
  40cfe0:	e9 00 00 00 00       	jmpq   40cfe5 <main+0xf5>
  40cfe5:	48 8d 7d c8          	lea    -0x38(%rbp),%rdi
  40cfe9:	e8 42 0a 00 00       	callq  40da30 <_ZNSt11this_thread9sleep_forIlSt5ratioILl1ELl1EEEEvRKNSt6chrono8durationIT_T0_EE>
  40cfee:	e9 00 00 00 00       	jmpq   40cff3 <main+0x103>
  40cff3:	e8 98 5f ff ff       	callq  402f90 <__cxa_end_catch@plt>
  40cff8:	e9 87 ff ff ff       	jmpq   40cf84 <main+0x94>
  40cffd:	89 d1                	mov    %edx,%ecx
  40cfff:	48 89 45 d8          	mov    %rax,-0x28(%rbp)
  40d003:	89 4d d4             	mov    %ecx,-0x2c(%rbp)
  40d006:	e8 85 5f ff ff       	callq  402f90 <__cxa_end_catch@plt>
  40d00b:	e9 00 00 00 00       	jmpq   40d010 <main+0x120>
  40d010:	e9 3a 08 00 00       	jmpq   40d84f <main+0x95f>
  40d015:	b8 73 f2 40 00       	mov    $0x40f273,%eax
  40d01a:	89 c7                	mov    %eax,%edi
  40d01c:	31 c0                	xor    %eax,%eax
  40d01e:	88 c1                	mov    %al,%cl
  40d020:	89 85 6c fb ff ff    	mov    %eax,-0x494(%rbp)
  40d026:	88 c8                	mov    %cl,%al
  40d028:	e8 73 5a ff ff       	callq  402aa0 <printf@plt>
  40d02d:	8b 7d e0             	mov    -0x20(%rbp),%edi
  40d030:	48 8d 55 90          	lea    -0x70(%rbp),%rdx
  40d034:	89 bd 68 fb ff ff    	mov    %edi,-0x498(%rbp)
  40d03a:	48 89 d7             	mov    %rdx,%rdi
  40d03d:	89 85 64 fb ff ff    	mov    %eax,-0x49c(%rbp)
  40d043:	48 89 95 58 fb ff ff 	mov    %rdx,-0x4a8(%rbp)
  40d04a:	e8 f1 08 00 00       	callq  40d940 <_ZNSt3mapINSt7__cxx1112basic_stringIcSt11char_traitsIcESaIcEEES5_St4lessIS5_ESaISt4pairIKS5_S5_EEEC2Ev>
  40d04f:	b8 8b f2 40 00       	mov    $0x40f28b,%eax
  40d054:	89 c6                	mov    %eax,%esi
  40d056:	8b 85 6c fb ff ff    	mov    -0x494(%rbp),%eax
  40d05c:	89 c1                	mov    %eax,%ecx
  40d05e:	8b bd 68 fb ff ff    	mov    -0x498(%rbp),%edi
  40d064:	48 8b 95 58 fb ff ff 	mov    -0x4a8(%rbp),%rdx
  40d06b:	41 89 c0             	mov    %eax,%r8d
  40d06e:	e8 7d 63 ff ff       	callq  4033f0 <_Z13write_requestiPKcSt3mapINSt7__cxx1112basic_stringIcSt11char_traitsIcESaIcEEES7_St4lessIS7_ESaISt4pairIKS7_S7_EEEPKvi>
  40d073:	e9 00 00 00 00       	jmpq   40d078 <main+0x188>
  40d078:	48 8d 7d 90          	lea    -0x70(%rbp),%rdi
  40d07c:	e8 1f 09 00 00       	callq  40d9a0 <_ZNSt3mapINSt7__cxx1112basic_stringIcSt11char_traitsIcESaIcEEES5_St4lessIS5_ESaISt4pairIKS5_S5_EEED2Ev>
  40d081:	48 8d 85 60 ff ff ff 	lea    -0xa0(%rbp),%rax
  40d088:	48 89 c7             	mov    %rax,%rdi
  40d08b:	48 89 85 50 fb ff ff 	mov    %rax,-0x4b0(%rbp)
  40d092:	e8 a9 08 00 00       	callq  40d940 <_ZNSt3mapINSt7__cxx1112basic_stringIcSt11char_traitsIcESaIcEEES5_St4lessIS5_ESaISt4pairIKS5_S5_EEEC2Ev>
  40d097:	48 8d bd 30 ff ff ff 	lea    -0xd0(%rbp),%rdi
  40d09e:	e8 9d 08 00 00       	callq  40d940 <_ZNSt3mapINSt7__cxx1112basic_stringIcSt11char_traitsIcESaIcEEES5_St4lessIS5_ESaISt4pairIKS5_S5_EEEC2Ev>
  40d0a3:	48 8d 85 18 ff ff ff 	lea    -0xe8(%rbp),%rax
  40d0aa:	48 89 c7             	mov    %rax,%rdi
  40d0ad:	48 89 85 48 fb ff ff 	mov    %rax,-0x4b8(%rbp)
  40d0b4:	e8 37 0a 00 00       	callq  40daf0 <_ZNSt6vectorIhSaIhEEC2Ev>
  40d0b9:	8b 75 e0             	mov    -0x20(%rbp),%esi
  40d0bc:	48 8d bd f8 fe ff ff 	lea    -0x108(%rbp),%rdi
  40d0c3:	48 8b 95 50 fb ff ff 	mov    -0x4b0(%rbp),%rdx
  40d0ca:	48 8b 8d 48 fb ff ff 	mov    -0x4b8(%rbp),%rcx
  40d0d1:	e8 8a 71 ff ff       	callq  404260 <_Z12read_requestiRSt3mapINSt7__cxx1112basic_stringIcSt11char_traitsIcESaIcEEES5_St4lessIS5_ESaISt4pairIKS5_S5_EEERSt6vectorIhSaIhEE>
  40d0d6:	e9 00 00 00 00       	jmpq   40d0db <main+0x1eb>
  40d0db:	48 8d 85 d0 fe ff ff 	lea    -0x130(%rbp),%rax
  40d0e2:	48 89 c7             	mov    %rax,%rdi
  40d0e5:	48 89 85 40 fb ff ff 	mov    %rax,-0x4c0(%rbp)
  40d0ec:	e8 3f 5f ff ff       	callq  403030 <_ZNSaIcEC1Ev@plt>
  40d0f1:	b9 8d f2 40 00       	mov    $0x40f28d,%ecx
  40d0f6:	89 ce                	mov    %ecx,%esi
  40d0f8:	48 8d bd d8 fe ff ff 	lea    -0x128(%rbp),%rdi
  40d0ff:	48 8b 95 40 fb ff ff 	mov    -0x4c0(%rbp),%rdx
  40d106:	e8 c5 5d ff ff       	callq  402ed0 <_ZNSt7__cxx1112basic_stringIcSt11char_traitsIcESaIcEEC1EPKcRKS3_@plt>
  40d10b:	e9 00 00 00 00       	jmpq   40d110 <main+0x220>
  40d110:	48 8d bd 60 ff ff ff 	lea    -0xa0(%rbp),%rdi
  40d117:	48 8d b5 d8 fe ff ff 	lea    -0x128(%rbp),%rsi
  40d11e:	e8 ed 95 ff ff       	callq  406710 <_ZNSt3mapINSt7__cxx1112basic_stringIcSt11char_traitsIcESaIcEEES5_St4lessIS5_ESaISt4pairIKS5_S5_EEEixEOS5_>
  40d123:	48 89 85 38 fb ff ff 	mov    %rax,-0x4c8(%rbp)
  40d12a:	e9 00 00 00 00       	jmpq   40d12f <main+0x23f>
  40d12f:	48 8d bd f8 fe ff ff 	lea    -0x108(%rbp),%rdi
  40d136:	48 8b b5 38 fb ff ff 	mov    -0x4c8(%rbp),%rsi
  40d13d:	e8 3e 59 ff ff       	callq  402a80 <_ZNSt7__cxx1112basic_stringIcSt11char_traitsIcESaIcEEaSERKS4_@plt>
  40d142:	48 89 85 30 fb ff ff 	mov    %rax,-0x4d0(%rbp)
  40d149:	e9 00 00 00 00       	jmpq   40d14e <main+0x25e>
  40d14e:	48 8d bd d8 fe ff ff 	lea    -0x128(%rbp),%rdi
  40d155:	e8 06 5b ff ff       	callq  402c60 <_ZNSt7__cxx1112basic_stringIcSt11char_traitsIcESaIcEED1Ev@plt>
  40d15a:	48 8d bd d0 fe ff ff 	lea    -0x130(%rbp),%rdi
  40d161:	e8 aa 5c ff ff       	callq  402e10 <_ZNSaIcED1Ev@plt>
  40d166:	48 8d bd a8 fe ff ff 	lea    -0x158(%rbp),%rdi
  40d16d:	48 89 bd 28 fb ff ff 	mov    %rdi,-0x4d8(%rbp)
  40d174:	e8 b7 5e ff ff       	callq  403030 <_ZNSaIcEC1Ev@plt>
  40d179:	b8 98 f2 40 00       	mov    $0x40f298,%eax
  40d17e:	89 c6                	mov    %eax,%esi
  40d180:	48 8d bd b0 fe ff ff 	lea    -0x150(%rbp),%rdi
  40d187:	48 8b 95 28 fb ff ff 	mov    -0x4d8(%rbp),%rdx
  40d18e:	e8 3d 5d ff ff       	callq  402ed0 <_ZNSt7__cxx1112basic_stringIcSt11char_traitsIcESaIcEEC1EPKcRKS3_@plt>
  40d193:	e9 00 00 00 00       	jmpq   40d198 <main+0x2a8>
  40d198:	48 8d bd 30 ff ff ff 	lea    -0xd0(%rbp),%rdi
  40d19f:	48 8d b5 b0 fe ff ff 	lea    -0x150(%rbp),%rsi
  40d1a6:	e8 65 95 ff ff       	callq  406710 <_ZNSt3mapINSt7__cxx1112basic_stringIcSt11char_traitsIcESaIcEEES5_St4lessIS5_ESaISt4pairIKS5_S5_EEEixEOS5_>
  40d1ab:	48 89 85 20 fb ff ff 	mov    %rax,-0x4e0(%rbp)
  40d1b2:	e9 00 00 00 00       	jmpq   40d1b7 <main+0x2c7>
  40d1b7:	b8 4a f2 40 00       	mov    $0x40f24a,%eax
  40d1bc:	89 c6                	mov    %eax,%esi
  40d1be:	48 8b bd 20 fb ff ff 	mov    -0x4e0(%rbp),%rdi
  40d1c5:	e8 f6 5c ff ff       	callq  402ec0 <_ZNSt7__cxx1112basic_stringIcSt11char_traitsIcESaIcEEaSEPKc@plt>
  40d1ca:	48 89 85 18 fb ff ff 	mov    %rax,-0x4e8(%rbp)
  40d1d1:	e9 00 00 00 00       	jmpq   40d1d6 <main+0x2e6>
  40d1d6:	48 8d bd b0 fe ff ff 	lea    -0x150(%rbp),%rdi
  40d1dd:	e8 7e 5a ff ff       	callq  402c60 <_ZNSt7__cxx1112basic_stringIcSt11char_traitsIcESaIcEED1Ev@plt>
  40d1e2:	48 8d bd a8 fe ff ff 	lea    -0x158(%rbp),%rdi
  40d1e9:	e8 22 5c ff ff       	callq  402e10 <_ZNSaIcED1Ev@plt>
  40d1ee:	b8 a3 f2 40 00       	mov    $0x40f2a3,%eax
  40d1f3:	89 c6                	mov    %eax,%esi
  40d1f5:	48 8d bd f8 fe ff ff 	lea    -0x108(%rbp),%rdi
  40d1fc:	e8 af 97 ff ff       	callq  4069b0 <_ZSteqIcSt11char_traitsIcESaIcEEbRKNSt7__cxx1112basic_stringIT_T0_T1_EEPKS5_>
  40d201:	88 85 17 fb ff ff    	mov    %al,-0x4e9(%rbp)
  40d207:	e9 00 00 00 00       	jmpq   40d20c <main+0x31c>
  40d20c:	8a 85 17 fb ff ff    	mov    -0x4e9(%rbp),%al
  40d212:	a8 01                	test   $0x1,%al
  40d214:	0f 85 05 00 00 00    	jne    40d21f <main+0x32f>
  40d21a:	e9 13 01 00 00       	jmpq   40d332 <main+0x442>
  40d21f:	8b 7d e0             	mov    -0x20(%rbp),%edi
  40d222:	48 8d 85 78 fe ff ff 	lea    -0x188(%rbp),%rax
  40d229:	48 8d b5 30 ff ff ff 	lea    -0xd0(%rbp),%rsi
  40d230:	89 bd 10 fb ff ff    	mov    %edi,-0x4f0(%rbp)
  40d236:	48 89 c7             	mov    %rax,%rdi
  40d239:	e8 32 07 00 00       	callq  40d970 <_ZNSt3mapINSt7__cxx1112basic_stringIcSt11char_traitsIcESaIcEEES5_St4lessIS5_ESaISt4pairIKS5_S5_EEEC2ERKSC_>
  40d23e:	e9 00 00 00 00       	jmpq   40d243 <main+0x353>
  40d243:	b8 60 f3 40 00       	mov    $0x40f360,%eax
  40d248:	89 c1                	mov    %eax,%ecx
  40d24a:	be c8 00 00 00       	mov    $0xc8,%esi
  40d24f:	48 8d 95 78 fe ff ff 	lea    -0x188(%rbp),%rdx
  40d256:	41 b8 45 00 00 00    	mov    $0x45,%r8d
  40d25c:	8b bd 10 fb ff ff    	mov    -0x4f0(%rbp),%edi
  40d262:	e8 99 64 ff ff       	callq  403700 <_Z14write_responseiiSt3mapINSt7__cxx1112basic_stringIcSt11char_traitsIcESaIcEEES5_St4lessIS5_ESaISt4pairIKS5_S5_EEEPKvi>
  40d267:	e9 00 00 00 00       	jmpq   40d26c <main+0x37c>
  40d26c:	48 8d bd 78 fe ff ff 	lea    -0x188(%rbp),%rdi
  40d273:	e8 28 07 00 00       	callq  40d9a0 <_ZNSt3mapINSt7__cxx1112basic_stringIcSt11char_traitsIcESaIcEEES5_St4lessIS5_ESaISt4pairIKS5_S5_EEED2Ev>
  40d278:	e9 18 05 00 00       	jmpq   40d795 <main+0x8a5>
  40d27d:	48 8d 7d 90          	lea    -0x70(%rbp),%rdi
  40d281:	89 d1                	mov    %edx,%ecx
  40d283:	48 89 45 d8          	mov    %rax,-0x28(%rbp)
  40d287:	89 4d d4             	mov    %ecx,-0x2c(%rbp)
  40d28a:	e8 11 07 00 00       	callq  40d9a0 <_ZNSt3mapINSt7__cxx1112basic_stringIcSt11char_traitsIcESaIcEEES5_St4lessIS5_ESaISt4pairIKS5_S5_EEED2Ev>
  40d28f:	e9 bb 05 00 00       	jmpq   40d84f <main+0x95f>
  40d294:	89 d1                	mov    %edx,%ecx
  40d296:	48 89 45 d8          	mov    %rax,-0x28(%rbp)
  40d29a:	89 4d d4             	mov    %ecx,-0x2c(%rbp)
  40d29d:	e9 71 05 00 00       	jmpq   40d813 <main+0x923>
  40d2a2:	89 d1                	mov    %edx,%ecx
  40d2a4:	48 89 45 d8          	mov    %rax,-0x28(%rbp)
  40d2a8:	89 4d d4             	mov    %ecx,-0x2c(%rbp)
  40d2ab:	e9 15 00 00 00       	jmpq   40d2c5 <main+0x3d5>
  40d2b0:	48 8d bd d8 fe ff ff 	lea    -0x128(%rbp),%rdi
  40d2b7:	89 d1                	mov    %edx,%ecx
  40d2b9:	48 89 45 d8          	mov    %rax,-0x28(%rbp)
  40d2bd:	89 4d d4             	mov    %ecx,-0x2c(%rbp)
  40d2c0:	e8 9b 59 ff ff       	callq  402c60 <_ZNSt7__cxx1112basic_stringIcSt11char_traitsIcESaIcEED1Ev@plt>
  40d2c5:	48 8d bd d0 fe ff ff 	lea    -0x130(%rbp),%rdi
  40d2cc:	e8 3f 5b ff ff       	callq  402e10 <_ZNSaIcED1Ev@plt>
  40d2d1:	e9 31 05 00 00       	jmpq   40d807 <main+0x917>
  40d2d6:	89 d1                	mov    %edx,%ecx
  40d2d8:	48 89 45 d8          	mov    %rax,-0x28(%rbp)
  40d2dc:	89 4d d4             	mov    %ecx,-0x2c(%rbp)
  40d2df:	e9 15 00 00 00       	jmpq   40d2f9 <main+0x409>
  40d2e4:	48 8d bd b0 fe ff ff 	lea    -0x150(%rbp),%rdi
  40d2eb:	89 d1                	mov    %edx,%ecx
  40d2ed:	48 89 45 d8          	mov    %rax,-0x28(%rbp)
  40d2f1:	89 4d d4             	mov    %ecx,-0x2c(%rbp)
  40d2f4:	e8 67 59 ff ff       	callq  402c60 <_ZNSt7__cxx1112basic_stringIcSt11char_traitsIcESaIcEED1Ev@plt>
  40d2f9:	48 8d bd a8 fe ff ff 	lea    -0x158(%rbp),%rdi
  40d300:	e8 0b 5b ff ff       	callq  402e10 <_ZNSaIcED1Ev@plt>
  40d305:	e9 fd 04 00 00       	jmpq   40d807 <main+0x917>
  40d30a:	89 d1                	mov    %edx,%ecx
  40d30c:	48 89 45 d8          	mov    %rax,-0x28(%rbp)
  40d310:	89 4d d4             	mov    %ecx,-0x2c(%rbp)
  40d313:	e9 ef 04 00 00       	jmpq   40d807 <main+0x917>
  40d318:	48 8d bd 78 fe ff ff 	lea    -0x188(%rbp),%rdi
  40d31f:	89 d1                	mov    %edx,%ecx
  40d321:	48 89 45 d8          	mov    %rax,-0x28(%rbp)
  40d325:	89 4d d4             	mov    %ecx,-0x2c(%rbp)
  40d328:	e8 73 06 00 00       	callq  40d9a0 <_ZNSt3mapINSt7__cxx1112basic_stringIcSt11char_traitsIcESaIcEEES5_St4lessIS5_ESaISt4pairIKS5_S5_EEED2Ev>
  40d32d:	e9 d5 04 00 00       	jmpq   40d807 <main+0x917>
  40d332:	b8 ae f2 40 00       	mov    $0x40f2ae,%eax
  40d337:	89 c6                	mov    %eax,%esi
  40d339:	48 8d bd f8 fe ff ff 	lea    -0x108(%rbp),%rdi
  40d340:	e8 6b 96 ff ff       	callq  4069b0 <_ZSteqIcSt11char_traitsIcESaIcEEbRKNSt7__cxx1112basic_stringIT_T0_T1_EEPKS5_>
  40d345:	88 85 0f fb ff ff    	mov    %al,-0x4f1(%rbp)
  40d34b:	e9 00 00 00 00       	jmpq   40d350 <main+0x460>
  40d350:	8a 85 0f fb ff ff    	mov    -0x4f1(%rbp),%al
  40d356:	a8 01                	test   $0x1,%al
  40d358:	0f 85 05 00 00 00    	jne    40d363 <main+0x473>
  40d35e:	e9 1b 01 00 00       	jmpq   40d47e <main+0x58e>
  40d363:	b8 b3 f0 40 00       	mov    $0x40f0b3,%eax
  40d368:	89 c6                	mov    %eax,%esi
  40d36a:	48 8d bd 78 fc ff ff 	lea    -0x388(%rbp),%rdi
  40d371:	ba 04 00 00 00       	mov    $0x4,%edx
  40d376:	e8 a5 5a ff ff       	callq  402e20 <_ZNSt14basic_ofstreamIcSt11char_traitsIcEEC1EPKcSt13_Ios_Openmode@plt>
  40d37b:	e9 00 00 00 00       	jmpq   40d380 <main+0x490>
  40d380:	31 c0                	xor    %eax,%eax
  40d382:	89 c6                	mov    %eax,%esi
  40d384:	48 8d 8d 18 ff ff ff 	lea    -0xe8(%rbp),%rcx
  40d38b:	48 89 cf             	mov    %rcx,%rdi
  40d38e:	48 89 8d 00 fb ff ff 	mov    %rcx,-0x500(%rbp)
  40d395:	e8 86 05 00 00       	callq  40d920 <_ZNSt6vectorIhSaIhEEixEm>
  40d39a:	48 8b bd 00 fb ff ff 	mov    -0x500(%rbp),%rdi
  40d3a1:	48 89 85 f8 fa ff ff 	mov    %rax,-0x508(%rbp)
  40d3a8:	e8 93 98 ff ff       	callq  406c40 <_ZNKSt6vectorIhSaIhEE4sizeEv>
  40d3ad:	48 8d bd 78 fc ff ff 	lea    -0x388(%rbp),%rdi
  40d3b4:	48 8b b5 f8 fa ff ff 	mov    -0x508(%rbp),%rsi
  40d3bb:	48 89 c2             	mov    %rax,%rdx
  40d3be:	e8 dd 5a ff ff       	callq  402ea0 <_ZNSo5writeEPKcl@plt>
  40d3c3:	48 89 85 f0 fa ff ff 	mov    %rax,-0x510(%rbp)
  40d3ca:	e9 00 00 00 00       	jmpq   40d3cf <main+0x4df>
  40d3cf:	48 8d bd 78 fc ff ff 	lea    -0x388(%rbp),%rdi
  40d3d6:	e8 25 5b ff ff       	callq  402f00 <_ZNSt14basic_ofstreamIcSt11char_traitsIcEE5closeEv@plt>
  40d3db:	e9 00 00 00 00       	jmpq   40d3e0 <main+0x4f0>
  40d3e0:	8b 7d e0             	mov    -0x20(%rbp),%edi
  40d3e3:	48 8d 85 48 fc ff ff 	lea    -0x3b8(%rbp),%rax
  40d3ea:	48 8d b5 30 ff ff ff 	lea    -0xd0(%rbp),%rsi
  40d3f1:	89 bd ec fa ff ff    	mov    %edi,-0x514(%rbp)
  40d3f7:	48 89 c7             	mov    %rax,%rdi
  40d3fa:	e8 71 05 00 00       	callq  40d970 <_ZNSt3mapINSt7__cxx1112basic_stringIcSt11char_traitsIcESaIcEEES5_St4lessIS5_ESaISt4pairIKS5_S5_EEEC2ERKSC_>
  40d3ff:	e9 00 00 00 00       	jmpq   40d404 <main+0x514>
  40d404:	b8 b0 f3 40 00       	mov    $0x40f3b0,%eax
  40d409:	89 c1                	mov    %eax,%ecx
  40d40b:	be c8 00 00 00       	mov    $0xc8,%esi
  40d410:	48 8d 95 48 fc ff ff 	lea    -0x3b8(%rbp),%rdx
  40d417:	41 b8 27 00 00 00    	mov    $0x27,%r8d
  40d41d:	8b bd ec fa ff ff    	mov    -0x514(%rbp),%edi
  40d423:	e8 d8 62 ff ff       	callq  403700 <_Z14write_responseiiSt3mapINSt7__cxx1112basic_stringIcSt11char_traitsIcESaIcEEES5_St4lessIS5_ESaISt4pairIKS5_S5_EEEPKvi>
  40d428:	e9 00 00 00 00       	jmpq   40d42d <main+0x53d>
  40d42d:	48 8d bd 48 fc ff ff 	lea    -0x3b8(%rbp),%rdi
  40d434:	e8 67 05 00 00       	callq  40d9a0 <_ZNSt3mapINSt7__cxx1112basic_stringIcSt11char_traitsIcESaIcEEES5_St4lessIS5_ESaISt4pairIKS5_S5_EEED2Ev>
  40d439:	48 8d bd 78 fc ff ff 	lea    -0x388(%rbp),%rdi
  40d440:	e8 fb 5a ff ff       	callq  402f40 <_ZNSt14basic_ofstreamIcSt11char_traitsIcEED1Ev@plt>
  40d445:	e9 46 03 00 00       	jmpq   40d790 <main+0x8a0>
  40d44a:	89 d1                	mov    %edx,%ecx
  40d44c:	48 89 45 d8          	mov    %rax,-0x28(%rbp)
  40d450:	89 4d d4             	mov    %ecx,-0x2c(%rbp)
  40d453:	e9 15 00 00 00       	jmpq   40d46d <main+0x57d>
  40d458:	48 8d bd 48 fc ff ff 	lea    -0x3b8(%rbp),%rdi
  40d45f:	89 d1                	mov    %edx,%ecx
  40d461:	48 89 45 d8          	mov    %rax,-0x28(%rbp)
  40d465:	89 4d d4             	mov    %ecx,-0x2c(%rbp)
  40d468:	e8 33 05 00 00       	callq  40d9a0 <_ZNSt3mapINSt7__cxx1112basic_stringIcSt11char_traitsIcESaIcEEES5_St4lessIS5_ESaISt4pairIKS5_S5_EEED2Ev>
  40d46d:	48 8d bd 78 fc ff ff 	lea    -0x388(%rbp),%rdi
  40d474:	e8 c7 5a ff ff       	callq  402f40 <_ZNSt14basic_ofstreamIcSt11char_traitsIcEED1Ev@plt>
  40d479:	e9 89 03 00 00       	jmpq   40d807 <main+0x917>
  40d47e:	b8 ba f2 40 00       	mov    $0x40f2ba,%eax
  40d483:	89 c6                	mov    %eax,%esi
  40d485:	48 8d bd f8 fe ff ff 	lea    -0x108(%rbp),%rdi
  40d48c:	e8 1f 95 ff ff       	callq  4069b0 <_ZSteqIcSt11char_traitsIcESaIcEEbRKNSt7__cxx1112basic_stringIT_T0_T1_EEPKS5_>
  40d491:	88 85 eb fa ff ff    	mov    %al,-0x515(%rbp)
  40d497:	e9 00 00 00 00       	jmpq   40d49c <main+0x5ac>
  40d49c:	8a 85 eb fa ff ff    	mov    -0x515(%rbp),%al
  40d4a2:	a8 01                	test   $0x1,%al
  40d4a4:	0f 85 05 00 00 00    	jne    40d4af <main+0x5bf>
  40d4aa:	e9 12 00 00 00       	jmpq   40d4c1 <main+0x5d1>
  40d4af:	8b 7d e0             	mov    -0x20(%rbp),%edi
  40d4b2:	e8 a9 f6 ff ff       	callq  40cb60 <_Z7getFilei>
  40d4b7:	e9 00 00 00 00       	jmpq   40d4bc <main+0x5cc>
  40d4bc:	e9 ca 02 00 00       	jmpq   40d78b <main+0x89b>
  40d4c1:	b8 c3 f2 40 00       	mov    $0x40f2c3,%eax
  40d4c6:	89 c6                	mov    %eax,%esi
  40d4c8:	48 8d bd f8 fe ff ff 	lea    -0x108(%rbp),%rdi
  40d4cf:	e8 dc 94 ff ff       	callq  4069b0 <_ZSteqIcSt11char_traitsIcESaIcEEbRKNSt7__cxx1112basic_stringIT_T0_T1_EEPKS5_>
  40d4d4:	88 85 ea fa ff ff    	mov    %al,-0x516(%rbp)
  40d4da:	e9 00 00 00 00       	jmpq   40d4df <main+0x5ef>
  40d4df:	8a 85 ea fa ff ff    	mov    -0x516(%rbp),%al
  40d4e5:	a8 01                	test   $0x1,%al
  40d4e7:	0f 85 05 00 00 00    	jne    40d4f2 <main+0x602>
  40d4ed:	e9 78 00 00 00       	jmpq   40d56a <main+0x67a>
  40d4f2:	8b 7d e0             	mov    -0x20(%rbp),%edi
  40d4f5:	48 8d 85 18 fc ff ff 	lea    -0x3e8(%rbp),%rax
  40d4fc:	48 8d b5 30 ff ff ff 	lea    -0xd0(%rbp),%rsi
  40d503:	89 bd e4 fa ff ff    	mov    %edi,-0x51c(%rbp)
  40d509:	48 89 c7             	mov    %rax,%rdi
  40d50c:	e8 5f 04 00 00       	callq  40d970 <_ZNSt3mapINSt7__cxx1112basic_stringIcSt11char_traitsIcESaIcEEES5_St4lessIS5_ESaISt4pairIKS5_S5_EEEC2ERKSC_>
  40d511:	e9 00 00 00 00       	jmpq   40d516 <main+0x626>
  40d516:	b8 d7 f3 40 00       	mov    $0x40f3d7,%eax
  40d51b:	89 c1                	mov    %eax,%ecx
  40d51d:	be c8 00 00 00       	mov    $0xc8,%esi
  40d522:	48 8d 95 18 fc ff ff 	lea    -0x3e8(%rbp),%rdx
  40d529:	41 b8 04 00 00 00    	mov    $0x4,%r8d
  40d52f:	8b bd e4 fa ff ff    	mov    -0x51c(%rbp),%edi
  40d535:	e8 c6 61 ff ff       	callq  403700 <_Z14write_responseiiSt3mapINSt7__cxx1112basic_stringIcSt11char_traitsIcESaIcEEES5_St4lessIS5_ESaISt4pairIKS5_S5_EEEPKvi>
  40d53a:	e9 00 00 00 00       	jmpq   40d53f <main+0x64f>
  40d53f:	48 8d bd 18 fc ff ff 	lea    -0x3e8(%rbp),%rdi
  40d546:	e8 55 04 00 00       	callq  40d9a0 <_ZNSt3mapINSt7__cxx1112basic_stringIcSt11char_traitsIcESaIcEEES5_St4lessIS5_ESaISt4pairIKS5_S5_EEED2Ev>
  40d54b:	e9 36 02 00 00       	jmpq   40d786 <main+0x896>
  40d550:	48 8d bd 18 fc ff ff 	lea    -0x3e8(%rbp),%rdi
  40d557:	89 d1                	mov    %edx,%ecx
  40d559:	48 89 45 d8          	mov    %rax,-0x28(%rbp)
  40d55d:	89 4d d4             	mov    %ecx,-0x2c(%rbp)
  40d560:	e8 3b 04 00 00       	callq  40d9a0 <_ZNSt3mapINSt7__cxx1112basic_stringIcSt11char_traitsIcESaIcEEES5_St4lessIS5_ESaISt4pairIKS5_S5_EEED2Ev>
  40d565:	e9 9d 02 00 00       	jmpq   40d807 <main+0x917>
  40d56a:	b8 cf f2 40 00       	mov    $0x40f2cf,%eax
  40d56f:	89 c6                	mov    %eax,%esi
  40d571:	48 8d bd f8 fe ff ff 	lea    -0x108(%rbp),%rdi
  40d578:	e8 33 94 ff ff       	callq  4069b0 <_ZSteqIcSt11char_traitsIcESaIcEEbRKNSt7__cxx1112basic_stringIT_T0_T1_EEPKS5_>
  40d57d:	88 85 e3 fa ff ff    	mov    %al,-0x51d(%rbp)
  40d583:	e9 00 00 00 00       	jmpq   40d588 <main+0x698>
  40d588:	8a 85 e3 fa ff ff    	mov    -0x51d(%rbp),%al
  40d58e:	a8 01                	test   $0x1,%al
  40d590:	0f 85 05 00 00 00    	jne    40d59b <main+0x6ab>
  40d596:	e9 6e 01 00 00       	jmpq   40d709 <main+0x819>
  40d59b:	48 8d 85 f8 fb ff ff 	lea    -0x408(%rbp),%rax
  40d5a2:	48 89 c7             	mov    %rax,%rdi
  40d5a5:	48 89 85 d8 fa ff ff 	mov    %rax,-0x528(%rbp)
  40d5ac:	e8 2f 59 ff ff       	callq  402ee0 <_ZNSt7__cxx1112basic_stringIcSt11char_traitsIcESaIcEEC1Ev@plt>
  40d5b1:	c6 85 f7 fb ff ff 00 	movb   $0x0,-0x409(%rbp)
  40d5b8:	48 8b bd d8 fa ff ff 	mov    -0x528(%rbp),%rdi
  40d5bf:	e8 cc f3 ff ff       	callq  40c990 <_Z7test_soRNSt7__cxx1112basic_stringIcSt11char_traitsIcESaIcEEE>
  40d5c4:	88 85 d7 fa ff ff    	mov    %al,-0x529(%rbp)
  40d5ca:	e9 00 00 00 00       	jmpq   40d5cf <main+0x6df>
  40d5cf:	8a 85 d7 fa ff ff    	mov    -0x529(%rbp),%al
  40d5d5:	a8 01                	test   $0x1,%al
  40d5d7:	0f 85 05 00 00 00    	jne    40d5e2 <main+0x6f2>
  40d5dd:	e9 24 00 00 00       	jmpq   40d606 <main+0x716>
  40d5e2:	e8 79 f3 ff ff       	callq  40c960 <_Z9uninstallv>
  40d5e7:	e9 00 00 00 00       	jmpq   40d5ec <main+0x6fc>
  40d5ec:	c6 85 f7 fb ff ff 01 	movb   $0x1,-0x409(%rbp)
  40d5f3:	e9 0e 00 00 00       	jmpq   40d606 <main+0x716>
  40d5f8:	89 d1                	mov    %edx,%ecx
  40d5fa:	48 89 45 d8          	mov    %rax,-0x28(%rbp)
  40d5fe:	89 4d d4             	mov    %ecx,-0x2c(%rbp)
  40d601:	e9 f2 00 00 00       	jmpq   40d6f8 <main+0x808>
  40d606:	8b 7d e0             	mov    -0x20(%rbp),%edi
  40d609:	48 8d 85 c0 fb ff ff 	lea    -0x440(%rbp),%rax
  40d610:	48 8d b5 30 ff ff ff 	lea    -0xd0(%rbp),%rsi
  40d617:	89 bd d0 fa ff ff    	mov    %edi,-0x530(%rbp)
  40d61d:	48 89 c7             	mov    %rax,%rdi
  40d620:	e8 4b 03 00 00       	callq  40d970 <_ZNSt3mapINSt7__cxx1112basic_stringIcSt11char_traitsIcESaIcEEES5_St4lessIS5_ESaISt4pairIKS5_S5_EEEC2ERKSC_>
  40d625:	e9 00 00 00 00       	jmpq   40d62a <main+0x73a>
  40d62a:	48 8d 85 f8 fb ff ff 	lea    -0x408(%rbp),%rax
  40d631:	48 89 c7             	mov    %rax,%rdi
  40d634:	48 89 85 c8 fa ff ff 	mov    %rax,-0x538(%rbp)
  40d63b:	e8 90 55 ff ff       	callq  402bd0 <_ZNKSt7__cxx1112basic_stringIcSt11char_traitsIcESaIcEE5c_strEv@plt>
  40d640:	48 8b bd c8 fa ff ff 	mov    -0x538(%rbp),%rdi
  40d647:	48 89 85 c0 fa ff ff 	mov    %rax,-0x540(%rbp)
  40d64e:	e8 5d 56 ff ff       	callq  402cb0 <_ZNKSt7__cxx1112basic_stringIcSt11char_traitsIcESaIcEE4sizeEv@plt>
  40d653:	89 c1                	mov    %eax,%ecx
  40d655:	be c8 00 00 00       	mov    $0xc8,%esi
  40d65a:	48 8d 95 c0 fb ff ff 	lea    -0x440(%rbp),%rdx
  40d661:	8b bd d0 fa ff ff    	mov    -0x530(%rbp),%edi
  40d667:	48 8b 85 c0 fa ff ff 	mov    -0x540(%rbp),%rax
  40d66e:	89 8d bc fa ff ff    	mov    %ecx,-0x544(%rbp)
  40d674:	48 89 c1             	mov    %rax,%rcx
  40d677:	44 8b 85 bc fa ff ff 	mov    -0x544(%rbp),%r8d
  40d67e:	e8 7d 60 ff ff       	callq  403700 <_Z14write_responseiiSt3mapINSt7__cxx1112basic_stringIcSt11char_traitsIcESaIcEEES5_St4lessIS5_ESaISt4pairIKS5_S5_EEEPKvi>
  40d683:	e9 00 00 00 00       	jmpq   40d688 <main+0x798>
  40d688:	48 8d bd c0 fb ff ff 	lea    -0x440(%rbp),%rdi
  40d68f:	e8 0c 03 00 00       	callq  40d9a0 <_ZNSt3mapINSt7__cxx1112basic_stringIcSt11char_traitsIcESaIcEEES5_St4lessIS5_ESaISt4pairIKS5_S5_EEED2Ev>
  40d694:	f6 85 f7 fb ff ff 01 	testb  $0x1,-0x409(%rbp)
  40d69b:	0f 84 29 00 00 00    	je     40d6ca <main+0x7da>
  40d6a1:	c7 85 bc fb ff ff 05 	movl   $0x5,-0x444(%rbp)
  40d6a8:	00 00 00 
  40d6ab:	e9 24 00 00 00       	jmpq   40d6d4 <main+0x7e4>
  40d6b0:	48 8d bd c0 fb ff ff 	lea    -0x440(%rbp),%rdi
  40d6b7:	89 d1                	mov    %edx,%ecx
  40d6b9:	48 89 45 d8          	mov    %rax,-0x28(%rbp)
  40d6bd:	89 4d d4             	mov    %ecx,-0x2c(%rbp)
  40d6c0:	e8 db 02 00 00       	callq  40d9a0 <_ZNSt3mapINSt7__cxx1112basic_stringIcSt11char_traitsIcESaIcEEES5_St4lessIS5_ESaISt4pairIKS5_S5_EEED2Ev>
  40d6c5:	e9 2e 00 00 00       	jmpq   40d6f8 <main+0x808>
  40d6ca:	c7 85 bc fb ff ff 00 	movl   $0x0,-0x444(%rbp)
  40d6d1:	00 00 00 
  40d6d4:	48 8d bd f8 fb ff ff 	lea    -0x408(%rbp),%rdi
  40d6db:	e8 80 55 ff ff       	callq  402c60 <_ZNSt7__cxx1112basic_stringIcSt11char_traitsIcESaIcEED1Ev@plt>
  40d6e0:	8b 85 bc fb ff ff    	mov    -0x444(%rbp),%eax
  40d6e6:	85 c0                	test   %eax,%eax
  40d6e8:	0f 85 b1 00 00 00    	jne    40d79f <main+0x8af>
  40d6ee:	e9 00 00 00 00       	jmpq   40d6f3 <main+0x803>
  40d6f3:	e9 89 00 00 00       	jmpq   40d781 <main+0x891>
  40d6f8:	48 8d bd f8 fb ff ff 	lea    -0x408(%rbp),%rdi
  40d6ff:	e8 5c 55 ff ff       	callq  402c60 <_ZNSt7__cxx1112basic_stringIcSt11char_traitsIcESaIcEED1Ev@plt>
  40d704:	e9 fe 00 00 00       	jmpq   40d807 <main+0x917>
  40d709:	8b 7d e0             	mov    -0x20(%rbp),%edi
  40d70c:	48 8d 85 88 fb ff ff 	lea    -0x478(%rbp),%rax
  40d713:	48 8d b5 30 ff ff ff 	lea    -0xd0(%rbp),%rsi
  40d71a:	89 bd b8 fa ff ff    	mov    %edi,-0x548(%rbp)
  40d720:	48 89 c7             	mov    %rax,%rdi
  40d723:	e8 48 02 00 00       	callq  40d970 <_ZNSt3mapINSt7__cxx1112basic_stringIcSt11char_traitsIcESaIcEEES5_St4lessIS5_ESaISt4pairIKS5_S5_EEEC2ERKSC_>
  40d728:	e9 00 00 00 00       	jmpq   40d72d <main+0x83d>
  40d72d:	b8 e0 f3 40 00       	mov    $0x40f3e0,%eax
  40d732:	89 c1                	mov    %eax,%ecx
  40d734:	be c8 00 00 00       	mov    $0xc8,%esi
  40d739:	48 8d 95 88 fb ff ff 	lea    -0x478(%rbp),%rdx
  40d740:	41 b8 1d 00 00 00    	mov    $0x1d,%r8d
  40d746:	8b bd b8 fa ff ff    	mov    -0x548(%rbp),%edi
  40d74c:	e8 af 5f ff ff       	callq  403700 <_Z14write_responseiiSt3mapINSt7__cxx1112basic_stringIcSt11char_traitsIcESaIcEEES5_St4lessIS5_ESaISt4pairIKS5_S5_EEEPKvi>
  40d751:	e9 00 00 00 00       	jmpq   40d756 <main+0x866>
  40d756:	48 8d bd 88 fb ff ff 	lea    -0x478(%rbp),%rdi
  40d75d:	e8 3e 02 00 00       	callq  40d9a0 <_ZNSt3mapINSt7__cxx1112basic_stringIcSt11char_traitsIcESaIcEEES5_St4lessIS5_ESaISt4pairIKS5_S5_EEED2Ev>
  40d762:	e9 1a 00 00 00       	jmpq   40d781 <main+0x891>
  40d767:	48 8d bd 88 fb ff ff 	lea    -0x478(%rbp),%rdi
  40d76e:	89 d1                	mov    %edx,%ecx
  40d770:	48 89 45 d8          	mov    %rax,-0x28(%rbp)
  40d774:	89 4d d4             	mov    %ecx,-0x2c(%rbp)
  40d777:	e8 24 02 00 00       	callq  40d9a0 <_ZNSt3mapINSt7__cxx1112basic_stringIcSt11char_traitsIcESaIcEEES5_St4lessIS5_ESaISt4pairIKS5_S5_EEED2Ev>
  40d77c:	e9 86 00 00 00       	jmpq   40d807 <main+0x917>
  40d781:	e9 00 00 00 00       	jmpq   40d786 <main+0x896>
  40d786:	e9 00 00 00 00       	jmpq   40d78b <main+0x89b>
  40d78b:	e9 00 00 00 00       	jmpq   40d790 <main+0x8a0>
  40d790:	e9 00 00 00 00       	jmpq   40d795 <main+0x8a5>
  40d795:	c7 85 bc fb ff ff 00 	movl   $0x0,-0x444(%rbp)
  40d79c:	00 00 00 
  40d79f:	48 8d bd f8 fe ff ff 	lea    -0x108(%rbp),%rdi
  40d7a6:	e8 b5 54 ff ff       	callq  402c60 <_ZNSt7__cxx1112basic_stringIcSt11char_traitsIcESaIcEED1Ev@plt>
  40d7ab:	48 8d bd 18 ff ff ff 	lea    -0xe8(%rbp),%rdi
  40d7b2:	e8 09 02 00 00       	callq  40d9c0 <_ZNSt6vectorIhSaIhEED2Ev>
  40d7b7:	48 8d bd 30 ff ff ff 	lea    -0xd0(%rbp),%rdi
  40d7be:	e8 dd 01 00 00       	callq  40d9a0 <_ZNSt3mapINSt7__cxx1112basic_stringIcSt11char_traitsIcESaIcEEES5_St4lessIS5_ESaISt4pairIKS5_S5_EEED2Ev>
  40d7c3:	48 8d bd 60 ff ff ff 	lea    -0xa0(%rbp),%rdi
  40d7ca:	e8 d1 01 00 00       	callq  40d9a0 <_ZNSt3mapINSt7__cxx1112basic_stringIcSt11char_traitsIcESaIcEEES5_St4lessIS5_ESaISt4pairIKS5_S5_EEED2Ev>
  40d7cf:	8b 85 bc fb ff ff    	mov    -0x444(%rbp),%eax
  40d7d5:	85 c0                	test   %eax,%eax
  40d7d7:	89 85 b4 fa ff ff    	mov    %eax,-0x54c(%rbp)
  40d7dd:	0f 84 1f 00 00 00    	je     40d802 <main+0x912>
  40d7e3:	e9 00 00 00 00       	jmpq   40d7e8 <main+0x8f8>
  40d7e8:	8b 85 b4 fa ff ff    	mov    -0x54c(%rbp),%eax
  40d7ee:	83 e8 05             	sub    $0x5,%eax
  40d7f1:	89 85 b0 fa ff ff    	mov    %eax,-0x550(%rbp)
  40d7f7:	0f 84 3f 00 00 00    	je     40d83c <main+0x94c>
  40d7fd:	e9 66 00 00 00       	jmpq   40d868 <main+0x978>
  40d802:	e9 7a f8 ff ff       	jmpq   40d081 <main+0x191>
  40d807:	48 8d bd f8 fe ff ff 	lea    -0x108(%rbp),%rdi
  40d80e:	e8 4d 54 ff ff       	callq  402c60 <_ZNSt7__cxx1112basic_stringIcSt11char_traitsIcESaIcEED1Ev@plt>
  40d813:	48 8d bd 18 ff ff ff 	lea    -0xe8(%rbp),%rdi
  40d81a:	e8 a1 01 00 00       	callq  40d9c0 <_ZNSt6vectorIhSaIhEED2Ev>
  40d81f:	48 8d bd 30 ff ff ff 	lea    -0xd0(%rbp),%rdi
  40d826:	e8 75 01 00 00       	callq  40d9a0 <_ZNSt3mapINSt7__cxx1112basic_stringIcSt11char_traitsIcESaIcEEES5_St4lessIS5_ESaISt4pairIKS5_S5_EEED2Ev>
  40d82b:	48 8d bd 60 ff ff ff 	lea    -0xa0(%rbp),%rdi
  40d832:	e8 69 01 00 00       	callq  40d9a0 <_ZNSt3mapINSt7__cxx1112basic_stringIcSt11char_traitsIcESaIcEEES5_St4lessIS5_ESaISt4pairIKS5_S5_EEED2Ev>
  40d837:	e9 13 00 00 00       	jmpq   40d84f <main+0x95f>
  40d83c:	c7 45 fc 00 00 00 00 	movl   $0x0,-0x4(%rbp)
  40d843:	8b 45 fc             	mov    -0x4(%rbp),%eax
  40d846:	48 81 c4 60 05 00 00 	add    $0x560,%rsp
  40d84d:	5d                   	pop    %rbp
  40d84e:	c3                   	retq   
  40d84f:	48 8b 7d d8          	mov    -0x28(%rbp),%rdi
  40d853:	e8 c8 57 ff ff       	callq  403020 <_Unwind_Resume@plt>
  40d858:	89 d1                	mov    %edx,%ecx
  40d85a:	48 89 c7             	mov    %rax,%rdi
  40d85d:	89 8d ac fa ff ff    	mov    %ecx,-0x554(%rbp)
  40d863:	e8 58 9c ff ff       	callq  4074c0 <__clang_call_terminate>
  40d868:	0f 1f 84 00 00 00 00 	nopl   0x0(%rax,%rax,1)
  40d86f:	00 

000000000040d870 <_ZNSaIhEC2Ev>:
  40d870:	55                   	push   %rbp
  40d871:	48 89 e5             	mov    %rsp,%rbp
  40d874:	48 83 ec 10          	sub    $0x10,%rsp
  40d878:	48 89 7d f8          	mov    %rdi,-0x8(%rbp)
  40d87c:	48 8b 7d f8          	mov    -0x8(%rbp),%rdi
  40d880:	e8 2b 03 00 00       	callq  40dbb0 <_ZN9__gnu_cxx13new_allocatorIhEC2Ev>
  40d885:	48 83 c4 10          	add    $0x10,%rsp
  40d889:	5d                   	pop    %rbp
  40d88a:	c3                   	retq   
  40d88b:	0f 1f 44 00 00       	nopl   0x0(%rax,%rax,1)

000000000040d890 <_ZNSt6vectorIhSaIhEEC2EmRKS0_>:
  40d890:	55                   	push   %rbp
  40d891:	48 89 e5             	mov    %rsp,%rbp
  40d894:	48 83 ec 40          	sub    $0x40,%rsp
  40d898:	48 89 7d f8          	mov    %rdi,-0x8(%rbp)
  40d89c:	48 89 75 f0          	mov    %rsi,-0x10(%rbp)
  40d8a0:	48 89 55 e8          	mov    %rdx,-0x18(%rbp)
  40d8a4:	48 8b 75 f8          	mov    -0x8(%rbp),%rsi
  40d8a8:	48 8b 7d f0          	mov    -0x10(%rbp),%rdi
  40d8ac:	48 89 7d d0          	mov    %rdi,-0x30(%rbp)
  40d8b0:	48 89 f7             	mov    %rsi,%rdi
  40d8b3:	48 8b 45 d0          	mov    -0x30(%rbp),%rax
  40d8b7:	48 89 75 c8          	mov    %rsi,-0x38(%rbp)
  40d8bb:	48 89 c6             	mov    %rax,%rsi
  40d8be:	e8 0d 03 00 00       	callq  40dbd0 <_ZNSt12_Vector_baseIhSaIhEEC2EmRKS0_>
  40d8c3:	48 8b 75 f0          	mov    -0x10(%rbp),%rsi
  40d8c7:	48 8b 7d c8          	mov    -0x38(%rbp),%rdi
  40d8cb:	e8 60 03 00 00       	callq  40dc30 <_ZNSt6vectorIhSaIhEE21_M_default_initializeEm>
  40d8d0:	e9 00 00 00 00       	jmpq   40d8d5 <_ZNSt6vectorIhSaIhEEC2EmRKS0_+0x45>
  40d8d5:	48 83 c4 40          	add    $0x40,%rsp
  40d8d9:	5d                   	pop    %rbp
  40d8da:	c3                   	retq   
  40d8db:	89 d1                	mov    %edx,%ecx
  40d8dd:	48 89 45 e0          	mov    %rax,-0x20(%rbp)
  40d8e1:	89 4d dc             	mov    %ecx,-0x24(%rbp)
  40d8e4:	48 8b 45 c8          	mov    -0x38(%rbp),%rax
  40d8e8:	48 89 c7             	mov    %rax,%rdi
  40d8eb:	e8 90 03 00 00       	callq  40dc80 <_ZNSt12_Vector_baseIhSaIhEED2Ev>
  40d8f0:	48 8b 7d e0          	mov    -0x20(%rbp),%rdi
  40d8f4:	e8 27 57 ff ff       	callq  403020 <_Unwind_Resume@plt>
  40d8f9:	0f 1f 80 00 00 00 00 	nopl   0x0(%rax)

000000000040d900 <_ZNSaIhED2Ev>:
  40d900:	55                   	push   %rbp
  40d901:	48 89 e5             	mov    %rsp,%rbp
  40d904:	48 83 ec 10          	sub    $0x10,%rsp
  40d908:	48 89 7d f8          	mov    %rdi,-0x8(%rbp)
  40d90c:	48 8b 7d f8          	mov    -0x8(%rbp),%rdi
  40d910:	e8 ab 02 00 00       	callq  40dbc0 <_ZN9__gnu_cxx13new_allocatorIhED2Ev>
  40d915:	48 83 c4 10          	add    $0x10,%rsp
  40d919:	5d                   	pop    %rbp
  40d91a:	c3                   	retq   
  40d91b:	0f 1f 44 00 00       	nopl   0x0(%rax,%rax,1)

000000000040d920 <_ZNSt6vectorIhSaIhEEixEm>:
  40d920:	55                   	push   %rbp
  40d921:	48 89 e5             	mov    %rsp,%rbp
  40d924:	48 89 7d f8          	mov    %rdi,-0x8(%rbp)
  40d928:	48 89 75 f0          	mov    %rsi,-0x10(%rbp)
  40d92c:	48 8b 75 f8          	mov    -0x8(%rbp),%rsi
  40d930:	48 8b 36             	mov    (%rsi),%rsi
  40d933:	48 03 75 f0          	add    -0x10(%rbp),%rsi
  40d937:	48 89 f0             	mov    %rsi,%rax
  40d93a:	5d                   	pop    %rbp
  40d93b:	c3                   	retq   
  40d93c:	0f 1f 40 00          	nopl   0x0(%rax)

000000000040d940 <_ZNSt3mapINSt7__cxx1112basic_stringIcSt11char_traitsIcESaIcEEES5_St4lessIS5_ESaISt4pairIKS5_S5_EEEC2Ev>:
  40d940:	55                   	push   %rbp
  40d941:	48 89 e5             	mov    %rsp,%rbp
  40d944:	48 83 ec 10          	sub    $0x10,%rsp
  40d948:	48 89 7d f8          	mov    %rdi,-0x8(%rbp)
  40d94c:	e8 0f 06 00 00       	callq  40df60 <_ZNSt8_Rb_treeINSt7__cxx1112basic_stringIcSt11char_traitsIcESaIcEEESt4pairIKS5_S5_ESt10_Select1stIS8_ESt4lessIS5_ESaIS8_EEC2Ev>
  40d951:	e9 00 00 00 00       	jmpq   40d956 <_ZNSt3mapINSt7__cxx1112basic_stringIcSt11char_traitsIcESaIcEEES5_St4lessIS5_ESaISt4pairIKS5_S5_EEEC2Ev+0x16>
  40d956:	48 83 c4 10          	add    $0x10,%rsp
  40d95a:	5d                   	pop    %rbp
  40d95b:	c3                   	retq   
  40d95c:	89 d1                	mov    %edx,%ecx
  40d95e:	48 89 c7             	mov    %rax,%rdi
  40d961:	89 4d f4             	mov    %ecx,-0xc(%rbp)
  40d964:	e8 57 9b ff ff       	callq  4074c0 <__clang_call_terminate>
  40d969:	0f 1f 80 00 00 00 00 	nopl   0x0(%rax)

000000000040d970 <_ZNSt3mapINSt7__cxx1112basic_stringIcSt11char_traitsIcESaIcEEES5_St4lessIS5_ESaISt4pairIKS5_S5_EEEC2ERKSC_>:
  40d970:	55                   	push   %rbp
  40d971:	48 89 e5             	mov    %rsp,%rbp
  40d974:	48 83 ec 10          	sub    $0x10,%rsp
  40d978:	48 89 7d f8          	mov    %rdi,-0x8(%rbp)
  40d97c:	48 89 75 f0          	mov    %rsi,-0x10(%rbp)
  40d980:	48 8b 7d f8          	mov    -0x8(%rbp),%rdi
  40d984:	48 8b 75 f0          	mov    -0x10(%rbp),%rsi
  40d988:	e8 d3 06 00 00       	callq  40e060 <_ZNSt8_Rb_treeINSt7__cxx1112basic_stringIcSt11char_traitsIcESaIcEEESt4pairIKS5_S5_ESt10_Select1stIS8_ESt4lessIS5_ESaIS8_EEC2ERKSE_>
  40d98d:	48 83 c4 10          	add    $0x10,%rsp
  40d991:	5d                   	pop    %rbp
  40d992:	c3                   	retq   
  40d993:	66 2e 0f 1f 84 00 00 	nopw   %cs:0x0(%rax,%rax,1)
  40d99a:	00 00 00 
  40d99d:	0f 1f 00             	nopl   (%rax)

000000000040d9a0 <_ZNSt3mapINSt7__cxx1112basic_stringIcSt11char_traitsIcESaIcEEES5_St4lessIS5_ESaISt4pairIKS5_S5_EEED2Ev>:
  40d9a0:	55                   	push   %rbp
  40d9a1:	48 89 e5             	mov    %rsp,%rbp
  40d9a4:	48 83 ec 10          	sub    $0x10,%rsp
  40d9a8:	48 89 7d f8          	mov    %rdi,-0x8(%rbp)
  40d9ac:	48 8b 7d f8          	mov    -0x8(%rbp),%rdi
  40d9b0:	e8 6b 01 00 00       	callq  40db20 <_ZNSt8_Rb_treeINSt7__cxx1112basic_stringIcSt11char_traitsIcESaIcEEESt4pairIKS5_S5_ESt10_Select1stIS8_ESt4lessIS5_ESaIS8_EED2Ev>
  40d9b5:	48 83 c4 10          	add    $0x10,%rsp
  40d9b9:	5d                   	pop    %rbp
  40d9ba:	c3                   	retq   
  40d9bb:	0f 1f 44 00 00       	nopl   0x0(%rax,%rax,1)

000000000040d9c0 <_ZNSt6vectorIhSaIhEED2Ev>:
  40d9c0:	55                   	push   %rbp
  40d9c1:	48 89 e5             	mov    %rsp,%rbp
  40d9c4:	48 83 ec 30          	sub    $0x30,%rsp
  40d9c8:	48 89 7d f8          	mov    %rdi,-0x8(%rbp)
  40d9cc:	48 89 f8             	mov    %rdi,%rax
  40d9cf:	48 8b 0f             	mov    (%rdi),%rcx
  40d9d2:	48 8b 77 08          	mov    0x8(%rdi),%rsi
  40d9d6:	48 89 75 e0          	mov    %rsi,-0x20(%rbp)
  40d9da:	48 89 45 d8          	mov    %rax,-0x28(%rbp)
  40d9de:	48 89 4d d0          	mov    %rcx,-0x30(%rbp)
  40d9e2:	e8 b9 b2 ff ff       	callq  408ca0 <_ZNSt12_Vector_baseIhSaIhEE19_M_get_Tp_allocatorEv>
  40d9e7:	48 8b 7d d0          	mov    -0x30(%rbp),%rdi
  40d9eb:	48 8b 75 e0          	mov    -0x20(%rbp),%rsi
  40d9ef:	48 89 c2             	mov    %rax,%rdx
  40d9f2:	e8 79 b2 ff ff       	callq  408c70 <_ZSt8_DestroyIPhhEvT_S1_RSaIT0_E>
  40d9f7:	e9 00 00 00 00       	jmpq   40d9fc <_ZNSt6vectorIhSaIhEED2Ev+0x3c>
  40d9fc:	48 8b 45 d8          	mov    -0x28(%rbp),%rax
  40da00:	48 89 c7             	mov    %rax,%rdi
  40da03:	e8 78 02 00 00       	callq  40dc80 <_ZNSt12_Vector_baseIhSaIhEED2Ev>
  40da08:	48 83 c4 30          	add    $0x30,%rsp
  40da0c:	5d                   	pop    %rbp
  40da0d:	c3                   	retq   
  40da0e:	89 d1                	mov    %edx,%ecx
  40da10:	48 89 45 f0          	mov    %rax,-0x10(%rbp)
  40da14:	89 4d ec             	mov    %ecx,-0x14(%rbp)
  40da17:	48 8b 45 d8          	mov    -0x28(%rbp),%rax
  40da1b:	48 89 c7             	mov    %rax,%rdi
  40da1e:	e8 5d 02 00 00       	callq  40dc80 <_ZNSt12_Vector_baseIhSaIhEED2Ev>
  40da23:	48 8b 7d f0          	mov    -0x10(%rbp),%rdi
  40da27:	e8 94 9a ff ff       	callq  4074c0 <__clang_call_terminate>
  40da2c:	0f 1f 40 00          	nopl   0x0(%rax)

000000000040da30 <_ZNSt11this_thread9sleep_forIlSt5ratioILl1ELl1EEEEvRKNSt6chrono8durationIT_T0_EE>:
  40da30:	55                   	push   %rbp
  40da31:	48 89 e5             	mov    %rsp,%rbp
  40da34:	48 83 ec 50          	sub    $0x50,%rsp
  40da38:	48 89 7d f8          	mov    %rdi,-0x8(%rbp)
  40da3c:	48 8b 7d f8          	mov    -0x8(%rbp),%rdi
  40da40:	48 89 7d c0          	mov    %rdi,-0x40(%rbp)
  40da44:	e8 47 0f 00 00       	callq  40e990 <_ZNSt6chrono8durationIlSt5ratioILl1ELl1EEE4zeroEv>
  40da49:	48 8d 75 f0          	lea    -0x10(%rbp),%rsi
  40da4d:	48 89 45 f0          	mov    %rax,-0x10(%rbp)
  40da51:	48 8b 7d c0          	mov    -0x40(%rbp),%rdi
  40da55:	e8 06 0f 00 00       	callq  40e960 <_ZNSt6chronoleIlSt5ratioILl1ELl1EElS2_EEbRKNS_8durationIT_T0_EERKNS3_IT1_T2_EE>
  40da5a:	a8 01                	test   $0x1,%al
  40da5c:	0f 85 05 00 00 00    	jne    40da67 <_ZNSt11this_thread9sleep_forIlSt5ratioILl1ELl1EEEEvRKNSt6chrono8durationIT_T0_EE+0x37>
  40da62:	e9 05 00 00 00       	jmpq   40da6c <_ZNSt11this_thread9sleep_forIlSt5ratioILl1ELl1EEEEvRKNSt6chrono8durationIT_T0_EE+0x3c>
  40da67:	e9 55 00 00 00       	jmpq   40dac1 <_ZNSt11this_thread9sleep_forIlSt5ratioILl1ELl1EEEEvRKNSt6chrono8durationIT_T0_EE+0x91>
  40da6c:	48 8b 7d f8          	mov    -0x8(%rbp),%rdi
  40da70:	e8 4b 0f 00 00       	callq  40e9c0 <_ZNSt6chrono13duration_castINS_8durationIlSt5ratioILl1ELl1EEEElS3_EENSt9enable_ifIXsr13__is_durationIT_EE5valueES6_E4typeERKNS1_IT0_T1_EE>
  40da75:	48 8d 75 e8          	lea    -0x18(%rbp),%rsi
  40da79:	48 89 45 e8          	mov    %rax,-0x18(%rbp)
  40da7d:	48 8b 7d f8          	mov    -0x8(%rbp),%rdi
  40da81:	e8 9a 0f 00 00       	callq  40ea20 <_ZNSt6chronomiIlSt5ratioILl1ELl1EElS2_EENSt11common_typeIJNS_8durationIT_T0_EENS4_IT1_T2_EEEE4typeERKS7_RKSA_>
  40da86:	48 8d 7d d8          	lea    -0x28(%rbp),%rdi
  40da8a:	48 89 45 d8          	mov    %rax,-0x28(%rbp)
  40da8e:	e8 5d 0f 00 00       	callq  40e9f0 <_ZNSt6chrono13duration_castINS_8durationIlSt5ratioILl1ELl1000000000EEEElS2_ILl1ELl1EEEENSt9enable_ifIXsr13__is_durationIT_EE5valueES7_E4typeERKNS1_IT0_T1_EE>
  40da93:	48 8d 7d e8          	lea    -0x18(%rbp),%rdi
  40da97:	48 89 45 e0          	mov    %rax,-0x20(%rbp)
  40da9b:	e8 f0 0f 00 00       	callq  40ea90 <_ZNKSt6chrono8durationIlSt5ratioILl1ELl1EEE5countEv>
  40daa0:	48 8d 7d e0          	lea    -0x20(%rbp),%rdi
  40daa4:	48 89 45 c8          	mov    %rax,-0x38(%rbp)
  40daa8:	e8 03 10 00 00       	callq  40eab0 <_ZNKSt6chrono8durationIlSt5ratioILl1ELl1000000000EEE5countEv>
  40daad:	48 8d 7d c8          	lea    -0x38(%rbp),%rdi
  40dab1:	31 c9                	xor    %ecx,%ecx
  40dab3:	89 ce                	mov    %ecx,%esi
  40dab5:	48 89 45 d0          	mov    %rax,-0x30(%rbp)
  40dab9:	e8 a2 50 ff ff       	callq  402b60 <nanosleep@plt>
  40dabe:	89 45 bc             	mov    %eax,-0x44(%rbp)
  40dac1:	48 83 c4 50          	add    $0x50,%rsp
  40dac5:	5d                   	pop    %rbp
  40dac6:	c3                   	retq   
  40dac7:	66 0f 1f 84 00 00 00 	nopw   0x0(%rax,%rax,1)
  40dace:	00 00 

000000000040dad0 <_ZNSt6chrono8durationIlSt5ratioILl1ELl1EEEC2IivEERKT_>:
  40dad0:	55                   	push   %rbp
  40dad1:	48 89 e5             	mov    %rsp,%rbp
  40dad4:	48 89 7d f8          	mov    %rdi,-0x8(%rbp)
  40dad8:	48 89 75 f0          	mov    %rsi,-0x10(%rbp)
  40dadc:	48 8b 75 f8          	mov    -0x8(%rbp),%rsi
  40dae0:	48 8b 7d f0          	mov    -0x10(%rbp),%rdi
  40dae4:	48 63 3f             	movslq (%rdi),%rdi
  40dae7:	48 89 3e             	mov    %rdi,(%rsi)
  40daea:	5d                   	pop    %rbp
  40daeb:	c3                   	retq   
  40daec:	0f 1f 40 00          	nopl   0x0(%rax)

000000000040daf0 <_ZNSt6vectorIhSaIhEEC2Ev>:
  40daf0:	55                   	push   %rbp
  40daf1:	48 89 e5             	mov    %rsp,%rbp
  40daf4:	48 83 ec 10          	sub    $0x10,%rsp
  40daf8:	48 89 7d f8          	mov    %rdi,-0x8(%rbp)
  40dafc:	e8 ef 10 00 00       	callq  40ebf0 <_ZNSt12_Vector_baseIhSaIhEEC2Ev>
  40db01:	e9 00 00 00 00       	jmpq   40db06 <_ZNSt6vectorIhSaIhEEC2Ev+0x16>
  40db06:	48 83 c4 10          	add    $0x10,%rsp
  40db0a:	5d                   	pop    %rbp
  40db0b:	c3                   	retq   
  40db0c:	89 d1                	mov    %edx,%ecx
  40db0e:	48 89 c7             	mov    %rax,%rdi
  40db11:	89 4d f4             	mov    %ecx,-0xc(%rbp)
  40db14:	e8 a7 99 ff ff       	callq  4074c0 <__clang_call_terminate>
  40db19:	0f 1f 80 00 00 00 00 	nopl   0x0(%rax)

000000000040db20 <_ZNSt8_Rb_treeINSt7__cxx1112basic_stringIcSt11char_traitsIcESaIcEEESt4pairIKS5_S5_ESt10_Select1stIS8_ESt4lessIS5_ESaIS8_EED2Ev>:
  40db20:	55                   	push   %rbp
  40db21:	48 89 e5             	mov    %rsp,%rbp
  40db24:	48 83 ec 30          	sub    $0x30,%rsp
  40db28:	48 89 7d f8          	mov    %rdi,-0x8(%rbp)
  40db2c:	48 89 f8             	mov    %rdi,%rax
  40db2f:	48 89 7d e0          	mov    %rdi,-0x20(%rbp)
  40db33:	48 89 45 d8          	mov    %rax,-0x28(%rbp)
  40db37:	e8 a4 9d ff ff       	callq  4078e0 <_ZNSt8_Rb_treeINSt7__cxx1112basic_stringIcSt11char_traitsIcESaIcEEESt4pairIKS5_S5_ESt10_Select1stIS8_ESt4lessIS5_ESaIS8_EE8_M_beginEv>
  40db3c:	48 8b 7d e0          	mov    -0x20(%rbp),%rdi
  40db40:	48 89 c6             	mov    %rax,%rsi
  40db43:	e8 18 b0 ff ff       	callq  408b60 <_ZNSt8_Rb_treeINSt7__cxx1112basic_stringIcSt11char_traitsIcESaIcEEESt4pairIKS5_S5_ESt10_Select1stIS8_ESt4lessIS5_ESaIS8_EE8_M_eraseEPSt13_Rb_tree_nodeIS8_E>
  40db48:	e9 00 00 00 00       	jmpq   40db4d <_ZNSt8_Rb_treeINSt7__cxx1112basic_stringIcSt11char_traitsIcESaIcEEESt4pairIKS5_S5_ESt10_Select1stIS8_ESt4lessIS5_ESaIS8_EED2Ev+0x2d>
  40db4d:	48 8b 7d d8          	mov    -0x28(%rbp),%rdi
  40db51:	e8 2a 00 00 00       	callq  40db80 <_ZNSt8_Rb_treeINSt7__cxx1112basic_stringIcSt11char_traitsIcESaIcEEESt4pairIKS5_S5_ESt10_Select1stIS8_ESt4lessIS5_ESaIS8_EE13_Rb_tree_implISC_Lb1EED2Ev>
  40db56:	48 83 c4 30          	add    $0x30,%rsp
  40db5a:	5d                   	pop    %rbp
  40db5b:	c3                   	retq   
  40db5c:	89 d1                	mov    %edx,%ecx
  40db5e:	48 89 45 f0          	mov    %rax,-0x10(%rbp)
  40db62:	89 4d ec             	mov    %ecx,-0x14(%rbp)
  40db65:	48 8b 7d d8          	mov    -0x28(%rbp),%rdi
  40db69:	e8 12 00 00 00       	callq  40db80 <_ZNSt8_Rb_treeINSt7__cxx1112basic_stringIcSt11char_traitsIcESaIcEEESt4pairIKS5_S5_ESt10_Select1stIS8_ESt4lessIS5_ESaIS8_EE13_Rb_tree_implISC_Lb1EED2Ev>
  40db6e:	48 8b 7d f0          	mov    -0x10(%rbp),%rdi
  40db72:	e8 49 99 ff ff       	callq  4074c0 <__clang_call_terminate>
  40db77:	66 0f 1f 84 00 00 00 	nopw   0x0(%rax,%rax,1)
  40db7e:	00 00 

000000000040db80 <_ZNSt8_Rb_treeINSt7__cxx1112basic_stringIcSt11char_traitsIcESaIcEEESt4pairIKS5_S5_ESt10_Select1stIS8_ESt4lessIS5_ESaIS8_EE13_Rb_tree_implISC_Lb1EED2Ev>:
  40db80:	55                   	push   %rbp
  40db81:	48 89 e5             	mov    %rsp,%rbp
  40db84:	48 83 ec 10          	sub    $0x10,%rsp
  40db88:	48 89 7d f8          	mov    %rdi,-0x8(%rbp)
  40db8c:	48 8b 7d f8          	mov    -0x8(%rbp),%rdi
  40db90:	e8 fb 06 00 00       	callq  40e290 <_ZNSaISt13_Rb_tree_nodeISt4pairIKNSt7__cxx1112basic_stringIcSt11char_traitsIcESaIcEEES6_EEED2Ev>
  40db95:	48 83 c4 10          	add    $0x10,%rsp
  40db99:	5d                   	pop    %rbp
  40db9a:	c3                   	retq   
  40db9b:	0f 1f 44 00 00       	nopl   0x0(%rax,%rax,1)

000000000040dba0 <_ZN9__gnu_cxx13new_allocatorISt13_Rb_tree_nodeISt4pairIKNSt7__cxx1112basic_stringIcSt11char_traitsIcESaIcEEES8_EEED2Ev>:
  40dba0:	55                   	push   %rbp
  40dba1:	48 89 e5             	mov    %rsp,%rbp
  40dba4:	48 89 7d f8          	mov    %rdi,-0x8(%rbp)
  40dba8:	5d                   	pop    %rbp
  40dba9:	c3                   	retq   
  40dbaa:	66 0f 1f 44 00 00    	nopw   0x0(%rax,%rax,1)

000000000040dbb0 <_ZN9__gnu_cxx13new_allocatorIhEC2Ev>:
  40dbb0:	55                   	push   %rbp
  40dbb1:	48 89 e5             	mov    %rsp,%rbp
  40dbb4:	48 89 7d f8          	mov    %rdi,-0x8(%rbp)
  40dbb8:	5d                   	pop    %rbp
  40dbb9:	c3                   	retq   
  40dbba:	66 0f 1f 44 00 00    	nopw   0x0(%rax,%rax,1)

000000000040dbc0 <_ZN9__gnu_cxx13new_allocatorIhED2Ev>:
  40dbc0:	55                   	push   %rbp
  40dbc1:	48 89 e5             	mov    %rsp,%rbp
  40dbc4:	48 89 7d f8          	mov    %rdi,-0x8(%rbp)
  40dbc8:	5d                   	pop    %rbp
  40dbc9:	c3                   	retq   
  40dbca:	66 0f 1f 44 00 00    	nopw   0x0(%rax,%rax,1)

000000000040dbd0 <_ZNSt12_Vector_baseIhSaIhEEC2EmRKS0_>:
  40dbd0:	55                   	push   %rbp
  40dbd1:	48 89 e5             	mov    %rsp,%rbp
  40dbd4:	48 83 ec 30          	sub    $0x30,%rsp
  40dbd8:	48 89 7d f8          	mov    %rdi,-0x8(%rbp)
  40dbdc:	48 89 75 f0          	mov    %rsi,-0x10(%rbp)
  40dbe0:	48 89 55 e8          	mov    %rdx,-0x18(%rbp)
  40dbe4:	48 8b 75 f8          	mov    -0x8(%rbp),%rsi
  40dbe8:	48 89 f7             	mov    %rsi,%rdi
  40dbeb:	48 89 75 d0          	mov    %rsi,-0x30(%rbp)
  40dbef:	48 89 d6             	mov    %rdx,%rsi
  40dbf2:	e8 e9 00 00 00       	callq  40dce0 <_ZNSt12_Vector_baseIhSaIhEE12_Vector_implC2ERKS0_>
  40dbf7:	48 8b 75 f0          	mov    -0x10(%rbp),%rsi
  40dbfb:	48 8b 7d d0          	mov    -0x30(%rbp),%rdi
  40dbff:	e8 2c 01 00 00       	callq  40dd30 <_ZNSt12_Vector_baseIhSaIhEE17_M_create_storageEm>
  40dc04:	e9 00 00 00 00       	jmpq   40dc09 <_ZNSt12_Vector_baseIhSaIhEEC2EmRKS0_+0x39>
  40dc09:	48 83 c4 30          	add    $0x30,%rsp
  40dc0d:	5d                   	pop    %rbp
  40dc0e:	c3                   	retq   
  40dc0f:	89 d1                	mov    %edx,%ecx
  40dc11:	48 89 45 e0          	mov    %rax,-0x20(%rbp)
  40dc15:	89 4d dc             	mov    %ecx,-0x24(%rbp)
  40dc18:	48 8b 7d d0          	mov    -0x30(%rbp),%rdi
  40dc1c:	e8 5f 01 00 00       	callq  40dd80 <_ZNSt12_Vector_baseIhSaIhEE12_Vector_implD2Ev>
  40dc21:	48 8b 7d e0          	mov    -0x20(%rbp),%rdi
  40dc25:	e8 f6 53 ff ff       	callq  403020 <_Unwind_Resume@plt>
  40dc2a:	66 0f 1f 44 00 00    	nopw   0x0(%rax,%rax,1)

000000000040dc30 <_ZNSt6vectorIhSaIhEE21_M_default_initializeEm>:
  40dc30:	55                   	push   %rbp
  40dc31:	48 89 e5             	mov    %rsp,%rbp
  40dc34:	48 83 ec 30          	sub    $0x30,%rsp
  40dc38:	48 89 7d f8          	mov    %rdi,-0x8(%rbp)
  40dc3c:	48 89 75 f0          	mov    %rsi,-0x10(%rbp)
  40dc40:	48 8b 75 f8          	mov    -0x8(%rbp),%rsi
  40dc44:	48 8b 3e             	mov    (%rsi),%rdi
  40dc47:	48 8b 45 f0          	mov    -0x10(%rbp),%rax
  40dc4b:	48 89 f1             	mov    %rsi,%rcx
  40dc4e:	48 89 7d e8          	mov    %rdi,-0x18(%rbp)
  40dc52:	48 89 cf             	mov    %rcx,%rdi
  40dc55:	48 89 75 e0          	mov    %rsi,-0x20(%rbp)
  40dc59:	48 89 45 d8          	mov    %rax,-0x28(%rbp)
  40dc5d:	e8 3e b0 ff ff       	callq  408ca0 <_ZNSt12_Vector_baseIhSaIhEE19_M_get_Tp_allocatorEv>
  40dc62:	48 8b 7d e8          	mov    -0x18(%rbp),%rdi
  40dc66:	48 8b 75 d8          	mov    -0x28(%rbp),%rsi
  40dc6a:	48 89 c2             	mov    %rax,%rdx
  40dc6d:	e8 6e 01 00 00       	callq  40dde0 <_ZSt27__uninitialized_default_n_aIPhmhET_S1_T0_RSaIT1_E>
  40dc72:	48 8b 4d e0          	mov    -0x20(%rbp),%rcx
  40dc76:	48 89 41 08          	mov    %rax,0x8(%rcx)
  40dc7a:	48 83 c4 30          	add    $0x30,%rsp
  40dc7e:	5d                   	pop    %rbp
  40dc7f:	c3                   	retq   

000000000040dc80 <_ZNSt12_Vector_baseIhSaIhEED2Ev>:
  40dc80:	55                   	push   %rbp
  40dc81:	48 89 e5             	mov    %rsp,%rbp
  40dc84:	48 83 ec 20          	sub    $0x20,%rsp
  40dc88:	48 89 7d f8          	mov    %rdi,-0x8(%rbp)
  40dc8c:	48 89 f8             	mov    %rdi,%rax
  40dc8f:	48 8b 0f             	mov    (%rdi),%rcx
  40dc92:	48 8b 57 10          	mov    0x10(%rdi),%rdx
  40dc96:	48 29 ca             	sub    %rcx,%rdx
  40dc99:	48 89 ce             	mov    %rcx,%rsi
  40dc9c:	48 89 45 e0          	mov    %rax,-0x20(%rbp)
  40dca0:	e8 6b c1 ff ff       	callq  409e10 <_ZNSt12_Vector_baseIhSaIhEE13_M_deallocateEPhm>
  40dca5:	e9 00 00 00 00       	jmpq   40dcaa <_ZNSt12_Vector_baseIhSaIhEED2Ev+0x2a>
  40dcaa:	48 8b 7d e0          	mov    -0x20(%rbp),%rdi
  40dcae:	e8 cd 00 00 00       	callq  40dd80 <_ZNSt12_Vector_baseIhSaIhEE12_Vector_implD2Ev>
  40dcb3:	48 83 c4 20          	add    $0x20,%rsp
  40dcb7:	5d                   	pop    %rbp
  40dcb8:	c3                   	retq   
  40dcb9:	89 d1                	mov    %edx,%ecx
  40dcbb:	48 89 45 f0          	mov    %rax,-0x10(%rbp)
  40dcbf:	89 4d ec             	mov    %ecx,-0x14(%rbp)
  40dcc2:	48 8b 7d e0          	mov    -0x20(%rbp),%rdi
  40dcc6:	e8 b5 00 00 00       	callq  40dd80 <_ZNSt12_Vector_baseIhSaIhEE12_Vector_implD2Ev>
  40dccb:	48 8b 7d f0          	mov    -0x10(%rbp),%rdi
  40dccf:	e8 ec 97 ff ff       	callq  4074c0 <__clang_call_terminate>
  40dcd4:	66 2e 0f 1f 84 00 00 	nopw   %cs:0x0(%rax,%rax,1)
  40dcdb:	00 00 00 
  40dcde:	66 90                	xchg   %ax,%ax

000000000040dce0 <_ZNSt12_Vector_baseIhSaIhEE12_Vector_implC2ERKS0_>:
  40dce0:	55                   	push   %rbp
  40dce1:	48 89 e5             	mov    %rsp,%rbp
  40dce4:	48 83 ec 20          	sub    $0x20,%rsp
  40dce8:	48 89 7d f8          	mov    %rdi,-0x8(%rbp)
  40dcec:	48 89 75 f0          	mov    %rsi,-0x10(%rbp)
  40dcf0:	48 8b 75 f8          	mov    -0x8(%rbp),%rsi
  40dcf4:	48 89 f7             	mov    %rsi,%rdi
  40dcf7:	48 8b 45 f0          	mov    -0x10(%rbp),%rax
  40dcfb:	48 89 75 e8          	mov    %rsi,-0x18(%rbp)
  40dcff:	48 89 c6             	mov    %rax,%rsi
  40dd02:	e8 99 00 00 00       	callq  40dda0 <_ZNSaIhEC2ERKS_>
  40dd07:	48 8b 45 e8          	mov    -0x18(%rbp),%rax
  40dd0b:	48 c7 00 00 00 00 00 	movq   $0x0,(%rax)
  40dd12:	48 c7 40 08 00 00 00 	movq   $0x0,0x8(%rax)
  40dd19:	00 
  40dd1a:	48 c7 40 10 00 00 00 	movq   $0x0,0x10(%rax)
  40dd21:	00 
  40dd22:	48 83 c4 20          	add    $0x20,%rsp
  40dd26:	5d                   	pop    %rbp
  40dd27:	c3                   	retq   
  40dd28:	0f 1f 84 00 00 00 00 	nopl   0x0(%rax,%rax,1)
  40dd2f:	00 

000000000040dd30 <_ZNSt12_Vector_baseIhSaIhEE17_M_create_storageEm>:
  40dd30:	55                   	push   %rbp
  40dd31:	48 89 e5             	mov    %rsp,%rbp
  40dd34:	48 83 ec 20          	sub    $0x20,%rsp
  40dd38:	48 89 7d f8          	mov    %rdi,-0x8(%rbp)
  40dd3c:	48 89 75 f0          	mov    %rsi,-0x10(%rbp)
  40dd40:	48 8b 75 f8          	mov    -0x8(%rbp),%rsi
  40dd44:	48 8b 7d f0          	mov    -0x10(%rbp),%rdi
  40dd48:	48 89 7d e8          	mov    %rdi,-0x18(%rbp)
  40dd4c:	48 89 f7             	mov    %rsi,%rdi
  40dd4f:	48 8b 45 e8          	mov    -0x18(%rbp),%rax
  40dd53:	48 89 75 e0          	mov    %rsi,-0x20(%rbp)
  40dd57:	48 89 c6             	mov    %rax,%rsi
  40dd5a:	e8 01 c0 ff ff       	callq  409d60 <_ZNSt12_Vector_baseIhSaIhEE11_M_allocateEm>
  40dd5f:	48 8b 75 e0          	mov    -0x20(%rbp),%rsi
  40dd63:	48 89 06             	mov    %rax,(%rsi)
  40dd66:	48 8b 06             	mov    (%rsi),%rax
  40dd69:	48 89 46 08          	mov    %rax,0x8(%rsi)
  40dd6d:	48 8b 06             	mov    (%rsi),%rax
  40dd70:	48 03 45 f0          	add    -0x10(%rbp),%rax
  40dd74:	48 89 46 10          	mov    %rax,0x10(%rsi)
  40dd78:	48 83 c4 20          	add    $0x20,%rsp
  40dd7c:	5d                   	pop    %rbp
  40dd7d:	c3                   	retq   
  40dd7e:	66 90                	xchg   %ax,%ax

000000000040dd80 <_ZNSt12_Vector_baseIhSaIhEE12_Vector_implD2Ev>:
  40dd80:	55                   	push   %rbp
  40dd81:	48 89 e5             	mov    %rsp,%rbp
  40dd84:	48 83 ec 10          	sub    $0x10,%rsp
  40dd88:	48 89 7d f8          	mov    %rdi,-0x8(%rbp)
  40dd8c:	48 8b 7d f8          	mov    -0x8(%rbp),%rdi
  40dd90:	e8 6b fb ff ff       	callq  40d900 <_ZNSaIhED2Ev>
  40dd95:	48 83 c4 10          	add    $0x10,%rsp
  40dd99:	5d                   	pop    %rbp
  40dd9a:	c3                   	retq   
  40dd9b:	0f 1f 44 00 00       	nopl   0x0(%rax,%rax,1)

000000000040dda0 <_ZNSaIhEC2ERKS_>:
  40dda0:	55                   	push   %rbp
  40dda1:	48 89 e5             	mov    %rsp,%rbp
  40dda4:	48 83 ec 20          	sub    $0x20,%rsp
  40dda8:	48 89 7d f8          	mov    %rdi,-0x8(%rbp)
  40ddac:	48 89 75 f0          	mov    %rsi,-0x10(%rbp)
  40ddb0:	48 8b 75 f8          	mov    -0x8(%rbp),%rsi
  40ddb4:	48 8b 7d f0          	mov    -0x10(%rbp),%rdi
  40ddb8:	48 89 7d e8          	mov    %rdi,-0x18(%rbp)
  40ddbc:	48 89 f7             	mov    %rsi,%rdi
  40ddbf:	48 8b 75 e8          	mov    -0x18(%rbp),%rsi
  40ddc3:	e8 08 00 00 00       	callq  40ddd0 <_ZN9__gnu_cxx13new_allocatorIhEC2ERKS1_>
  40ddc8:	48 83 c4 20          	add    $0x20,%rsp
  40ddcc:	5d                   	pop    %rbp
  40ddcd:	c3                   	retq   
  40ddce:	66 90                	xchg   %ax,%ax

000000000040ddd0 <_ZN9__gnu_cxx13new_allocatorIhEC2ERKS1_>:
  40ddd0:	55                   	push   %rbp
  40ddd1:	48 89 e5             	mov    %rsp,%rbp
  40ddd4:	48 89 7d f8          	mov    %rdi,-0x8(%rbp)
  40ddd8:	48 89 75 f0          	mov    %rsi,-0x10(%rbp)
  40dddc:	5d                   	pop    %rbp
  40dddd:	c3                   	retq   
  40ddde:	66 90                	xchg   %ax,%ax

000000000040dde0 <_ZSt27__uninitialized_default_n_aIPhmhET_S1_T0_RSaIT1_E>:
  40dde0:	55                   	push   %rbp
  40dde1:	48 89 e5             	mov    %rsp,%rbp
  40dde4:	48 83 ec 20          	sub    $0x20,%rsp
  40dde8:	48 89 7d f8          	mov    %rdi,-0x8(%rbp)
  40ddec:	48 89 75 f0          	mov    %rsi,-0x10(%rbp)
  40ddf0:	48 89 55 e8          	mov    %rdx,-0x18(%rbp)
  40ddf4:	48 8b 7d f8          	mov    -0x8(%rbp),%rdi
  40ddf8:	48 8b 75 f0          	mov    -0x10(%rbp),%rsi
  40ddfc:	e8 0f 00 00 00       	callq  40de10 <_ZSt25__uninitialized_default_nIPhmET_S1_T0_>
  40de01:	48 83 c4 20          	add    $0x20,%rsp
  40de05:	5d                   	pop    %rbp
  40de06:	c3                   	retq   
  40de07:	66 0f 1f 84 00 00 00 	nopw   0x0(%rax,%rax,1)
  40de0e:	00 00 

000000000040de10 <_ZSt25__uninitialized_default_nIPhmET_S1_T0_>:
  40de10:	55                   	push   %rbp
  40de11:	48 89 e5             	mov    %rsp,%rbp
  40de14:	48 83 ec 20          	sub    $0x20,%rsp
  40de18:	48 89 7d f8          	mov    %rdi,-0x8(%rbp)
  40de1c:	48 89 75 f0          	mov    %rsi,-0x10(%rbp)
  40de20:	c6 45 ef 01          	movb   $0x1,-0x11(%rbp)
  40de24:	48 8b 7d f8          	mov    -0x8(%rbp),%rdi
  40de28:	48 8b 75 f0          	mov    -0x10(%rbp),%rsi
  40de2c:	e8 0f 00 00 00       	callq  40de40 <_ZNSt27__uninitialized_default_n_1ILb1EE18__uninit_default_nIPhmEET_S3_T0_>
  40de31:	48 83 c4 20          	add    $0x20,%rsp
  40de35:	5d                   	pop    %rbp
  40de36:	c3                   	retq   
  40de37:	66 0f 1f 84 00 00 00 	nopw   0x0(%rax,%rax,1)
  40de3e:	00 00 

000000000040de40 <_ZNSt27__uninitialized_default_n_1ILb1EE18__uninit_default_nIPhmEET_S3_T0_>:
  40de40:	55                   	push   %rbp
  40de41:	48 89 e5             	mov    %rsp,%rbp
  40de44:	48 83 ec 20          	sub    $0x20,%rsp
  40de48:	48 8d 55 ef          	lea    -0x11(%rbp),%rdx
  40de4c:	48 89 7d f8          	mov    %rdi,-0x8(%rbp)
  40de50:	48 89 75 f0          	mov    %rsi,-0x10(%rbp)
  40de54:	48 8b 7d f8          	mov    -0x8(%rbp),%rdi
  40de58:	48 8b 75 f0          	mov    -0x10(%rbp),%rsi
  40de5c:	c6 45 ef 00          	movb   $0x0,-0x11(%rbp)
  40de60:	e8 0b 00 00 00       	callq  40de70 <_ZSt6fill_nIPhmhET_S1_T0_RKT1_>
  40de65:	48 83 c4 20          	add    $0x20,%rsp
  40de69:	5d                   	pop    %rbp
  40de6a:	c3                   	retq   
  40de6b:	0f 1f 44 00 00       	nopl   0x0(%rax,%rax,1)

000000000040de70 <_ZSt6fill_nIPhmhET_S1_T0_RKT1_>:
  40de70:	55                   	push   %rbp
  40de71:	48 89 e5             	mov    %rsp,%rbp
  40de74:	48 83 ec 20          	sub    $0x20,%rsp
  40de78:	48 89 7d f8          	mov    %rdi,-0x8(%rbp)
  40de7c:	48 89 75 f0          	mov    %rsi,-0x10(%rbp)
  40de80:	48 89 55 e8          	mov    %rdx,-0x18(%rbp)
  40de84:	48 8b 7d f8          	mov    -0x8(%rbp),%rdi
  40de88:	e8 f3 c1 ff ff       	callq  40a080 <_ZSt12__niter_baseIPhENSt11_Niter_baseIT_E13iterator_typeES2_>
  40de8d:	48 8b 75 f0          	mov    -0x10(%rbp),%rsi
  40de91:	48 8b 55 e8          	mov    -0x18(%rbp),%rdx
  40de95:	48 89 c7             	mov    %rax,%rdi
  40de98:	e8 13 00 00 00       	callq  40deb0 <_ZSt10__fill_n_aImhEN9__gnu_cxx11__enable_ifIXsr9__is_byteIT0_EE7__valueEPS2_E6__typeES3_T_RKS2_>
  40de9d:	48 83 c4 20          	add    $0x20,%rsp
  40dea1:	5d                   	pop    %rbp
  40dea2:	c3                   	retq   
  40dea3:	66 2e 0f 1f 84 00 00 	nopw   %cs:0x0(%rax,%rax,1)
  40deaa:	00 00 00 
  40dead:	0f 1f 00             	nopl   (%rax)

000000000040deb0 <_ZSt10__fill_n_aImhEN9__gnu_cxx11__enable_ifIXsr9__is_byteIT0_EE7__valueEPS2_E6__typeES3_T_RKS2_>:
  40deb0:	55                   	push   %rbp
  40deb1:	48 89 e5             	mov    %rsp,%rbp
  40deb4:	48 83 ec 20          	sub    $0x20,%rsp
  40deb8:	48 89 7d f8          	mov    %rdi,-0x8(%rbp)
  40debc:	48 89 75 f0          	mov    %rsi,-0x10(%rbp)
  40dec0:	48 89 55 e8          	mov    %rdx,-0x18(%rbp)
  40dec4:	48 8b 7d f8          	mov    -0x8(%rbp),%rdi
  40dec8:	48 8b 55 f8          	mov    -0x8(%rbp),%rdx
  40decc:	48 03 55 f0          	add    -0x10(%rbp),%rdx
  40ded0:	48 8b 75 e8          	mov    -0x18(%rbp),%rsi
  40ded4:	48 89 75 e0          	mov    %rsi,-0x20(%rbp)
  40ded8:	48 89 d6             	mov    %rdx,%rsi
  40dedb:	48 8b 55 e0          	mov    -0x20(%rbp),%rdx
  40dedf:	e8 1c 00 00 00       	callq  40df00 <_ZSt8__fill_aIhEN9__gnu_cxx11__enable_ifIXsr9__is_byteIT_EE7__valueEvE6__typeEPS2_S5_RKS2_>
  40dee4:	48 8b 55 f8          	mov    -0x8(%rbp),%rdx
  40dee8:	48 03 55 f0          	add    -0x10(%rbp),%rdx
  40deec:	48 89 d0             	mov    %rdx,%rax
  40deef:	48 83 c4 20          	add    $0x20,%rsp
  40def3:	5d                   	pop    %rbp
  40def4:	c3                   	retq   
  40def5:	66 2e 0f 1f 84 00 00 	nopw   %cs:0x0(%rax,%rax,1)
  40defc:	00 00 00 
  40deff:	90                   	nop

000000000040df00 <_ZSt8__fill_aIhEN9__gnu_cxx11__enable_ifIXsr9__is_byteIT_EE7__valueEvE6__typeEPS2_S5_RKS2_>:
  40df00:	55                   	push   %rbp
  40df01:	48 89 e5             	mov    %rsp,%rbp
  40df04:	48 83 ec 30          	sub    $0x30,%rsp
  40df08:	48 89 7d f8          	mov    %rdi,-0x8(%rbp)
  40df0c:	48 89 75 f0          	mov    %rsi,-0x10(%rbp)
  40df10:	48 89 55 e8          	mov    %rdx,-0x18(%rbp)
  40df14:	48 8b 55 e8          	mov    -0x18(%rbp),%rdx
  40df18:	8a 02                	mov    (%rdx),%al
  40df1a:	88 45 e7             	mov    %al,-0x19(%rbp)
  40df1d:	48 8b 55 f0          	mov    -0x10(%rbp),%rdx
  40df21:	48 8b 75 f8          	mov    -0x8(%rbp),%rsi
  40df25:	48 29 f2             	sub    %rsi,%rdx
  40df28:	48 89 55 d8          	mov    %rdx,-0x28(%rbp)
  40df2c:	48 83 7d d8 00       	cmpq   $0x0,-0x28(%rbp)
  40df31:	0f 84 16 00 00 00    	je     40df4d <_ZSt8__fill_aIhEN9__gnu_cxx11__enable_ifIXsr9__is_byteIT_EE7__valueEvE6__typeEPS2_S5_RKS2_+0x4d>
  40df37:	48 8b 7d f8          	mov    -0x8(%rbp),%rdi
  40df3b:	0f b6 45 e7          	movzbl -0x19(%rbp),%eax
  40df3f:	88 c1                	mov    %al,%cl
  40df41:	48 8b 55 d8          	mov    -0x28(%rbp),%rdx
  40df45:	0f b6 f1             	movzbl %cl,%esi
  40df48:	e8 e3 4c ff ff       	callq  402c30 <memset@plt>
  40df4d:	48 83 c4 30          	add    $0x30,%rsp
  40df51:	5d                   	pop    %rbp
  40df52:	c3                   	retq   
  40df53:	66 2e 0f 1f 84 00 00 	nopw   %cs:0x0(%rax,%rax,1)
  40df5a:	00 00 00 
  40df5d:	0f 1f 00             	nopl   (%rax)

000000000040df60 <_ZNSt8_Rb_treeINSt7__cxx1112basic_stringIcSt11char_traitsIcESaIcEEESt4pairIKS5_S5_ESt10_Select1stIS8_ESt4lessIS5_ESaIS8_EEC2Ev>:
  40df60:	55                   	push   %rbp
  40df61:	48 89 e5             	mov    %rsp,%rbp
  40df64:	48 83 ec 10          	sub    $0x10,%rsp
  40df68:	48 89 7d f8          	mov    %rdi,-0x8(%rbp)
  40df6c:	48 8b 7d f8          	mov    -0x8(%rbp),%rdi
  40df70:	e8 0b 00 00 00       	callq  40df80 <_ZNSt8_Rb_treeINSt7__cxx1112basic_stringIcSt11char_traitsIcESaIcEEESt4pairIKS5_S5_ESt10_Select1stIS8_ESt4lessIS5_ESaIS8_EE13_Rb_tree_implISC_Lb1EEC2Ev>
  40df75:	48 83 c4 10          	add    $0x10,%rsp
  40df79:	5d                   	pop    %rbp
  40df7a:	c3                   	retq   
  40df7b:	0f 1f 44 00 00       	nopl   0x0(%rax,%rax,1)

000000000040df80 <_ZNSt8_Rb_treeINSt7__cxx1112basic_stringIcSt11char_traitsIcESaIcEEESt4pairIKS5_S5_ESt10_Select1stIS8_ESt4lessIS5_ESaIS8_EE13_Rb_tree_implISC_Lb1EEC2Ev>:
  40df80:	55                   	push   %rbp
  40df81:	48 89 e5             	mov    %rsp,%rbp
  40df84:	48 83 ec 30          	sub    $0x30,%rsp
  40df88:	48 89 7d f8          	mov    %rdi,-0x8(%rbp)
  40df8c:	48 89 f8             	mov    %rdi,%rax
  40df8f:	48 89 7d e0          	mov    %rdi,-0x20(%rbp)
  40df93:	48 89 45 d8          	mov    %rax,-0x28(%rbp)
  40df97:	e8 54 00 00 00       	callq  40dff0 <_ZNSaISt13_Rb_tree_nodeISt4pairIKNSt7__cxx1112basic_stringIcSt11char_traitsIcESaIcEEES6_EEEC2Ev>
  40df9c:	0f 57 c0             	xorps  %xmm0,%xmm0
  40df9f:	48 8b 45 e0          	mov    -0x20(%rbp),%rax
  40dfa3:	0f 11 40 18          	movups %xmm0,0x18(%rax)
  40dfa7:	0f 11 40 08          	movups %xmm0,0x8(%rax)
  40dfab:	48 c7 40 28 00 00 00 	movq   $0x0,0x28(%rax)
  40dfb2:	00 
  40dfb3:	48 89 c7             	mov    %rax,%rdi
  40dfb6:	e8 55 00 00 00       	callq  40e010 <_ZNSt8_Rb_treeINSt7__cxx1112basic_stringIcSt11char_traitsIcESaIcEEESt4pairIKS5_S5_ESt10_Select1stIS8_ESt4lessIS5_ESaIS8_EE13_Rb_tree_implISC_Lb1EE13_M_initializeEv>
  40dfbb:	e9 00 00 00 00       	jmpq   40dfc0 <_ZNSt8_Rb_treeINSt7__cxx1112basic_stringIcSt11char_traitsIcESaIcEEESt4pairIKS5_S5_ESt10_Select1stIS8_ESt4lessIS5_ESaIS8_EE13_Rb_tree_implISC_Lb1EEC2Ev+0x40>
  40dfc0:	48 83 c4 30          	add    $0x30,%rsp
  40dfc4:	5d                   	pop    %rbp
  40dfc5:	c3                   	retq   
  40dfc6:	89 d1                	mov    %edx,%ecx
  40dfc8:	48 89 45 f0          	mov    %rax,-0x10(%rbp)
  40dfcc:	89 4d ec             	mov    %ecx,-0x14(%rbp)
  40dfcf:	48 8b 45 d8          	mov    -0x28(%rbp),%rax
  40dfd3:	48 89 c7             	mov    %rax,%rdi
  40dfd6:	e8 b5 02 00 00       	callq  40e290 <_ZNSaISt13_Rb_tree_nodeISt4pairIKNSt7__cxx1112basic_stringIcSt11char_traitsIcESaIcEEES6_EEED2Ev>
  40dfdb:	48 8b 7d f0          	mov    -0x10(%rbp),%rdi
  40dfdf:	e8 3c 50 ff ff       	callq  403020 <_Unwind_Resume@plt>
  40dfe4:	66 2e 0f 1f 84 00 00 	nopw   %cs:0x0(%rax,%rax,1)
  40dfeb:	00 00 00 
  40dfee:	66 90                	xchg   %ax,%ax

000000000040dff0 <_ZNSaISt13_Rb_tree_nodeISt4pairIKNSt7__cxx1112basic_stringIcSt11char_traitsIcESaIcEEES6_EEEC2Ev>:
  40dff0:	55                   	push   %rbp
  40dff1:	48 89 e5             	mov    %rsp,%rbp
  40dff4:	48 83 ec 10          	sub    $0x10,%rsp
  40dff8:	48 89 7d f8          	mov    %rdi,-0x8(%rbp)
  40dffc:	48 8b 7d f8          	mov    -0x8(%rbp),%rdi
  40e000:	e8 4b 00 00 00       	callq  40e050 <_ZN9__gnu_cxx13new_allocatorISt13_Rb_tree_nodeISt4pairIKNSt7__cxx1112basic_stringIcSt11char_traitsIcESaIcEEES8_EEEC2Ev>
  40e005:	48 83 c4 10          	add    $0x10,%rsp
  40e009:	5d                   	pop    %rbp
  40e00a:	c3                   	retq   
  40e00b:	0f 1f 44 00 00       	nopl   0x0(%rax,%rax,1)

000000000040e010 <_ZNSt8_Rb_treeINSt7__cxx1112basic_stringIcSt11char_traitsIcESaIcEEESt4pairIKS5_S5_ESt10_Select1stIS8_ESt4lessIS5_ESaIS8_EE13_Rb_tree_implISC_Lb1EE13_M_initializeEv>:
  40e010:	55                   	push   %rbp
  40e011:	48 89 e5             	mov    %rsp,%rbp
  40e014:	48 89 7d f8          	mov    %rdi,-0x8(%rbp)
  40e018:	48 8b 7d f8          	mov    -0x8(%rbp),%rdi
  40e01c:	c7 47 08 00 00 00 00 	movl   $0x0,0x8(%rdi)
  40e023:	48 c7 47 10 00 00 00 	movq   $0x0,0x10(%rdi)
  40e02a:	00 
  40e02b:	48 89 f8             	mov    %rdi,%rax
  40e02e:	48 83 c0 08          	add    $0x8,%rax
  40e032:	48 89 47 18          	mov    %rax,0x18(%rdi)
  40e036:	48 89 f8             	mov    %rdi,%rax
  40e039:	48 83 c0 08          	add    $0x8,%rax
  40e03d:	48 89 47 20          	mov    %rax,0x20(%rdi)
  40e041:	5d                   	pop    %rbp
  40e042:	c3                   	retq   
  40e043:	66 2e 0f 1f 84 00 00 	nopw   %cs:0x0(%rax,%rax,1)
  40e04a:	00 00 00 
  40e04d:	0f 1f 00             	nopl   (%rax)

000000000040e050 <_ZN9__gnu_cxx13new_allocatorISt13_Rb_tree_nodeISt4pairIKNSt7__cxx1112basic_stringIcSt11char_traitsIcESaIcEEES8_EEEC2Ev>:
  40e050:	55                   	push   %rbp
  40e051:	48 89 e5             	mov    %rsp,%rbp
  40e054:	48 89 7d f8          	mov    %rdi,-0x8(%rbp)
  40e058:	5d                   	pop    %rbp
  40e059:	c3                   	retq   
  40e05a:	66 0f 1f 44 00 00    	nopw   0x0(%rax,%rax,1)

000000000040e060 <_ZNSt8_Rb_treeINSt7__cxx1112basic_stringIcSt11char_traitsIcESaIcEEESt4pairIKS5_S5_ESt10_Select1stIS8_ESt4lessIS5_ESaIS8_EEC2ERKSE_>:
  40e060:	55                   	push   %rbp
  40e061:	48 89 e5             	mov    %rsp,%rbp
  40e064:	48 83 ec 70          	sub    $0x70,%rsp
  40e068:	48 89 7d f8          	mov    %rdi,-0x8(%rbp)
  40e06c:	48 89 75 f0          	mov    %rsi,-0x10(%rbp)
  40e070:	48 8b 7d f8          	mov    -0x8(%rbp),%rdi
  40e074:	48 89 f8             	mov    %rdi,%rax
  40e077:	48 89 7d d0          	mov    %rdi,-0x30(%rbp)
  40e07b:	48 89 f7             	mov    %rsi,%rdi
  40e07e:	48 89 75 c8          	mov    %rsi,-0x38(%rbp)
  40e082:	48 89 45 c0          	mov    %rax,-0x40(%rbp)
  40e086:	e8 65 01 00 00       	callq  40e1f0 <_ZNKSt8_Rb_treeINSt7__cxx1112basic_stringIcSt11char_traitsIcESaIcEEESt4pairIKS5_S5_ESt10_Select1stIS8_ESt4lessIS5_ESaIS8_EE21_M_get_Node_allocatorEv>
  40e08b:	48 8d 75 e8          	lea    -0x18(%rbp),%rsi
  40e08f:	48 89 f7             	mov    %rsi,%rdi
  40e092:	48 89 75 b8          	mov    %rsi,-0x48(%rbp)
  40e096:	48 89 c6             	mov    %rax,%rsi
  40e099:	e8 22 01 00 00       	callq  40e1c0 <_ZN9__gnu_cxx14__alloc_traitsISaISt13_Rb_tree_nodeISt4pairIKNSt7__cxx1112basic_stringIcSt11char_traitsIcESaIcEEES8_EEEE17_S_select_on_copyERKSC_>
  40e09e:	48 8b 7d d0          	mov    -0x30(%rbp),%rdi
  40e0a2:	48 8b 75 c8          	mov    -0x38(%rbp),%rsi
  40e0a6:	48 8b 55 b8          	mov    -0x48(%rbp),%rdx
  40e0aa:	e8 61 01 00 00       	callq  40e210 <_ZNSt8_Rb_treeINSt7__cxx1112basic_stringIcSt11char_traitsIcESaIcEEESt4pairIKS5_S5_ESt10_Select1stIS8_ESt4lessIS5_ESaIS8_EE13_Rb_tree_implISC_Lb1EEC2ERKSC_OSaISt13_Rb_tree_nodeIS8_EE>
  40e0af:	e9 00 00 00 00       	jmpq   40e0b4 <_ZNSt8_Rb_treeINSt7__cxx1112basic_stringIcSt11char_traitsIcESaIcEEESt4pairIKS5_S5_ESt10_Select1stIS8_ESt4lessIS5_ESaIS8_EEC2ERKSE_+0x54>
  40e0b4:	48 8d 7d e8          	lea    -0x18(%rbp),%rdi
  40e0b8:	e8 d3 01 00 00       	callq  40e290 <_ZNSaISt13_Rb_tree_nodeISt4pairIKNSt7__cxx1112basic_stringIcSt11char_traitsIcESaIcEEES6_EEED2Ev>
  40e0bd:	48 8b 7d f0          	mov    -0x10(%rbp),%rdi
  40e0c1:	e8 ea 01 00 00       	callq  40e2b0 <_ZNKSt8_Rb_treeINSt7__cxx1112basic_stringIcSt11char_traitsIcESaIcEEESt4pairIKS5_S5_ESt10_Select1stIS8_ESt4lessIS5_ESaIS8_EE7_M_rootEv>
  40e0c6:	48 83 f8 00          	cmp    $0x0,%rax
  40e0ca:	0f 84 d4 00 00 00    	je     40e1a4 <_ZNSt8_Rb_treeINSt7__cxx1112basic_stringIcSt11char_traitsIcESaIcEEESt4pairIKS5_S5_ESt10_Select1stIS8_ESt4lessIS5_ESaIS8_EEC2ERKSE_+0x144>
  40e0d0:	48 8b 7d f0          	mov    -0x10(%rbp),%rdi
  40e0d4:	e8 47 02 00 00       	callq  40e320 <_ZNKSt8_Rb_treeINSt7__cxx1112basic_stringIcSt11char_traitsIcESaIcEEESt4pairIKS5_S5_ESt10_Select1stIS8_ESt4lessIS5_ESaIS8_EE8_M_beginEv>
  40e0d9:	48 8b 7d c0          	mov    -0x40(%rbp),%rdi
  40e0dd:	48 89 45 b0          	mov    %rax,-0x50(%rbp)
  40e0e1:	e8 1a 98 ff ff       	callq  407900 <_ZNSt8_Rb_treeINSt7__cxx1112basic_stringIcSt11char_traitsIcESaIcEEESt4pairIKS5_S5_ESt10_Select1stIS8_ESt4lessIS5_ESaIS8_EE6_M_endEv>
  40e0e6:	48 8b 7d c0          	mov    -0x40(%rbp),%rdi
  40e0ea:	48 8b 75 b0          	mov    -0x50(%rbp),%rsi
  40e0ee:	48 89 c2             	mov    %rax,%rdx
  40e0f1:	e8 da 01 00 00       	callq  40e2d0 <_ZNSt8_Rb_treeINSt7__cxx1112basic_stringIcSt11char_traitsIcESaIcEEESt4pairIKS5_S5_ESt10_Select1stIS8_ESt4lessIS5_ESaIS8_EE7_M_copyEPKSt13_Rb_tree_nodeIS8_EPSG_>
  40e0f6:	48 89 45 a8          	mov    %rax,-0x58(%rbp)
  40e0fa:	e9 00 00 00 00       	jmpq   40e0ff <_ZNSt8_Rb_treeINSt7__cxx1112basic_stringIcSt11char_traitsIcESaIcEEESt4pairIKS5_S5_ESt10_Select1stIS8_ESt4lessIS5_ESaIS8_EEC2ERKSE_+0x9f>
  40e0ff:	48 8b 45 a8          	mov    -0x58(%rbp),%rax
  40e103:	48 8b 7d c0          	mov    -0x40(%rbp),%rdi
  40e107:	48 89 45 a0          	mov    %rax,-0x60(%rbp)
  40e10b:	e8 30 02 00 00       	callq  40e340 <_ZNSt8_Rb_treeINSt7__cxx1112basic_stringIcSt11char_traitsIcESaIcEEESt4pairIKS5_S5_ESt10_Select1stIS8_ESt4lessIS5_ESaIS8_EE7_M_rootEv>
  40e110:	48 8b 7d a0          	mov    -0x60(%rbp),%rdi
  40e114:	48 89 38             	mov    %rdi,(%rax)
  40e117:	48 8b 7d c0          	mov    -0x40(%rbp),%rdi
  40e11b:	e8 20 02 00 00       	callq  40e340 <_ZNSt8_Rb_treeINSt7__cxx1112basic_stringIcSt11char_traitsIcESaIcEEESt4pairIKS5_S5_ESt10_Select1stIS8_ESt4lessIS5_ESaIS8_EE7_M_rootEv>
  40e120:	48 8b 38             	mov    (%rax),%rdi
  40e123:	e8 38 02 00 00       	callq  40e360 <_ZNSt8_Rb_treeINSt7__cxx1112basic_stringIcSt11char_traitsIcESaIcEEESt4pairIKS5_S5_ESt10_Select1stIS8_ESt4lessIS5_ESaIS8_EE10_S_minimumEPSt18_Rb_tree_node_base>
  40e128:	48 8b 7d c0          	mov    -0x40(%rbp),%rdi
  40e12c:	48 89 45 98          	mov    %rax,-0x68(%rbp)
  40e130:	e8 8b a6 ff ff       	callq  4087c0 <_ZNSt8_Rb_treeINSt7__cxx1112basic_stringIcSt11char_traitsIcESaIcEEESt4pairIKS5_S5_ESt10_Select1stIS8_ESt4lessIS5_ESaIS8_EE11_M_leftmostEv>
  40e135:	48 8b 7d 98          	mov    -0x68(%rbp),%rdi
  40e139:	48 89 38             	mov    %rdi,(%rax)
  40e13c:	48 8b 7d c0          	mov    -0x40(%rbp),%rdi
  40e140:	e8 fb 01 00 00       	callq  40e340 <_ZNSt8_Rb_treeINSt7__cxx1112basic_stringIcSt11char_traitsIcESaIcEEESt4pairIKS5_S5_ESt10_Select1stIS8_ESt4lessIS5_ESaIS8_EE7_M_rootEv>
  40e145:	48 8b 38             	mov    (%rax),%rdi
  40e148:	e8 33 02 00 00       	callq  40e380 <_ZNSt8_Rb_treeINSt7__cxx1112basic_stringIcSt11char_traitsIcESaIcEEESt4pairIKS5_S5_ESt10_Select1stIS8_ESt4lessIS5_ESaIS8_EE10_S_maximumEPSt18_Rb_tree_node_base>
  40e14d:	48 8b 7d c0          	mov    -0x40(%rbp),%rdi
  40e151:	48 89 45 90          	mov    %rax,-0x70(%rbp)
  40e155:	e8 86 a4 ff ff       	callq  4085e0 <_ZNSt8_Rb_treeINSt7__cxx1112basic_stringIcSt11char_traitsIcESaIcEEESt4pairIKS5_S5_ESt10_Select1stIS8_ESt4lessIS5_ESaIS8_EE12_M_rightmostEv>
  40e15a:	48 8b 7d 90          	mov    -0x70(%rbp),%rdi
  40e15e:	48 89 38             	mov    %rdi,(%rax)
  40e161:	48 8b 45 f0          	mov    -0x10(%rbp),%rax
  40e165:	48 8b 40 28          	mov    0x28(%rax),%rax
  40e169:	48 8b 7d c0          	mov    -0x40(%rbp),%rdi
  40e16d:	48 89 47 28          	mov    %rax,0x28(%rdi)
  40e171:	e9 2e 00 00 00       	jmpq   40e1a4 <_ZNSt8_Rb_treeINSt7__cxx1112basic_stringIcSt11char_traitsIcESaIcEEESt4pairIKS5_S5_ESt10_Select1stIS8_ESt4lessIS5_ESaIS8_EEC2ERKSE_+0x144>
  40e176:	48 8d 7d e8          	lea    -0x18(%rbp),%rdi
  40e17a:	89 d1                	mov    %edx,%ecx
  40e17c:	48 89 45 e0          	mov    %rax,-0x20(%rbp)
  40e180:	89 4d dc             	mov    %ecx,-0x24(%rbp)
  40e183:	e8 08 01 00 00       	callq  40e290 <_ZNSaISt13_Rb_tree_nodeISt4pairIKNSt7__cxx1112basic_stringIcSt11char_traitsIcESaIcEEES6_EEED2Ev>
  40e188:	e9 1d 00 00 00       	jmpq   40e1aa <_ZNSt8_Rb_treeINSt7__cxx1112basic_stringIcSt11char_traitsIcESaIcEEESt4pairIKS5_S5_ESt10_Select1stIS8_ESt4lessIS5_ESaIS8_EEC2ERKSE_+0x14a>
  40e18d:	89 d1                	mov    %edx,%ecx
  40e18f:	48 89 45 e0          	mov    %rax,-0x20(%rbp)
  40e193:	89 4d dc             	mov    %ecx,-0x24(%rbp)
  40e196:	48 8b 7d d0          	mov    -0x30(%rbp),%rdi
  40e19a:	e8 e1 f9 ff ff       	callq  40db80 <_ZNSt8_Rb_treeINSt7__cxx1112basic_stringIcSt11char_traitsIcESaIcEEESt4pairIKS5_S5_ESt10_Select1stIS8_ESt4lessIS5_ESaIS8_EE13_Rb_tree_implISC_Lb1EED2Ev>
  40e19f:	e9 06 00 00 00       	jmpq   40e1aa <_ZNSt8_Rb_treeINSt7__cxx1112basic_stringIcSt11char_traitsIcESaIcEEESt4pairIKS5_S5_ESt10_Select1stIS8_ESt4lessIS5_ESaIS8_EEC2ERKSE_+0x14a>
  40e1a4:	48 83 c4 70          	add    $0x70,%rsp
  40e1a8:	5d                   	pop    %rbp
  40e1a9:	c3                   	retq   
  40e1aa:	48 8b 7d e0          	mov    -0x20(%rbp),%rdi
  40e1ae:	e8 6d 4e ff ff       	callq  403020 <_Unwind_Resume@plt>
  40e1b3:	66 2e 0f 1f 84 00 00 	nopw   %cs:0x0(%rax,%rax,1)
  40e1ba:	00 00 00 
  40e1bd:	0f 1f 00             	nopl   (%rax)

000000000040e1c0 <_ZN9__gnu_cxx14__alloc_traitsISaISt13_Rb_tree_nodeISt4pairIKNSt7__cxx1112basic_stringIcSt11char_traitsIcESaIcEEES8_EEEE17_S_select_on_copyERKSC_>:
  40e1c0:	55                   	push   %rbp
  40e1c1:	48 89 e5             	mov    %rsp,%rbp
  40e1c4:	48 83 ec 10          	sub    $0x10,%rsp
  40e1c8:	48 89 f8             	mov    %rdi,%rax
  40e1cb:	48 89 75 f8          	mov    %rsi,-0x8(%rbp)
  40e1cf:	48 8b 75 f8          	mov    -0x8(%rbp),%rsi
  40e1d3:	48 89 45 f0          	mov    %rax,-0x10(%rbp)
  40e1d7:	e8 c4 01 00 00       	callq  40e3a0 <_ZNSt16allocator_traitsISaISt13_Rb_tree_nodeISt4pairIKNSt7__cxx1112basic_stringIcSt11char_traitsIcESaIcEEES7_EEEE37select_on_container_copy_constructionERKSB_>
  40e1dc:	48 8b 45 f0          	mov    -0x10(%rbp),%rax
  40e1e0:	48 83 c4 10          	add    $0x10,%rsp
  40e1e4:	5d                   	pop    %rbp
  40e1e5:	c3                   	retq   
  40e1e6:	66 2e 0f 1f 84 00 00 	nopw   %cs:0x0(%rax,%rax,1)
  40e1ed:	00 00 00 

000000000040e1f0 <_ZNKSt8_Rb_treeINSt7__cxx1112basic_stringIcSt11char_traitsIcESaIcEEESt4pairIKS5_S5_ESt10_Select1stIS8_ESt4lessIS5_ESaIS8_EE21_M_get_Node_allocatorEv>:
  40e1f0:	55                   	push   %rbp
  40e1f1:	48 89 e5             	mov    %rsp,%rbp
  40e1f4:	48 89 7d f8          	mov    %rdi,-0x8(%rbp)
  40e1f8:	48 8b 7d f8          	mov    -0x8(%rbp),%rdi
  40e1fc:	48 89 f8             	mov    %rdi,%rax
  40e1ff:	5d                   	pop    %rbp
  40e200:	c3                   	retq   
  40e201:	66 2e 0f 1f 84 00 00 	nopw   %cs:0x0(%rax,%rax,1)
  40e208:	00 00 00 
  40e20b:	0f 1f 44 00 00       	nopl   0x0(%rax,%rax,1)

000000000040e210 <_ZNSt8_Rb_treeINSt7__cxx1112basic_stringIcSt11char_traitsIcESaIcEEESt4pairIKS5_S5_ESt10_Select1stIS8_ESt4lessIS5_ESaIS8_EE13_Rb_tree_implISC_Lb1EEC2ERKSC_OSaISt13_Rb_tree_nodeIS8_EE>:
  40e210:	55                   	push   %rbp
  40e211:	48 89 e5             	mov    %rsp,%rbp
  40e214:	48 83 ec 30          	sub    $0x30,%rsp
  40e218:	48 89 7d f8          	mov    %rdi,-0x8(%rbp)
  40e21c:	48 89 75 f0          	mov    %rsi,-0x10(%rbp)
  40e220:	48 89 55 e8          	mov    %rdx,-0x18(%rbp)
  40e224:	48 8b 75 f8          	mov    -0x8(%rbp),%rsi
  40e228:	48 89 d7             	mov    %rdx,%rdi
  40e22b:	48 89 75 d0          	mov    %rsi,-0x30(%rbp)
  40e22f:	e8 dc 01 00 00       	callq  40e410 <_ZSt4moveIRSaISt13_Rb_tree_nodeISt4pairIKNSt7__cxx1112basic_stringIcSt11char_traitsIcESaIcEEES7_EEEEONSt16remove_referenceIT_E4typeEOSE_>
  40e234:	48 8b 7d d0          	mov    -0x30(%rbp),%rdi
  40e238:	48 89 c6             	mov    %rax,%rsi
  40e23b:	e8 90 01 00 00       	callq  40e3d0 <_ZNSaISt13_Rb_tree_nodeISt4pairIKNSt7__cxx1112basic_stringIcSt11char_traitsIcESaIcEEES6_EEEC2ERKSA_>
  40e240:	0f 57 c0             	xorps  %xmm0,%xmm0
  40e243:	48 8b 45 d0          	mov    -0x30(%rbp),%rax
  40e247:	0f 11 40 18          	movups %xmm0,0x18(%rax)
  40e24b:	0f 11 40 08          	movups %xmm0,0x8(%rax)
  40e24f:	48 c7 40 28 00 00 00 	movq   $0x0,0x28(%rax)
  40e256:	00 
  40e257:	48 89 c7             	mov    %rax,%rdi
  40e25a:	e8 b1 fd ff ff       	callq  40e010 <_ZNSt8_Rb_treeINSt7__cxx1112basic_stringIcSt11char_traitsIcESaIcEEESt4pairIKS5_S5_ESt10_Select1stIS8_ESt4lessIS5_ESaIS8_EE13_Rb_tree_implISC_Lb1EE13_M_initializeEv>
  40e25f:	e9 00 00 00 00       	jmpq   40e264 <_ZNSt8_Rb_treeINSt7__cxx1112basic_stringIcSt11char_traitsIcESaIcEEESt4pairIKS5_S5_ESt10_Select1stIS8_ESt4lessIS5_ESaIS8_EE13_Rb_tree_implISC_Lb1EEC2ERKSC_OSaISt13_Rb_tree_nodeIS8_EE+0x54>
  40e264:	48 83 c4 30          	add    $0x30,%rsp
  40e268:	5d                   	pop    %rbp
  40e269:	c3                   	retq   
  40e26a:	89 d1                	mov    %edx,%ecx
  40e26c:	48 89 45 e0          	mov    %rax,-0x20(%rbp)
  40e270:	89 4d dc             	mov    %ecx,-0x24(%rbp)
  40e273:	48 8b 45 d0          	mov    -0x30(%rbp),%rax
  40e277:	48 89 c7             	mov    %rax,%rdi
  40e27a:	e8 11 00 00 00       	callq  40e290 <_ZNSaISt13_Rb_tree_nodeISt4pairIKNSt7__cxx1112basic_stringIcSt11char_traitsIcESaIcEEES6_EEED2Ev>
  40e27f:	48 8b 7d e0          	mov    -0x20(%rbp),%rdi
  40e283:	e8 98 4d ff ff       	callq  403020 <_Unwind_Resume@plt>
  40e288:	0f 1f 84 00 00 00 00 	nopl   0x0(%rax,%rax,1)
  40e28f:	00 

000000000040e290 <_ZNSaISt13_Rb_tree_nodeISt4pairIKNSt7__cxx1112basic_stringIcSt11char_traitsIcESaIcEEES6_EEED2Ev>:
  40e290:	55                   	push   %rbp
  40e291:	48 89 e5             	mov    %rsp,%rbp
  40e294:	48 83 ec 10          	sub    $0x10,%rsp
  40e298:	48 89 7d f8          	mov    %rdi,-0x8(%rbp)
  40e29c:	48 8b 7d f8          	mov    -0x8(%rbp),%rdi
  40e2a0:	e8 fb f8 ff ff       	callq  40dba0 <_ZN9__gnu_cxx13new_allocatorISt13_Rb_tree_nodeISt4pairIKNSt7__cxx1112basic_stringIcSt11char_traitsIcESaIcEEES8_EEED2Ev>
  40e2a5:	48 83 c4 10          	add    $0x10,%rsp
  40e2a9:	5d                   	pop    %rbp
  40e2aa:	c3                   	retq   
  40e2ab:	0f 1f 44 00 00       	nopl   0x0(%rax,%rax,1)

000000000040e2b0 <_ZNKSt8_Rb_treeINSt7__cxx1112basic_stringIcSt11char_traitsIcESaIcEEESt4pairIKS5_S5_ESt10_Select1stIS8_ESt4lessIS5_ESaIS8_EE7_M_rootEv>:
  40e2b0:	55                   	push   %rbp
  40e2b1:	48 89 e5             	mov    %rsp,%rbp
  40e2b4:	48 89 7d f8          	mov    %rdi,-0x8(%rbp)
  40e2b8:	48 8b 7d f8          	mov    -0x8(%rbp),%rdi
  40e2bc:	48 8b 47 10          	mov    0x10(%rdi),%rax
  40e2c0:	5d                   	pop    %rbp
  40e2c1:	c3                   	retq   
  40e2c2:	66 2e 0f 1f 84 00 00 	nopw   %cs:0x0(%rax,%rax,1)
  40e2c9:	00 00 00 
  40e2cc:	0f 1f 40 00          	nopl   0x0(%rax)

000000000040e2d0 <_ZNSt8_Rb_treeINSt7__cxx1112basic_stringIcSt11char_traitsIcESaIcEEESt4pairIKS5_S5_ESt10_Select1stIS8_ESt4lessIS5_ESaIS8_EE7_M_copyEPKSt13_Rb_tree_nodeIS8_EPSG_>:
  40e2d0:	55                   	push   %rbp
  40e2d1:	48 89 e5             	mov    %rsp,%rbp
  40e2d4:	48 83 ec 30          	sub    $0x30,%rsp
  40e2d8:	48 8d 45 e0          	lea    -0x20(%rbp),%rax
  40e2dc:	48 89 7d f8          	mov    %rdi,-0x8(%rbp)
  40e2e0:	48 89 75 f0          	mov    %rsi,-0x10(%rbp)
  40e2e4:	48 89 55 e8          	mov    %rdx,-0x18(%rbp)
  40e2e8:	48 8b 55 f8          	mov    -0x8(%rbp),%rdx
  40e2ec:	48 89 c7             	mov    %rax,%rdi
  40e2ef:	48 89 d6             	mov    %rdx,%rsi
  40e2f2:	48 89 55 d8          	mov    %rdx,-0x28(%rbp)
  40e2f6:	e8 25 01 00 00       	callq  40e420 <_ZNSt8_Rb_treeINSt7__cxx1112basic_stringIcSt11char_traitsIcESaIcEEESt4pairIKS5_S5_ESt10_Select1stIS8_ESt4lessIS5_ESaIS8_EE11_Alloc_nodeC2ERSE_>
  40e2fb:	48 8d 4d e0          	lea    -0x20(%rbp),%rcx
  40e2ff:	48 8b 75 f0          	mov    -0x10(%rbp),%rsi
  40e303:	48 8b 55 e8          	mov    -0x18(%rbp),%rdx
  40e307:	48 8b 7d d8          	mov    -0x28(%rbp),%rdi
  40e30b:	e8 30 01 00 00       	callq  40e440 <_ZNSt8_Rb_treeINSt7__cxx1112basic_stringIcSt11char_traitsIcESaIcEEESt4pairIKS5_S5_ESt10_Select1stIS8_ESt4lessIS5_ESaIS8_EE7_M_copyINSE_11_Alloc_nodeEEEPSt13_Rb_tree_nodeIS8_EPKSI_SJ_RT_>
  40e310:	48 83 c4 30          	add    $0x30,%rsp
  40e314:	5d                   	pop    %rbp
  40e315:	c3                   	retq   
  40e316:	66 2e 0f 1f 84 00 00 	nopw   %cs:0x0(%rax,%rax,1)
  40e31d:	00 00 00 

000000000040e320 <_ZNKSt8_Rb_treeINSt7__cxx1112basic_stringIcSt11char_traitsIcESaIcEEESt4pairIKS5_S5_ESt10_Select1stIS8_ESt4lessIS5_ESaIS8_EE8_M_beginEv>:
  40e320:	55                   	push   %rbp
  40e321:	48 89 e5             	mov    %rsp,%rbp
  40e324:	48 89 7d f8          	mov    %rdi,-0x8(%rbp)
  40e328:	48 8b 7d f8          	mov    -0x8(%rbp),%rdi
  40e32c:	48 8b 7f 10          	mov    0x10(%rdi),%rdi
  40e330:	48 89 f8             	mov    %rdi,%rax
  40e333:	5d                   	pop    %rbp
  40e334:	c3                   	retq   
  40e335:	66 2e 0f 1f 84 00 00 	nopw   %cs:0x0(%rax,%rax,1)
  40e33c:	00 00 00 
  40e33f:	90                   	nop

000000000040e340 <_ZNSt8_Rb_treeINSt7__cxx1112basic_stringIcSt11char_traitsIcESaIcEEESt4pairIKS5_S5_ESt10_Select1stIS8_ESt4lessIS5_ESaIS8_EE7_M_rootEv>:
  40e340:	55                   	push   %rbp
  40e341:	48 89 e5             	mov    %rsp,%rbp
  40e344:	48 89 7d f8          	mov    %rdi,-0x8(%rbp)
  40e348:	48 8b 7d f8          	mov    -0x8(%rbp),%rdi
  40e34c:	48 83 c7 08          	add    $0x8,%rdi
  40e350:	48 83 c7 08          	add    $0x8,%rdi
  40e354:	48 89 f8             	mov    %rdi,%rax
  40e357:	5d                   	pop    %rbp
  40e358:	c3                   	retq   
  40e359:	0f 1f 80 00 00 00 00 	nopl   0x0(%rax)

000000000040e360 <_ZNSt8_Rb_treeINSt7__cxx1112basic_stringIcSt11char_traitsIcESaIcEEESt4pairIKS5_S5_ESt10_Select1stIS8_ESt4lessIS5_ESaIS8_EE10_S_minimumEPSt18_Rb_tree_node_base>:
  40e360:	55                   	push   %rbp
  40e361:	48 89 e5             	mov    %rsp,%rbp
  40e364:	48 83 ec 10          	sub    $0x10,%rsp
  40e368:	48 89 7d f8          	mov    %rdi,-0x8(%rbp)
  40e36c:	48 8b 7d f8          	mov    -0x8(%rbp),%rdi
  40e370:	e8 8b 05 00 00       	callq  40e900 <_ZNSt18_Rb_tree_node_base10_S_minimumEPS_>
  40e375:	48 83 c4 10          	add    $0x10,%rsp
  40e379:	5d                   	pop    %rbp
  40e37a:	c3                   	retq   
  40e37b:	0f 1f 44 00 00       	nopl   0x0(%rax,%rax,1)

000000000040e380 <_ZNSt8_Rb_treeINSt7__cxx1112basic_stringIcSt11char_traitsIcESaIcEEESt4pairIKS5_S5_ESt10_Select1stIS8_ESt4lessIS5_ESaIS8_EE10_S_maximumEPSt18_Rb_tree_node_base>:
  40e380:	55                   	push   %rbp
  40e381:	48 89 e5             	mov    %rsp,%rbp
  40e384:	48 83 ec 10          	sub    $0x10,%rsp
  40e388:	48 89 7d f8          	mov    %rdi,-0x8(%rbp)
  40e38c:	48 8b 7d f8          	mov    -0x8(%rbp),%rdi
  40e390:	e8 9b 05 00 00       	callq  40e930 <_ZNSt18_Rb_tree_node_base10_S_maximumEPS_>
  40e395:	48 83 c4 10          	add    $0x10,%rsp
  40e399:	5d                   	pop    %rbp
  40e39a:	c3                   	retq   
  40e39b:	0f 1f 44 00 00       	nopl   0x0(%rax,%rax,1)

000000000040e3a0 <_ZNSt16allocator_traitsISaISt13_Rb_tree_nodeISt4pairIKNSt7__cxx1112basic_stringIcSt11char_traitsIcESaIcEEES7_EEEE37select_on_container_copy_constructionERKSB_>:
  40e3a0:	55                   	push   %rbp
  40e3a1:	48 89 e5             	mov    %rsp,%rbp
  40e3a4:	48 83 ec 10          	sub    $0x10,%rsp
  40e3a8:	48 89 f8             	mov    %rdi,%rax
  40e3ab:	48 89 75 f8          	mov    %rsi,-0x8(%rbp)
  40e3af:	48 8b 75 f8          	mov    -0x8(%rbp),%rsi
  40e3b3:	48 89 45 f0          	mov    %rax,-0x10(%rbp)
  40e3b7:	e8 14 00 00 00       	callq  40e3d0 <_ZNSaISt13_Rb_tree_nodeISt4pairIKNSt7__cxx1112basic_stringIcSt11char_traitsIcESaIcEEES6_EEEC2ERKSA_>
  40e3bc:	48 8b 45 f0          	mov    -0x10(%rbp),%rax
  40e3c0:	48 83 c4 10          	add    $0x10,%rsp
  40e3c4:	5d                   	pop    %rbp
  40e3c5:	c3                   	retq   
  40e3c6:	66 2e 0f 1f 84 00 00 	nopw   %cs:0x0(%rax,%rax,1)
  40e3cd:	00 00 00 

000000000040e3d0 <_ZNSaISt13_Rb_tree_nodeISt4pairIKNSt7__cxx1112basic_stringIcSt11char_traitsIcESaIcEEES6_EEEC2ERKSA_>:
  40e3d0:	55                   	push   %rbp
  40e3d1:	48 89 e5             	mov    %rsp,%rbp
  40e3d4:	48 83 ec 20          	sub    $0x20,%rsp
  40e3d8:	48 89 7d f8          	mov    %rdi,-0x8(%rbp)
  40e3dc:	48 89 75 f0          	mov    %rsi,-0x10(%rbp)
  40e3e0:	48 8b 75 f8          	mov    -0x8(%rbp),%rsi
  40e3e4:	48 8b 7d f0          	mov    -0x10(%rbp),%rdi
  40e3e8:	48 89 7d e8          	mov    %rdi,-0x18(%rbp)
  40e3ec:	48 89 f7             	mov    %rsi,%rdi
  40e3ef:	48 8b 75 e8          	mov    -0x18(%rbp),%rsi
  40e3f3:	e8 08 00 00 00       	callq  40e400 <_ZN9__gnu_cxx13new_allocatorISt13_Rb_tree_nodeISt4pairIKNSt7__cxx1112basic_stringIcSt11char_traitsIcESaIcEEES8_EEEC2ERKSC_>
  40e3f8:	48 83 c4 20          	add    $0x20,%rsp
  40e3fc:	5d                   	pop    %rbp
  40e3fd:	c3                   	retq   
  40e3fe:	66 90                	xchg   %ax,%ax

000000000040e400 <_ZN9__gnu_cxx13new_allocatorISt13_Rb_tree_nodeISt4pairIKNSt7__cxx1112basic_stringIcSt11char_traitsIcESaIcEEES8_EEEC2ERKSC_>:
  40e400:	55                   	push   %rbp
  40e401:	48 89 e5             	mov    %rsp,%rbp
  40e404:	48 89 7d f8          	mov    %rdi,-0x8(%rbp)
  40e408:	48 89 75 f0          	mov    %rsi,-0x10(%rbp)
  40e40c:	5d                   	pop    %rbp
  40e40d:	c3                   	retq   
  40e40e:	66 90                	xchg   %ax,%ax

000000000040e410 <_ZSt4moveIRSaISt13_Rb_tree_nodeISt4pairIKNSt7__cxx1112basic_stringIcSt11char_traitsIcESaIcEEES7_EEEEONSt16remove_referenceIT_E4typeEOSE_>:
  40e410:	55                   	push   %rbp
  40e411:	48 89 e5             	mov    %rsp,%rbp
  40e414:	48 89 7d f8          	mov    %rdi,-0x8(%rbp)
  40e418:	48 8b 45 f8          	mov    -0x8(%rbp),%rax
  40e41c:	5d                   	pop    %rbp
  40e41d:	c3                   	retq   
  40e41e:	66 90                	xchg   %ax,%ax

000000000040e420 <_ZNSt8_Rb_treeINSt7__cxx1112basic_stringIcSt11char_traitsIcESaIcEEESt4pairIKS5_S5_ESt10_Select1stIS8_ESt4lessIS5_ESaIS8_EE11_Alloc_nodeC2ERSE_>:
  40e420:	55                   	push   %rbp
  40e421:	48 89 e5             	mov    %rsp,%rbp
  40e424:	48 89 7d f8          	mov    %rdi,-0x8(%rbp)
  40e428:	48 89 75 f0          	mov    %rsi,-0x10(%rbp)
  40e42c:	48 8b 75 f8          	mov    -0x8(%rbp),%rsi
  40e430:	48 8b 7d f0          	mov    -0x10(%rbp),%rdi
  40e434:	48 89 3e             	mov    %rdi,(%rsi)
  40e437:	5d                   	pop    %rbp
  40e438:	c3                   	retq   
  40e439:	0f 1f 80 00 00 00 00 	nopl   0x0(%rax)

000000000040e440 <_ZNSt8_Rb_treeINSt7__cxx1112basic_stringIcSt11char_traitsIcESaIcEEESt4pairIKS5_S5_ESt10_Select1stIS8_ESt4lessIS5_ESaIS8_EE7_M_copyINSE_11_Alloc_nodeEEEPSt13_Rb_tree_nodeIS8_EPKSI_SJ_RT_>:
  40e440:	55                   	push   %rbp
  40e441:	48 89 e5             	mov    %rsp,%rbp
  40e444:	48 83 ec 70          	sub    $0x70,%rsp
  40e448:	48 89 7d f8          	mov    %rdi,-0x8(%rbp)
  40e44c:	48 89 75 f0          	mov    %rsi,-0x10(%rbp)
  40e450:	48 89 55 e8          	mov    %rdx,-0x18(%rbp)
  40e454:	48 89 4d e0          	mov    %rcx,-0x20(%rbp)
  40e458:	48 8b 4d f8          	mov    -0x8(%rbp),%rcx
  40e45c:	48 8b 75 f0          	mov    -0x10(%rbp),%rsi
  40e460:	48 8b 55 e0          	mov    -0x20(%rbp),%rdx
  40e464:	48 89 cf             	mov    %rcx,%rdi
  40e467:	48 89 4d b8          	mov    %rcx,-0x48(%rbp)
  40e46b:	e8 80 01 00 00       	callq  40e5f0 <_ZNSt8_Rb_treeINSt7__cxx1112basic_stringIcSt11char_traitsIcESaIcEEESt4pairIKS5_S5_ESt10_Select1stIS8_ESt4lessIS5_ESaIS8_EE13_M_clone_nodeINSE_11_Alloc_nodeEEEPSt13_Rb_tree_nodeIS8_EPKSI_RT_>
  40e470:	48 89 45 d8          	mov    %rax,-0x28(%rbp)
  40e474:	48 8b 45 e8          	mov    -0x18(%rbp),%rax
  40e478:	48 8b 4d d8          	mov    -0x28(%rbp),%rcx
  40e47c:	48 89 41 08          	mov    %rax,0x8(%rcx)
  40e480:	48 8b 45 f0          	mov    -0x10(%rbp),%rax
  40e484:	48 83 78 18 00       	cmpq   $0x0,0x18(%rax)
  40e489:	0f 84 69 00 00 00    	je     40e4f8 <_ZNSt8_Rb_treeINSt7__cxx1112basic_stringIcSt11char_traitsIcESaIcEEESt4pairIKS5_S5_ESt10_Select1stIS8_ESt4lessIS5_ESaIS8_EE7_M_copyINSE_11_Alloc_nodeEEEPSt13_Rb_tree_nodeIS8_EPKSI_SJ_RT_+0xb8>
  40e48f:	48 8b 7d f0          	mov    -0x10(%rbp),%rdi
  40e493:	e8 c8 01 00 00       	callq  40e660 <_ZNSt8_Rb_treeINSt7__cxx1112basic_stringIcSt11char_traitsIcESaIcEEESt4pairIKS5_S5_ESt10_Select1stIS8_ESt4lessIS5_ESaIS8_EE8_S_rightEPKSt18_Rb_tree_node_base>
  40e498:	48 8b 55 d8          	mov    -0x28(%rbp),%rdx
  40e49c:	48 8b 4d e0          	mov    -0x20(%rbp),%rcx
  40e4a0:	48 8b 7d b8          	mov    -0x48(%rbp),%rdi
  40e4a4:	48 89 c6             	mov    %rax,%rsi
  40e4a7:	e8 94 ff ff ff       	callq  40e440 <_ZNSt8_Rb_treeINSt7__cxx1112basic_stringIcSt11char_traitsIcESaIcEEESt4pairIKS5_S5_ESt10_Select1stIS8_ESt4lessIS5_ESaIS8_EE7_M_copyINSE_11_Alloc_nodeEEEPSt13_Rb_tree_nodeIS8_EPKSI_SJ_RT_>
  40e4ac:	48 89 45 b0          	mov    %rax,-0x50(%rbp)
  40e4b0:	e9 00 00 00 00       	jmpq   40e4b5 <_ZNSt8_Rb_treeINSt7__cxx1112basic_stringIcSt11char_traitsIcESaIcEEESt4pairIKS5_S5_ESt10_Select1stIS8_ESt4lessIS5_ESaIS8_EE7_M_copyINSE_11_Alloc_nodeEEEPSt13_Rb_tree_nodeIS8_EPKSI_SJ_RT_+0x75>
  40e4b5:	48 8b 45 b0          	mov    -0x50(%rbp),%rax
  40e4b9:	48 8b 4d d8          	mov    -0x28(%rbp),%rcx
  40e4bd:	48 89 41 18          	mov    %rax,0x18(%rcx)
  40e4c1:	e9 32 00 00 00       	jmpq   40e4f8 <_ZNSt8_Rb_treeINSt7__cxx1112basic_stringIcSt11char_traitsIcESaIcEEESt4pairIKS5_S5_ESt10_Select1stIS8_ESt4lessIS5_ESaIS8_EE7_M_copyINSE_11_Alloc_nodeEEEPSt13_Rb_tree_nodeIS8_EPKSI_SJ_RT_+0xb8>
  40e4c6:	89 d1                	mov    %edx,%ecx
  40e4c8:	48 89 45 d0          	mov    %rax,-0x30(%rbp)
  40e4cc:	89 4d cc             	mov    %ecx,-0x34(%rbp)
  40e4cf:	48 8b 7d d0          	mov    -0x30(%rbp),%rdi
  40e4d3:	e8 e8 46 ff ff       	callq  402bc0 <__cxa_begin_catch@plt>
  40e4d8:	48 8b 75 d8          	mov    -0x28(%rbp),%rsi
  40e4dc:	48 8b 7d b8          	mov    -0x48(%rbp),%rdi
  40e4e0:	48 89 45 a8          	mov    %rax,-0x58(%rbp)
  40e4e4:	e8 77 a6 ff ff       	callq  408b60 <_ZNSt8_Rb_treeINSt7__cxx1112basic_stringIcSt11char_traitsIcESaIcEEESt4pairIKS5_S5_ESt10_Select1stIS8_ESt4lessIS5_ESaIS8_EE8_M_eraseEPSt13_Rb_tree_nodeIS8_E>
  40e4e9:	e9 00 00 00 00       	jmpq   40e4ee <_ZNSt8_Rb_treeINSt7__cxx1112basic_stringIcSt11char_traitsIcESaIcEEESt4pairIKS5_S5_ESt10_Select1stIS8_ESt4lessIS5_ESaIS8_EE7_M_copyINSE_11_Alloc_nodeEEEPSt13_Rb_tree_nodeIS8_EPKSI_SJ_RT_+0xae>
  40e4ee:	e8 1d 4a ff ff       	callq  402f10 <__cxa_rethrow@plt>
  40e4f3:	e9 f8 00 00 00       	jmpq   40e5f0 <_ZNSt8_Rb_treeINSt7__cxx1112basic_stringIcSt11char_traitsIcESaIcEEESt4pairIKS5_S5_ESt10_Select1stIS8_ESt4lessIS5_ESaIS8_EE13_M_clone_nodeINSE_11_Alloc_nodeEEEPSt13_Rb_tree_nodeIS8_EPKSI_RT_>
  40e4f8:	48 8b 45 d8          	mov    -0x28(%rbp),%rax
  40e4fc:	48 89 45 e8          	mov    %rax,-0x18(%rbp)
  40e500:	48 8b 45 f0          	mov    -0x10(%rbp),%rax
  40e504:	48 89 c7             	mov    %rax,%rdi
  40e507:	e8 74 01 00 00       	callq  40e680 <_ZNSt8_Rb_treeINSt7__cxx1112basic_stringIcSt11char_traitsIcESaIcEEESt4pairIKS5_S5_ESt10_Select1stIS8_ESt4lessIS5_ESaIS8_EE7_S_leftEPKSt18_Rb_tree_node_base>
  40e50c:	48 89 45 f0          	mov    %rax,-0x10(%rbp)
  40e510:	48 83 7d f0 00       	cmpq   $0x0,-0x10(%rbp)
  40e515:	0f 84 98 00 00 00    	je     40e5b3 <_ZNSt8_Rb_treeINSt7__cxx1112basic_stringIcSt11char_traitsIcESaIcEEESt4pairIKS5_S5_ESt10_Select1stIS8_ESt4lessIS5_ESaIS8_EE7_M_copyINSE_11_Alloc_nodeEEEPSt13_Rb_tree_nodeIS8_EPKSI_SJ_RT_+0x173>
  40e51b:	48 8b 75 f0          	mov    -0x10(%rbp),%rsi
  40e51f:	48 8b 55 e0          	mov    -0x20(%rbp),%rdx
  40e523:	48 8b 7d b8          	mov    -0x48(%rbp),%rdi
  40e527:	e8 c4 00 00 00       	callq  40e5f0 <_ZNSt8_Rb_treeINSt7__cxx1112basic_stringIcSt11char_traitsIcESaIcEEESt4pairIKS5_S5_ESt10_Select1stIS8_ESt4lessIS5_ESaIS8_EE13_M_clone_nodeINSE_11_Alloc_nodeEEEPSt13_Rb_tree_nodeIS8_EPKSI_RT_>
  40e52c:	48 89 45 a0          	mov    %rax,-0x60(%rbp)
  40e530:	e9 00 00 00 00       	jmpq   40e535 <_ZNSt8_Rb_treeINSt7__cxx1112basic_stringIcSt11char_traitsIcESaIcEEESt4pairIKS5_S5_ESt10_Select1stIS8_ESt4lessIS5_ESaIS8_EE7_M_copyINSE_11_Alloc_nodeEEEPSt13_Rb_tree_nodeIS8_EPKSI_SJ_RT_+0xf5>
  40e535:	48 8b 45 a0          	mov    -0x60(%rbp),%rax
  40e539:	48 89 45 c0          	mov    %rax,-0x40(%rbp)
  40e53d:	48 8b 4d c0          	mov    -0x40(%rbp),%rcx
  40e541:	48 8b 55 e8          	mov    -0x18(%rbp),%rdx
  40e545:	48 89 4a 10          	mov    %rcx,0x10(%rdx)
  40e549:	48 8b 4d e8          	mov    -0x18(%rbp),%rcx
  40e54d:	48 8b 55 c0          	mov    -0x40(%rbp),%rdx
  40e551:	48 89 4a 08          	mov    %rcx,0x8(%rdx)
  40e555:	48 8b 4d f0          	mov    -0x10(%rbp),%rcx
  40e559:	48 83 79 18 00       	cmpq   $0x0,0x18(%rcx)
  40e55e:	0f 84 32 00 00 00    	je     40e596 <_ZNSt8_Rb_treeINSt7__cxx1112basic_stringIcSt11char_traitsIcESaIcEEESt4pairIKS5_S5_ESt10_Select1stIS8_ESt4lessIS5_ESaIS8_EE7_M_copyINSE_11_Alloc_nodeEEEPSt13_Rb_tree_nodeIS8_EPKSI_SJ_RT_+0x156>
  40e564:	48 8b 7d f0          	mov    -0x10(%rbp),%rdi
  40e568:	e8 f3 00 00 00       	callq  40e660 <_ZNSt8_Rb_treeINSt7__cxx1112basic_stringIcSt11char_traitsIcESaIcEEESt4pairIKS5_S5_ESt10_Select1stIS8_ESt4lessIS5_ESaIS8_EE8_S_rightEPKSt18_Rb_tree_node_base>
  40e56d:	48 8b 55 c0          	mov    -0x40(%rbp),%rdx
  40e571:	48 8b 4d e0          	mov    -0x20(%rbp),%rcx
  40e575:	48 8b 7d b8          	mov    -0x48(%rbp),%rdi
  40e579:	48 89 c6             	mov    %rax,%rsi
  40e57c:	e8 bf fe ff ff       	callq  40e440 <_ZNSt8_Rb_treeINSt7__cxx1112basic_stringIcSt11char_traitsIcESaIcEEESt4pairIKS5_S5_ESt10_Select1stIS8_ESt4lessIS5_ESaIS8_EE7_M_copyINSE_11_Alloc_nodeEEEPSt13_Rb_tree_nodeIS8_EPKSI_SJ_RT_>
  40e581:	48 89 45 98          	mov    %rax,-0x68(%rbp)
  40e585:	e9 00 00 00 00       	jmpq   40e58a <_ZNSt8_Rb_treeINSt7__cxx1112basic_stringIcSt11char_traitsIcESaIcEEESt4pairIKS5_S5_ESt10_Select1stIS8_ESt4lessIS5_ESaIS8_EE7_M_copyINSE_11_Alloc_nodeEEEPSt13_Rb_tree_nodeIS8_EPKSI_SJ_RT_+0x14a>
  40e58a:	48 8b 45 98          	mov    -0x68(%rbp),%rax
  40e58e:	48 8b 4d c0          	mov    -0x40(%rbp),%rcx
  40e592:	48 89 41 18          	mov    %rax,0x18(%rcx)
  40e596:	48 8b 45 c0          	mov    -0x40(%rbp),%rax
  40e59a:	48 89 45 e8          	mov    %rax,-0x18(%rbp)
  40e59e:	48 8b 45 f0          	mov    -0x10(%rbp),%rax
  40e5a2:	48 89 c7             	mov    %rax,%rdi
  40e5a5:	e8 d6 00 00 00       	callq  40e680 <_ZNSt8_Rb_treeINSt7__cxx1112basic_stringIcSt11char_traitsIcESaIcEEESt4pairIKS5_S5_ESt10_Select1stIS8_ESt4lessIS5_ESaIS8_EE7_S_leftEPKSt18_Rb_tree_node_base>
  40e5aa:	48 89 45 f0          	mov    %rax,-0x10(%rbp)
  40e5ae:	e9 5d ff ff ff       	jmpq   40e510 <_ZNSt8_Rb_treeINSt7__cxx1112basic_stringIcSt11char_traitsIcESaIcEEESt4pairIKS5_S5_ESt10_Select1stIS8_ESt4lessIS5_ESaIS8_EE7_M_copyINSE_11_Alloc_nodeEEEPSt13_Rb_tree_nodeIS8_EPKSI_SJ_RT_+0xd0>
  40e5b3:	e9 18 00 00 00       	jmpq   40e5d0 <_ZNSt8_Rb_treeINSt7__cxx1112basic_stringIcSt11char_traitsIcESaIcEEESt4pairIKS5_S5_ESt10_Select1stIS8_ESt4lessIS5_ESaIS8_EE7_M_copyINSE_11_Alloc_nodeEEEPSt13_Rb_tree_nodeIS8_EPKSI_SJ_RT_+0x190>
  40e5b8:	89 d1                	mov    %edx,%ecx
  40e5ba:	48 89 45 d0          	mov    %rax,-0x30(%rbp)
  40e5be:	89 4d cc             	mov    %ecx,-0x34(%rbp)
  40e5c1:	e8 ca 49 ff ff       	callq  402f90 <__cxa_end_catch@plt>
  40e5c6:	e9 00 00 00 00       	jmpq   40e5cb <_ZNSt8_Rb_treeINSt7__cxx1112basic_stringIcSt11char_traitsIcESaIcEEESt4pairIKS5_S5_ESt10_Select1stIS8_ESt4lessIS5_ESaIS8_EE7_M_copyINSE_11_Alloc_nodeEEEPSt13_Rb_tree_nodeIS8_EPKSI_SJ_RT_+0x18b>
  40e5cb:	e9 0a 00 00 00       	jmpq   40e5da <_ZNSt8_Rb_treeINSt7__cxx1112basic_stringIcSt11char_traitsIcESaIcEEESt4pairIKS5_S5_ESt10_Select1stIS8_ESt4lessIS5_ESaIS8_EE7_M_copyINSE_11_Alloc_nodeEEEPSt13_Rb_tree_nodeIS8_EPKSI_SJ_RT_+0x19a>
  40e5d0:	48 8b 45 d8          	mov    -0x28(%rbp),%rax
  40e5d4:	48 83 c4 70          	add    $0x70,%rsp
  40e5d8:	5d                   	pop    %rbp
  40e5d9:	c3                   	retq   
  40e5da:	48 8b 7d d0          	mov    -0x30(%rbp),%rdi
  40e5de:	e8 3d 4a ff ff       	callq  403020 <_Unwind_Resume@plt>
  40e5e3:	89 d1                	mov    %edx,%ecx
  40e5e5:	48 89 c7             	mov    %rax,%rdi
  40e5e8:	89 4d 94             	mov    %ecx,-0x6c(%rbp)
  40e5eb:	e8 d0 8e ff ff       	callq  4074c0 <__clang_call_terminate>

000000000040e5f0 <_ZNSt8_Rb_treeINSt7__cxx1112basic_stringIcSt11char_traitsIcESaIcEEESt4pairIKS5_S5_ESt10_Select1stIS8_ESt4lessIS5_ESaIS8_EE13_M_clone_nodeINSE_11_Alloc_nodeEEEPSt13_Rb_tree_nodeIS8_EPKSI_RT_>:
  40e5f0:	55                   	push   %rbp
  40e5f1:	48 89 e5             	mov    %rsp,%rbp
  40e5f4:	48 83 ec 30          	sub    $0x30,%rsp
  40e5f8:	48 89 7d f8          	mov    %rdi,-0x8(%rbp)
  40e5fc:	48 89 75 f0          	mov    %rsi,-0x10(%rbp)
  40e600:	48 89 55 e8          	mov    %rdx,-0x18(%rbp)
  40e604:	48 8b 7d e8          	mov    -0x18(%rbp),%rdi
  40e608:	48 8b 55 f0          	mov    -0x10(%rbp),%rdx
  40e60c:	48 89 7d d8          	mov    %rdi,-0x28(%rbp)
  40e610:	48 89 d7             	mov    %rdx,%rdi
  40e613:	e8 d8 93 ff ff       	callq  4079f0 <_ZNKSt13_Rb_tree_nodeISt4pairIKNSt7__cxx1112basic_stringIcSt11char_traitsIcESaIcEEES6_EE9_M_valptrEv>
  40e618:	48 8b 7d d8          	mov    -0x28(%rbp),%rdi
  40e61c:	48 89 c6             	mov    %rax,%rsi
  40e61f:	e8 7c 00 00 00       	callq  40e6a0 <_ZNKSt8_Rb_treeINSt7__cxx1112basic_stringIcSt11char_traitsIcESaIcEEESt4pairIKS5_S5_ESt10_Select1stIS8_ESt4lessIS5_ESaIS8_EE11_Alloc_nodeclIRKS8_EEPSt13_Rb_tree_nodeIS8_EOT_>
  40e624:	48 89 45 e0          	mov    %rax,-0x20(%rbp)
  40e628:	48 8b 45 f0          	mov    -0x10(%rbp),%rax
  40e62c:	8b 08                	mov    (%rax),%ecx
  40e62e:	48 8b 45 e0          	mov    -0x20(%rbp),%rax
  40e632:	89 08                	mov    %ecx,(%rax)
  40e634:	48 8b 45 e0          	mov    -0x20(%rbp),%rax
  40e638:	48 c7 40 10 00 00 00 	movq   $0x0,0x10(%rax)
  40e63f:	00 
  40e640:	48 8b 45 e0          	mov    -0x20(%rbp),%rax
  40e644:	48 c7 40 18 00 00 00 	movq   $0x0,0x18(%rax)
  40e64b:	00 
  40e64c:	48 8b 45 e0          	mov    -0x20(%rbp),%rax
  40e650:	48 83 c4 30          	add    $0x30,%rsp
  40e654:	5d                   	pop    %rbp
  40e655:	c3                   	retq   
  40e656:	66 2e 0f 1f 84 00 00 	nopw   %cs:0x0(%rax,%rax,1)
  40e65d:	00 00 00 

000000000040e660 <_ZNSt8_Rb_treeINSt7__cxx1112basic_stringIcSt11char_traitsIcESaIcEEESt4pairIKS5_S5_ESt10_Select1stIS8_ESt4lessIS5_ESaIS8_EE8_S_rightEPKSt18_Rb_tree_node_base>:
  40e660:	55                   	push   %rbp
  40e661:	48 89 e5             	mov    %rsp,%rbp
  40e664:	48 89 7d f8          	mov    %rdi,-0x8(%rbp)
  40e668:	48 8b 7d f8          	mov    -0x8(%rbp),%rdi
  40e66c:	48 8b 7f 18          	mov    0x18(%rdi),%rdi
  40e670:	48 89 f8             	mov    %rdi,%rax
  40e673:	5d                   	pop    %rbp
  40e674:	c3                   	retq   
  40e675:	66 2e 0f 1f 84 00 00 	nopw   %cs:0x0(%rax,%rax,1)
  40e67c:	00 00 00 
  40e67f:	90                   	nop

000000000040e680 <_ZNSt8_Rb_treeINSt7__cxx1112basic_stringIcSt11char_traitsIcESaIcEEESt4pairIKS5_S5_ESt10_Select1stIS8_ESt4lessIS5_ESaIS8_EE7_S_leftEPKSt18_Rb_tree_node_base>:
  40e680:	55                   	push   %rbp
  40e681:	48 89 e5             	mov    %rsp,%rbp
  40e684:	48 89 7d f8          	mov    %rdi,-0x8(%rbp)
  40e688:	48 8b 7d f8          	mov    -0x8(%rbp),%rdi
  40e68c:	48 8b 7f 10          	mov    0x10(%rdi),%rdi
  40e690:	48 89 f8             	mov    %rdi,%rax
  40e693:	5d                   	pop    %rbp
  40e694:	c3                   	retq   
  40e695:	66 2e 0f 1f 84 00 00 	nopw   %cs:0x0(%rax,%rax,1)
  40e69c:	00 00 00 
  40e69f:	90                   	nop

000000000040e6a0 <_ZNKSt8_Rb_treeINSt7__cxx1112basic_stringIcSt11char_traitsIcESaIcEEESt4pairIKS5_S5_ESt10_Select1stIS8_ESt4lessIS5_ESaIS8_EE11_Alloc_nodeclIRKS8_EEPSt13_Rb_tree_nodeIS8_EOT_>:
  40e6a0:	55                   	push   %rbp
  40e6a1:	48 89 e5             	mov    %rsp,%rbp
  40e6a4:	48 83 ec 20          	sub    $0x20,%rsp
  40e6a8:	48 89 7d f8          	mov    %rdi,-0x8(%rbp)
  40e6ac:	48 89 75 f0          	mov    %rsi,-0x10(%rbp)
  40e6b0:	48 8b 75 f8          	mov    -0x8(%rbp),%rsi
  40e6b4:	48 8b 3e             	mov    (%rsi),%rdi
  40e6b7:	48 8b 75 f0          	mov    -0x10(%rbp),%rsi
  40e6bb:	48 89 7d e8          	mov    %rdi,-0x18(%rbp)
  40e6bf:	48 89 f7             	mov    %rsi,%rdi
  40e6c2:	e8 69 00 00 00       	callq  40e730 <_ZSt7forwardIRKSt4pairIKNSt7__cxx1112basic_stringIcSt11char_traitsIcESaIcEEES6_EEOT_RNSt16remove_referenceISB_E4typeE>
  40e6c7:	48 8b 7d e8          	mov    -0x18(%rbp),%rdi
  40e6cb:	48 89 c6             	mov    %rax,%rsi
  40e6ce:	e8 0d 00 00 00       	callq  40e6e0 <_ZNSt8_Rb_treeINSt7__cxx1112basic_stringIcSt11char_traitsIcESaIcEEESt4pairIKS5_S5_ESt10_Select1stIS8_ESt4lessIS5_ESaIS8_EE14_M_create_nodeIJRKS8_EEEPSt13_Rb_tree_nodeIS8_EDpOT_>
  40e6d3:	48 83 c4 20          	add    $0x20,%rsp
  40e6d7:	5d                   	pop    %rbp
  40e6d8:	c3                   	retq   
  40e6d9:	0f 1f 80 00 00 00 00 	nopl   0x0(%rax)

000000000040e6e0 <_ZNSt8_Rb_treeINSt7__cxx1112basic_stringIcSt11char_traitsIcESaIcEEESt4pairIKS5_S5_ESt10_Select1stIS8_ESt4lessIS5_ESaIS8_EE14_M_create_nodeIJRKS8_EEEPSt13_Rb_tree_nodeIS8_EDpOT_>:
  40e6e0:	55                   	push   %rbp
  40e6e1:	48 89 e5             	mov    %rsp,%rbp
  40e6e4:	48 83 ec 30          	sub    $0x30,%rsp
  40e6e8:	48 89 7d f8          	mov    %rdi,-0x8(%rbp)
  40e6ec:	48 89 75 f0          	mov    %rsi,-0x10(%rbp)
  40e6f0:	48 8b 75 f8          	mov    -0x8(%rbp),%rsi
  40e6f4:	48 89 f7             	mov    %rsi,%rdi
  40e6f7:	48 89 75 e0          	mov    %rsi,-0x20(%rbp)
  40e6fb:	e8 a0 98 ff ff       	callq  407fa0 <_ZNSt8_Rb_treeINSt7__cxx1112basic_stringIcSt11char_traitsIcESaIcEEESt4pairIKS5_S5_ESt10_Select1stIS8_ESt4lessIS5_ESaIS8_EE11_M_get_nodeEv>
  40e700:	48 89 45 e8          	mov    %rax,-0x18(%rbp)
  40e704:	48 8b 75 e8          	mov    -0x18(%rbp),%rsi
  40e708:	48 8b 7d f0          	mov    -0x10(%rbp),%rdi
  40e70c:	48 89 75 d8          	mov    %rsi,-0x28(%rbp)
  40e710:	e8 1b 00 00 00       	callq  40e730 <_ZSt7forwardIRKSt4pairIKNSt7__cxx1112basic_stringIcSt11char_traitsIcESaIcEEES6_EEOT_RNSt16remove_referenceISB_E4typeE>
  40e715:	48 8b 7d e0          	mov    -0x20(%rbp),%rdi
  40e719:	48 8b 75 d8          	mov    -0x28(%rbp),%rsi
  40e71d:	48 89 c2             	mov    %rax,%rdx
  40e720:	e8 1b 00 00 00       	callq  40e740 <_ZNSt8_Rb_treeINSt7__cxx1112basic_stringIcSt11char_traitsIcESaIcEEESt4pairIKS5_S5_ESt10_Select1stIS8_ESt4lessIS5_ESaIS8_EE17_M_construct_nodeIJRKS8_EEEvPSt13_Rb_tree_nodeIS8_EDpOT_>
  40e725:	48 8b 45 e8          	mov    -0x18(%rbp),%rax
  40e729:	48 83 c4 30          	add    $0x30,%rsp
  40e72d:	5d                   	pop    %rbp
  40e72e:	c3                   	retq   
  40e72f:	90                   	nop

000000000040e730 <_ZSt7forwardIRKSt4pairIKNSt7__cxx1112basic_stringIcSt11char_traitsIcESaIcEEES6_EEOT_RNSt16remove_referenceISB_E4typeE>:
  40e730:	55                   	push   %rbp
  40e731:	48 89 e5             	mov    %rsp,%rbp
  40e734:	48 89 7d f8          	mov    %rdi,-0x8(%rbp)
  40e738:	48 8b 45 f8          	mov    -0x8(%rbp),%rax
  40e73c:	5d                   	pop    %rbp
  40e73d:	c3                   	retq   
  40e73e:	66 90                	xchg   %ax,%ax

000000000040e740 <_ZNSt8_Rb_treeINSt7__cxx1112basic_stringIcSt11char_traitsIcESaIcEEESt4pairIKS5_S5_ESt10_Select1stIS8_ESt4lessIS5_ESaIS8_EE17_M_construct_nodeIJRKS8_EEEvPSt13_Rb_tree_nodeIS8_EDpOT_>:
  40e740:	55                   	push   %rbp
  40e741:	48 89 e5             	mov    %rsp,%rbp
  40e744:	48 83 ec 50          	sub    $0x50,%rsp
  40e748:	48 89 7d f8          	mov    %rdi,-0x8(%rbp)
  40e74c:	48 89 75 f0          	mov    %rsi,-0x10(%rbp)
  40e750:	48 89 55 e8          	mov    %rdx,-0x18(%rbp)
  40e754:	48 8b 55 f8          	mov    -0x8(%rbp),%rdx
  40e758:	48 89 d7             	mov    %rdx,%rdi
  40e75b:	48 89 55 d0          	mov    %rdx,-0x30(%rbp)
  40e75f:	e8 9c 99 ff ff       	callq  408100 <_ZNSt8_Rb_treeINSt7__cxx1112basic_stringIcSt11char_traitsIcESaIcEEESt4pairIKS5_S5_ESt10_Select1stIS8_ESt4lessIS5_ESaIS8_EE21_M_get_Node_allocatorEv>
  40e764:	48 8b 7d f0          	mov    -0x10(%rbp),%rdi
  40e768:	48 89 45 c8          	mov    %rax,-0x38(%rbp)
  40e76c:	e8 8f 9a ff ff       	callq  408200 <_ZNSt13_Rb_tree_nodeISt4pairIKNSt7__cxx1112basic_stringIcSt11char_traitsIcESaIcEEES6_EE9_M_valptrEv>
  40e771:	48 89 45 c0          	mov    %rax,-0x40(%rbp)
  40e775:	e9 00 00 00 00       	jmpq   40e77a <_ZNSt8_Rb_treeINSt7__cxx1112basic_stringIcSt11char_traitsIcESaIcEEESt4pairIKS5_S5_ESt10_Select1stIS8_ESt4lessIS5_ESaIS8_EE17_M_construct_nodeIJRKS8_EEEvPSt13_Rb_tree_nodeIS8_EDpOT_+0x3a>
  40e77a:	48 8b 7d e8          	mov    -0x18(%rbp),%rdi
  40e77e:	e8 ad ff ff ff       	callq  40e730 <_ZSt7forwardIRKSt4pairIKNSt7__cxx1112basic_stringIcSt11char_traitsIcESaIcEEES6_EEOT_RNSt16remove_referenceISB_E4typeE>
  40e783:	48 8b 7d c8          	mov    -0x38(%rbp),%rdi
  40e787:	48 8b 75 c0          	mov    -0x40(%rbp),%rsi
  40e78b:	48 89 c2             	mov    %rax,%rdx
  40e78e:	e8 6d 00 00 00       	callq  40e800 <_ZNSt16allocator_traitsISaISt13_Rb_tree_nodeISt4pairIKNSt7__cxx1112basic_stringIcSt11char_traitsIcESaIcEEES7_EEEE9constructIS9_JRKS9_EEEvRSB_PT_DpOT0_>
  40e793:	e9 00 00 00 00       	jmpq   40e798 <_ZNSt8_Rb_treeINSt7__cxx1112basic_stringIcSt11char_traitsIcESaIcEEESt4pairIKS5_S5_ESt10_Select1stIS8_ESt4lessIS5_ESaIS8_EE17_M_construct_nodeIJRKS8_EEEvPSt13_Rb_tree_nodeIS8_EDpOT_+0x58>
  40e798:	e9 45 00 00 00       	jmpq   40e7e2 <_ZNSt8_Rb_treeINSt7__cxx1112basic_stringIcSt11char_traitsIcESaIcEEESt4pairIKS5_S5_ESt10_Select1stIS8_ESt4lessIS5_ESaIS8_EE17_M_construct_nodeIJRKS8_EEEvPSt13_Rb_tree_nodeIS8_EDpOT_+0xa2>
  40e79d:	89 d1                	mov    %edx,%ecx
  40e79f:	48 89 45 e0          	mov    %rax,-0x20(%rbp)
  40e7a3:	89 4d dc             	mov    %ecx,-0x24(%rbp)
  40e7a6:	48 8b 7d e0          	mov    -0x20(%rbp),%rdi
  40e7aa:	e8 11 44 ff ff       	callq  402bc0 <__cxa_begin_catch@plt>
  40e7af:	48 8b 75 f0          	mov    -0x10(%rbp),%rsi
  40e7b3:	48 8b 7d d0          	mov    -0x30(%rbp),%rdi
  40e7b7:	48 89 45 b8          	mov    %rax,-0x48(%rbp)
  40e7bb:	e8 60 9a ff ff       	callq  408220 <_ZNSt8_Rb_treeINSt7__cxx1112basic_stringIcSt11char_traitsIcESaIcEEESt4pairIKS5_S5_ESt10_Select1stIS8_ESt4lessIS5_ESaIS8_EE11_M_put_nodeEPSt13_Rb_tree_nodeIS8_E>
  40e7c0:	e8 4b 47 ff ff       	callq  402f10 <__cxa_rethrow@plt>
  40e7c5:	e9 34 00 00 00       	jmpq   40e7fe <_ZNSt8_Rb_treeINSt7__cxx1112basic_stringIcSt11char_traitsIcESaIcEEESt4pairIKS5_S5_ESt10_Select1stIS8_ESt4lessIS5_ESaIS8_EE17_M_construct_nodeIJRKS8_EEEvPSt13_Rb_tree_nodeIS8_EDpOT_+0xbe>
  40e7ca:	89 d1                	mov    %edx,%ecx
  40e7cc:	48 89 45 e0          	mov    %rax,-0x20(%rbp)
  40e7d0:	89 4d dc             	mov    %ecx,-0x24(%rbp)
  40e7d3:	e8 b8 47 ff ff       	callq  402f90 <__cxa_end_catch@plt>
  40e7d8:	e9 00 00 00 00       	jmpq   40e7dd <_ZNSt8_Rb_treeINSt7__cxx1112basic_stringIcSt11char_traitsIcESaIcEEESt4pairIKS5_S5_ESt10_Select1stIS8_ESt4lessIS5_ESaIS8_EE17_M_construct_nodeIJRKS8_EEEvPSt13_Rb_tree_nodeIS8_EDpOT_+0x9d>
  40e7dd:	e9 06 00 00 00       	jmpq   40e7e8 <_ZNSt8_Rb_treeINSt7__cxx1112basic_stringIcSt11char_traitsIcESaIcEEESt4pairIKS5_S5_ESt10_Select1stIS8_ESt4lessIS5_ESaIS8_EE17_M_construct_nodeIJRKS8_EEEvPSt13_Rb_tree_nodeIS8_EDpOT_+0xa8>
  40e7e2:	48 83 c4 50          	add    $0x50,%rsp
  40e7e6:	5d                   	pop    %rbp
  40e7e7:	c3                   	retq   
  40e7e8:	48 8b 7d e0          	mov    -0x20(%rbp),%rdi
  40e7ec:	e8 2f 48 ff ff       	callq  403020 <_Unwind_Resume@plt>
  40e7f1:	89 d1                	mov    %edx,%ecx
  40e7f3:	48 89 c7             	mov    %rax,%rdi
  40e7f6:	89 4d b4             	mov    %ecx,-0x4c(%rbp)
  40e7f9:	e8 c2 8c ff ff       	callq  4074c0 <__clang_call_terminate>
  40e7fe:	66 90                	xchg   %ax,%ax

000000000040e800 <_ZNSt16allocator_traitsISaISt13_Rb_tree_nodeISt4pairIKNSt7__cxx1112basic_stringIcSt11char_traitsIcESaIcEEES7_EEEE9constructIS9_JRKS9_EEEvRSB_PT_DpOT0_>:
  40e800:	55                   	push   %rbp
  40e801:	48 89 e5             	mov    %rsp,%rbp
  40e804:	48 83 ec 30          	sub    $0x30,%rsp
  40e808:	48 89 7d f8          	mov    %rdi,-0x8(%rbp)
  40e80c:	48 89 75 f0          	mov    %rsi,-0x10(%rbp)
  40e810:	48 89 55 e8          	mov    %rdx,-0x18(%rbp)
  40e814:	48 8b 55 f8          	mov    -0x8(%rbp),%rdx
  40e818:	48 8b 75 f0          	mov    -0x10(%rbp),%rsi
  40e81c:	48 8b 7d e8          	mov    -0x18(%rbp),%rdi
  40e820:	48 89 55 e0          	mov    %rdx,-0x20(%rbp)
  40e824:	48 89 75 d8          	mov    %rsi,-0x28(%rbp)
  40e828:	e8 03 ff ff ff       	callq  40e730 <_ZSt7forwardIRKSt4pairIKNSt7__cxx1112basic_stringIcSt11char_traitsIcESaIcEEES6_EEOT_RNSt16remove_referenceISB_E4typeE>
  40e82d:	48 8b 7d e0          	mov    -0x20(%rbp),%rdi
  40e831:	48 8b 75 d8          	mov    -0x28(%rbp),%rsi
  40e835:	48 89 c2             	mov    %rax,%rdx
  40e838:	e8 13 00 00 00       	callq  40e850 <_ZN9__gnu_cxx13new_allocatorISt13_Rb_tree_nodeISt4pairIKNSt7__cxx1112basic_stringIcSt11char_traitsIcESaIcEEES8_EEE9constructISA_JRKSA_EEEvPT_DpOT0_>
  40e83d:	48 83 c4 30          	add    $0x30,%rsp
  40e841:	5d                   	pop    %rbp
  40e842:	c3                   	retq   
  40e843:	66 2e 0f 1f 84 00 00 	nopw   %cs:0x0(%rax,%rax,1)
  40e84a:	00 00 00 
  40e84d:	0f 1f 00             	nopl   (%rax)

000000000040e850 <_ZN9__gnu_cxx13new_allocatorISt13_Rb_tree_nodeISt4pairIKNSt7__cxx1112basic_stringIcSt11char_traitsIcESaIcEEES8_EEE9constructISA_JRKSA_EEEvPT_DpOT0_>:
  40e850:	55                   	push   %rbp
  40e851:	48 89 e5             	mov    %rsp,%rbp
  40e854:	48 83 ec 20          	sub    $0x20,%rsp
  40e858:	48 89 7d f8          	mov    %rdi,-0x8(%rbp)
  40e85c:	48 89 75 f0          	mov    %rsi,-0x10(%rbp)
  40e860:	48 89 55 e8          	mov    %rdx,-0x18(%rbp)
  40e864:	48 8b 55 f0          	mov    -0x10(%rbp),%rdx
  40e868:	48 8b 7d e8          	mov    -0x18(%rbp),%rdi
  40e86c:	48 89 55 e0          	mov    %rdx,-0x20(%rbp)
  40e870:	e8 bb fe ff ff       	callq  40e730 <_ZSt7forwardIRKSt4pairIKNSt7__cxx1112basic_stringIcSt11char_traitsIcESaIcEEES6_EEOT_RNSt16remove_referenceISB_E4typeE>
  40e875:	48 8b 7d e0          	mov    -0x20(%rbp),%rdi
  40e879:	48 89 c6             	mov    %rax,%rsi
  40e87c:	e8 0f 00 00 00       	callq  40e890 <_ZNSt4pairIKNSt7__cxx1112basic_stringIcSt11char_traitsIcESaIcEEES5_EC2ERKS7_>
  40e881:	48 83 c4 20          	add    $0x20,%rsp
  40e885:	5d                   	pop    %rbp
  40e886:	c3                   	retq   
  40e887:	66 0f 1f 84 00 00 00 	nopw   0x0(%rax,%rax,1)
  40e88e:	00 00 

000000000040e890 <_ZNSt4pairIKNSt7__cxx1112basic_stringIcSt11char_traitsIcESaIcEEES5_EC2ERKS7_>:
  40e890:	55                   	push   %rbp
  40e891:	48 89 e5             	mov    %rsp,%rbp
  40e894:	48 83 ec 30          	sub    $0x30,%rsp
  40e898:	48 89 7d f8          	mov    %rdi,-0x8(%rbp)
  40e89c:	48 89 75 f0          	mov    %rsi,-0x10(%rbp)
  40e8a0:	48 8b 7d f8          	mov    -0x8(%rbp),%rdi
  40e8a4:	48 89 7d d8          	mov    %rdi,-0x28(%rbp)
  40e8a8:	e8 43 43 ff ff       	callq  402bf0 <_ZNSt7__cxx1112basic_stringIcSt11char_traitsIcESaIcEEC1ERKS4_@plt>
  40e8ad:	48 8b 75 d8          	mov    -0x28(%rbp),%rsi
  40e8b1:	48 83 c6 20          	add    $0x20,%rsi
  40e8b5:	48 8b 7d f0          	mov    -0x10(%rbp),%rdi
  40e8b9:	48 83 c7 20          	add    $0x20,%rdi
  40e8bd:	48 89 7d d0          	mov    %rdi,-0x30(%rbp)
  40e8c1:	48 89 f7             	mov    %rsi,%rdi
  40e8c4:	48 8b 75 d0          	mov    -0x30(%rbp),%rsi
  40e8c8:	e8 23 43 ff ff       	callq  402bf0 <_ZNSt7__cxx1112basic_stringIcSt11char_traitsIcESaIcEEC1ERKS4_@plt>
  40e8cd:	e9 00 00 00 00       	jmpq   40e8d2 <_ZNSt4pairIKNSt7__cxx1112basic_stringIcSt11char_traitsIcESaIcEEES5_EC2ERKS7_+0x42>
  40e8d2:	48 83 c4 30          	add    $0x30,%rsp
  40e8d6:	5d                   	pop    %rbp
  40e8d7:	c3                   	retq   
  40e8d8:	89 d1                	mov    %edx,%ecx
  40e8da:	48 89 45 e8          	mov    %rax,-0x18(%rbp)
  40e8de:	89 4d e4             	mov    %ecx,-0x1c(%rbp)
  40e8e1:	48 8b 7d d8          	mov    -0x28(%rbp),%rdi
  40e8e5:	e8 76 43 ff ff       	callq  402c60 <_ZNSt7__cxx1112basic_stringIcSt11char_traitsIcESaIcEED1Ev@plt>
  40e8ea:	48 8b 7d e8          	mov    -0x18(%rbp),%rdi
  40e8ee:	e8 2d 47 ff ff       	callq  403020 <_Unwind_Resume@plt>
  40e8f3:	66 2e 0f 1f 84 00 00 	nopw   %cs:0x0(%rax,%rax,1)
  40e8fa:	00 00 00 
  40e8fd:	0f 1f 00             	nopl   (%rax)

000000000040e900 <_ZNSt18_Rb_tree_node_base10_S_minimumEPS_>:
  40e900:	55                   	push   %rbp
  40e901:	48 89 e5             	mov    %rsp,%rbp
  40e904:	48 89 7d f8          	mov    %rdi,-0x8(%rbp)
  40e908:	48 8b 45 f8          	mov    -0x8(%rbp),%rax
  40e90c:	48 83 78 10 00       	cmpq   $0x0,0x10(%rax)
  40e911:	0f 84 11 00 00 00    	je     40e928 <_ZNSt18_Rb_tree_node_base10_S_minimumEPS_+0x28>
  40e917:	48 8b 45 f8          	mov    -0x8(%rbp),%rax
  40e91b:	48 8b 40 10          	mov    0x10(%rax),%rax
  40e91f:	48 89 45 f8          	mov    %rax,-0x8(%rbp)
  40e923:	e9 e0 ff ff ff       	jmpq   40e908 <_ZNSt18_Rb_tree_node_base10_S_minimumEPS_+0x8>
  40e928:	48 8b 45 f8          	mov    -0x8(%rbp),%rax
  40e92c:	5d                   	pop    %rbp
  40e92d:	c3                   	retq   
  40e92e:	66 90                	xchg   %ax,%ax

000000000040e930 <_ZNSt18_Rb_tree_node_base10_S_maximumEPS_>:
  40e930:	55                   	push   %rbp
  40e931:	48 89 e5             	mov    %rsp,%rbp
  40e934:	48 89 7d f8          	mov    %rdi,-0x8(%rbp)
  40e938:	48 8b 45 f8          	mov    -0x8(%rbp),%rax
  40e93c:	48 83 78 18 00       	cmpq   $0x0,0x18(%rax)
  40e941:	0f 84 11 00 00 00    	je     40e958 <_ZNSt18_Rb_tree_node_base10_S_maximumEPS_+0x28>
  40e947:	48 8b 45 f8          	mov    -0x8(%rbp),%rax
  40e94b:	48 8b 40 18          	mov    0x18(%rax),%rax
  40e94f:	48 89 45 f8          	mov    %rax,-0x8(%rbp)
  40e953:	e9 e0 ff ff ff       	jmpq   40e938 <_ZNSt18_Rb_tree_node_base10_S_maximumEPS_+0x8>
  40e958:	48 8b 45 f8          	mov    -0x8(%rbp),%rax
  40e95c:	5d                   	pop    %rbp
  40e95d:	c3                   	retq   
  40e95e:	66 90                	xchg   %ax,%ax

000000000040e960 <_ZNSt6chronoleIlSt5ratioILl1ELl1EElS2_EEbRKNS_8durationIT_T0_EERKNS3_IT1_T2_EE>:
  40e960:	55                   	push   %rbp
  40e961:	48 89 e5             	mov    %rsp,%rbp
  40e964:	48 83 ec 10          	sub    $0x10,%rsp
  40e968:	48 89 7d f8          	mov    %rdi,-0x8(%rbp)
  40e96c:	48 89 75 f0          	mov    %rsi,-0x10(%rbp)
  40e970:	48 8b 7d f0          	mov    -0x10(%rbp),%rdi
  40e974:	48 8b 75 f8          	mov    -0x8(%rbp),%rsi
  40e978:	e8 53 01 00 00       	callq  40ead0 <_ZNSt6chronoltIlSt5ratioILl1ELl1EElS2_EEbRKNS_8durationIT_T0_EERKNS3_IT1_T2_EE>
  40e97d:	34 ff                	xor    $0xff,%al
  40e97f:	24 01                	and    $0x1,%al
  40e981:	0f b6 c0             	movzbl %al,%eax
  40e984:	48 83 c4 10          	add    $0x10,%rsp
  40e988:	5d                   	pop    %rbp
  40e989:	c3                   	retq   
  40e98a:	66 0f 1f 44 00 00    	nopw   0x0(%rax,%rax,1)

000000000040e990 <_ZNSt6chrono8durationIlSt5ratioILl1ELl1EEE4zeroEv>:
  40e990:	55                   	push   %rbp
  40e991:	48 89 e5             	mov    %rsp,%rbp
  40e994:	48 83 ec 10          	sub    $0x10,%rsp
  40e998:	e8 93 01 00 00       	callq  40eb30 <_ZNSt6chrono15duration_valuesIlE4zeroEv>
  40e99d:	48 8d 7d f8          	lea    -0x8(%rbp),%rdi
  40e9a1:	48 8d 75 f0          	lea    -0x10(%rbp),%rsi
  40e9a5:	48 89 45 f0          	mov    %rax,-0x10(%rbp)
  40e9a9:	e8 92 01 00 00       	callq  40eb40 <_ZNSt6chrono8durationIlSt5ratioILl1ELl1EEEC2IlvEERKT_>
  40e9ae:	48 8b 45 f8          	mov    -0x8(%rbp),%rax
  40e9b2:	48 83 c4 10          	add    $0x10,%rsp
  40e9b6:	5d                   	pop    %rbp
  40e9b7:	c3                   	retq   
  40e9b8:	0f 1f 84 00 00 00 00 	nopl   0x0(%rax,%rax,1)
  40e9bf:	00 

000000000040e9c0 <_ZNSt6chrono13duration_castINS_8durationIlSt5ratioILl1ELl1EEEElS3_EENSt9enable_ifIXsr13__is_durationIT_EE5valueES6_E4typeERKNS1_IT0_T1_EE>:
  40e9c0:	55                   	push   %rbp
  40e9c1:	48 89 e5             	mov    %rsp,%rbp
  40e9c4:	48 83 ec 10          	sub    $0x10,%rsp
  40e9c8:	48 89 7d f0          	mov    %rdi,-0x10(%rbp)
  40e9cc:	48 8b 7d f0          	mov    -0x10(%rbp),%rdi
  40e9d0:	e8 8b 01 00 00       	callq  40eb60 <_ZNSt6chrono20__duration_cast_implINS_8durationIlSt5ratioILl1ELl1EEEES3_lLb1ELb1EE6__castIlS3_EES4_RKNS1_IT_T0_EE>
  40e9d5:	48 89 45 f8          	mov    %rax,-0x8(%rbp)
  40e9d9:	48 8b 45 f8          	mov    -0x8(%rbp),%rax
  40e9dd:	48 83 c4 10          	add    $0x10,%rsp
  40e9e1:	5d                   	pop    %rbp
  40e9e2:	c3                   	retq   
  40e9e3:	66 2e 0f 1f 84 00 00 	nopw   %cs:0x0(%rax,%rax,1)
  40e9ea:	00 00 00 
  40e9ed:	0f 1f 00             	nopl   (%rax)

000000000040e9f0 <_ZNSt6chrono13duration_castINS_8durationIlSt5ratioILl1ELl1000000000EEEElS2_ILl1ELl1EEEENSt9enable_ifIXsr13__is_durationIT_EE5valueES7_E4typeERKNS1_IT0_T1_EE>:
  40e9f0:	55                   	push   %rbp
  40e9f1:	48 89 e5             	mov    %rsp,%rbp
  40e9f4:	48 83 ec 10          	sub    $0x10,%rsp
  40e9f8:	48 89 7d f0          	mov    %rdi,-0x10(%rbp)
  40e9fc:	48 8b 7d f0          	mov    -0x10(%rbp),%rdi
  40ea00:	e8 8b 01 00 00       	callq  40eb90 <_ZNSt6chrono20__duration_cast_implINS_8durationIlSt5ratioILl1ELl1000000000EEEES2_ILl1000000000ELl1EElLb0ELb1EE6__castIlS2_ILl1ELl1EEEES4_RKNS1_IT_T0_EE>
  40ea05:	48 89 45 f8          	mov    %rax,-0x8(%rbp)
  40ea09:	48 8b 45 f8          	mov    -0x8(%rbp),%rax
  40ea0d:	48 83 c4 10          	add    $0x10,%rsp
  40ea11:	5d                   	pop    %rbp
  40ea12:	c3                   	retq   
  40ea13:	66 2e 0f 1f 84 00 00 	nopw   %cs:0x0(%rax,%rax,1)
  40ea1a:	00 00 00 
  40ea1d:	0f 1f 00             	nopl   (%rax)

000000000040ea20 <_ZNSt6chronomiIlSt5ratioILl1ELl1EElS2_EENSt11common_typeIJNS_8durationIT_T0_EENS4_IT1_T2_EEEE4typeERKS7_RKSA_>:
  40ea20:	55                   	push   %rbp
  40ea21:	48 89 e5             	mov    %rsp,%rbp
  40ea24:	48 83 ec 40          	sub    $0x40,%rsp
  40ea28:	48 8d 45 d8          	lea    -0x28(%rbp),%rax
  40ea2c:	48 89 7d f0          	mov    %rdi,-0x10(%rbp)
  40ea30:	48 89 75 e8          	mov    %rsi,-0x18(%rbp)
  40ea34:	48 8b 75 f0          	mov    -0x10(%rbp),%rsi
  40ea38:	48 8b 36             	mov    (%rsi),%rsi
  40ea3b:	48 89 75 d8          	mov    %rsi,-0x28(%rbp)
  40ea3f:	48 89 c7             	mov    %rax,%rdi
  40ea42:	e8 49 00 00 00       	callq  40ea90 <_ZNKSt6chrono8durationIlSt5ratioILl1ELl1EEE5countEv>
  40ea47:	48 8d 7d d0          	lea    -0x30(%rbp),%rdi
  40ea4b:	48 8b 75 e8          	mov    -0x18(%rbp),%rsi
  40ea4f:	48 8b 36             	mov    (%rsi),%rsi
  40ea52:	48 89 75 d0          	mov    %rsi,-0x30(%rbp)
  40ea56:	48 89 45 c8          	mov    %rax,-0x38(%rbp)
  40ea5a:	e8 31 00 00 00       	callq  40ea90 <_ZNKSt6chrono8durationIlSt5ratioILl1ELl1EEE5countEv>
  40ea5f:	48 8d 7d f8          	lea    -0x8(%rbp),%rdi
  40ea63:	48 8d 75 e0          	lea    -0x20(%rbp),%rsi
  40ea67:	48 8b 4d c8          	mov    -0x38(%rbp),%rcx
  40ea6b:	48 29 c1             	sub    %rax,%rcx
  40ea6e:	48 89 4d e0          	mov    %rcx,-0x20(%rbp)
  40ea72:	e8 c9 00 00 00       	callq  40eb40 <_ZNSt6chrono8durationIlSt5ratioILl1ELl1EEEC2IlvEERKT_>
  40ea77:	48 8b 45 f8          	mov    -0x8(%rbp),%rax
  40ea7b:	48 83 c4 40          	add    $0x40,%rsp
  40ea7f:	5d                   	pop    %rbp
  40ea80:	c3                   	retq   
  40ea81:	66 2e 0f 1f 84 00 00 	nopw   %cs:0x0(%rax,%rax,1)
  40ea88:	00 00 00 
  40ea8b:	0f 1f 44 00 00       	nopl   0x0(%rax,%rax,1)

000000000040ea90 <_ZNKSt6chrono8durationIlSt5ratioILl1ELl1EEE5countEv>:
  40ea90:	55                   	push   %rbp
  40ea91:	48 89 e5             	mov    %rsp,%rbp
  40ea94:	48 89 7d f8          	mov    %rdi,-0x8(%rbp)
  40ea98:	48 8b 7d f8          	mov    -0x8(%rbp),%rdi
  40ea9c:	48 8b 07             	mov    (%rdi),%rax
  40ea9f:	5d                   	pop    %rbp
  40eaa0:	c3                   	retq   
  40eaa1:	66 2e 0f 1f 84 00 00 	nopw   %cs:0x0(%rax,%rax,1)
  40eaa8:	00 00 00 
  40eaab:	0f 1f 44 00 00       	nopl   0x0(%rax,%rax,1)

000000000040eab0 <_ZNKSt6chrono8durationIlSt5ratioILl1ELl1000000000EEE5countEv>:
  40eab0:	55                   	push   %rbp
  40eab1:	48 89 e5             	mov    %rsp,%rbp
  40eab4:	48 89 7d f8          	mov    %rdi,-0x8(%rbp)
  40eab8:	48 8b 7d f8          	mov    -0x8(%rbp),%rdi
  40eabc:	48 8b 07             	mov    (%rdi),%rax
  40eabf:	5d                   	pop    %rbp
  40eac0:	c3                   	retq   
  40eac1:	66 2e 0f 1f 84 00 00 	nopw   %cs:0x0(%rax,%rax,1)
  40eac8:	00 00 00 
  40eacb:	0f 1f 44 00 00       	nopl   0x0(%rax,%rax,1)

000000000040ead0 <_ZNSt6chronoltIlSt5ratioILl1ELl1EElS2_EEbRKNS_8durationIT_T0_EERKNS3_IT1_T2_EE>:
  40ead0:	55                   	push   %rbp
  40ead1:	48 89 e5             	mov    %rsp,%rbp
  40ead4:	48 83 ec 30          	sub    $0x30,%rsp
  40ead8:	48 8d 45 e8          	lea    -0x18(%rbp),%rax
  40eadc:	48 89 7d f8          	mov    %rdi,-0x8(%rbp)
  40eae0:	48 89 75 f0          	mov    %rsi,-0x10(%rbp)
  40eae4:	48 8b 75 f8          	mov    -0x8(%rbp),%rsi
  40eae8:	48 8b 36             	mov    (%rsi),%rsi
  40eaeb:	48 89 75 e8          	mov    %rsi,-0x18(%rbp)
  40eaef:	48 89 c7             	mov    %rax,%rdi
  40eaf2:	e8 99 ff ff ff       	callq  40ea90 <_ZNKSt6chrono8durationIlSt5ratioILl1ELl1EEE5countEv>
  40eaf7:	48 8d 7d e0          	lea    -0x20(%rbp),%rdi
  40eafb:	48 8b 75 f0          	mov    -0x10(%rbp),%rsi
  40eaff:	48 8b 36             	mov    (%rsi),%rsi
  40eb02:	48 89 75 e0          	mov    %rsi,-0x20(%rbp)
  40eb06:	48 89 45 d8          	mov    %rax,-0x28(%rbp)
  40eb0a:	e8 81 ff ff ff       	callq  40ea90 <_ZNKSt6chrono8durationIlSt5ratioILl1ELl1EEE5countEv>
  40eb0f:	48 8b 75 d8          	mov    -0x28(%rbp),%rsi
  40eb13:	48 39 c6             	cmp    %rax,%rsi
  40eb16:	0f 9c c1             	setl   %cl
  40eb19:	80 e1 01             	and    $0x1,%cl
  40eb1c:	0f b6 c1             	movzbl %cl,%eax
  40eb1f:	48 83 c4 30          	add    $0x30,%rsp
  40eb23:	5d                   	pop    %rbp
  40eb24:	c3                   	retq   
  40eb25:	66 2e 0f 1f 84 00 00 	nopw   %cs:0x0(%rax,%rax,1)
  40eb2c:	00 00 00 
  40eb2f:	90                   	nop

000000000040eb30 <_ZNSt6chrono15duration_valuesIlE4zeroEv>:
  40eb30:	55                   	push   %rbp
  40eb31:	48 89 e5             	mov    %rsp,%rbp
  40eb34:	31 c0                	xor    %eax,%eax
  40eb36:	5d                   	pop    %rbp
  40eb37:	c3                   	retq   
  40eb38:	0f 1f 84 00 00 00 00 	nopl   0x0(%rax,%rax,1)
  40eb3f:	00 

000000000040eb40 <_ZNSt6chrono8durationIlSt5ratioILl1ELl1EEEC2IlvEERKT_>:
  40eb40:	55                   	push   %rbp
  40eb41:	48 89 e5             	mov    %rsp,%rbp
  40eb44:	48 89 7d f8          	mov    %rdi,-0x8(%rbp)
  40eb48:	48 89 75 f0          	mov    %rsi,-0x10(%rbp)
  40eb4c:	48 8b 75 f8          	mov    -0x8(%rbp),%rsi
  40eb50:	48 8b 7d f0          	mov    -0x10(%rbp),%rdi
  40eb54:	48 8b 3f             	mov    (%rdi),%rdi
  40eb57:	48 89 3e             	mov    %rdi,(%rsi)
  40eb5a:	5d                   	pop    %rbp
  40eb5b:	c3                   	retq   
  40eb5c:	0f 1f 40 00          	nopl   0x0(%rax)

000000000040eb60 <_ZNSt6chrono20__duration_cast_implINS_8durationIlSt5ratioILl1ELl1EEEES3_lLb1ELb1EE6__castIlS3_EES4_RKNS1_IT_T0_EE>:
  40eb60:	55                   	push   %rbp
  40eb61:	48 89 e5             	mov    %rsp,%rbp
  40eb64:	48 83 ec 20          	sub    $0x20,%rsp
  40eb68:	48 89 7d f0          	mov    %rdi,-0x10(%rbp)
  40eb6c:	48 8b 7d f0          	mov    -0x10(%rbp),%rdi
  40eb70:	e8 1b ff ff ff       	callq  40ea90 <_ZNKSt6chrono8durationIlSt5ratioILl1ELl1EEE5countEv>
  40eb75:	48 8d 7d f8          	lea    -0x8(%rbp),%rdi
  40eb79:	48 8d 75 e8          	lea    -0x18(%rbp),%rsi
  40eb7d:	48 89 45 e8          	mov    %rax,-0x18(%rbp)
  40eb81:	e8 ba ff ff ff       	callq  40eb40 <_ZNSt6chrono8durationIlSt5ratioILl1ELl1EEEC2IlvEERKT_>
  40eb86:	48 8b 45 f8          	mov    -0x8(%rbp),%rax
  40eb8a:	48 83 c4 20          	add    $0x20,%rsp
  40eb8e:	5d                   	pop    %rbp
  40eb8f:	c3                   	retq   

000000000040eb90 <_ZNSt6chrono20__duration_cast_implINS_8durationIlSt5ratioILl1ELl1000000000EEEES2_ILl1000000000ELl1EElLb0ELb1EE6__castIlS2_ILl1ELl1EEEES4_RKNS1_IT_T0_EE>:
  40eb90:	55                   	push   %rbp
  40eb91:	48 89 e5             	mov    %rsp,%rbp
  40eb94:	48 83 ec 20          	sub    $0x20,%rsp
  40eb98:	48 89 7d f0          	mov    %rdi,-0x10(%rbp)
  40eb9c:	48 8b 7d f0          	mov    -0x10(%rbp),%rdi
  40eba0:	e8 eb fe ff ff       	callq  40ea90 <_ZNKSt6chrono8durationIlSt5ratioILl1ELl1EEE5countEv>
  40eba5:	48 8d 7d f8          	lea    -0x8(%rbp),%rdi
  40eba9:	48 8d 75 e8          	lea    -0x18(%rbp),%rsi
  40ebad:	48 69 c0 00 ca 9a 3b 	imul   $0x3b9aca00,%rax,%rax
  40ebb4:	48 89 45 e8          	mov    %rax,-0x18(%rbp)
  40ebb8:	e8 13 00 00 00       	callq  40ebd0 <_ZNSt6chrono8durationIlSt5ratioILl1ELl1000000000EEEC2IlvEERKT_>
  40ebbd:	48 8b 45 f8          	mov    -0x8(%rbp),%rax
  40ebc1:	48 83 c4 20          	add    $0x20,%rsp
  40ebc5:	5d                   	pop    %rbp
  40ebc6:	c3                   	retq   
  40ebc7:	66 0f 1f 84 00 00 00 	nopw   0x0(%rax,%rax,1)
  40ebce:	00 00 

000000000040ebd0 <_ZNSt6chrono8durationIlSt5ratioILl1ELl1000000000EEEC2IlvEERKT_>:
  40ebd0:	55                   	push   %rbp
  40ebd1:	48 89 e5             	mov    %rsp,%rbp
  40ebd4:	48 89 7d f8          	mov    %rdi,-0x8(%rbp)
  40ebd8:	48 89 75 f0          	mov    %rsi,-0x10(%rbp)
  40ebdc:	48 8b 75 f8          	mov    -0x8(%rbp),%rsi
  40ebe0:	48 8b 7d f0          	mov    -0x10(%rbp),%rdi
  40ebe4:	48 8b 3f             	mov    (%rdi),%rdi
  40ebe7:	48 89 3e             	mov    %rdi,(%rsi)
  40ebea:	5d                   	pop    %rbp
  40ebeb:	c3                   	retq   
  40ebec:	0f 1f 40 00          	nopl   0x0(%rax)

000000000040ebf0 <_ZNSt12_Vector_baseIhSaIhEEC2Ev>:
  40ebf0:	55                   	push   %rbp
  40ebf1:	48 89 e5             	mov    %rsp,%rbp
  40ebf4:	48 83 ec 10          	sub    $0x10,%rsp
  40ebf8:	48 89 7d f8          	mov    %rdi,-0x8(%rbp)
  40ebfc:	48 8b 7d f8          	mov    -0x8(%rbp),%rdi
  40ec00:	e8 0b 00 00 00       	callq  40ec10 <_ZNSt12_Vector_baseIhSaIhEE12_Vector_implC2Ev>
  40ec05:	48 83 c4 10          	add    $0x10,%rsp
  40ec09:	5d                   	pop    %rbp
  40ec0a:	c3                   	retq   
  40ec0b:	0f 1f 44 00 00       	nopl   0x0(%rax,%rax,1)

000000000040ec10 <_ZNSt12_Vector_baseIhSaIhEE12_Vector_implC2Ev>:
  40ec10:	55                   	push   %rbp
  40ec11:	48 89 e5             	mov    %rsp,%rbp
  40ec14:	48 83 ec 10          	sub    $0x10,%rsp
  40ec18:	48 89 7d f8          	mov    %rdi,-0x8(%rbp)
  40ec1c:	48 8b 7d f8          	mov    -0x8(%rbp),%rdi
  40ec20:	48 89 f8             	mov    %rdi,%rax
  40ec23:	48 89 7d f0          	mov    %rdi,-0x10(%rbp)
  40ec27:	48 89 c7             	mov    %rax,%rdi
  40ec2a:	e8 41 ec ff ff       	callq  40d870 <_ZNSaIhEC2Ev>
  40ec2f:	48 8b 45 f0          	mov    -0x10(%rbp),%rax
  40ec33:	48 c7 00 00 00 00 00 	movq   $0x0,(%rax)
  40ec3a:	48 c7 40 08 00 00 00 	movq   $0x0,0x8(%rax)
  40ec41:	00 
  40ec42:	48 c7 40 10 00 00 00 	movq   $0x0,0x10(%rax)
  40ec49:	00 
  40ec4a:	48 83 c4 10          	add    $0x10,%rsp
  40ec4e:	5d                   	pop    %rbp
  40ec4f:	c3                   	retq   

000000000040ec50 <__libc_csu_init>:
  40ec50:	41 57                	push   %r15
  40ec52:	41 56                	push   %r14
  40ec54:	41 89 ff             	mov    %edi,%r15d
  40ec57:	41 55                	push   %r13
  40ec59:	41 54                	push   %r12
  40ec5b:	4c 8d 25 5e 71 20 00 	lea    0x20715e(%rip),%r12        # 615dc0 <__frame_dummy_init_array_entry>
  40ec62:	55                   	push   %rbp
  40ec63:	48 8d 2d 5e 71 20 00 	lea    0x20715e(%rip),%rbp        # 615dc8 <__init_array_end>
  40ec6a:	53                   	push   %rbx
  40ec6b:	49 89 f6             	mov    %rsi,%r14
  40ec6e:	49 89 d5             	mov    %rdx,%r13
  40ec71:	4c 29 e5             	sub    %r12,%rbp
  40ec74:	48 83 ec 08          	sub    $0x8,%rsp
  40ec78:	48 c1 fd 03          	sar    $0x3,%rbp
  40ec7c:	e8 b7 3d ff ff       	callq  402a38 <_init>
  40ec81:	48 85 ed             	test   %rbp,%rbp
  40ec84:	74 20                	je     40eca6 <__libc_csu_init+0x56>
  40ec86:	31 db                	xor    %ebx,%ebx
  40ec88:	0f 1f 84 00 00 00 00 	nopl   0x0(%rax,%rax,1)
  40ec8f:	00 
  40ec90:	4c 89 ea             	mov    %r13,%rdx
  40ec93:	4c 89 f6             	mov    %r14,%rsi
  40ec96:	44 89 ff             	mov    %r15d,%edi
  40ec99:	41 ff 14 dc          	callq  *(%r12,%rbx,8)
  40ec9d:	48 83 c3 01          	add    $0x1,%rbx
  40eca1:	48 39 eb             	cmp    %rbp,%rbx
  40eca4:	75 ea                	jne    40ec90 <__libc_csu_init+0x40>
  40eca6:	48 83 c4 08          	add    $0x8,%rsp
  40ecaa:	5b                   	pop    %rbx
  40ecab:	5d                   	pop    %rbp
  40ecac:	41 5c                	pop    %r12
  40ecae:	41 5d                	pop    %r13
  40ecb0:	41 5e                	pop    %r14
  40ecb2:	41 5f                	pop    %r15
  40ecb4:	c3                   	retq   
  40ecb5:	90                   	nop
  40ecb6:	66 2e 0f 1f 84 00 00 	nopw   %cs:0x0(%rax,%rax,1)
  40ecbd:	00 00 00 

000000000040ecc0 <__libc_csu_fini>:
  40ecc0:	f3 c3                	repz retq 

Disassembly of section .fini:

000000000040ecc4 <_fini>:
  40ecc4:	48 83 ec 08          	sub    $0x8,%rsp
  40ecc8:	48 83 c4 08          	add    $0x8,%rsp
  40eccc:	c3                   	retq   
